
C:/pico/build-playground/scanvideo/sprite_demo/sprite_demo.elf:     file format elf32-littlearm

Sections:
Idx Name          Size      VMA       LMA       File off  Algn
  0 .text         0000492c  10000000  10000000  00001000  2**3
                  CONTENTS, ALLOC, LOAD, READONLY, CODE
  1 .rodata       00000c6c  10004930  10004930  00005930  2**3
                  CONTENTS, ALLOC, LOAD, READONLY, DATA
  2 .ARM.exidx    00000008  1000559c  1000559c  0000659c  2**2
                  CONTENTS, ALLOC, LOAD, READONLY, DATA
  3 .binary_info  00000038  100055a4  100055a4  000065a4  2**2
                  CONTENTS, ALLOC, LOAD, READONLY, DATA
  4 .ram_vector_table 00000110  20000000  20000000  0001a000  2**2
                  ALLOC
  5 .uninitialized_data 00000000  20000110  20000110  00019948  2**0
                  CONTENTS
  6 .data         00012358  20000110  100055dc  00007110  2**3
                  CONTENTS, ALLOC, LOAD, READONLY, CODE
  7 .tdata        00000000  20012468  20012468  00019948  2**0
                  CONTENTS, ALLOC, LOAD, DATA, THREAD_LOCAL
  8 .tbss         00000000  20012468  20012468  00000000  2**0
                  ALLOC, THREAD_LOCAL
  9 .bss          000007ac  20012468  10017934  0001a468  2**3
                  ALLOC
 10 .heap         00000800  20012c14  10017934  00019c14  2**2
                  ALLOC, READONLY
 11 .scratch_x    00000000  20080000  20080000  00019948  2**0
                  CONTENTS
 12 .scratch_y    00000000  20081000  20081000  00019948  2**0
                  CONTENTS
 13 .stack1_dummy 00000800  20080000  20080000  0001a000  2**2
                  ALLOC
 14 .stack_dummy  00000800  20081000  20081000  0001a000  2**5
                  ALLOC, READONLY
 15 .flash_end    00000014  10017934  10017934  00019934  2**2
                  CONTENTS, ALLOC, LOAD, READONLY, DATA
 16 .ARM.attributes 00000034  00000000  00000000  00019948  2**0
                  CONTENTS, READONLY
 17 .comment      00000049  00000000  00000000  0001997c  2**0
                  CONTENTS, READONLY
 18 .debug_info   0002d6a7  00000000  00000000  000199c5  2**0
                  CONTENTS, READONLY, DEBUGGING, OCTETS
 19 .debug_abbrev 00006dd1  00000000  00000000  0004706c  2**0
                  CONTENTS, READONLY, DEBUGGING, OCTETS
 20 .debug_loc    0001a159  00000000  00000000  0004de3d  2**0
                  CONTENTS, READONLY, DEBUGGING, OCTETS
 21 .debug_aranges 00001148  00000000  00000000  00067f98  2**3
                  CONTENTS, READONLY, DEBUGGING, OCTETS
 22 .debug_ranges 000076e8  00000000  00000000  000690e0  2**3
                  CONTENTS, READONLY, DEBUGGING, OCTETS
 23 .debug_line   00017592  00000000  00000000  000707c8  2**0
                  CONTENTS, READONLY, DEBUGGING, OCTETS
 24 .debug_str    00008631  00000000  00000000  00087d5a  2**0
                  CONTENTS, READONLY, DEBUGGING, OCTETS
 25 .debug_frame  00002e18  00000000  00000000  0009038c  2**2
                  CONTENTS, READONLY, DEBUGGING, OCTETS

C:/pico/build-playground/scanvideo/sprite_demo/sprite_demo.elf:     file format elf32-littlearm


Disassembly of section .text:

10000000 <__VECTOR_TABLE>:
10000000:	20082000 	.word	0x20082000
10000004:	1000015d 	.word	0x1000015d
10000008:	1000011b 	.word	0x1000011b
1000000c:	1000011d 	.word	0x1000011d
10000010:	10000111 	.word	0x10000111
10000014:	10000111 	.word	0x10000111
10000018:	10000111 	.word	0x10000111
1000001c:	10000111 	.word	0x10000111
10000020:	10000119 	.word	0x10000119
10000024:	10000119 	.word	0x10000119
10000028:	10000119 	.word	0x10000119
1000002c:	1000011f 	.word	0x1000011f
10000030:	10000111 	.word	0x10000111
10000034:	10000119 	.word	0x10000119
10000038:	10000121 	.word	0x10000121
1000003c:	10000123 	.word	0x10000123
10000040:	10000111 	.word	0x10000111
10000044:	10000111 	.word	0x10000111
10000048:	10000111 	.word	0x10000111
1000004c:	10000111 	.word	0x10000111
10000050:	10000111 	.word	0x10000111
10000054:	10000111 	.word	0x10000111
10000058:	10000111 	.word	0x10000111
1000005c:	10000111 	.word	0x10000111
10000060:	10000111 	.word	0x10000111
10000064:	10000111 	.word	0x10000111
10000068:	20000dfd 	.word	0x20000dfd
1000006c:	10000111 	.word	0x10000111
10000070:	10000111 	.word	0x10000111
10000074:	10000111 	.word	0x10000111
10000078:	10000111 	.word	0x10000111
1000007c:	200005e1 	.word	0x200005e1
10000080:	20000c8d 	.word	0x20000c8d
10000084:	10000111 	.word	0x10000111
10000088:	10000111 	.word	0x10000111
1000008c:	10000111 	.word	0x10000111
10000090:	10000111 	.word	0x10000111
10000094:	10000111 	.word	0x10000111
10000098:	10000111 	.word	0x10000111
1000009c:	10000111 	.word	0x10000111
100000a0:	10000111 	.word	0x10000111
100000a4:	10000111 	.word	0x10000111
100000a8:	10000111 	.word	0x10000111
100000ac:	10000111 	.word	0x10000111
100000b0:	10000111 	.word	0x10000111
100000b4:	10000111 	.word	0x10000111
100000b8:	10000111 	.word	0x10000111
100000bc:	10000111 	.word	0x10000111
100000c0:	10000111 	.word	0x10000111
100000c4:	10000111 	.word	0x10000111
100000c8:	10000111 	.word	0x10000111
100000cc:	10000111 	.word	0x10000111
100000d0:	10000111 	.word	0x10000111
100000d4:	10000111 	.word	0x10000111
100000d8:	10000111 	.word	0x10000111
100000dc:	10000111 	.word	0x10000111
100000e0:	10000111 	.word	0x10000111
100000e4:	10000111 	.word	0x10000111
100000e8:	10000111 	.word	0x10000111
100000ec:	10000111 	.word	0x10000111
100000f0:	10000111 	.word	0x10000111
100000f4:	10000111 	.word	0x10000111
100000f8:	10000111 	.word	0x10000111
100000fc:	10000111 	.word	0x10000111
10000100:	10000111 	.word	0x10000111
10000104:	10000111 	.word	0x10000111
10000108:	10000111 	.word	0x10000111
1000010c:	10000111 	.word	0x10000111

10000110 <__unhandled_user_irq>:
10000110:	f3ef 8005 	mrs	r0, IPSR
10000114:	3810      	subs	r0, #16

10000116 <unhandled_user_irq_num_in_r0>:
10000116:	be00      	bkpt	0x0000

10000118 <isr_invalid>:
10000118:	be00      	bkpt	0x0000

1000011a <isr_nmi>:
1000011a:	be00      	bkpt	0x0000

1000011c <isr_hardfault>:
1000011c:	be00      	bkpt	0x0000

1000011e <isr_svcall>:
1000011e:	be00      	bkpt	0x0000

10000120 <isr_pendsv>:
10000120:	be00      	bkpt	0x0000

10000122 <isr_systick>:
10000122:	be00      	bkpt	0x0000

10000124 <__default_isrs_end>:
10000124:	7188ebf2 	.word	0x7188ebf2
10000128:	100055a4 	.word	0x100055a4
1000012c:	100055dc 	.word	0x100055dc
10000130:	100001a0 	.word	0x100001a0
10000134:	e71aa390 	.word	0xe71aa390

10000138 <__binary_info_header_end>:
10000138:	ffffded3 	.word	0xffffded3
1000013c:	10210142 	.word	0x10210142
10000140:	000001ff 	.word	0x000001ff
10000144:	000177fc 	.word	0x000177fc
10000148:	ab123579 	.word	0xab123579

1000014c <_entry_point>:
1000014c:	f04f 0000 	mov.w	r0, #0

10000150 <_enter_vtable_in_r0>:
10000150:	491e      	ldr	r1, [pc, #120]	; (100001cc <data_cpy_table+0x2c>)
10000152:	6008      	str	r0, [r1, #0]
10000154:	c806      	ldmia	r0!, {r1, r2}
10000156:	f381 8808 	msr	MSP, r1
1000015a:	4710      	bx	r2

1000015c <_reset_handler>:
1000015c:	f04f 4050 	mov.w	r0, #3489660928	; 0xd0000000
10000160:	6800      	ldr	r0, [r0, #0]
10000162:	b110      	cbz	r0, 1000016a <hold_non_core0_in_bootrom+0x6>

10000164 <hold_non_core0_in_bootrom>:
10000164:	f04f 0000 	mov.w	r0, #0
10000168:	e7f2      	b.n	10000150 <_enter_vtable_in_r0>
1000016a:	a40d      	add	r4, pc, #52	; (adr r4, 100001a0 <data_cpy_table>)
1000016c:	cc0e      	ldmia	r4!, {r1, r2, r3}
1000016e:	2900      	cmp	r1, #0
10000170:	d002      	beq.n	10000178 <hold_non_core0_in_bootrom+0x14>
10000172:	f000 f812 	bl	1000019a <data_cpy>
10000176:	e7f9      	b.n	1000016c <hold_non_core0_in_bootrom+0x8>
10000178:	4915      	ldr	r1, [pc, #84]	; (100001d0 <data_cpy_table+0x30>)
1000017a:	4a16      	ldr	r2, [pc, #88]	; (100001d4 <data_cpy_table+0x34>)
1000017c:	2000      	movs	r0, #0
1000017e:	e000      	b.n	10000182 <bss_fill_test>

10000180 <bss_fill_loop>:
10000180:	c101      	stmia	r1!, {r0}

10000182 <bss_fill_test>:
10000182:	4291      	cmp	r1, r2
10000184:	d1fc      	bne.n	10000180 <bss_fill_loop>

10000186 <platform_entry>:
10000186:	4914      	ldr	r1, [pc, #80]	; (100001d8 <data_cpy_table+0x38>)
10000188:	4788      	blx	r1
1000018a:	4914      	ldr	r1, [pc, #80]	; (100001dc <data_cpy_table+0x3c>)
1000018c:	4788      	blx	r1
1000018e:	4914      	ldr	r1, [pc, #80]	; (100001e0 <data_cpy_table+0x40>)
10000190:	4788      	blx	r1
10000192:	be00      	bkpt	0x0000
10000194:	e7fd      	b.n	10000192 <platform_entry+0xc>

10000196 <data_cpy_loop>:
10000196:	c901      	ldmia	r1!, {r0}
10000198:	c201      	stmia	r2!, {r0}

1000019a <data_cpy>:
1000019a:	429a      	cmp	r2, r3
1000019c:	d3fb      	bcc.n	10000196 <data_cpy_loop>
1000019e:	4770      	bx	lr

100001a0 <data_cpy_table>:
100001a0:	100055dc 	.word	0x100055dc
100001a4:	20000110 	.word	0x20000110
100001a8:	20012468 	.word	0x20012468
100001ac:	10017934 	.word	0x10017934
100001b0:	20080000 	.word	0x20080000
100001b4:	20080000 	.word	0x20080000
100001b8:	10017934 	.word	0x10017934
100001bc:	20081000 	.word	0x20081000
100001c0:	20081000 	.word	0x20081000
100001c4:	00000000 	.word	0x00000000
100001c8:	4770      	bx	lr
100001ca:	0000      	.short	0x0000
100001cc:	e000ed08 	.word	0xe000ed08
100001d0:	20012468 	.word	0x20012468
100001d4:	20012c14 	.word	0x20012c14
100001d8:	10002efd 	.word	0x10002efd
100001dc:	10000299 	.word	0x10000299
100001e0:	10002ebd 	.word	0x10002ebd

100001e4 <_init>:
100001e4:	b5f8      	push	{r3, r4, r5, r6, r7, lr}
100001e6:	bf00      	nop

100001e8 <__do_global_dtors_aux>:
100001e8:	b510      	push	{r4, lr}
100001ea:	4c05      	ldr	r4, [pc, #20]	; (10000200 <__do_global_dtors_aux+0x18>)
100001ec:	7823      	ldrb	r3, [r4, #0]
100001ee:	b933      	cbnz	r3, 100001fe <__do_global_dtors_aux+0x16>
100001f0:	4b04      	ldr	r3, [pc, #16]	; (10000204 <__do_global_dtors_aux+0x1c>)
100001f2:	b113      	cbz	r3, 100001fa <__do_global_dtors_aux+0x12>
100001f4:	4804      	ldr	r0, [pc, #16]	; (10000208 <__do_global_dtors_aux+0x20>)
100001f6:	e000      	b.n	100001fa <__do_global_dtors_aux+0x12>
100001f8:	bf00      	nop
100001fa:	2301      	movs	r3, #1
100001fc:	7023      	strb	r3, [r4, #0]
100001fe:	bd10      	pop	{r4, pc}
10000200:	200125e8 	.word	0x200125e8
10000204:	00000000 	.word	0x00000000
10000208:	1000492c 	.word	0x1000492c

1000020c <frame_dummy>:
1000020c:	b508      	push	{r3, lr}
1000020e:	4b03      	ldr	r3, [pc, #12]	; (1000021c <frame_dummy+0x10>)
10000210:	b11b      	cbz	r3, 1000021a <frame_dummy+0xe>
10000212:	4903      	ldr	r1, [pc, #12]	; (10000220 <frame_dummy+0x14>)
10000214:	4803      	ldr	r0, [pc, #12]	; (10000224 <frame_dummy+0x18>)
10000216:	e000      	b.n	1000021a <frame_dummy+0xe>
10000218:	bf00      	nop
1000021a:	bd08      	pop	{r3, pc}
1000021c:	00000000 	.word	0x00000000
10000220:	200125ec 	.word	0x200125ec
10000224:	1000492c 	.word	0x1000492c

10000228 <core1_func>:
10000228:	b508      	push	{r3, lr}
1000022a:	4802      	ldr	r0, [pc, #8]	; (10000234 <core1_func+0xc>)
1000022c:	f004 fb3c 	bl	100048a8 <__sem_acquire_blocking_veneer>
10000230:	f004 fb4a 	bl	100048c8 <__render_loop_veneer>
10000234:	20012a8c 	.word	0x20012a8c

10000238 <vga_main>:
10000238:	b508      	push	{r3, lr}
1000023a:	4810      	ldr	r0, [pc, #64]	; (1000027c <vga_main+0x44>)
1000023c:	f000 f97e 	bl	1000053c <mutex_init>
10000240:	2201      	movs	r2, #1
10000242:	2100      	movs	r1, #0
10000244:	480e      	ldr	r0, [pc, #56]	; (10000280 <vga_main+0x48>)
10000246:	f000 f963 	bl	10000510 <sem_init>
1000024a:	480e      	ldr	r0, [pc, #56]	; (10000284 <vga_main+0x4c>)
1000024c:	f000 f94e 	bl	100004ec <multicore_launch_core1>
10000250:	4b0d      	ldr	r3, [pc, #52]	; (10000288 <vga_main+0x50>)
10000252:	891b      	ldrh	r3, [r3, #8]
10000254:	f5b3 7f79 	cmp.w	r3, #996	; 0x3e4
10000258:	d905      	bls.n	10000266 <vga_main+0x2e>
1000025a:	4b0c      	ldr	r3, [pc, #48]	; (1000028c <vga_main+0x54>)
1000025c:	4a0c      	ldr	r2, [pc, #48]	; (10000290 <vga_main+0x58>)
1000025e:	2155      	movs	r1, #85	; 0x55
10000260:	480c      	ldr	r0, [pc, #48]	; (10000294 <vga_main+0x5c>)
10000262:	f002 fe2f 	bl	10002ec4 <__assert_func>
10000266:	4808      	ldr	r0, [pc, #32]	; (10000288 <vga_main+0x50>)
10000268:	f003 fb62 	bl	10003930 <scanvideo_setup>
1000026c:	2001      	movs	r0, #1
1000026e:	f003 fb63 	bl	10003938 <scanvideo_timing_enable>
10000272:	4803      	ldr	r0, [pc, #12]	; (10000280 <vga_main+0x48>)
10000274:	f004 fb00 	bl	10004878 <__sem_release_veneer>
10000278:	f004 fb26 	bl	100048c8 <__render_loop_veneer>
1000027c:	200128f4 	.word	0x200128f4
10000280:	20012a8c 	.word	0x20012a8c
10000284:	10000229 	.word	0x10000229
10000288:	1000556c 	.word	0x1000556c
1000028c:	100049c4 	.word	0x100049c4
10000290:	10004a3c 	.word	0x10004a3c
10000294:	1000493c 	.word	0x1000493c

10000298 <main>:
10000298:	b530      	push	{r4, r5, lr}
1000029a:	b085      	sub	sp, #20
1000029c:	ab03      	add	r3, sp, #12
1000029e:	aa02      	add	r2, sp, #8
100002a0:	a901      	add	r1, sp, #4
100002a2:	4845      	ldr	r0, [pc, #276]	; (100003b8 <main+0x120>)
100002a4:	f001 f978 	bl	10001598 <check_sys_clock_khz>
100002a8:	b918      	cbnz	r0, 100002b2 <main+0x1a>
100002aa:	4943      	ldr	r1, [pc, #268]	; (100003b8 <main+0x120>)
100002ac:	4843      	ldr	r0, [pc, #268]	; (100003bc <main+0x124>)
100002ae:	f000 fd41 	bl	10000d34 <panic>
100002b2:	9a03      	ldr	r2, [sp, #12]
100002b4:	9902      	ldr	r1, [sp, #8]
100002b6:	9801      	ldr	r0, [sp, #4]
100002b8:	f001 f93c 	bl	10001534 <set_sys_clock_pll>
100002bc:	f000 fffe 	bl	100012bc <setup_default_uart>
100002c0:	2017      	movs	r0, #23
100002c2:	f001 f81b 	bl	100012fc <gpio_init>
100002c6:	2317      	movs	r3, #23
100002c8:	2201      	movs	r2, #1
100002ca:	ec42 3044 	gpioc_bit_oe_put r3, r2
100002ce:	ec42 3040 	gpioc_bit_out_put r3, r2
100002d2:	f06f 0163 	mvn.w	r1, #99	; 0x63
100002d6:	4b3a      	ldr	r3, [pc, #232]	; (100003c0 <main+0x128>)
100002d8:	6019      	str	r1, [r3, #0]
100002da:	4a3a      	ldr	r2, [pc, #232]	; (100003c4 <main+0x12c>)
100002dc:	8913      	ldrh	r3, [r2, #8]
100002de:	3b1e      	subs	r3, #30
100002e0:	4839      	ldr	r0, [pc, #228]	; (100003c8 <main+0x130>)
100002e2:	6003      	str	r3, [r0, #0]
100002e4:	4b39      	ldr	r3, [pc, #228]	; (100003cc <main+0x134>)
100002e6:	6019      	str	r1, [r3, #0]
100002e8:	8953      	ldrh	r3, [r2, #10]
100002ea:	3b1e      	subs	r3, #30
100002ec:	4a38      	ldr	r2, [pc, #224]	; (100003d0 <main+0x138>)
100002ee:	6013      	str	r3, [r2, #0]
100002f0:	2500      	movs	r5, #0
100002f2:	e00a      	b.n	1000030a <main+0x72>
100002f4:	f04f 33ff 	mov.w	r3, #4294967295
100002f8:	e043      	b.n	10000382 <main+0xea>
100002fa:	f04f 33ff 	mov.w	r3, #4294967295
100002fe:	fb04 f303 	mul.w	r3, r4, r3
10000302:	4a34      	ldr	r2, [pc, #208]	; (100003d4 <main+0x13c>)
10000304:	f842 3025 	str.w	r3, [r2, r5, lsl #2]
10000308:	3501      	adds	r5, #1
1000030a:	2d2c      	cmp	r5, #44	; 0x2c
1000030c:	dc51      	bgt.n	100003b2 <main+0x11a>
1000030e:	f004 f8f9 	bl	10004504 <rand>
10000312:	4b2b      	ldr	r3, [pc, #172]	; (100003c0 <main+0x128>)
10000314:	681a      	ldr	r2, [r3, #0]
10000316:	4b2c      	ldr	r3, [pc, #176]	; (100003c8 <main+0x130>)
10000318:	681b      	ldr	r3, [r3, #0]
1000031a:	1a9b      	subs	r3, r3, r2
1000031c:	3301      	adds	r3, #1
1000031e:	fb90 f1f3 	sdiv	r1, r0, r3
10000322:	fb03 0011 	mls	r0, r3, r1, r0
10000326:	1a80      	subs	r0, r0, r2
10000328:	4b2b      	ldr	r3, [pc, #172]	; (100003d8 <main+0x140>)
1000032a:	eb05 0245 	add.w	r2, r5, r5, lsl #1
1000032e:	eb03 0482 	add.w	r4, r3, r2, lsl #2
10000332:	f823 0022 	strh.w	r0, [r3, r2, lsl #2]
10000336:	f004 f8e5 	bl	10004504 <rand>
1000033a:	4b24      	ldr	r3, [pc, #144]	; (100003cc <main+0x134>)
1000033c:	681a      	ldr	r2, [r3, #0]
1000033e:	4b24      	ldr	r3, [pc, #144]	; (100003d0 <main+0x138>)
10000340:	681b      	ldr	r3, [r3, #0]
10000342:	1a9b      	subs	r3, r3, r2
10000344:	3301      	adds	r3, #1
10000346:	fb90 f1f3 	sdiv	r1, r0, r3
1000034a:	fb03 0011 	mls	r0, r3, r1, r0
1000034e:	1a80      	subs	r0, r0, r2
10000350:	8060      	strh	r0, [r4, #2]
10000352:	4b22      	ldr	r3, [pc, #136]	; (100003dc <main+0x144>)
10000354:	6063      	str	r3, [r4, #4]
10000356:	2307      	movs	r3, #7
10000358:	7223      	strb	r3, [r4, #8]
1000035a:	2301      	movs	r3, #1
1000035c:	7263      	strb	r3, [r4, #9]
1000035e:	f004 f8d1 	bl	10004504 <rand>
10000362:	4a1f      	ldr	r2, [pc, #124]	; (100003e0 <main+0x148>)
10000364:	fb82 3200 	smull	r3, r2, r2, r0
10000368:	17c3      	asrs	r3, r0, #31
1000036a:	ebc3 0362 	rsb	r3, r3, r2, asr #1
1000036e:	eb03 0383 	add.w	r3, r3, r3, lsl #2
10000372:	1ac3      	subs	r3, r0, r3
10000374:	1c5c      	adds	r4, r3, #1
10000376:	f004 f8c5 	bl	10004504 <rand>
1000037a:	f410 4f00 	tst.w	r0, #32768	; 0x8000
1000037e:	d0b9      	beq.n	100002f4 <main+0x5c>
10000380:	2301      	movs	r3, #1
10000382:	fb04 f303 	mul.w	r3, r4, r3
10000386:	4a17      	ldr	r2, [pc, #92]	; (100003e4 <main+0x14c>)
10000388:	f842 3025 	str.w	r3, [r2, r5, lsl #2]
1000038c:	f004 f8ba 	bl	10004504 <rand>
10000390:	4a13      	ldr	r2, [pc, #76]	; (100003e0 <main+0x148>)
10000392:	fb82 3200 	smull	r3, r2, r2, r0
10000396:	17c3      	asrs	r3, r0, #31
10000398:	ebc3 0362 	rsb	r3, r3, r2, asr #1
1000039c:	eb03 0383 	add.w	r3, r3, r3, lsl #2
100003a0:	1ac3      	subs	r3, r0, r3
100003a2:	1c5c      	adds	r4, r3, #1
100003a4:	f004 f8ae 	bl	10004504 <rand>
100003a8:	f410 4f00 	tst.w	r0, #32768	; 0x8000
100003ac:	d0a5      	beq.n	100002fa <main+0x62>
100003ae:	2301      	movs	r3, #1
100003b0:	e7a5      	b.n	100002fe <main+0x66>
100003b2:	f7ff ff41 	bl	10000238 <vga_main>
100003b6:	bf00      	nop
100003b8:	00030d40 	.word	0x00030d40
100003bc:	10004a08 	.word	0x10004a08
100003c0:	20012c00 	.word	0x20012c00
100003c4:	1000556c 	.word	0x1000556c
100003c8:	20012bfc 	.word	0x20012bfc
100003cc:	20012c08 	.word	0x20012c08
100003d0:	20012c04 	.word	0x20012c04
100003d4:	20012b48 	.word	0x20012b48
100003d8:	20012684 	.word	0x20012684
100003dc:	20009990 	.word	0x20009990
100003e0:	66666667 	.word	0x66666667
100003e4:	20012a94 	.word	0x20012a94

100003e8 <core1_trampoline>:
100003e8:	bd03      	pop	{r0, r1, pc}

100003ea <core1_wrapper>:
100003ea:	b510      	push	{r4, lr}
100003ec:	4604      	mov	r4, r0
100003ee:	f001 f9f7 	bl	100017e0 <runtime_run_per_core_initializers>
100003f2:	47a0      	blx	r4
100003f4:	bd10      	pop	{r4, pc}

100003f6 <multicore_fifo_push_blocking>:
100003f6:	f04f 4350 	mov.w	r3, #3489660928	; 0xd0000000
100003fa:	6d1b      	ldr	r3, [r3, #80]	; 0x50
100003fc:	f013 0f02 	tst.w	r3, #2
10000400:	d0f9      	beq.n	100003f6 <multicore_fifo_push_blocking>
10000402:	f04f 4350 	mov.w	r3, #3489660928	; 0xd0000000
10000406:	6558      	str	r0, [r3, #84]	; 0x54
10000408:	bf40      	sev
1000040a:	4770      	bx	lr

1000040c <multicore_fifo_pop_blocking>:
1000040c:	e000      	b.n	10000410 <multicore_fifo_pop_blocking+0x4>
1000040e:	bf20      	wfe
10000410:	f04f 4350 	mov.w	r3, #3489660928	; 0xd0000000
10000414:	6d1b      	ldr	r3, [r3, #80]	; 0x50
10000416:	f013 0f01 	tst.w	r3, #1
1000041a:	d0f8      	beq.n	1000040e <multicore_fifo_pop_blocking+0x2>
1000041c:	f04f 4350 	mov.w	r3, #3489660928	; 0xd0000000
10000420:	6d98      	ldr	r0, [r3, #88]	; 0x58
10000422:	4770      	bx	lr

10000424 <multicore_launch_core1_raw>:
10000424:	e92d 41f0 	stmdb	sp!, {r4, r5, r6, r7, r8, lr}
10000428:	b086      	sub	sp, #24
1000042a:	4604      	mov	r4, r0
1000042c:	460f      	mov	r7, r1
1000042e:	4690      	mov	r8, r2
10000430:	2019      	movs	r0, #25
10000432:	f000 fd69 	bl	10000f08 <irq_is_enabled>
10000436:	4606      	mov	r6, r0
10000438:	2100      	movs	r1, #0
1000043a:	2019      	movs	r0, #25
1000043c:	f000 fd90 	bl	10000f60 <irq_set_enabled>
10000440:	2500      	movs	r5, #0
10000442:	9500      	str	r5, [sp, #0]
10000444:	9501      	str	r5, [sp, #4]
10000446:	2301      	movs	r3, #1
10000448:	9302      	str	r3, [sp, #8]
1000044a:	f8cd 800c 	str.w	r8, [sp, #12]
1000044e:	9704      	str	r7, [sp, #16]
10000450:	9405      	str	r4, [sp, #20]
10000452:	e000      	b.n	10000456 <multicore_launch_core1_raw+0x32>
10000454:	2500      	movs	r5, #0
10000456:	ab06      	add	r3, sp, #24
10000458:	eb03 0385 	add.w	r3, r3, r5, lsl #2
1000045c:	f853 4c18 	ldr.w	r4, [r3, #-24]
10000460:	b19c      	cbz	r4, 1000048a <multicore_launch_core1_raw+0x66>
10000462:	4620      	mov	r0, r4
10000464:	f7ff ffc7 	bl	100003f6 <multicore_fifo_push_blocking>
10000468:	f7ff ffd0 	bl	1000040c <multicore_fifo_pop_blocking>
1000046c:	4284      	cmp	r4, r0
1000046e:	d1f1      	bne.n	10000454 <multicore_launch_core1_raw+0x30>
10000470:	3501      	adds	r5, #1
10000472:	2d05      	cmp	r5, #5
10000474:	d9ef      	bls.n	10000456 <multicore_launch_core1_raw+0x32>
10000476:	4631      	mov	r1, r6
10000478:	2019      	movs	r0, #25
1000047a:	f000 fd71 	bl	10000f60 <irq_set_enabled>
1000047e:	b006      	add	sp, #24
10000480:	e8bd 81f0 	ldmia.w	sp!, {r4, r5, r6, r7, r8, pc}
10000484:	f04f 4350 	mov.w	r3, #3489660928	; 0xd0000000
10000488:	6d9b      	ldr	r3, [r3, #88]	; 0x58
1000048a:	f04f 4350 	mov.w	r3, #3489660928	; 0xd0000000
1000048e:	6d1b      	ldr	r3, [r3, #80]	; 0x50
10000490:	f013 0f01 	tst.w	r3, #1
10000494:	d1f6      	bne.n	10000484 <multicore_launch_core1_raw+0x60>
10000496:	bf40      	sev
10000498:	e7e3      	b.n	10000462 <multicore_launch_core1_raw+0x3e>
	...

1000049c <multicore_launch_core1_with_stack>:
1000049c:	b508      	push	{r3, lr}
1000049e:	f012 0f03 	tst.w	r2, #3
100004a2:	d111      	bne.n	100004c8 <multicore_launch_core1_with_stack+0x2c>
100004a4:	f022 0203 	bic.w	r2, r2, #3
100004a8:	188b      	adds	r3, r1, r2
100004aa:	4a0a      	ldr	r2, [pc, #40]	; (100004d4 <multicore_launch_core1_with_stack+0x38>)
100004ac:	6892      	ldr	r2, [r2, #8]
100004ae:	f843 0c0c 	str.w	r0, [r3, #-12]
100004b2:	f843 1c08 	str.w	r1, [r3, #-8]
100004b6:	4908      	ldr	r1, [pc, #32]	; (100004d8 <multicore_launch_core1_with_stack+0x3c>)
100004b8:	f843 1c04 	str.w	r1, [r3, #-4]
100004bc:	f1a3 010c 	sub.w	r1, r3, #12
100004c0:	4806      	ldr	r0, [pc, #24]	; (100004dc <multicore_launch_core1_with_stack+0x40>)
100004c2:	f7ff ffaf 	bl	10000424 <multicore_launch_core1_raw>
100004c6:	bd08      	pop	{r3, pc}
100004c8:	4b05      	ldr	r3, [pc, #20]	; (100004e0 <multicore_launch_core1_with_stack+0x44>)
100004ca:	4a06      	ldr	r2, [pc, #24]	; (100004e4 <multicore_launch_core1_with_stack+0x48>)
100004cc:	218e      	movs	r1, #142	; 0x8e
100004ce:	4806      	ldr	r0, [pc, #24]	; (100004e8 <multicore_launch_core1_with_stack+0x4c>)
100004d0:	f002 fcf8 	bl	10002ec4 <__assert_func>
100004d4:	e000ed00 	.word	0xe000ed00
100004d8:	100003eb 	.word	0x100003eb
100004dc:	100003e9 	.word	0x100003e9
100004e0:	10004ac4 	.word	0x10004ac4
100004e4:	10004ae0 	.word	0x10004ae0
100004e8:	10004a88 	.word	0x10004a88

100004ec <multicore_launch_core1>:
100004ec:	b508      	push	{r3, lr}
100004ee:	4a06      	ldr	r2, [pc, #24]	; (10000508 <multicore_launch_core1+0x1c>)
100004f0:	4b06      	ldr	r3, [pc, #24]	; (1000050c <multicore_launch_core1+0x20>)
100004f2:	429a      	cmp	r2, r3
100004f4:	d805      	bhi.n	10000502 <multicore_launch_core1+0x16>
100004f6:	4619      	mov	r1, r3
100004f8:	f44f 6200 	mov.w	r2, #2048	; 0x800
100004fc:	f7ff ffce 	bl	1000049c <multicore_launch_core1_with_stack>
10000500:	bd08      	pop	{r3, pc}
10000502:	f04f 31ff 	mov.w	r1, #4294967295
10000506:	e7f7      	b.n	100004f8 <multicore_launch_core1+0xc>
10000508:	20080000 	.word	0x20080000
1000050c:	20080800 	.word	0x20080800

10000510 <sem_init>:
10000510:	b570      	push	{r4, r5, r6, lr}
10000512:	4604      	mov	r4, r0
10000514:	460e      	mov	r6, r1
10000516:	4615      	mov	r5, r2
10000518:	f000 fc5a 	bl	10000dd0 <next_striped_spin_lock_num>
1000051c:	4601      	mov	r1, r0
1000051e:	4620      	mov	r0, r4
10000520:	f000 f806 	bl	10000530 <lock_init>
10000524:	80a6      	strh	r6, [r4, #4]
10000526:	80e5      	strh	r5, [r4, #6]
10000528:	f3bf 8f5f 	dmb	sy
1000052c:	bd70      	pop	{r4, r5, r6, pc}
	...

10000530 <lock_init>:
10000530:	4b01      	ldr	r3, [pc, #4]	; (10000538 <lock_init+0x8>)
10000532:	440b      	add	r3, r1
10000534:	6003      	str	r3, [r0, #0]
10000536:	4770      	bx	lr
10000538:	20012658 	.word	0x20012658

1000053c <mutex_init>:
1000053c:	b510      	push	{r4, lr}
1000053e:	4604      	mov	r4, r0
10000540:	f000 fc46 	bl	10000dd0 <next_striped_spin_lock_num>
10000544:	4601      	mov	r1, r0
10000546:	4620      	mov	r0, r4
10000548:	f7ff fff2 	bl	10000530 <lock_init>
1000054c:	23ff      	movs	r3, #255	; 0xff
1000054e:	7123      	strb	r3, [r4, #4]
10000550:	f3bf 8f5f 	dmb	sy
10000554:	bd10      	pop	{r4, pc}

10000556 <recursive_mutex_init>:
10000556:	b510      	push	{r4, lr}
10000558:	4604      	mov	r4, r0
1000055a:	f000 fc39 	bl	10000dd0 <next_striped_spin_lock_num>
1000055e:	4601      	mov	r1, r0
10000560:	4620      	mov	r0, r4
10000562:	f7ff ffe5 	bl	10000530 <lock_init>
10000566:	23ff      	movs	r3, #255	; 0xff
10000568:	7123      	strb	r3, [r4, #4]
1000056a:	2300      	movs	r3, #0
1000056c:	7163      	strb	r3, [r4, #5]
1000056e:	f3bf 8f5f 	dmb	sy
10000572:	bd10      	pop	{r4, pc}

10000574 <runtime_init_mutex>:
10000574:	b510      	push	{r4, lr}
10000576:	4c0d      	ldr	r4, [pc, #52]	; (100005ac <runtime_init_mutex+0x38>)
10000578:	e009      	b.n	1000058e <runtime_init_mutex+0x1a>
1000057a:	4b0d      	ldr	r3, [pc, #52]	; (100005b0 <runtime_init_mutex+0x3c>)
1000057c:	4a0d      	ldr	r2, [pc, #52]	; (100005b4 <runtime_init_mutex+0x40>)
1000057e:	211a      	movs	r1, #26
10000580:	480d      	ldr	r0, [pc, #52]	; (100005b8 <runtime_init_mutex+0x44>)
10000582:	f002 fc9f 	bl	10002ec4 <__assert_func>
10000586:	4620      	mov	r0, r4
10000588:	f7ff ffd8 	bl	1000053c <mutex_init>
1000058c:	3408      	adds	r4, #8
1000058e:	4b0b      	ldr	r3, [pc, #44]	; (100005bc <runtime_init_mutex+0x48>)
10000590:	429c      	cmp	r4, r3
10000592:	d209      	bcs.n	100005a8 <runtime_init_mutex+0x34>
10000594:	6823      	ldr	r3, [r4, #0]
10000596:	2b00      	cmp	r3, #0
10000598:	d0f5      	beq.n	10000586 <runtime_init_mutex+0x12>
1000059a:	2b01      	cmp	r3, #1
1000059c:	d1ed      	bne.n	1000057a <runtime_init_mutex+0x6>
1000059e:	4620      	mov	r0, r4
100005a0:	f7ff ffd9 	bl	10000556 <recursive_mutex_init>
100005a4:	3408      	adds	r4, #8
100005a6:	e7f2      	b.n	1000058e <runtime_init_mutex+0x1a>
100005a8:	bd10      	pop	{r4, pc}
100005aa:	bf00      	nop
100005ac:	20012458 	.word	0x20012458
100005b0:	10004b04 	.word	0x10004b04
100005b4:	10004bcc 	.word	0x10004bcc
100005b8:	10004b24 	.word	0x10004b24
100005bc:	20012468 	.word	0x20012468

100005c0 <make_alarm_id>:
100005c0:	ea41 4000 	orr.w	r0, r1, r0, lsl #16
100005c4:	4770      	bx	lr
	...

100005c8 <sleep_until_callback>:
100005c8:	4b0d      	ldr	r3, [pc, #52]	; (10000600 <sleep_until_callback+0x38>)
100005ca:	681a      	ldr	r2, [r3, #0]
100005cc:	f3ef 8110 	mrs	r1, PRIMASK
100005d0:	b672      	cpsid	i
100005d2:	e8d2 cfcf 	ldaexb	ip, [r2]
100005d6:	2001      	movs	r0, #1
100005d8:	f1bc 0f00 	cmp.w	ip, #0
100005dc:	d1f9      	bne.n	100005d2 <sleep_until_callback+0xa>
100005de:	e8c2 0f4c 	strexb	ip, r0, [r2]
100005e2:	f1bc 0f00 	cmp.w	ip, #0
100005e6:	d1f4      	bne.n	100005d2 <sleep_until_callback+0xa>
100005e8:	f3bf 8f5f 	dmb	sy
100005ec:	681a      	ldr	r2, [r3, #0]
100005ee:	2300      	movs	r3, #0
100005f0:	e8c2 3f8f 	stlb	r3, [r2]
100005f4:	f381 8810 	msr	PRIMASK, r1
100005f8:	bf40      	sev
100005fa:	2000      	movs	r0, #0
100005fc:	2100      	movs	r1, #0
100005fe:	4770      	bx	lr
10000600:	20012a28 	.word	0x20012a28

10000604 <alarm_pool_irq_handler>:
10000604:	e92d 4ff0 	stmdb	sp!, {r4, r5, r6, r7, r8, r9, sl, fp, lr}
10000608:	b085      	sub	sp, #20
1000060a:	f3ef 8705 	mrs	r7, IPSR
1000060e:	b2ff      	uxtb	r7, r7
10000610:	3f10      	subs	r7, #16
10000612:	08bb      	lsrs	r3, r7, #2
10000614:	d015      	beq.n	10000642 <alarm_pool_irq_handler+0x3e>
10000616:	4d96      	ldr	r5, [pc, #600]	; (10000870 <alarm_pool_irq_handler+0x26c>)
10000618:	f007 0703 	and.w	r7, r7, #3
1000061c:	4b94      	ldr	r3, [pc, #592]	; (10000870 <alarm_pool_irq_handler+0x26c>)
1000061e:	429d      	cmp	r5, r3
10000620:	bf14      	ite	ne
10000622:	2300      	movne	r3, #0
10000624:	2301      	moveq	r3, #1
10000626:	eb07 0383 	add.w	r3, r7, r3, lsl #2
1000062a:	4a92      	ldr	r2, [pc, #584]	; (10000874 <alarm_pool_irq_handler+0x270>)
1000062c:	f852 4023 	ldr.w	r4, [r2, r3, lsl #2]
10000630:	7823      	ldrb	r3, [r4, #0]
10000632:	42bb      	cmp	r3, r7
10000634:	d107      	bne.n	10000646 <alarm_pool_irq_handler+0x42>
10000636:	2201      	movs	r2, #1
10000638:	40ba      	lsls	r2, r7
1000063a:	f505 5341 	add.w	r3, r5, #12352	; 0x3040
1000063e:	605a      	str	r2, [r3, #4]
10000640:	e131      	b.n	100008a6 <alarm_pool_irq_handler+0x2a2>
10000642:	4d8d      	ldr	r5, [pc, #564]	; (10000878 <alarm_pool_irq_handler+0x274>)
10000644:	e7e8      	b.n	10000618 <alarm_pool_irq_handler+0x14>
10000646:	4b8d      	ldr	r3, [pc, #564]	; (1000087c <alarm_pool_irq_handler+0x278>)
10000648:	4a8d      	ldr	r2, [pc, #564]	; (10000880 <alarm_pool_irq_handler+0x27c>)
1000064a:	2192      	movs	r1, #146	; 0x92
1000064c:	488d      	ldr	r0, [pc, #564]	; (10000884 <alarm_pool_irq_handler+0x280>)
1000064e:	f002 fc39 	bl	10002ec4 <__assert_func>
10000652:	f8d4 a014 	ldr.w	sl, [r4, #20]
10000656:	eb06 0846 	add.w	r8, r6, r6, lsl #1
1000065a:	ea4f 0bc8 	mov.w	fp, r8, lsl #3
1000065e:	eb0a 08c8 	add.w	r8, sl, r8, lsl #3
10000662:	f8d8 3008 	ldr.w	r3, [r8, #8]
10000666:	9301      	str	r3, [sp, #4]
10000668:	f8d8 900c 	ldr.w	r9, [r8, #12]
1000066c:	4628      	mov	r0, r5
1000066e:	f000 fb25 	bl	10000cbc <timer_time_us_64>
10000672:	9b01      	ldr	r3, [sp, #4]
10000674:	1ac0      	subs	r0, r0, r3
10000676:	eb61 0309 	sbc.w	r3, r1, r9
1000067a:	2b00      	cmp	r3, #0
1000067c:	f2c0 811b 	blt.w	100008b6 <alarm_pool_irq_handler+0x2b2>
10000680:	f1b9 0f00 	cmp.w	r9, #0
10000684:	db65      	blt.n	10000752 <alarm_pool_irq_handler+0x14e>
10000686:	f8d8 3010 	ldr.w	r3, [r8, #16]
1000068a:	461a      	mov	r2, r3
1000068c:	9302      	str	r3, [sp, #8]
1000068e:	4b7e      	ldr	r3, [pc, #504]	; (10000888 <alarm_pool_irq_handler+0x284>)
10000690:	429a      	cmp	r2, r3
10000692:	d032      	beq.n	100006fa <alarm_pool_irq_handler+0xf6>
10000694:	f8b8 1002 	ldrh.w	r1, [r8, #2]
10000698:	b289      	uxth	r1, r1
1000069a:	f9b4 0008 	ldrsh.w	r0, [r4, #8]
1000069e:	f7ff ff8f 	bl	100005c0 <make_alarm_id>
100006a2:	f8d8 1014 	ldr.w	r1, [r8, #20]
100006a6:	9b02      	ldr	r3, [sp, #8]
100006a8:	4798      	blx	r3
100006aa:	9002      	str	r0, [sp, #8]
100006ac:	9103      	str	r1, [sp, #12]
100006ae:	9a02      	ldr	r2, [sp, #8]
100006b0:	9b03      	ldr	r3, [sp, #12]
100006b2:	ea52 0103 	orrs.w	r1, r2, r3
100006b6:	d04c      	beq.n	10000752 <alarm_pool_irq_handler+0x14e>
100006b8:	2b00      	cmp	r3, #0
100006ba:	da2b      	bge.n	10000714 <alarm_pool_irq_handler+0x110>
100006bc:	9901      	ldr	r1, [sp, #4]
100006be:	1a88      	subs	r0, r1, r2
100006c0:	eb69 0903 	sbc.w	r9, r9, r3
100006c4:	f8c8 0008 	str.w	r0, [r8, #8]
100006c8:	f8c8 900c 	str.w	r9, [r8, #12]
100006cc:	f93a 300b 	ldrsh.w	r3, [sl, fp]
100006d0:	2b00      	cmp	r3, #0
100006d2:	f2c0 80f0 	blt.w	100008b6 <alarm_pool_irq_handler+0x2b2>
100006d6:	f8d4 8014 	ldr.w	r8, [r4, #20]
100006da:	eb03 0243 	add.w	r2, r3, r3, lsl #1
100006de:	eb08 02c2 	add.w	r2, r8, r2, lsl #3
100006e2:	6891      	ldr	r1, [r2, #8]
100006e4:	68d2      	ldr	r2, [r2, #12]
100006e6:	1a41      	subs	r1, r0, r1
100006e8:	eb69 0202 	sbc.w	r2, r9, r2
100006ec:	2a00      	cmp	r2, #0
100006ee:	f2c0 80e2 	blt.w	100008b6 <alarm_pool_irq_handler+0x2b2>
100006f2:	46a6      	mov	lr, r4
100006f4:	f82e 3f08 	strh.w	r3, [lr, #8]!
100006f8:	e016      	b.n	10000728 <alarm_pool_irq_handler+0x124>
100006fa:	f8d8 2014 	ldr.w	r2, [r8, #20]
100006fe:	6913      	ldr	r3, [r2, #16]
10000700:	9202      	str	r2, [sp, #8]
10000702:	4610      	mov	r0, r2
10000704:	4798      	blx	r3
10000706:	b320      	cbz	r0, 10000752 <alarm_pool_irq_handler+0x14e>
10000708:	9a02      	ldr	r2, [sp, #8]
1000070a:	6813      	ldr	r3, [r2, #0]
1000070c:	9302      	str	r3, [sp, #8]
1000070e:	6853      	ldr	r3, [r2, #4]
10000710:	9303      	str	r3, [sp, #12]
10000712:	e7cc      	b.n	100006ae <alarm_pool_irq_handler+0xaa>
10000714:	4628      	mov	r0, r5
10000716:	f000 fad1 	bl	10000cbc <timer_time_us_64>
1000071a:	9b02      	ldr	r3, [sp, #8]
1000071c:	1818      	adds	r0, r3, r0
1000071e:	9b03      	ldr	r3, [sp, #12]
10000720:	eb43 0901 	adc.w	r9, r3, r1
10000724:	e7ce      	b.n	100006c4 <alarm_pool_irq_handler+0xc0>
10000726:	469e      	mov	lr, r3
10000728:	f9be c000 	ldrsh.w	ip, [lr]
1000072c:	f1bc 0f00 	cmp.w	ip, #0
10000730:	db0a      	blt.n	10000748 <alarm_pool_irq_handler+0x144>
10000732:	eb0c 034c 	add.w	r3, ip, ip, lsl #1
10000736:	eb08 03c3 	add.w	r3, r8, r3, lsl #3
1000073a:	6899      	ldr	r1, [r3, #8]
1000073c:	68da      	ldr	r2, [r3, #12]
1000073e:	1a41      	subs	r1, r0, r1
10000740:	eb69 0202 	sbc.w	r2, r9, r2
10000744:	2a00      	cmp	r2, #0
10000746:	daee      	bge.n	10000726 <alarm_pool_irq_handler+0x122>
10000748:	f82a c00b 	strh.w	ip, [sl, fp]
1000074c:	f8ae 6000 	strh.w	r6, [lr]
10000750:	e0b1      	b.n	100008b6 <alarm_pool_irq_handler+0x2b2>
10000752:	f93a 300b 	ldrsh.w	r3, [sl, fp]
10000756:	8123      	strh	r3, [r4, #8]
10000758:	6923      	ldr	r3, [r4, #16]
1000075a:	f3ef 8210 	mrs	r2, PRIMASK
1000075e:	b672      	cpsid	i
10000760:	e8d3 0fcf 	ldaexb	r0, [r3]
10000764:	2101      	movs	r1, #1
10000766:	2800      	cmp	r0, #0
10000768:	d1fa      	bne.n	10000760 <alarm_pool_irq_handler+0x15c>
1000076a:	e8c3 1f40 	strexb	r0, r1, [r3]
1000076e:	2800      	cmp	r0, #0
10000770:	d1f6      	bne.n	10000760 <alarm_pool_irq_handler+0x15c>
10000772:	f3bf 8f5f 	dmb	sy
10000776:	f9b4 3002 	ldrsh.w	r3, [r4, #2]
1000077a:	f82a 300b 	strh.w	r3, [sl, fp]
1000077e:	8066      	strh	r6, [r4, #2]
10000780:	6921      	ldr	r1, [r4, #16]
10000782:	2300      	movs	r3, #0
10000784:	e8c1 3f8f 	stlb	r3, [r1]
10000788:	f382 8810 	msr	PRIMASK, r2
1000078c:	e093      	b.n	100008b6 <alarm_pool_irq_handler+0x2b2>
1000078e:	6923      	ldr	r3, [r4, #16]
10000790:	f3ef 8210 	mrs	r2, PRIMASK
10000794:	b672      	cpsid	i
10000796:	e8d3 0fcf 	ldaexb	r0, [r3]
1000079a:	2101      	movs	r1, #1
1000079c:	2800      	cmp	r0, #0
1000079e:	d1fa      	bne.n	10000796 <alarm_pool_irq_handler+0x192>
100007a0:	e8c3 1f40 	strexb	r0, r1, [r3]
100007a4:	2800      	cmp	r0, #0
100007a6:	d1f6      	bne.n	10000796 <alarm_pool_irq_handler+0x192>
100007a8:	f3bf 8f5f 	dmb	sy
100007ac:	f8b4 9004 	ldrh.w	r9, [r4, #4]
100007b0:	fa0f f989 	sxth.w	r9, r9
100007b4:	f64f 73ff 	movw	r3, #65535	; 0xffff
100007b8:	80a3      	strh	r3, [r4, #4]
100007ba:	6921      	ldr	r1, [r4, #16]
100007bc:	2300      	movs	r3, #0
100007be:	e8c1 3f8f 	stlb	r3, [r1]
100007c2:	f382 8810 	msr	PRIMASK, r2
100007c6:	e016      	b.n	100007f6 <alarm_pool_irq_handler+0x1f2>
100007c8:	461e      	mov	r6, r3
100007ca:	f9b6 2000 	ldrsh.w	r2, [r6]
100007ce:	2a00      	cmp	r2, #0
100007d0:	db0b      	blt.n	100007ea <alarm_pool_irq_handler+0x1e6>
100007d2:	eb02 0342 	add.w	r3, r2, r2, lsl #1
100007d6:	eb0e 03c3 	add.w	r3, lr, r3, lsl #3
100007da:	6898      	ldr	r0, [r3, #8]
100007dc:	68d9      	ldr	r1, [r3, #12]
100007de:	ebbc 0000 	subs.w	r0, ip, r0
100007e2:	eb68 0101 	sbc.w	r1, r8, r1
100007e6:	2900      	cmp	r1, #0
100007e8:	daee      	bge.n	100007c8 <alarm_pool_irq_handler+0x1c4>
100007ea:	f8a6 9000 	strh.w	r9, [r6]
100007ee:	f93e 900a 	ldrsh.w	r9, [lr, sl]
100007f2:	f82e 200a 	strh.w	r2, [lr, sl]
100007f6:	f1b9 0f00 	cmp.w	r9, #0
100007fa:	db61      	blt.n	100008c0 <alarm_pool_irq_handler+0x2bc>
100007fc:	f8d4 e014 	ldr.w	lr, [r4, #20]
10000800:	eb09 0349 	add.w	r3, r9, r9, lsl #1
10000804:	ea4f 0ac3 	mov.w	sl, r3, lsl #3
10000808:	eb0e 03c3 	add.w	r3, lr, r3, lsl #3
1000080c:	f8d3 c008 	ldr.w	ip, [r3, #8]
10000810:	f8d3 800c 	ldr.w	r8, [r3, #12]
10000814:	f104 0608 	add.w	r6, r4, #8
10000818:	e7d7      	b.n	100007ca <alarm_pool_irq_handler+0x1c6>
1000081a:	2300      	movs	r3, #0
1000081c:	71a3      	strb	r3, [r4, #6]
1000081e:	f104 0e08 	add.w	lr, r4, #8
10000822:	f9b4 3008 	ldrsh.w	r3, [r4, #8]
10000826:	e011      	b.n	1000084c <alarm_pool_irq_handler+0x248>
10000828:	f04f 38ff 	mov.w	r8, #4294967295
1000082c:	f04f 39ff 	mov.w	r9, #4294967295
10000830:	e9c0 8902 	strd	r8, r9, [r0, #8]
10000834:	f9b4 0008 	ldrsh.w	r0, [r4, #8]
10000838:	4298      	cmp	r0, r3
1000083a:	d006      	beq.n	1000084a <alarm_pool_irq_handler+0x246>
1000083c:	f8ae 2000 	strh.w	r2, [lr]
10000840:	f9b4 0008 	ldrsh.w	r0, [r4, #8]
10000844:	f821 000c 	strh.w	r0, [r1, ip]
10000848:	8123      	strh	r3, [r4, #8]
1000084a:	4613      	mov	r3, r2
1000084c:	f1b3 3fff 	cmp.w	r3, #4294967295
10000850:	d039      	beq.n	100008c6 <alarm_pool_irq_handler+0x2c2>
10000852:	6961      	ldr	r1, [r4, #20]
10000854:	eb03 0243 	add.w	r2, r3, r3, lsl #1
10000858:	ea4f 0cc2 	mov.w	ip, r2, lsl #3
1000085c:	eb01 00c2 	add.w	r0, r1, r2, lsl #3
10000860:	f931 2032 	ldrsh.w	r2, [r1, r2, lsl #3]
10000864:	8846      	ldrh	r6, [r0, #2]
10000866:	f416 4f00 	tst.w	r6, #32768	; 0x8000
1000086a:	d1dd      	bne.n	10000828 <alarm_pool_irq_handler+0x224>
1000086c:	4686      	mov	lr, r0
1000086e:	e7ec      	b.n	1000084a <alarm_pool_irq_handler+0x246>
10000870:	400b8000 	.word	0x400b8000
10000874:	20012904 	.word	0x20012904
10000878:	400b0000 	.word	0x400b0000
1000087c:	10004be0 	.word	0x10004be0
10000880:	10004c78 	.word	0x10004c78
10000884:	10004c0c 	.word	0x10004c0c
10000888:	10000605 	.word	0x10000605
1000088c:	1d3b      	adds	r3, r7, #4
1000088e:	f845 6023 	str.w	r6, [r5, r3, lsl #2]
10000892:	4628      	mov	r0, r5
10000894:	f000 fa12 	bl	10000cbc <timer_time_us_64>
10000898:	1a36      	subs	r6, r6, r0
1000089a:	eb68 0101 	sbc.w	r1, r8, r1
1000089e:	2e01      	cmp	r6, #1
100008a0:	f171 0300 	sbcs.w	r3, r1, #0
100008a4:	da2f      	bge.n	10000906 <alarm_pool_irq_handler+0x302>
100008a6:	2301      	movs	r3, #1
100008a8:	40bb      	lsls	r3, r7
100008aa:	63eb      	str	r3, [r5, #60]	; 0x3c
100008ac:	f9b4 6008 	ldrsh.w	r6, [r4, #8]
100008b0:	2e00      	cmp	r6, #0
100008b2:	f6bf aece 	bge.w	10000652 <alarm_pool_irq_handler+0x4e>
100008b6:	88a3      	ldrh	r3, [r4, #4]
100008b8:	f413 4f00 	tst.w	r3, #32768	; 0x8000
100008bc:	f43f af67 	beq.w	1000078e <alarm_pool_irq_handler+0x18a>
100008c0:	79a3      	ldrb	r3, [r4, #6]
100008c2:	2b00      	cmp	r3, #0
100008c4:	d1a9      	bne.n	1000081a <alarm_pool_irq_handler+0x216>
100008c6:	f9b4 3008 	ldrsh.w	r3, [r4, #8]
100008ca:	2b00      	cmp	r3, #0
100008cc:	db1b      	blt.n	10000906 <alarm_pool_irq_handler+0x302>
100008ce:	6962      	ldr	r2, [r4, #20]
100008d0:	eb03 0343 	add.w	r3, r3, r3, lsl #1
100008d4:	eb02 03c3 	add.w	r3, r2, r3, lsl #3
100008d8:	689e      	ldr	r6, [r3, #8]
100008da:	f8d3 800c 	ldr.w	r8, [r3, #12]
100008de:	f1b8 3fff 	cmp.w	r8, #4294967295
100008e2:	bf08      	it	eq
100008e4:	f1b6 3fff 	cmpeq.w	r6, #4294967295
100008e8:	d0d3      	beq.n	10000892 <alarm_pool_irq_handler+0x28e>
100008ea:	6aaa      	ldr	r2, [r5, #40]	; 0x28
100008ec:	1ab1      	subs	r1, r6, r2
100008ee:	1d3b      	adds	r3, r7, #4
100008f0:	f855 3023 	ldr.w	r3, [r5, r3, lsl #2]
100008f4:	1a9b      	subs	r3, r3, r2
100008f6:	4299      	cmp	r1, r3
100008f8:	d3c8      	bcc.n	1000088c <alarm_pool_irq_handler+0x288>
100008fa:	6a2a      	ldr	r2, [r5, #32]
100008fc:	2301      	movs	r3, #1
100008fe:	40bb      	lsls	r3, r7
10000900:	421a      	tst	r2, r3
10000902:	d1c6      	bne.n	10000892 <alarm_pool_irq_handler+0x28e>
10000904:	e7c2      	b.n	1000088c <alarm_pool_irq_handler+0x288>
10000906:	bf40      	sev
10000908:	b005      	add	sp, #20
1000090a:	e8bd 8ff0 	ldmia.w	sp!, {r4, r5, r6, r7, r8, r9, sl, fp, pc}
1000090e:	bf00      	nop

10000910 <alarm_pool_post_alloc_init>:
10000910:	e92d 41f0 	stmdb	sp!, {r4, r5, r6, r7, r8, lr}
10000914:	4604      	mov	r4, r0
10000916:	4688      	mov	r8, r1
10000918:	4617      	mov	r7, r2
1000091a:	461e      	mov	r6, r3
1000091c:	60c1      	str	r1, [r0, #12]
1000091e:	f000 fa57 	bl	10000dd0 <next_striped_spin_lock_num>
10000922:	4b20      	ldr	r3, [pc, #128]	; (100009a4 <alarm_pool_post_alloc_init+0x94>)
10000924:	4403      	add	r3, r0
10000926:	6123      	str	r3, [r4, #16]
10000928:	7027      	strb	r7, [r4, #0]
1000092a:	b2b3      	uxth	r3, r6
1000092c:	8163      	strh	r3, [r4, #10]
1000092e:	f04f 4250 	mov.w	r2, #3489660928	; 0xd0000000
10000932:	7812      	ldrb	r2, [r2, #0]
10000934:	7062      	strb	r2, [r4, #1]
10000936:	f64f 72ff 	movw	r2, #65535	; 0xffff
1000093a:	8122      	strh	r2, [r4, #8]
1000093c:	80a2      	strh	r2, [r4, #4]
1000093e:	3b01      	subs	r3, #1
10000940:	8063      	strh	r3, [r4, #2]
10000942:	f04f 0c00 	mov.w	ip, #0
10000946:	e008      	b.n	1000095a <alarm_pool_post_alloc_init+0x4a>
10000948:	f10c 35ff 	add.w	r5, ip, #4294967295
1000094c:	6960      	ldr	r0, [r4, #20]
1000094e:	eb0c 0e4c 	add.w	lr, ip, ip, lsl #1
10000952:	f820 503e 	strh.w	r5, [r0, lr, lsl #3]
10000956:	f10c 0c01 	add.w	ip, ip, #1
1000095a:	45b4      	cmp	ip, r6
1000095c:	d3f4      	bcc.n	10000948 <alarm_pool_post_alloc_init+0x38>
1000095e:	4b12      	ldr	r3, [pc, #72]	; (100009a8 <alarm_pool_post_alloc_init+0x98>)
10000960:	4598      	cmp	r8, r3
10000962:	bf0c      	ite	eq
10000964:	2301      	moveq	r3, #1
10000966:	2300      	movne	r3, #0
10000968:	eb07 0383 	add.w	r3, r7, r3, lsl #2
1000096c:	4a0f      	ldr	r2, [pc, #60]	; (100009ac <alarm_pool_post_alloc_init+0x9c>)
1000096e:	f842 4023 	str.w	r4, [r2, r3, lsl #2]
10000972:	d014      	beq.n	1000099e <alarm_pool_post_alloc_init+0x8e>
10000974:	2400      	movs	r4, #0
10000976:	443c      	add	r4, r7
10000978:	2501      	movs	r5, #1
1000097a:	fa05 f707 	lsl.w	r7, r5, r7
1000097e:	f8c8 7020 	str.w	r7, [r8, #32]
10000982:	490b      	ldr	r1, [pc, #44]	; (100009b0 <alarm_pool_post_alloc_init+0xa0>)
10000984:	4620      	mov	r0, r4
10000986:	f000 fafd 	bl	10000f84 <irq_set_exclusive_handler>
1000098a:	4629      	mov	r1, r5
1000098c:	4620      	mov	r0, r4
1000098e:	f000 fae7 	bl	10000f60 <irq_set_enabled>
10000992:	f508 5801 	add.w	r8, r8, #8256	; 0x2040
10000996:	f8c8 7000 	str.w	r7, [r8]
1000099a:	e8bd 81f0 	ldmia.w	sp!, {r4, r5, r6, r7, r8, pc}
1000099e:	2404      	movs	r4, #4
100009a0:	e7e9      	b.n	10000976 <alarm_pool_post_alloc_init+0x66>
100009a2:	bf00      	nop
100009a4:	20012658 	.word	0x20012658
100009a8:	400b8000 	.word	0x400b8000
100009ac:	20012904 	.word	0x20012904
100009b0:	10000605 	.word	0x10000605

100009b4 <alarm_pool_get_default>:
100009b4:	b508      	push	{r3, lr}
100009b6:	4b05      	ldr	r3, [pc, #20]	; (100009cc <alarm_pool_get_default+0x18>)
100009b8:	691b      	ldr	r3, [r3, #16]
100009ba:	b10b      	cbz	r3, 100009c0 <alarm_pool_get_default+0xc>
100009bc:	4803      	ldr	r0, [pc, #12]	; (100009cc <alarm_pool_get_default+0x18>)
100009be:	bd08      	pop	{r3, pc}
100009c0:	4b03      	ldr	r3, [pc, #12]	; (100009d0 <alarm_pool_get_default+0x1c>)
100009c2:	4a04      	ldr	r2, [pc, #16]	; (100009d4 <alarm_pool_get_default+0x20>)
100009c4:	2165      	movs	r1, #101	; 0x65
100009c6:	4804      	ldr	r0, [pc, #16]	; (100009d8 <alarm_pool_get_default+0x24>)
100009c8:	f002 fa7c 	bl	10002ec4 <__assert_func>
100009cc:	20011b90 	.word	0x20011b90
100009d0:	10004c3c 	.word	0x10004c3c
100009d4:	10004c60 	.word	0x10004c60
100009d8:	10004c0c 	.word	0x10004c0c

100009dc <alarm_pool_add_alarm_at_force_in_context>:
100009dc:	b5f8      	push	{r3, r4, r5, r6, r7, lr}
100009de:	4604      	mov	r4, r0
100009e0:	469e      	mov	lr, r3
100009e2:	6901      	ldr	r1, [r0, #16]
100009e4:	f3ef 8c10 	mrs	ip, PRIMASK
100009e8:	b672      	cpsid	i
100009ea:	e8d1 5fcf 	ldaexb	r5, [r1]
100009ee:	2001      	movs	r0, #1
100009f0:	2d00      	cmp	r5, #0
100009f2:	d1fa      	bne.n	100009ea <alarm_pool_add_alarm_at_force_in_context+0xe>
100009f4:	e8c1 0f45 	strexb	r5, r0, [r1]
100009f8:	2d00      	cmp	r5, #0
100009fa:	d1f6      	bne.n	100009ea <alarm_pool_add_alarm_at_force_in_context+0xe>
100009fc:	f3bf 8f5f 	dmb	sy
10000a00:	f9b4 5002 	ldrsh.w	r5, [r4, #2]
10000a04:	6966      	ldr	r6, [r4, #20]
10000a06:	eb05 0045 	add.w	r0, r5, r5, lsl #1
10000a0a:	00c7      	lsls	r7, r0, #3
10000a0c:	eb06 00c0 	add.w	r0, r6, r0, lsl #3
10000a10:	2d00      	cmp	r5, #0
10000a12:	db01      	blt.n	10000a18 <alarm_pool_add_alarm_at_force_in_context+0x3c>
10000a14:	5ff1      	ldrsh	r1, [r6, r7]
10000a16:	8061      	strh	r1, [r4, #2]
10000a18:	2100      	movs	r1, #0
10000a1a:	6923      	ldr	r3, [r4, #16]
10000a1c:	e8c3 1f8f 	stlb	r1, [r3]
10000a20:	f38c 8810 	msr	PRIMASK, ip
10000a24:	428d      	cmp	r5, r1
10000a26:	db33      	blt.n	10000a90 <alarm_pool_add_alarm_at_force_in_context+0xb4>
10000a28:	9906      	ldr	r1, [sp, #24]
10000a2a:	6101      	str	r1, [r0, #16]
10000a2c:	9907      	ldr	r1, [sp, #28]
10000a2e:	6141      	str	r1, [r0, #20]
10000a30:	6082      	str	r2, [r0, #8]
10000a32:	f8c0 e00c 	str.w	lr, [r0, #12]
10000a36:	8841      	ldrh	r1, [r0, #2]
10000a38:	b289      	uxth	r1, r1
10000a3a:	3101      	adds	r1, #1
10000a3c:	f3c1 010e 	ubfx	r1, r1, #0, #15
10000a40:	b901      	cbnz	r1, 10000a44 <alarm_pool_add_alarm_at_force_in_context+0x68>
10000a42:	2101      	movs	r1, #1
10000a44:	8041      	strh	r1, [r0, #2]
10000a46:	4628      	mov	r0, r5
10000a48:	f7ff fdba 	bl	100005c0 <make_alarm_id>
10000a4c:	6923      	ldr	r3, [r4, #16]
10000a4e:	f3ef 8210 	mrs	r2, PRIMASK
10000a52:	b672      	cpsid	i
10000a54:	e8d3 cfcf 	ldaexb	ip, [r3]
10000a58:	2101      	movs	r1, #1
10000a5a:	f1bc 0f00 	cmp.w	ip, #0
10000a5e:	d1f9      	bne.n	10000a54 <alarm_pool_add_alarm_at_force_in_context+0x78>
10000a60:	e8c3 1f4c 	strexb	ip, r1, [r3]
10000a64:	f1bc 0f00 	cmp.w	ip, #0
10000a68:	d1f4      	bne.n	10000a54 <alarm_pool_add_alarm_at_force_in_context+0x78>
10000a6a:	f3bf 8f5f 	dmb	sy
10000a6e:	88a3      	ldrh	r3, [r4, #4]
10000a70:	53f3      	strh	r3, [r6, r7]
10000a72:	80a5      	strh	r5, [r4, #4]
10000a74:	6921      	ldr	r1, [r4, #16]
10000a76:	2300      	movs	r3, #0
10000a78:	e8c1 3f8f 	stlb	r3, [r1]
10000a7c:	f382 8810 	msr	PRIMASK, r2
10000a80:	68e3      	ldr	r3, [r4, #12]
10000a82:	7821      	ldrb	r1, [r4, #0]
10000a84:	2201      	movs	r2, #1
10000a86:	408a      	lsls	r2, r1
10000a88:	f503 5301 	add.w	r3, r3, #8256	; 0x2040
10000a8c:	605a      	str	r2, [r3, #4]
10000a8e:	bdf8      	pop	{r3, r4, r5, r6, r7, pc}
10000a90:	f04f 30ff 	mov.w	r0, #4294967295
10000a94:	e7fb      	b.n	10000a8e <alarm_pool_add_alarm_at_force_in_context+0xb2>

10000a96 <alarm_pool_add_alarm_at>:
10000a96:	b570      	push	{r4, r5, r6, lr}
10000a98:	b082      	sub	sp, #8
10000a9a:	4606      	mov	r6, r0
10000a9c:	4615      	mov	r5, r2
10000a9e:	461c      	mov	r4, r3
10000aa0:	f89d 3020 	ldrb.w	r3, [sp, #32]
10000aa4:	b933      	cbnz	r3, 10000ab4 <alarm_pool_add_alarm_at+0x1e>
10000aa6:	f000 f933 	bl	10000d10 <time_us_64>
10000aaa:	4285      	cmp	r5, r0
10000aac:	eb64 0101 	sbc.w	r1, r4, r1
10000ab0:	2900      	cmp	r1, #0
10000ab2:	db0a      	blt.n	10000aca <alarm_pool_add_alarm_at+0x34>
10000ab4:	9b07      	ldr	r3, [sp, #28]
10000ab6:	9301      	str	r3, [sp, #4]
10000ab8:	9b06      	ldr	r3, [sp, #24]
10000aba:	9300      	str	r3, [sp, #0]
10000abc:	462a      	mov	r2, r5
10000abe:	4623      	mov	r3, r4
10000ac0:	4630      	mov	r0, r6
10000ac2:	f7ff ff8b 	bl	100009dc <alarm_pool_add_alarm_at_force_in_context>
10000ac6:	b002      	add	sp, #8
10000ac8:	bd70      	pop	{r4, r5, r6, pc}
10000aca:	2000      	movs	r0, #0
10000acc:	e7fb      	b.n	10000ac6 <alarm_pool_add_alarm_at+0x30>

10000ace <alarm_pool_cancel_alarm>:
10000ace:	4603      	mov	r3, r0
10000ad0:	8940      	ldrh	r0, [r0, #10]
10000ad2:	ebb0 4f21 	cmp.w	r0, r1, asr #16
10000ad6:	dd31      	ble.n	10000b3c <alarm_pool_cancel_alarm+0x6e>
10000ad8:	b510      	push	{r4, lr}
10000ada:	140a      	asrs	r2, r1, #16
10000adc:	6958      	ldr	r0, [r3, #20]
10000ade:	eb02 0242 	add.w	r2, r2, r2, lsl #1
10000ae2:	eb00 02c2 	add.w	r2, r0, r2, lsl #3
10000ae6:	6918      	ldr	r0, [r3, #16]
10000ae8:	f3ef 8c10 	mrs	ip, PRIMASK
10000aec:	b672      	cpsid	i
10000aee:	e8d0 4fcf 	ldaexb	r4, [r0]
10000af2:	f05f 0e01 	movs.w	lr, #1
10000af6:	2c00      	cmp	r4, #0
10000af8:	d1f9      	bne.n	10000aee <alarm_pool_cancel_alarm+0x20>
10000afa:	e8c0 ef44 	strexb	r4, lr, [r0]
10000afe:	2c00      	cmp	r4, #0
10000b00:	d1f5      	bne.n	10000aee <alarm_pool_cancel_alarm+0x20>
10000b02:	f3bf 8f5f 	dmb	sy
10000b06:	8850      	ldrh	r0, [r2, #2]
10000b08:	b280      	uxth	r0, r0
10000b0a:	b289      	uxth	r1, r1
10000b0c:	4288      	cmp	r0, r1
10000b0e:	d00f      	beq.n	10000b30 <alarm_pool_cancel_alarm+0x62>
10000b10:	2000      	movs	r0, #0
10000b12:	6919      	ldr	r1, [r3, #16]
10000b14:	2200      	movs	r2, #0
10000b16:	e8c1 2f8f 	stlb	r2, [r1]
10000b1a:	f38c 8810 	msr	PRIMASK, ip
10000b1e:	b130      	cbz	r0, 10000b2e <alarm_pool_cancel_alarm+0x60>
10000b20:	68da      	ldr	r2, [r3, #12]
10000b22:	781b      	ldrb	r3, [r3, #0]
10000b24:	2101      	movs	r1, #1
10000b26:	4099      	lsls	r1, r3
10000b28:	f502 5301 	add.w	r3, r2, #8256	; 0x2040
10000b2c:	6059      	str	r1, [r3, #4]
10000b2e:	bd10      	pop	{r4, pc}
10000b30:	f440 4000 	orr.w	r0, r0, #32768	; 0x8000
10000b34:	8050      	strh	r0, [r2, #2]
10000b36:	2001      	movs	r0, #1
10000b38:	7198      	strb	r0, [r3, #6]
10000b3a:	e7ea      	b.n	10000b12 <alarm_pool_cancel_alarm+0x44>
10000b3c:	2000      	movs	r0, #0
10000b3e:	4770      	bx	lr

10000b40 <best_effort_wfe_or_timeout>:
10000b40:	b5f0      	push	{r4, r5, r6, r7, lr}
10000b42:	b085      	sub	sp, #20
10000b44:	4605      	mov	r5, r0
10000b46:	460c      	mov	r4, r1
10000b48:	f3ef 8305 	mrs	r3, IPSR
10000b4c:	b2db      	uxtb	r3, r3
10000b4e:	b193      	cbz	r3, 10000b76 <best_effort_wfe_or_timeout+0x36>
10000b50:	4b40      	ldr	r3, [pc, #256]	; (10000c54 <best_effort_wfe_or_timeout+0x114>)
10000b52:	6a5b      	ldr	r3, [r3, #36]	; 0x24
10000b54:	428b      	cmp	r3, r1
10000b56:	d309      	bcc.n	10000b6c <best_effort_wfe_or_timeout+0x2c>
10000b58:	4a3e      	ldr	r2, [pc, #248]	; (10000c54 <best_effort_wfe_or_timeout+0x114>)
10000b5a:	6a92      	ldr	r2, [r2, #40]	; 0x28
10000b5c:	4282      	cmp	r2, r0
10000b5e:	d208      	bcs.n	10000b72 <best_effort_wfe_or_timeout+0x32>
10000b60:	428b      	cmp	r3, r1
10000b62:	d001      	beq.n	10000b68 <best_effort_wfe_or_timeout+0x28>
10000b64:	2001      	movs	r0, #1
10000b66:	e002      	b.n	10000b6e <best_effort_wfe_or_timeout+0x2e>
10000b68:	2000      	movs	r0, #0
10000b6a:	e000      	b.n	10000b6e <best_effort_wfe_or_timeout+0x2e>
10000b6c:	2000      	movs	r0, #0
10000b6e:	b005      	add	sp, #20
10000b70:	bdf0      	pop	{r4, r5, r6, r7, pc}
10000b72:	2001      	movs	r0, #1
10000b74:	e7fb      	b.n	10000b6e <best_effort_wfe_or_timeout+0x2e>
10000b76:	f7ff ff1d 	bl	100009b4 <alarm_pool_get_default>
10000b7a:	68c7      	ldr	r7, [r0, #12]
10000b7c:	7806      	ldrb	r6, [r0, #0]
10000b7e:	4638      	mov	r0, r7
10000b80:	f000 f89c 	bl	10000cbc <timer_time_us_64>
10000b84:	1a2a      	subs	r2, r5, r0
10000b86:	eb64 0101 	sbc.w	r1, r4, r1
10000b8a:	3604      	adds	r6, #4
10000b8c:	f857 3026 	ldr.w	r3, [r7, r6, lsl #2]
10000b90:	1a18      	subs	r0, r3, r0
10000b92:	4282      	cmp	r2, r0
10000b94:	f171 0300 	sbcs.w	r3, r1, #0
10000b98:	db12      	blt.n	10000bc0 <best_effort_wfe_or_timeout+0x80>
10000b9a:	bf20      	wfe
10000b9c:	4b2d      	ldr	r3, [pc, #180]	; (10000c54 <best_effort_wfe_or_timeout+0x114>)
10000b9e:	6a5b      	ldr	r3, [r3, #36]	; 0x24
10000ba0:	429c      	cmp	r4, r3
10000ba2:	d809      	bhi.n	10000bb8 <best_effort_wfe_or_timeout+0x78>
10000ba4:	4a2b      	ldr	r2, [pc, #172]	; (10000c54 <best_effort_wfe_or_timeout+0x114>)
10000ba6:	6a92      	ldr	r2, [r2, #40]	; 0x28
10000ba8:	42aa      	cmp	r2, r5
10000baa:	d207      	bcs.n	10000bbc <best_effort_wfe_or_timeout+0x7c>
10000bac:	429c      	cmp	r4, r3
10000bae:	d001      	beq.n	10000bb4 <best_effort_wfe_or_timeout+0x74>
10000bb0:	2001      	movs	r0, #1
10000bb2:	e7dc      	b.n	10000b6e <best_effort_wfe_or_timeout+0x2e>
10000bb4:	2000      	movs	r0, #0
10000bb6:	e7da      	b.n	10000b6e <best_effort_wfe_or_timeout+0x2e>
10000bb8:	2000      	movs	r0, #0
10000bba:	e7d8      	b.n	10000b6e <best_effort_wfe_or_timeout+0x2e>
10000bbc:	2001      	movs	r0, #1
10000bbe:	e7d6      	b.n	10000b6e <best_effort_wfe_or_timeout+0x2e>
10000bc0:	f7ff fef8 	bl	100009b4 <alarm_pool_get_default>
10000bc4:	2300      	movs	r3, #0
10000bc6:	9302      	str	r3, [sp, #8]
10000bc8:	9301      	str	r3, [sp, #4]
10000bca:	4b23      	ldr	r3, [pc, #140]	; (10000c58 <best_effort_wfe_or_timeout+0x118>)
10000bcc:	9300      	str	r3, [sp, #0]
10000bce:	462a      	mov	r2, r5
10000bd0:	4623      	mov	r3, r4
10000bd2:	f7ff ff60 	bl	10000a96 <alarm_pool_add_alarm_at>
10000bd6:	1e06      	subs	r6, r0, #0
10000bd8:	dd0b      	ble.n	10000bf2 <best_effort_wfe_or_timeout+0xb2>
10000bda:	4b1e      	ldr	r3, [pc, #120]	; (10000c54 <best_effort_wfe_or_timeout+0x114>)
10000bdc:	6a5b      	ldr	r3, [r3, #36]	; 0x24
10000bde:	429c      	cmp	r4, r3
10000be0:	d81b      	bhi.n	10000c1a <best_effort_wfe_or_timeout+0xda>
10000be2:	4a1c      	ldr	r2, [pc, #112]	; (10000c54 <best_effort_wfe_or_timeout+0x114>)
10000be4:	6a92      	ldr	r2, [r2, #40]	; 0x28
10000be6:	42aa      	cmp	r2, r5
10000be8:	d22b      	bcs.n	10000c42 <best_effort_wfe_or_timeout+0x102>
10000bea:	429c      	cmp	r4, r3
10000bec:	d013      	beq.n	10000c16 <best_effort_wfe_or_timeout+0xd6>
10000bee:	2301      	movs	r3, #1
10000bf0:	e014      	b.n	10000c1c <best_effort_wfe_or_timeout+0xdc>
10000bf2:	4b18      	ldr	r3, [pc, #96]	; (10000c54 <best_effort_wfe_or_timeout+0x114>)
10000bf4:	6a5b      	ldr	r3, [r3, #36]	; 0x24
10000bf6:	429c      	cmp	r4, r3
10000bf8:	d809      	bhi.n	10000c0e <best_effort_wfe_or_timeout+0xce>
10000bfa:	4a16      	ldr	r2, [pc, #88]	; (10000c54 <best_effort_wfe_or_timeout+0x114>)
10000bfc:	6a92      	ldr	r2, [r2, #40]	; 0x28
10000bfe:	42aa      	cmp	r2, r5
10000c00:	d207      	bcs.n	10000c12 <best_effort_wfe_or_timeout+0xd2>
10000c02:	429c      	cmp	r4, r3
10000c04:	d001      	beq.n	10000c0a <best_effort_wfe_or_timeout+0xca>
10000c06:	2001      	movs	r0, #1
10000c08:	e7b1      	b.n	10000b6e <best_effort_wfe_or_timeout+0x2e>
10000c0a:	2000      	movs	r0, #0
10000c0c:	e7af      	b.n	10000b6e <best_effort_wfe_or_timeout+0x2e>
10000c0e:	2000      	movs	r0, #0
10000c10:	e7ad      	b.n	10000b6e <best_effort_wfe_or_timeout+0x2e>
10000c12:	2001      	movs	r0, #1
10000c14:	e7ab      	b.n	10000b6e <best_effort_wfe_or_timeout+0x2e>
10000c16:	2300      	movs	r3, #0
10000c18:	e000      	b.n	10000c1c <best_effort_wfe_or_timeout+0xdc>
10000c1a:	2300      	movs	r3, #0
10000c1c:	b903      	cbnz	r3, 10000c20 <best_effort_wfe_or_timeout+0xe0>
10000c1e:	bf20      	wfe
10000c20:	f7ff fec8 	bl	100009b4 <alarm_pool_get_default>
10000c24:	4631      	mov	r1, r6
10000c26:	f7ff ff52 	bl	10000ace <alarm_pool_cancel_alarm>
10000c2a:	4b0a      	ldr	r3, [pc, #40]	; (10000c54 <best_effort_wfe_or_timeout+0x114>)
10000c2c:	6a5b      	ldr	r3, [r3, #36]	; 0x24
10000c2e:	429c      	cmp	r4, r3
10000c30:	d80b      	bhi.n	10000c4a <best_effort_wfe_or_timeout+0x10a>
10000c32:	4a08      	ldr	r2, [pc, #32]	; (10000c54 <best_effort_wfe_or_timeout+0x114>)
10000c34:	6a92      	ldr	r2, [r2, #40]	; 0x28
10000c36:	42aa      	cmp	r2, r5
10000c38:	d209      	bcs.n	10000c4e <best_effort_wfe_or_timeout+0x10e>
10000c3a:	429c      	cmp	r4, r3
10000c3c:	d003      	beq.n	10000c46 <best_effort_wfe_or_timeout+0x106>
10000c3e:	2001      	movs	r0, #1
10000c40:	e795      	b.n	10000b6e <best_effort_wfe_or_timeout+0x2e>
10000c42:	2301      	movs	r3, #1
10000c44:	e7ea      	b.n	10000c1c <best_effort_wfe_or_timeout+0xdc>
10000c46:	2000      	movs	r0, #0
10000c48:	e791      	b.n	10000b6e <best_effort_wfe_or_timeout+0x2e>
10000c4a:	2000      	movs	r0, #0
10000c4c:	e78f      	b.n	10000b6e <best_effort_wfe_or_timeout+0x2e>
10000c4e:	2001      	movs	r0, #1
10000c50:	e78d      	b.n	10000b6e <best_effort_wfe_or_timeout+0x2e>
10000c52:	bf00      	nop
10000c54:	400b0000 	.word	0x400b0000
10000c58:	100005c9 	.word	0x100005c9

10000c5c <alarm_pool_get_default_timer>:
10000c5c:	4800      	ldr	r0, [pc, #0]	; (10000c60 <alarm_pool_get_default_timer+0x4>)
10000c5e:	4770      	bx	lr
10000c60:	400b0000 	.word	0x400b0000

10000c64 <runtime_init_default_alarm_pool>:
10000c64:	b510      	push	{r4, lr}
10000c66:	4b0a      	ldr	r3, [pc, #40]	; (10000c90 <runtime_init_default_alarm_pool+0x2c>)
10000c68:	691b      	ldr	r3, [r3, #16]
10000c6a:	b123      	cbz	r3, 10000c76 <runtime_init_default_alarm_pool+0x12>
10000c6c:	210a      	movs	r1, #10
10000c6e:	4809      	ldr	r0, [pc, #36]	; (10000c94 <runtime_init_default_alarm_pool+0x30>)
10000c70:	f7ff fc5e 	bl	10000530 <lock_init>
10000c74:	bd10      	pop	{r4, pc}
10000c76:	f7ff fff1 	bl	10000c5c <alarm_pool_get_default_timer>
10000c7a:	4604      	mov	r4, r0
10000c7c:	2103      	movs	r1, #3
10000c7e:	f000 f80b 	bl	10000c98 <timer_hardware_alarm_claim>
10000c82:	2310      	movs	r3, #16
10000c84:	2203      	movs	r2, #3
10000c86:	4621      	mov	r1, r4
10000c88:	4801      	ldr	r0, [pc, #4]	; (10000c90 <runtime_init_default_alarm_pool+0x2c>)
10000c8a:	f7ff fe41 	bl	10000910 <alarm_pool_post_alloc_init>
10000c8e:	e7ed      	b.n	10000c6c <runtime_init_default_alarm_pool+0x8>
10000c90:	20011b90 	.word	0x20011b90
10000c94:	20012a28 	.word	0x20012a28

10000c98 <timer_hardware_alarm_claim>:
10000c98:	b510      	push	{r4, lr}
10000c9a:	4a05      	ldr	r2, [pc, #20]	; (10000cb0 <timer_hardware_alarm_claim+0x18>)
10000c9c:	4c05      	ldr	r4, [pc, #20]	; (10000cb4 <timer_hardware_alarm_claim+0x1c>)
10000c9e:	4b06      	ldr	r3, [pc, #24]	; (10000cb8 <timer_hardware_alarm_claim+0x20>)
10000ca0:	42a0      	cmp	r0, r4
10000ca2:	bf14      	ite	ne
10000ca4:	4618      	movne	r0, r3
10000ca6:	1c58      	addeq	r0, r3, #1
10000ca8:	f000 f878 	bl	10000d9c <hw_claim_or_assert>
10000cac:	bd10      	pop	{r4, pc}
10000cae:	bf00      	nop
10000cb0:	10004c90 	.word	0x10004c90
10000cb4:	400b8000 	.word	0x400b8000
10000cb8:	200128a8 	.word	0x200128a8

10000cbc <timer_time_us_64>:
10000cbc:	4602      	mov	r2, r0
10000cbe:	6a43      	ldr	r3, [r0, #36]	; 0x24
10000cc0:	6a90      	ldr	r0, [r2, #40]	; 0x28
10000cc2:	4619      	mov	r1, r3
10000cc4:	6a53      	ldr	r3, [r2, #36]	; 0x24
10000cc6:	4299      	cmp	r1, r3
10000cc8:	d1fa      	bne.n	10000cc0 <timer_time_us_64+0x4>
10000cca:	4770      	bx	lr

10000ccc <timer_busy_wait_until>:
10000ccc:	6a41      	ldr	r1, [r0, #36]	; 0x24
10000cce:	e000      	b.n	10000cd2 <timer_busy_wait_until+0x6>
10000cd0:	6a41      	ldr	r1, [r0, #36]	; 0x24
10000cd2:	4299      	cmp	r1, r3
10000cd4:	d3fc      	bcc.n	10000cd0 <timer_busy_wait_until+0x4>
10000cd6:	e000      	b.n	10000cda <timer_busy_wait_until+0xe>
10000cd8:	6a41      	ldr	r1, [r0, #36]	; 0x24
10000cda:	4299      	cmp	r1, r3
10000cdc:	d102      	bne.n	10000ce4 <timer_busy_wait_until+0x18>
10000cde:	6a81      	ldr	r1, [r0, #40]	; 0x28
10000ce0:	4291      	cmp	r1, r2
10000ce2:	d3f9      	bcc.n	10000cd8 <timer_busy_wait_until+0xc>
10000ce4:	4770      	bx	lr

10000ce6 <timer_busy_wait_us>:
10000ce6:	b570      	push	{r4, r5, r6, lr}
10000ce8:	4606      	mov	r6, r0
10000cea:	4614      	mov	r4, r2
10000cec:	461d      	mov	r5, r3
10000cee:	f7ff ffe5 	bl	10000cbc <timer_time_us_64>
10000cf2:	1902      	adds	r2, r0, r4
10000cf4:	eb41 0305 	adc.w	r3, r1, r5
10000cf8:	4282      	cmp	r2, r0
10000cfa:	eb73 0101 	sbcs.w	r1, r3, r1
10000cfe:	d202      	bcs.n	10000d06 <timer_busy_wait_us+0x20>
10000d00:	f04f 32ff 	mov.w	r2, #4294967295
10000d04:	4613      	mov	r3, r2
10000d06:	4630      	mov	r0, r6
10000d08:	f7ff ffe0 	bl	10000ccc <timer_busy_wait_until>
10000d0c:	bd70      	pop	{r4, r5, r6, pc}
	...

10000d10 <time_us_64>:
10000d10:	b508      	push	{r3, lr}
10000d12:	4802      	ldr	r0, [pc, #8]	; (10000d1c <time_us_64+0xc>)
10000d14:	f7ff ffd2 	bl	10000cbc <timer_time_us_64>
10000d18:	bd08      	pop	{r3, pc}
10000d1a:	bf00      	nop
10000d1c:	400b0000 	.word	0x400b0000

10000d20 <busy_wait_us>:
10000d20:	b508      	push	{r3, lr}
10000d22:	4602      	mov	r2, r0
10000d24:	460b      	mov	r3, r1
10000d26:	4802      	ldr	r0, [pc, #8]	; (10000d30 <busy_wait_us+0x10>)
10000d28:	f7ff ffdd 	bl	10000ce6 <timer_busy_wait_us>
10000d2c:	bd08      	pop	{r3, pc}
10000d2e:	bf00      	nop
10000d30:	400b0000 	.word	0x400b0000

10000d34 <panic>:
10000d34:	b40f      	push	{r0, r1, r2, r3}
10000d36:	b500      	push	{lr}
10000d38:	b083      	sub	sp, #12
10000d3a:	9c04      	ldr	r4, [sp, #16]
10000d3c:	4807      	ldr	r0, [pc, #28]	; (10000d5c <panic+0x28>)
10000d3e:	f002 f9f1 	bl	10003124 <__wrap_puts>
10000d42:	b13c      	cbz	r4, 10000d54 <panic+0x20>
10000d44:	a905      	add	r1, sp, #20
10000d46:	9101      	str	r1, [sp, #4]
10000d48:	4620      	mov	r0, r4
10000d4a:	f002 f9fb 	bl	10003144 <__wrap_vprintf>
10000d4e:	4804      	ldr	r0, [pc, #16]	; (10000d60 <panic+0x2c>)
10000d50:	f002 f9e8 	bl	10003124 <__wrap_puts>
10000d54:	2001      	movs	r0, #1
10000d56:	f002 f895 	bl	10002e84 <_exit>
10000d5a:	bf00      	nop
10000d5c:	10004cb4 	.word	0x10004cb4
10000d60:	100053bc 	.word	0x100053bc

10000d64 <hw_claim_lock>:
10000d64:	f3ef 8010 	mrs	r0, PRIMASK
10000d68:	b672      	cpsid	i
10000d6a:	4b06      	ldr	r3, [pc, #24]	; (10000d84 <hw_claim_lock+0x20>)
10000d6c:	e8d3 1fcf 	ldaexb	r1, [r3]
10000d70:	2201      	movs	r2, #1
10000d72:	2900      	cmp	r1, #0
10000d74:	d1fa      	bne.n	10000d6c <hw_claim_lock+0x8>
10000d76:	e8c3 2f41 	strexb	r1, r2, [r3]
10000d7a:	2900      	cmp	r1, #0
10000d7c:	d1f6      	bne.n	10000d6c <hw_claim_lock+0x8>
10000d7e:	f3bf 8f5f 	dmb	sy
10000d82:	4770      	bx	lr
10000d84:	20012663 	.word	0x20012663

10000d88 <hw_claim_unlock>:
10000d88:	2300      	movs	r3, #0
10000d8a:	4a03      	ldr	r2, [pc, #12]	; (10000d98 <hw_claim_unlock+0x10>)
10000d8c:	e8c2 3f8f 	stlb	r3, [r2]
10000d90:	f380 8810 	msr	PRIMASK, r0
10000d94:	4770      	bx	lr
10000d96:	bf00      	nop
10000d98:	20012663 	.word	0x20012663

10000d9c <hw_claim_or_assert>:
10000d9c:	b570      	push	{r4, r5, r6, lr}
10000d9e:	4605      	mov	r5, r0
10000da0:	460c      	mov	r4, r1
10000da2:	4616      	mov	r6, r2
10000da4:	f7ff ffde 	bl	10000d64 <hw_claim_lock>
10000da8:	08e2      	lsrs	r2, r4, #3
10000daa:	5ca9      	ldrb	r1, [r5, r2]
10000dac:	f004 0c07 	and.w	ip, r4, #7
10000db0:	2301      	movs	r3, #1
10000db2:	fa03 f30c 	lsl.w	r3, r3, ip
10000db6:	4219      	tst	r1, r3
10000db8:	d105      	bne.n	10000dc6 <hw_claim_or_assert+0x2a>
10000dba:	b2db      	uxtb	r3, r3
10000dbc:	430b      	orrs	r3, r1
10000dbe:	54ab      	strb	r3, [r5, r2]
10000dc0:	f7ff ffe2 	bl	10000d88 <hw_claim_unlock>
10000dc4:	bd70      	pop	{r4, r5, r6, pc}
10000dc6:	4621      	mov	r1, r4
10000dc8:	4630      	mov	r0, r6
10000dca:	f7ff ffb3 	bl	10000d34 <panic>
	...

10000dd0 <next_striped_spin_lock_num>:
10000dd0:	4a05      	ldr	r2, [pc, #20]	; (10000de8 <next_striped_spin_lock_num+0x18>)
10000dd2:	7810      	ldrb	r0, [r2, #0]
10000dd4:	1c43      	adds	r3, r0, #1
10000dd6:	b2db      	uxtb	r3, r3
10000dd8:	7013      	strb	r3, [r2, #0]
10000dda:	2b17      	cmp	r3, #23
10000ddc:	d902      	bls.n	10000de4 <next_striped_spin_lock_num+0x14>
10000dde:	4613      	mov	r3, r2
10000de0:	2210      	movs	r2, #16
10000de2:	701a      	strb	r2, [r3, #0]
10000de4:	4770      	bx	lr
10000de6:	bf00      	nop
10000de8:	20011ba8 	.word	0x20011ba8

10000dec <spinlock_set_extexclall>:
10000dec:	f04f 22e0 	mov.w	r2, #3758153728	; 0xe000e000
10000df0:	6893      	ldr	r3, [r2, #8]
10000df2:	f043 5300 	orr.w	r3, r3, #536870912	; 0x20000000
10000df6:	6093      	str	r3, [r2, #8]
10000df8:	4770      	bx	lr
	...

10000dfc <spin_locks_reset>:
10000dfc:	2300      	movs	r3, #0
10000dfe:	e005      	b.n	10000e0c <spin_locks_reset+0x10>
10000e00:	4a04      	ldr	r2, [pc, #16]	; (10000e14 <spin_locks_reset+0x18>)
10000e02:	441a      	add	r2, r3
10000e04:	2100      	movs	r1, #0
10000e06:	e8c2 1f8f 	stlb	r1, [r2]
10000e0a:	3301      	adds	r3, #1
10000e0c:	2b1f      	cmp	r3, #31
10000e0e:	d9f7      	bls.n	10000e00 <spin_locks_reset+0x4>
10000e10:	4770      	bx	lr
10000e12:	bf00      	nop
10000e14:	20012658 	.word	0x20012658

10000e18 <spin_lock_init>:
10000e18:	b508      	push	{r3, lr}
10000e1a:	281f      	cmp	r0, #31
10000e1c:	d805      	bhi.n	10000e2a <spin_lock_init+0x12>
10000e1e:	4b06      	ldr	r3, [pc, #24]	; (10000e38 <spin_lock_init+0x20>)
10000e20:	4418      	add	r0, r3
10000e22:	2300      	movs	r3, #0
10000e24:	e8c0 3f8f 	stlb	r3, [r0]
10000e28:	bd08      	pop	{r3, pc}
10000e2a:	4b04      	ldr	r3, [pc, #16]	; (10000e3c <spin_lock_init+0x24>)
10000e2c:	4a04      	ldr	r2, [pc, #16]	; (10000e40 <spin_lock_init+0x28>)
10000e2e:	210f      	movs	r1, #15
10000e30:	4804      	ldr	r0, [pc, #16]	; (10000e44 <spin_lock_init+0x2c>)
10000e32:	f002 f847 	bl	10002ec4 <__assert_func>
10000e36:	bf00      	nop
10000e38:	20012658 	.word	0x20012658
10000e3c:	10004cc4 	.word	0x10004cc4
10000e40:	10004d2c 	.word	0x10004d2c
10000e44:	10004ce0 	.word	0x10004ce0

10000e48 <set_raw_irq_handler_and_unlock>:
10000e48:	4b06      	ldr	r3, [pc, #24]	; (10000e64 <set_raw_irq_handler_and_unlock+0x1c>)
10000e4a:	689b      	ldr	r3, [r3, #8]
10000e4c:	3010      	adds	r0, #16
10000e4e:	f843 1020 	str.w	r1, [r3, r0, lsl #2]
10000e52:	f3bf 8f5f 	dmb	sy
10000e56:	2300      	movs	r3, #0
10000e58:	4903      	ldr	r1, [pc, #12]	; (10000e68 <set_raw_irq_handler_and_unlock+0x20>)
10000e5a:	e8c1 3f8f 	stlb	r3, [r1]
10000e5e:	f382 8810 	msr	PRIMASK, r2
10000e62:	4770      	bx	lr
10000e64:	e000ed00 	.word	0xe000ed00
10000e68:	20012661 	.word	0x20012661

10000e6c <nvic_ipr0>:
10000e6c:	4800      	ldr	r0, [pc, #0]	; (10000e70 <nvic_ipr0+0x4>)
10000e6e:	4770      	bx	lr
10000e70:	e000e400 	.word	0xe000e400

10000e74 <runtime_init_per_core_irq_priorities>:
10000e74:	b508      	push	{r3, lr}
10000e76:	f7ff fff9 	bl	10000e6c <nvic_ipr0>
10000e7a:	2300      	movs	r3, #0
10000e7c:	e004      	b.n	10000e88 <runtime_init_per_core_irq_priorities+0x14>
10000e7e:	f04f 3280 	mov.w	r2, #2155905152	; 0x80808080
10000e82:	f840 2b04 	str.w	r2, [r0], #4
10000e86:	3301      	adds	r3, #1
10000e88:	2b0c      	cmp	r3, #12
10000e8a:	d9f8      	bls.n	10000e7e <runtime_init_per_core_irq_priorities+0xa>
10000e8c:	b662      	cpsie	i
10000e8e:	bd08      	pop	{r3, pc}

10000e90 <make_j_16>:
10000e90:	b508      	push	{r3, lr}
10000e92:	1a09      	subs	r1, r1, r0
10000e94:	1f08      	subs	r0, r1, #4
10000e96:	f201 71fc 	addw	r1, r1, #2044	; 0x7fc
10000e9a:	f640 73fe 	movw	r3, #4094	; 0xffe
10000e9e:	4299      	cmp	r1, r3
10000ea0:	d807      	bhi.n	10000eb2 <make_j_16+0x22>
10000ea2:	f010 0f01 	tst.w	r0, #1
10000ea6:	d104      	bne.n	10000eb2 <make_j_16+0x22>
10000ea8:	f3c0 004a 	ubfx	r0, r0, #1, #11
10000eac:	f440 4060 	orr.w	r0, r0, #57344	; 0xe000
10000eb0:	bd08      	pop	{r3, pc}
10000eb2:	4b03      	ldr	r3, [pc, #12]	; (10000ec0 <make_j_16+0x30>)
10000eb4:	4a03      	ldr	r2, [pc, #12]	; (10000ec4 <make_j_16+0x34>)
10000eb6:	f44f 7187 	mov.w	r1, #270	; 0x10e
10000eba:	4803      	ldr	r0, [pc, #12]	; (10000ec8 <make_j_16+0x38>)
10000ebc:	f002 f802 	bl	10002ec4 <__assert_func>
10000ec0:	10004d3c 	.word	0x10004d3c
10000ec4:	10004f8c 	.word	0x10004f8c
10000ec8:	10004d6c 	.word	0x10004d6c

10000ecc <insert_bl_32>:
10000ecc:	b508      	push	{r3, lr}
10000ece:	1a09      	subs	r1, r1, r0
10000ed0:	3904      	subs	r1, #4
10000ed2:	084b      	lsrs	r3, r1, #1
10000ed4:	0b09      	lsrs	r1, r1, #12
10000ed6:	d10a      	bne.n	10000eee <insert_bl_32+0x22>
10000ed8:	f3c1 010a 	ubfx	r1, r1, #0, #11
10000edc:	f441 4170 	orr.w	r1, r1, #61440	; 0xf000
10000ee0:	8001      	strh	r1, [r0, #0]
10000ee2:	ea6f 5343 	mvn.w	r3, r3, lsl #21
10000ee6:	ea6f 5353 	mvn.w	r3, r3, lsr #21
10000eea:	8043      	strh	r3, [r0, #2]
10000eec:	bd08      	pop	{r3, pc}
10000eee:	4b03      	ldr	r3, [pc, #12]	; (10000efc <insert_bl_32+0x30>)
10000ef0:	4a03      	ldr	r2, [pc, #12]	; (10000f00 <insert_bl_32+0x34>)
10000ef2:	f44f 718b 	mov.w	r1, #278	; 0x116
10000ef6:	4803      	ldr	r0, [pc, #12]	; (10000f04 <insert_bl_32+0x38>)
10000ef8:	f001 ffe4 	bl	10002ec4 <__assert_func>
10000efc:	10004da0 	.word	0x10004da0
10000f00:	10004f68 	.word	0x10004f68
10000f04:	10004d6c 	.word	0x10004d6c

10000f08 <irq_is_enabled>:
10000f08:	0942      	lsrs	r2, r0, #5
10000f0a:	4b06      	ldr	r3, [pc, #24]	; (10000f24 <irq_is_enabled+0x1c>)
10000f0c:	f853 2022 	ldr.w	r2, [r3, r2, lsl #2]
10000f10:	f000 001f 	and.w	r0, r0, #31
10000f14:	2301      	movs	r3, #1
10000f16:	fa03 f000 	lsl.w	r0, r3, r0
10000f1a:	4202      	tst	r2, r0
10000f1c:	bf14      	ite	ne
10000f1e:	4618      	movne	r0, r3
10000f20:	2000      	moveq	r0, #0
10000f22:	4770      	bx	lr
10000f24:	e000e100 	.word	0xe000e100

10000f28 <irq_set_mask_enabled>:
10000f28:	b121      	cbz	r1, 10000f34 <irq_set_mask_enabled+0xc>
10000f2a:	4b04      	ldr	r3, [pc, #16]	; (10000f3c <irq_set_mask_enabled+0x14>)
10000f2c:	f8c3 0180 	str.w	r0, [r3, #384]	; 0x180
10000f30:	6018      	str	r0, [r3, #0]
10000f32:	4770      	bx	lr
10000f34:	4b01      	ldr	r3, [pc, #4]	; (10000f3c <irq_set_mask_enabled+0x14>)
10000f36:	f8c3 0080 	str.w	r0, [r3, #128]	; 0x80
10000f3a:	4770      	bx	lr
10000f3c:	e000e100 	.word	0xe000e100

10000f40 <irq_set_mask_n_enabled>:
10000f40:	b13a      	cbz	r2, 10000f52 <irq_set_mask_n_enabled+0x12>
10000f42:	4b06      	ldr	r3, [pc, #24]	; (10000f5c <irq_set_mask_n_enabled+0x1c>)
10000f44:	f100 0260 	add.w	r2, r0, #96	; 0x60
10000f48:	f843 1022 	str.w	r1, [r3, r2, lsl #2]
10000f4c:	f843 1020 	str.w	r1, [r3, r0, lsl #2]
10000f50:	4770      	bx	lr
10000f52:	3020      	adds	r0, #32
10000f54:	4b01      	ldr	r3, [pc, #4]	; (10000f5c <irq_set_mask_n_enabled+0x1c>)
10000f56:	f843 1020 	str.w	r1, [r3, r0, lsl #2]
10000f5a:	4770      	bx	lr
10000f5c:	e000e100 	.word	0xe000e100

10000f60 <irq_set_enabled>:
10000f60:	b508      	push	{r3, lr}
10000f62:	460a      	mov	r2, r1
10000f64:	f000 031f 	and.w	r3, r0, #31
10000f68:	2101      	movs	r1, #1
10000f6a:	4099      	lsls	r1, r3
10000f6c:	0940      	lsrs	r0, r0, #5
10000f6e:	f7ff ffe7 	bl	10000f40 <irq_set_mask_n_enabled>
10000f72:	bd08      	pop	{r3, pc}

10000f74 <irq_get_vtable_handler>:
10000f74:	4b02      	ldr	r3, [pc, #8]	; (10000f80 <irq_get_vtable_handler+0xc>)
10000f76:	689b      	ldr	r3, [r3, #8]
10000f78:	3010      	adds	r0, #16
10000f7a:	f853 0020 	ldr.w	r0, [r3, r0, lsl #2]
10000f7e:	4770      	bx	lr
10000f80:	e000ed00 	.word	0xe000ed00

10000f84 <irq_set_exclusive_handler>:
10000f84:	b570      	push	{r4, r5, r6, lr}
10000f86:	4605      	mov	r5, r0
10000f88:	460c      	mov	r4, r1
10000f8a:	f3ef 8610 	mrs	r6, PRIMASK
10000f8e:	b672      	cpsid	i
10000f90:	4b0f      	ldr	r3, [pc, #60]	; (10000fd0 <irq_set_exclusive_handler+0x4c>)
10000f92:	e8d3 1fcf 	ldaexb	r1, [r3]
10000f96:	2201      	movs	r2, #1
10000f98:	2900      	cmp	r1, #0
10000f9a:	d1fa      	bne.n	10000f92 <irq_set_exclusive_handler+0xe>
10000f9c:	e8c3 2f41 	strexb	r1, r2, [r3]
10000fa0:	2900      	cmp	r1, #0
10000fa2:	d1f6      	bne.n	10000f92 <irq_set_exclusive_handler+0xe>
10000fa4:	f3bf 8f5f 	dmb	sy
10000fa8:	f7ff ffe4 	bl	10000f74 <irq_get_vtable_handler>
10000fac:	4b09      	ldr	r3, [pc, #36]	; (10000fd4 <irq_set_exclusive_handler+0x50>)
10000fae:	4298      	cmp	r0, r3
10000fb0:	d001      	beq.n	10000fb6 <irq_set_exclusive_handler+0x32>
10000fb2:	42a0      	cmp	r0, r4
10000fb4:	d105      	bne.n	10000fc2 <irq_set_exclusive_handler+0x3e>
10000fb6:	4632      	mov	r2, r6
10000fb8:	4621      	mov	r1, r4
10000fba:	4628      	mov	r0, r5
10000fbc:	f7ff ff44 	bl	10000e48 <set_raw_irq_handler_and_unlock>
10000fc0:	bd70      	pop	{r4, r5, r6, pc}
10000fc2:	4b05      	ldr	r3, [pc, #20]	; (10000fd8 <irq_set_exclusive_handler+0x54>)
10000fc4:	4a05      	ldr	r2, [pc, #20]	; (10000fdc <irq_set_exclusive_handler+0x58>)
10000fc6:	21ed      	movs	r1, #237	; 0xed
10000fc8:	4805      	ldr	r0, [pc, #20]	; (10000fe0 <irq_set_exclusive_handler+0x5c>)
10000fca:	f001 ff7b 	bl	10002ec4 <__assert_func>
10000fce:	bf00      	nop
10000fd0:	20012661 	.word	0x20012661
10000fd4:	10000111 	.word	0x10000111
10000fd8:	10004db0 	.word	0x10004db0
10000fdc:	10004fa8 	.word	0x10004fa8
10000fe0:	10004d6c 	.word	0x10004d6c

10000fe4 <irq_remove_handler>:
10000fe4:	e92d 47f0 	stmdb	sp!, {r4, r5, r6, r7, r8, r9, sl, lr}
10000fe8:	4606      	mov	r6, r0
10000fea:	460d      	mov	r5, r1
10000fec:	f3ef 8810 	mrs	r8, PRIMASK
10000ff0:	b672      	cpsid	i
10000ff2:	4b5b      	ldr	r3, [pc, #364]	; (10001160 <irq_remove_handler+0x17c>)
10000ff4:	e8d3 1fcf 	ldaexb	r1, [r3]
10000ff8:	2201      	movs	r2, #1
10000ffa:	2900      	cmp	r1, #0
10000ffc:	d1fa      	bne.n	10000ff4 <irq_remove_handler+0x10>
10000ffe:	e8c3 2f41 	strexb	r1, r2, [r3]
10001002:	2900      	cmp	r1, #0
10001004:	d1f6      	bne.n	10000ff4 <irq_remove_handler+0x10>
10001006:	f3bf 8f5f 	dmb	sy
1000100a:	4b56      	ldr	r3, [pc, #344]	; (10001164 <irq_remove_handler+0x180>)
1000100c:	689b      	ldr	r3, [r3, #8]
1000100e:	f100 0a10 	add.w	sl, r0, #16
10001012:	f853 702a 	ldr.w	r7, [r3, sl, lsl #2]
10001016:	4b54      	ldr	r3, [pc, #336]	; (10001168 <irq_remove_handler+0x184>)
10001018:	429f      	cmp	r7, r3
1000101a:	d007      	beq.n	1000102c <irq_remove_handler+0x48>
1000101c:	42af      	cmp	r7, r5
1000101e:	f000 809d 	beq.w	1000115c <irq_remove_handler+0x178>
10001022:	463c      	mov	r4, r7
10001024:	4b51      	ldr	r3, [pc, #324]	; (1000116c <irq_remove_handler+0x188>)
10001026:	1afb      	subs	r3, r7, r3
10001028:	2b2f      	cmp	r3, #47	; 0x2f
1000102a:	d906      	bls.n	1000103a <irq_remove_handler+0x56>
1000102c:	4642      	mov	r2, r8
1000102e:	4639      	mov	r1, r7
10001030:	4630      	mov	r0, r6
10001032:	f7ff ff09 	bl	10000e48 <set_raw_irq_handler_and_unlock>
10001036:	e8bd 87f0 	ldmia.w	sp!, {r4, r5, r6, r7, r8, r9, sl, pc}
1000103a:	f7ff ff65 	bl	10000f08 <irq_is_enabled>
1000103e:	4681      	mov	r9, r0
10001040:	2100      	movs	r1, #0
10001042:	4630      	mov	r0, r6
10001044:	f7ff ff8c 	bl	10000f60 <irq_set_enabled>
10001048:	f3bf 8f5f 	dmb	sy
1000104c:	f3ef 8005 	mrs	r0, IPSR
10001050:	b2c0      	uxtb	r0, r0
10001052:	b108      	cbz	r0, 10001058 <irq_remove_handler+0x74>
10001054:	4582      	cmp	sl, r0
10001056:	d110      	bne.n	1000107a <irq_remove_handler+0x96>
10001058:	f024 0401 	bic.w	r4, r4, #1
1000105c:	2100      	movs	r1, #0
1000105e:	68a2      	ldr	r2, [r4, #8]
10001060:	4295      	cmp	r5, r2
10001062:	d012      	beq.n	1000108a <irq_remove_handler+0xa6>
10001064:	f994 3006 	ldrsb.w	r3, [r4, #6]
10001068:	2b00      	cmp	r3, #0
1000106a:	db0d      	blt.n	10001088 <irq_remove_handler+0xa4>
1000106c:	eb03 0343 	add.w	r3, r3, r3, lsl #1
10001070:	4621      	mov	r1, r4
10001072:	4c3e      	ldr	r4, [pc, #248]	; (1000116c <irq_remove_handler+0x188>)
10001074:	eb04 0483 	add.w	r4, r4, r3, lsl #2
10001078:	e7f1      	b.n	1000105e <irq_remove_handler+0x7a>
1000107a:	4b3d      	ldr	r3, [pc, #244]	; (10001170 <irq_remove_handler+0x18c>)
1000107c:	4a3d      	ldr	r2, [pc, #244]	; (10001174 <irq_remove_handler+0x190>)
1000107e:	f240 2102 	movw	r1, #514	; 0x202
10001082:	483d      	ldr	r0, [pc, #244]	; (10001178 <irq_remove_handler+0x194>)
10001084:	f001 ff1e 	bl	10002ec4 <__assert_func>
10001088:	4621      	mov	r1, r4
1000108a:	4295      	cmp	r5, r2
1000108c:	d15f      	bne.n	1000114e <irq_remove_handler+0x16a>
1000108e:	f994 5006 	ldrsb.w	r5, [r4, #6]
10001092:	2d00      	cmp	r5, #0
10001094:	db41      	blt.n	1000111a <irq_remove_handler+0x136>
10001096:	eb05 0345 	add.w	r3, r5, r5, lsl #1
1000109a:	4a34      	ldr	r2, [pc, #208]	; (1000116c <irq_remove_handler+0x188>)
1000109c:	eb02 0383 	add.w	r3, r2, r3, lsl #2
100010a0:	689a      	ldr	r2, [r3, #8]
100010a2:	60a2      	str	r2, [r4, #8]
100010a4:	79da      	ldrb	r2, [r3, #7]
100010a6:	71e2      	strb	r2, [r4, #7]
100010a8:	f993 2006 	ldrsb.w	r2, [r3, #6]
100010ac:	71a2      	strb	r2, [r4, #6]
100010ae:	f993 3006 	ldrsb.w	r3, [r3, #6]
100010b2:	2b00      	cmp	r3, #0
100010b4:	da10      	bge.n	100010d8 <irq_remove_handler+0xf4>
100010b6:	f64b 5001 	movw	r0, #48385	; 0xbd01
100010ba:	80a0      	strh	r0, [r4, #4]
100010bc:	eb05 0245 	add.w	r2, r5, r5, lsl #1
100010c0:	4b2a      	ldr	r3, [pc, #168]	; (1000116c <irq_remove_handler+0x188>)
100010c2:	eb03 0382 	add.w	r3, r3, r2, lsl #2
100010c6:	4a2d      	ldr	r2, [pc, #180]	; (1000117c <irq_remove_handler+0x198>)
100010c8:	7811      	ldrb	r1, [r2, #0]
100010ca:	7199      	strb	r1, [r3, #6]
100010cc:	7015      	strb	r5, [r2, #0]
100010ce:	4649      	mov	r1, r9
100010d0:	4630      	mov	r0, r6
100010d2:	f7ff ff45 	bl	10000f60 <irq_set_enabled>
100010d6:	e7a9      	b.n	1000102c <irq_remove_handler+0x48>
100010d8:	1d20      	adds	r0, r4, #4
100010da:	eb05 0345 	add.w	r3, r5, r5, lsl #1
100010de:	4a23      	ldr	r2, [pc, #140]	; (1000116c <irq_remove_handler+0x188>)
100010e0:	eb02 0383 	add.w	r3, r2, r3, lsl #2
100010e4:	1d19      	adds	r1, r3, #4
100010e6:	889b      	ldrh	r3, [r3, #4]
100010e8:	0ada      	lsrs	r2, r3, #11
100010ea:	2a1c      	cmp	r2, #28
100010ec:	d108      	bne.n	10001100 <irq_remove_handler+0x11c>
100010ee:	055b      	lsls	r3, r3, #21
100010f0:	d40d      	bmi.n	1000110e <irq_remove_handler+0x12a>
100010f2:	155b      	asrs	r3, r3, #21
100010f4:	3302      	adds	r3, #2
100010f6:	eb01 0143 	add.w	r1, r1, r3, lsl #1
100010fa:	f7ff fec9 	bl	10000e90 <make_j_16>
100010fe:	e7dc      	b.n	100010ba <irq_remove_handler+0xd6>
10001100:	4b1f      	ldr	r3, [pc, #124]	; (10001180 <irq_remove_handler+0x19c>)
10001102:	4a20      	ldr	r2, [pc, #128]	; (10001184 <irq_remove_handler+0x1a0>)
10001104:	f44f 718e 	mov.w	r1, #284	; 0x11c
10001108:	481b      	ldr	r0, [pc, #108]	; (10001178 <irq_remove_handler+0x194>)
1000110a:	f001 fedb 	bl	10002ec4 <__assert_func>
1000110e:	f503 13ff 	add.w	r3, r3, #2088960	; 0x1fe000
10001112:	f503 53ff 	add.w	r3, r3, #8160	; 0x1fe0
10001116:	331f      	adds	r3, #31
10001118:	e7eb      	b.n	100010f2 <irq_remove_handler+0x10e>
1000111a:	b998      	cbnz	r0, 10001144 <irq_remove_handler+0x160>
1000111c:	b181      	cbz	r1, 10001140 <irq_remove_handler+0x15c>
1000111e:	23ff      	movs	r3, #255	; 0xff
10001120:	718b      	strb	r3, [r1, #6]
10001122:	f64b 5301 	movw	r3, #48385	; 0xbd01
10001126:	808b      	strh	r3, [r1, #4]
10001128:	4a14      	ldr	r2, [pc, #80]	; (1000117c <irq_remove_handler+0x198>)
1000112a:	7813      	ldrb	r3, [r2, #0]
1000112c:	71a3      	strb	r3, [r4, #6]
1000112e:	f64a 23aa 	movw	r3, #43690	; 0xaaaa
10001132:	490e      	ldr	r1, [pc, #56]	; (1000116c <irq_remove_handler+0x188>)
10001134:	1a64      	subs	r4, r4, r1
10001136:	4164      	adcs	r4, r4
10001138:	4363      	muls	r3, r4
1000113a:	0d1b      	lsrs	r3, r3, #20
1000113c:	7013      	strb	r3, [r2, #0]
1000113e:	e7c6      	b.n	100010ce <irq_remove_handler+0xea>
10001140:	4f09      	ldr	r7, [pc, #36]	; (10001168 <irq_remove_handler+0x184>)
10001142:	e7f1      	b.n	10001128 <irq_remove_handler+0x144>
10001144:	4910      	ldr	r1, [pc, #64]	; (10001188 <irq_remove_handler+0x1a4>)
10001146:	1d20      	adds	r0, r4, #4
10001148:	f7ff fec0 	bl	10000ecc <insert_bl_32>
1000114c:	e7bf      	b.n	100010ce <irq_remove_handler+0xea>
1000114e:	4b0f      	ldr	r3, [pc, #60]	; (1000118c <irq_remove_handler+0x1a8>)
10001150:	4a08      	ldr	r2, [pc, #32]	; (10001174 <irq_remove_handler+0x190>)
10001152:	f44f 7111 	mov.w	r1, #580	; 0x244
10001156:	4808      	ldr	r0, [pc, #32]	; (10001178 <irq_remove_handler+0x194>)
10001158:	f001 feb4 	bl	10002ec4 <__assert_func>
1000115c:	4f02      	ldr	r7, [pc, #8]	; (10001168 <irq_remove_handler+0x184>)
1000115e:	e765      	b.n	1000102c <irq_remove_handler+0x48>
10001160:	20012661 	.word	0x20012661
10001164:	e000ed00 	.word	0xe000ed00
10001168:	10000111 	.word	0x10000111
1000116c:	20011bac 	.word	0x20011bac
10001170:	10004ed4 	.word	0x10004ed4
10001174:	10004f78 	.word	0x10004f78
10001178:	10004d6c 	.word	0x10004d6c
1000117c:	20012c10 	.word	0x20012c10
10001180:	10004ebc 	.word	0x10004ebc
10001184:	10004f98 	.word	0x10004f98
10001188:	20011be6 	.word	0x20011be6
1000118c:	10004f08 	.word	0x10004f08

10001190 <irq_set_priority>:
10001190:	b538      	push	{r3, r4, r5, lr}
10001192:	4604      	mov	r4, r0
10001194:	460d      	mov	r5, r1
10001196:	f7ff fe69 	bl	10000e6c <nvic_ipr0>
1000119a:	08a1      	lsrs	r1, r4, #2
1000119c:	f850 3021 	ldr.w	r3, [r0, r1, lsl #2]
100011a0:	f004 0403 	and.w	r4, r4, #3
100011a4:	00e4      	lsls	r4, r4, #3
100011a6:	22ff      	movs	r2, #255	; 0xff
100011a8:	40a2      	lsls	r2, r4
100011aa:	ea23 0302 	bic.w	r3, r3, r2
100011ae:	fa05 f404 	lsl.w	r4, r5, r4
100011b2:	431c      	orrs	r4, r3
100011b4:	f840 4021 	str.w	r4, [r0, r1, lsl #2]
100011b8:	bd38      	pop	{r3, r4, r5, pc}
	...

100011bc <irq_add_tail_to_free_list>:
100011bc:	b538      	push	{r3, r4, r5, lr}
100011be:	f040 0e01 	orr.w	lr, r0, #1
100011c2:	4b34      	ldr	r3, [pc, #208]	; (10001294 <irq_add_tail_to_free_list+0xd8>)
100011c4:	ebae 0303 	sub.w	r3, lr, r3
100011c8:	2b2f      	cmp	r3, #47	; 0x2f
100011ca:	d831      	bhi.n	10001230 <irq_add_tail_to_free_list+0x74>
100011cc:	f3ef 8105 	mrs	r1, IPSR
100011d0:	b2c9      	uxtb	r1, r1
100011d2:	2900      	cmp	r1, #0
100011d4:	d033      	beq.n	1000123e <irq_add_tail_to_free_list+0x82>
100011d6:	f3ef 8410 	mrs	r4, PRIMASK
100011da:	b672      	cpsid	i
100011dc:	4b2e      	ldr	r3, [pc, #184]	; (10001298 <irq_add_tail_to_free_list+0xdc>)
100011de:	e8d3 5fcf 	ldaexb	r5, [r3]
100011e2:	2201      	movs	r2, #1
100011e4:	2d00      	cmp	r5, #0
100011e6:	d1fa      	bne.n	100011de <irq_add_tail_to_free_list+0x22>
100011e8:	e8c3 2f45 	strexb	r5, r2, [r3]
100011ec:	2d00      	cmp	r5, #0
100011ee:	d1f6      	bne.n	100011de <irq_add_tail_to_free_list+0x22>
100011f0:	f3bf 8f5f 	dmb	sy
100011f4:	f64a 23aa 	movw	r3, #43690	; 0xaaaa
100011f8:	4602      	mov	r2, r0
100011fa:	4d26      	ldr	r5, [pc, #152]	; (10001294 <irq_add_tail_to_free_list+0xd8>)
100011fc:	1b52      	subs	r2, r2, r5
100011fe:	4152      	adcs	r2, r2
10001200:	4353      	muls	r3, r2
10001202:	0d1b      	lsrs	r3, r3, #20
10001204:	fa4f fc83 	sxtb.w	ip, r3
10001208:	4b24      	ldr	r3, [pc, #144]	; (1000129c <irq_add_tail_to_free_list+0xe0>)
1000120a:	689b      	ldr	r3, [r3, #8]
1000120c:	f853 3021 	ldr.w	r3, [r3, r1, lsl #2]
10001210:	4573      	cmp	r3, lr
10001212:	d01b      	beq.n	1000124c <irq_add_tail_to_free_list+0x90>
10001214:	2300      	movs	r3, #0
10001216:	2b03      	cmp	r3, #3
10001218:	d834      	bhi.n	10001284 <irq_add_tail_to_free_list+0xc8>
1000121a:	eb03 0243 	add.w	r2, r3, r3, lsl #1
1000121e:	491d      	ldr	r1, [pc, #116]	; (10001294 <irq_add_tail_to_free_list+0xd8>)
10001220:	eb01 0282 	add.w	r2, r1, r2, lsl #2
10001224:	f992 2006 	ldrsb.w	r2, [r2, #6]
10001228:	4562      	cmp	r2, ip
1000122a:	d020      	beq.n	1000126e <irq_add_tail_to_free_list+0xb2>
1000122c:	3301      	adds	r3, #1
1000122e:	e7f2      	b.n	10001216 <irq_add_tail_to_free_list+0x5a>
10001230:	4b1b      	ldr	r3, [pc, #108]	; (100012a0 <irq_add_tail_to_free_list+0xe4>)
10001232:	4a1c      	ldr	r2, [pc, #112]	; (100012a4 <irq_add_tail_to_free_list+0xe8>)
10001234:	f240 217f 	movw	r1, #639	; 0x27f
10001238:	481b      	ldr	r0, [pc, #108]	; (100012a8 <irq_add_tail_to_free_list+0xec>)
1000123a:	f001 fe43 	bl	10002ec4 <__assert_func>
1000123e:	4b1b      	ldr	r3, [pc, #108]	; (100012ac <irq_add_tail_to_free_list+0xf0>)
10001240:	4a18      	ldr	r2, [pc, #96]	; (100012a4 <irq_add_tail_to_free_list+0xe8>)
10001242:	f240 2182 	movw	r1, #642	; 0x282
10001246:	4818      	ldr	r0, [pc, #96]	; (100012a8 <irq_add_tail_to_free_list+0xec>)
10001248:	f001 fe3c 	bl	10002ec4 <__assert_func>
1000124c:	4b13      	ldr	r3, [pc, #76]	; (1000129c <irq_add_tail_to_free_list+0xe0>)
1000124e:	689b      	ldr	r3, [r3, #8]
10001250:	4a17      	ldr	r2, [pc, #92]	; (100012b0 <irq_add_tail_to_free_list+0xf4>)
10001252:	f843 2021 	str.w	r2, [r3, r1, lsl #2]
10001256:	4b17      	ldr	r3, [pc, #92]	; (100012b4 <irq_add_tail_to_free_list+0xf8>)
10001258:	781a      	ldrb	r2, [r3, #0]
1000125a:	7182      	strb	r2, [r0, #6]
1000125c:	f883 c000 	strb.w	ip, [r3]
10001260:	2300      	movs	r3, #0
10001262:	4a0d      	ldr	r2, [pc, #52]	; (10001298 <irq_add_tail_to_free_list+0xdc>)
10001264:	e8c2 3f8f 	stlb	r3, [r2]
10001268:	f384 8810 	msr	PRIMASK, r4
1000126c:	bd38      	pop	{r3, r4, r5, pc}
1000126e:	460a      	mov	r2, r1
10001270:	eb03 0143 	add.w	r1, r3, r3, lsl #1
10001274:	eb02 0181 	add.w	r1, r2, r1, lsl #2
10001278:	25ff      	movs	r5, #255	; 0xff
1000127a:	718d      	strb	r5, [r1, #6]
1000127c:	f64b 5201 	movw	r2, #48385	; 0xbd01
10001280:	808a      	strh	r2, [r1, #4]
10001282:	e7e8      	b.n	10001256 <irq_add_tail_to_free_list+0x9a>
10001284:	4b0c      	ldr	r3, [pc, #48]	; (100012b8 <irq_add_tail_to_free_list+0xfc>)
10001286:	4a07      	ldr	r2, [pc, #28]	; (100012a4 <irq_add_tail_to_free_list+0xe8>)
10001288:	f240 2193 	movw	r1, #659	; 0x293
1000128c:	4806      	ldr	r0, [pc, #24]	; (100012a8 <irq_add_tail_to_free_list+0xec>)
1000128e:	f001 fe19 	bl	10002ec4 <__assert_func>
10001292:	bf00      	nop
10001294:	20011bac 	.word	0x20011bac
10001298:	20012661 	.word	0x20012661
1000129c:	e000ed00 	.word	0xe000ed00
100012a0:	10004f10 	.word	0x10004f10
100012a4:	10004f4c 	.word	0x10004f4c
100012a8:	10004d6c 	.word	0x10004d6c
100012ac:	10004f38 	.word	0x10004f38
100012b0:	10000111 	.word	0x10000111
100012b4:	20012c10 	.word	0x20012c10
100012b8:	10004f44 	.word	0x10004f44

100012bc <setup_default_uart>:
100012bc:	b508      	push	{r3, lr}
100012be:	f002 f879 	bl	100033b4 <stdio_uart_init>
100012c2:	bd08      	pop	{r3, pc}

100012c4 <gpio_set_function>:
100012c4:	4b0c      	ldr	r3, [pc, #48]	; (100012f8 <gpio_set_function+0x34>)
100012c6:	eb03 0280 	add.w	r2, r3, r0, lsl #2
100012ca:	f853 3020 	ldr.w	r3, [r3, r0, lsl #2]
100012ce:	f083 0340 	eor.w	r3, r3, #64	; 0x40
100012d2:	f003 03c0 	and.w	r3, r3, #192	; 0xc0
100012d6:	f502 5c80 	add.w	ip, r2, #4096	; 0x1000
100012da:	f8cc 3000 	str.w	r3, [ip]
100012de:	00c0      	lsls	r0, r0, #3
100012e0:	f100 4080 	add.w	r0, r0, #1073741824	; 0x40000000
100012e4:	f500 3020 	add.w	r0, r0, #163840	; 0x28000
100012e8:	6041      	str	r1, [r0, #4]
100012ea:	f502 5240 	add.w	r2, r2, #12288	; 0x3000
100012ee:	f44f 7380 	mov.w	r3, #256	; 0x100
100012f2:	6013      	str	r3, [r2, #0]
100012f4:	4770      	bx	lr
100012f6:	bf00      	nop
100012f8:	40038004 	.word	0x40038004

100012fc <gpio_init>:
100012fc:	b508      	push	{r3, lr}
100012fe:	2200      	movs	r2, #0
10001300:	ec42 0044 	gpioc_bit_oe_put r0, r2
10001304:	ec42 0040 	gpioc_bit_out_put r0, r2
10001308:	2105      	movs	r1, #5
1000130a:	f7ff ffdb 	bl	100012c4 <gpio_set_function>
1000130e:	bd08      	pop	{r3, pc}

10001310 <uart_disable_before_lcr_write>:
10001310:	b538      	push	{r3, r4, r5, lr}
10001312:	6b04      	ldr	r4, [r0, #48]	; 0x30
10001314:	f014 0f01 	tst.w	r4, #1
10001318:	d101      	bne.n	1000131e <uart_disable_before_lcr_write+0xe>
1000131a:	4620      	mov	r0, r4
1000131c:	bd38      	pop	{r3, r4, r5, pc}
1000131e:	f500 5340 	add.w	r3, r0, #12288	; 0x3000
10001322:	f240 3201 	movw	r2, #769	; 0x301
10001326:	631a      	str	r2, [r3, #48]	; 0x30
10001328:	6a43      	ldr	r3, [r0, #36]	; 0x24
1000132a:	6a85      	ldr	r5, [r0, #40]	; 0x28
1000132c:	eb05 1583 	add.w	r5, r5, r3, lsl #6
10001330:	02ad      	lsls	r5, r5, #10
10001332:	2006      	movs	r0, #6
10001334:	f000 f8f8 	bl	10001528 <clock_get_hz>
10001338:	4b04      	ldr	r3, [pc, #16]	; (1000134c <uart_disable_before_lcr_write+0x3c>)
1000133a:	fba3 3000 	umull	r3, r0, r3, r0
1000133e:	0ac0      	lsrs	r0, r0, #11
10001340:	fbb5 f0f0 	udiv	r0, r5, r0
10001344:	2100      	movs	r1, #0
10001346:	f7ff fceb 	bl	10000d20 <busy_wait_us>
1000134a:	e7e6      	b.n	1000131a <uart_disable_before_lcr_write+0xa>
1000134c:	8f2b7b75 	.word	0x8f2b7b75

10001350 <uart_write_lcr_bits_masked>:
10001350:	b570      	push	{r4, r5, r6, lr}
10001352:	4605      	mov	r5, r0
10001354:	460c      	mov	r4, r1
10001356:	4616      	mov	r6, r2
10001358:	f7ff ffda 	bl	10001310 <uart_disable_before_lcr_write>
1000135c:	6ae9      	ldr	r1, [r5, #44]	; 0x2c
1000135e:	404c      	eors	r4, r1
10001360:	4034      	ands	r4, r6
10001362:	f505 5381 	add.w	r3, r5, #4128	; 0x1020
10001366:	60dc      	str	r4, [r3, #12]
10001368:	6328      	str	r0, [r5, #48]	; 0x30
1000136a:	bd70      	pop	{r4, r5, r6, pc}

1000136c <uart_set_baudrate>:
1000136c:	b570      	push	{r4, r5, r6, lr}
1000136e:	4605      	mov	r5, r0
10001370:	460c      	mov	r4, r1
10001372:	2006      	movs	r0, #6
10001374:	f000 f8d8 	bl	10001528 <clock_get_hz>
10001378:	00c3      	lsls	r3, r0, #3
1000137a:	fbb3 f1f4 	udiv	r1, r3, r4
1000137e:	3101      	adds	r1, #1
10001380:	09cc      	lsrs	r4, r1, #7
10001382:	d007      	beq.n	10001394 <uart_set_baudrate+0x28>
10001384:	f64f 73fe 	movw	r3, #65534	; 0xfffe
10001388:	429c      	cmp	r4, r3
1000138a:	d814      	bhi.n	100013b6 <uart_set_baudrate+0x4a>
1000138c:	4626      	mov	r6, r4
1000138e:	f3c1 0445 	ubfx	r4, r1, #1, #6
10001392:	e000      	b.n	10001396 <uart_set_baudrate+0x2a>
10001394:	2601      	movs	r6, #1
10001396:	626e      	str	r6, [r5, #36]	; 0x24
10001398:	62ac      	str	r4, [r5, #40]	; 0x28
1000139a:	2200      	movs	r2, #0
1000139c:	4611      	mov	r1, r2
1000139e:	4628      	mov	r0, r5
100013a0:	f7ff ffd6 	bl	10001350 <uart_write_lcr_bits_masked>
100013a4:	2006      	movs	r0, #6
100013a6:	f000 f8bf 	bl	10001528 <clock_get_hz>
100013aa:	0080      	lsls	r0, r0, #2
100013ac:	eb04 1486 	add.w	r4, r4, r6, lsl #6
100013b0:	fbb0 f0f4 	udiv	r0, r0, r4
100013b4:	bd70      	pop	{r4, r5, r6, pc}
100013b6:	2400      	movs	r4, #0
100013b8:	f64f 76ff 	movw	r6, #65535	; 0xffff
100013bc:	e7eb      	b.n	10001396 <uart_set_baudrate+0x2a>
	...

100013c0 <uart_set_translate_crlf>:
100013c0:	b149      	cbz	r1, 100013d6 <uart_set_translate_crlf+0x16>
100013c2:	220a      	movs	r2, #10
100013c4:	4b05      	ldr	r3, [pc, #20]	; (100013dc <uart_set_translate_crlf+0x1c>)
100013c6:	4298      	cmp	r0, r3
100013c8:	bf14      	ite	ne
100013ca:	2000      	movne	r0, #0
100013cc:	2001      	moveq	r0, #1
100013ce:	4b04      	ldr	r3, [pc, #16]	; (100013e0 <uart_set_translate_crlf+0x20>)
100013d0:	f823 2010 	strh.w	r2, [r3, r0, lsl #1]
100013d4:	4770      	bx	lr
100013d6:	f44f 7280 	mov.w	r2, #256	; 0x100
100013da:	e7f3      	b.n	100013c4 <uart_set_translate_crlf+0x4>
100013dc:	40078000 	.word	0x40078000
100013e0:	20012a68 	.word	0x20012a68

100013e4 <uart_init>:
100013e4:	b538      	push	{r3, r4, r5, lr}
100013e6:	4604      	mov	r4, r0
100013e8:	460d      	mov	r5, r1
100013ea:	2006      	movs	r0, #6
100013ec:	f000 f89c 	bl	10001528 <clock_get_hz>
100013f0:	b348      	cbz	r0, 10001446 <uart_init+0x62>
100013f2:	4b17      	ldr	r3, [pc, #92]	; (10001450 <uart_init+0x6c>)
100013f4:	429c      	cmp	r4, r3
100013f6:	d027      	beq.n	10001448 <uart_init+0x64>
100013f8:	221a      	movs	r2, #26
100013fa:	2301      	movs	r3, #1
100013fc:	4093      	lsls	r3, r2
100013fe:	4a15      	ldr	r2, [pc, #84]	; (10001454 <uart_init+0x70>)
10001400:	6013      	str	r3, [r2, #0]
10001402:	4b13      	ldr	r3, [pc, #76]	; (10001450 <uart_init+0x6c>)
10001404:	429c      	cmp	r4, r3
10001406:	d021      	beq.n	1000144c <uart_init+0x68>
10001408:	231a      	movs	r3, #26
1000140a:	2201      	movs	r2, #1
1000140c:	409a      	lsls	r2, r3
1000140e:	4b12      	ldr	r3, [pc, #72]	; (10001458 <uart_init+0x74>)
10001410:	601a      	str	r2, [r3, #0]
10001412:	4b12      	ldr	r3, [pc, #72]	; (1000145c <uart_init+0x78>)
10001414:	689b      	ldr	r3, [r3, #8]
10001416:	ea32 0303 	bics.w	r3, r2, r3
1000141a:	d1fa      	bne.n	10001412 <uart_init+0x2e>
1000141c:	2100      	movs	r1, #0
1000141e:	4620      	mov	r0, r4
10001420:	f7ff ffce 	bl	100013c0 <uart_set_translate_crlf>
10001424:	4629      	mov	r1, r5
10001426:	4620      	mov	r0, r4
10001428:	f7ff ffa0 	bl	1000136c <uart_set_baudrate>
1000142c:	6ae3      	ldr	r3, [r4, #44]	; 0x2c
1000142e:	f083 0370 	eor.w	r3, r3, #112	; 0x70
10001432:	f003 037e 	and.w	r3, r3, #126	; 0x7e
10001436:	f504 5281 	add.w	r2, r4, #4128	; 0x1020
1000143a:	60d3      	str	r3, [r2, #12]
1000143c:	f240 3301 	movw	r3, #769	; 0x301
10001440:	6323      	str	r3, [r4, #48]	; 0x30
10001442:	2303      	movs	r3, #3
10001444:	64a3      	str	r3, [r4, #72]	; 0x48
10001446:	bd38      	pop	{r3, r4, r5, pc}
10001448:	221b      	movs	r2, #27
1000144a:	e7d6      	b.n	100013fa <uart_init+0x16>
1000144c:	231b      	movs	r3, #27
1000144e:	e7dc      	b.n	1000140a <uart_init+0x26>
10001450:	40078000 	.word	0x40078000
10001454:	40022000 	.word	0x40022000
10001458:	40023000 	.word	0x40023000
1000145c:	40020000 	.word	0x40020000

10001460 <clock_configure_internal>:
10001460:	b570      	push	{r4, r5, r6, lr}
10001462:	9d04      	ldr	r5, [sp, #16]
10001464:	eb00 0c40 	add.w	ip, r0, r0, lsl #1
10001468:	ea4f 0c8c 	mov.w	ip, ip, lsl #2
1000146c:	f10c 4c80 	add.w	ip, ip, #1073741824	; 0x40000000
10001470:	f50c 3c80 	add.w	ip, ip, #65536	; 0x10000
10001474:	f8dc 4004 	ldr.w	r4, [ip, #4]
10001478:	42ac      	cmp	r4, r5
1000147a:	d201      	bcs.n	10001480 <clock_configure_internal+0x20>
1000147c:	f8cc 5004 	str.w	r5, [ip, #4]
10001480:	f1a0 0e04 	sub.w	lr, r0, #4
10001484:	fa5f fe8e 	uxtb.w	lr, lr
10001488:	f1be 0f01 	cmp.w	lr, #1
1000148c:	d927      	bls.n	100014de <clock_configure_internal+0x7e>
1000148e:	f50c 5440 	add.w	r4, ip, #12288	; 0x3000
10001492:	f44f 6600 	mov.w	r6, #2048	; 0x800
10001496:	6026      	str	r6, [r4, #0]
10001498:	4c1d      	ldr	r4, [pc, #116]	; (10001510 <clock_configure_internal+0xb0>)
1000149a:	f854 6020 	ldr.w	r6, [r4, r0, lsl #2]
1000149e:	b13e      	cbz	r6, 100014b0 <clock_configure_internal+0x50>
100014a0:	6964      	ldr	r4, [r4, #20]
100014a2:	fbb4 f4f6 	udiv	r4, r4, r6
100014a6:	3401      	adds	r4, #1
100014a8:	eb04 0444 	add.w	r4, r4, r4, lsl #1
100014ac:	3c03      	subs	r4, #3
100014ae:	d2fd      	bcs.n	100014ac <clock_configure_internal+0x4c>
100014b0:	f8dc 4000 	ldr.w	r4, [ip]
100014b4:	ea84 1242 	eor.w	r2, r4, r2, lsl #5
100014b8:	f002 02e0 	and.w	r2, r2, #224	; 0xe0
100014bc:	f50c 5480 	add.w	r4, ip, #4096	; 0x1000
100014c0:	6022      	str	r2, [r4, #0]
100014c2:	f1be 0f01 	cmp.w	lr, #1
100014c6:	d916      	bls.n	100014f6 <clock_configure_internal+0x96>
100014c8:	f50c 5200 	add.w	r2, ip, #8192	; 0x2000
100014cc:	f44f 6100 	mov.w	r1, #2048	; 0x800
100014d0:	6011      	str	r1, [r2, #0]
100014d2:	f8cc 5004 	str.w	r5, [ip, #4]
100014d6:	4a0e      	ldr	r2, [pc, #56]	; (10001510 <clock_configure_internal+0xb0>)
100014d8:	f842 3020 	str.w	r3, [r2, r0, lsl #2]
100014dc:	bd70      	pop	{r4, r5, r6, pc}
100014de:	2901      	cmp	r1, #1
100014e0:	d1d5      	bne.n	1000148e <clock_configure_internal+0x2e>
100014e2:	f50c 5440 	add.w	r4, ip, #12288	; 0x3000
100014e6:	2603      	movs	r6, #3
100014e8:	6026      	str	r6, [r4, #0]
100014ea:	f8dc 4008 	ldr.w	r4, [ip, #8]
100014ee:	f014 0f01 	tst.w	r4, #1
100014f2:	d0fa      	beq.n	100014ea <clock_configure_internal+0x8a>
100014f4:	e7dc      	b.n	100014b0 <clock_configure_internal+0x50>
100014f6:	f8dc 2000 	ldr.w	r2, [ip]
100014fa:	404a      	eors	r2, r1
100014fc:	f002 0203 	and.w	r2, r2, #3
10001500:	6022      	str	r2, [r4, #0]
10001502:	f8dc 4008 	ldr.w	r4, [ip, #8]
10001506:	2201      	movs	r2, #1
10001508:	408a      	lsls	r2, r1
1000150a:	4214      	tst	r4, r2
1000150c:	d0f9      	beq.n	10001502 <clock_configure_internal+0xa2>
1000150e:	e7db      	b.n	100014c8 <clock_configure_internal+0x68>
10001510:	200128b0 	.word	0x200128b0

10001514 <clock_configure_undivided>:
10001514:	b510      	push	{r4, lr}
10001516:	b082      	sub	sp, #8
10001518:	f44f 3480 	mov.w	r4, #65536	; 0x10000
1000151c:	9400      	str	r4, [sp, #0]
1000151e:	f7ff ff9f 	bl	10001460 <clock_configure_internal>
10001522:	b002      	add	sp, #8
10001524:	bd10      	pop	{r4, pc}
	...

10001528 <clock_get_hz>:
10001528:	4b01      	ldr	r3, [pc, #4]	; (10001530 <clock_get_hz+0x8>)
1000152a:	f853 0020 	ldr.w	r0, [r3, r0, lsl #2]
1000152e:	4770      	bx	lr
10001530:	200128b0 	.word	0x200128b0

10001534 <set_sys_clock_pll>:
10001534:	b5f0      	push	{r4, r5, r6, r7, lr}
10001536:	b083      	sub	sp, #12
10001538:	4604      	mov	r4, r0
1000153a:	460d      	mov	r5, r1
1000153c:	4616      	mov	r6, r2
1000153e:	4f13      	ldr	r7, [pc, #76]	; (1000158c <set_sys_clock_pll+0x58>)
10001540:	463b      	mov	r3, r7
10001542:	2201      	movs	r2, #1
10001544:	4611      	mov	r1, r2
10001546:	2005      	movs	r0, #5
10001548:	f7ff ffe4 	bl	10001514 <clock_configure_undivided>
1000154c:	9600      	str	r6, [sp, #0]
1000154e:	462b      	mov	r3, r5
10001550:	4622      	mov	r2, r4
10001552:	2101      	movs	r1, #1
10001554:	480e      	ldr	r0, [pc, #56]	; (10001590 <set_sys_clock_pll+0x5c>)
10001556:	f000 f859 	bl	1000160c <pll_init>
1000155a:	fb06 f505 	mul.w	r5, r6, r5
1000155e:	fbb4 f4f5 	udiv	r4, r4, r5
10001562:	4b0c      	ldr	r3, [pc, #48]	; (10001594 <set_sys_clock_pll+0x60>)
10001564:	2200      	movs	r2, #0
10001566:	2102      	movs	r1, #2
10001568:	2004      	movs	r0, #4
1000156a:	f7ff ffd3 	bl	10001514 <clock_configure_undivided>
1000156e:	4623      	mov	r3, r4
10001570:	2200      	movs	r2, #0
10001572:	2101      	movs	r1, #1
10001574:	2005      	movs	r0, #5
10001576:	f7ff ffcd 	bl	10001514 <clock_configure_undivided>
1000157a:	463b      	mov	r3, r7
1000157c:	2202      	movs	r2, #2
1000157e:	2100      	movs	r1, #0
10001580:	2006      	movs	r0, #6
10001582:	f7ff ffc7 	bl	10001514 <clock_configure_undivided>
10001586:	b003      	add	sp, #12
10001588:	bdf0      	pop	{r4, r5, r6, r7, pc}
1000158a:	bf00      	nop
1000158c:	02dc6c00 	.word	0x02dc6c00
10001590:	40050000 	.word	0x40050000
10001594:	00b71b00 	.word	0x00b71b00

10001598 <check_sys_clock_khz>:
10001598:	e92d 41f0 	stmdb	sp!, {r4, r5, r6, r7, r8, lr}
1000159c:	4604      	mov	r4, r0
1000159e:	460e      	mov	r6, r1
100015a0:	4617      	mov	r7, r2
100015a2:	4698      	mov	r8, r3
100015a4:	f44f 75a0 	mov.w	r5, #320	; 0x140
100015a8:	e01a      	b.n	100015e0 <check_sys_clock_khz+0x48>
100015aa:	3b01      	subs	r3, #1
100015ac:	b19b      	cbz	r3, 100015d6 <check_sys_clock_khz+0x3e>
100015ae:	fb03 fc00 	mul.w	ip, r3, r0
100015b2:	fbb2 fefc 	udiv	lr, r2, ip
100015b6:	45a6      	cmp	lr, r4
100015b8:	d1f7      	bne.n	100015aa <check_sys_clock_khz+0x12>
100015ba:	fb0c 211e 	mls	r1, ip, lr, r2
100015be:	2900      	cmp	r1, #0
100015c0:	d1f3      	bne.n	100015aa <check_sys_clock_khz+0x12>
100015c2:	4a10      	ldr	r2, [pc, #64]	; (10001604 <check_sys_clock_khz+0x6c>)
100015c4:	fb02 f505 	mul.w	r5, r2, r5
100015c8:	6035      	str	r5, [r6, #0]
100015ca:	6038      	str	r0, [r7, #0]
100015cc:	f8c8 3000 	str.w	r3, [r8]
100015d0:	2001      	movs	r0, #1
100015d2:	e8bd 81f0 	ldmia.w	sp!, {r4, r5, r6, r7, r8, pc}
100015d6:	3801      	subs	r0, #1
100015d8:	b108      	cbz	r0, 100015de <check_sys_clock_khz+0x46>
100015da:	4603      	mov	r3, r0
100015dc:	e7e6      	b.n	100015ac <check_sys_clock_khz+0x14>
100015de:	3d01      	subs	r5, #1
100015e0:	2d0f      	cmp	r5, #15
100015e2:	d90c      	bls.n	100015fe <check_sys_clock_khz+0x66>
100015e4:	f642 62e0 	movw	r2, #12000	; 0x2ee0
100015e8:	fb05 f202 	mul.w	r2, r5, r2
100015ec:	f5a2 2337 	sub.w	r3, r2, #749568	; 0xb7000
100015f0:	f5a3 73d8 	sub.w	r3, r3, #432	; 0x1b0
100015f4:	4904      	ldr	r1, [pc, #16]	; (10001608 <check_sys_clock_khz+0x70>)
100015f6:	428b      	cmp	r3, r1
100015f8:	d8f1      	bhi.n	100015de <check_sys_clock_khz+0x46>
100015fa:	2007      	movs	r0, #7
100015fc:	e7ec      	b.n	100015d8 <check_sys_clock_khz+0x40>
100015fe:	2000      	movs	r0, #0
10001600:	e7e7      	b.n	100015d2 <check_sys_clock_khz+0x3a>
10001602:	bf00      	nop
10001604:	00b71b00 	.word	0x00b71b00
10001608:	000cf850 	.word	0x000cf850

1000160c <pll_init>:
1000160c:	b570      	push	{r4, r5, r6, lr}
1000160e:	9c04      	ldr	r4, [sp, #16]
10001610:	4d34      	ldr	r5, [pc, #208]	; (100016e4 <pll_init+0xd8>)
10001612:	fbb5 fcf1 	udiv	ip, r5, r1
10001616:	4d34      	ldr	r5, [pc, #208]	; (100016e8 <pll_init+0xdc>)
10001618:	4415      	add	r5, r2
1000161a:	4e34      	ldr	r6, [pc, #208]	; (100016ec <pll_init+0xe0>)
1000161c:	42b5      	cmp	r5, r6
1000161e:	d837      	bhi.n	10001690 <pll_init+0x84>
10001620:	fbb2 f5fc 	udiv	r5, r2, ip
10001624:	f1a5 0e10 	sub.w	lr, r5, #16
10001628:	f5be 7f98 	cmp.w	lr, #304	; 0x130
1000162c:	d836      	bhi.n	1000169c <pll_init+0x90>
1000162e:	f103 3eff 	add.w	lr, r3, #4294967295
10001632:	f1be 0f06 	cmp.w	lr, #6
10001636:	d837      	bhi.n	100016a8 <pll_init+0x9c>
10001638:	f104 3eff 	add.w	lr, r4, #4294967295
1000163c:	f1be 0f06 	cmp.w	lr, #6
10001640:	d832      	bhi.n	100016a8 <pll_init+0x9c>
10001642:	ebbc 1f12 	cmp.w	ip, r2, lsr #4
10001646:	d835      	bhi.n	100016b4 <pll_init+0xa8>
10001648:	0324      	lsls	r4, r4, #12
1000164a:	ea44 4403 	orr.w	r4, r4, r3, lsl #16
1000164e:	6803      	ldr	r3, [r0, #0]
10001650:	2b00      	cmp	r3, #0
10001652:	db35      	blt.n	100016c0 <pll_init+0xb4>
10001654:	4b26      	ldr	r3, [pc, #152]	; (100016f0 <pll_init+0xe4>)
10001656:	4298      	cmp	r0, r3
10001658:	d042      	beq.n	100016e0 <pll_init+0xd4>
1000165a:	230e      	movs	r3, #14
1000165c:	2201      	movs	r2, #1
1000165e:	409a      	lsls	r2, r3
10001660:	4b24      	ldr	r3, [pc, #144]	; (100016f4 <pll_init+0xe8>)
10001662:	601a      	str	r2, [r3, #0]
10001664:	f503 5380 	add.w	r3, r3, #4096	; 0x1000
10001668:	601a      	str	r2, [r3, #0]
1000166a:	4b23      	ldr	r3, [pc, #140]	; (100016f8 <pll_init+0xec>)
1000166c:	689b      	ldr	r3, [r3, #8]
1000166e:	ea32 0303 	bics.w	r3, r2, r3
10001672:	d1fa      	bne.n	1000166a <pll_init+0x5e>
10001674:	6001      	str	r1, [r0, #0]
10001676:	6085      	str	r5, [r0, #8]
10001678:	f500 5240 	add.w	r2, r0, #12288	; 0x3000
1000167c:	3204      	adds	r2, #4
1000167e:	2321      	movs	r3, #33	; 0x21
10001680:	6013      	str	r3, [r2, #0]
10001682:	6803      	ldr	r3, [r0, #0]
10001684:	2b00      	cmp	r3, #0
10001686:	dafc      	bge.n	10001682 <pll_init+0x76>
10001688:	60c4      	str	r4, [r0, #12]
1000168a:	2308      	movs	r3, #8
1000168c:	6013      	str	r3, [r2, #0]
1000168e:	bd70      	pop	{r4, r5, r6, pc}
10001690:	4b1a      	ldr	r3, [pc, #104]	; (100016fc <pll_init+0xf0>)
10001692:	4a1b      	ldr	r2, [pc, #108]	; (10001700 <pll_init+0xf4>)
10001694:	2111      	movs	r1, #17
10001696:	481b      	ldr	r0, [pc, #108]	; (10001704 <pll_init+0xf8>)
10001698:	f001 fc14 	bl	10002ec4 <__assert_func>
1000169c:	4b1a      	ldr	r3, [pc, #104]	; (10001708 <pll_init+0xfc>)
1000169e:	4a18      	ldr	r2, [pc, #96]	; (10001700 <pll_init+0xf4>)
100016a0:	2119      	movs	r1, #25
100016a2:	4818      	ldr	r0, [pc, #96]	; (10001704 <pll_init+0xf8>)
100016a4:	f001 fc0e 	bl	10002ec4 <__assert_func>
100016a8:	4b18      	ldr	r3, [pc, #96]	; (1000170c <pll_init+0x100>)
100016aa:	4a15      	ldr	r2, [pc, #84]	; (10001700 <pll_init+0xf4>)
100016ac:	211c      	movs	r1, #28
100016ae:	4815      	ldr	r0, [pc, #84]	; (10001704 <pll_init+0xf8>)
100016b0:	f001 fc08 	bl	10002ec4 <__assert_func>
100016b4:	4b16      	ldr	r3, [pc, #88]	; (10001710 <pll_init+0x104>)
100016b6:	4a12      	ldr	r2, [pc, #72]	; (10001700 <pll_init+0xf4>)
100016b8:	2123      	movs	r1, #35	; 0x23
100016ba:	4812      	ldr	r0, [pc, #72]	; (10001704 <pll_init+0xf8>)
100016bc:	f001 fc02 	bl	10002ec4 <__assert_func>
100016c0:	6803      	ldr	r3, [r0, #0]
100016c2:	f003 033f 	and.w	r3, r3, #63	; 0x3f
100016c6:	428b      	cmp	r3, r1
100016c8:	d1c4      	bne.n	10001654 <pll_init+0x48>
100016ca:	6883      	ldr	r3, [r0, #8]
100016cc:	f3c3 030b 	ubfx	r3, r3, #0, #12
100016d0:	42ab      	cmp	r3, r5
100016d2:	d1bf      	bne.n	10001654 <pll_init+0x48>
100016d4:	68c3      	ldr	r3, [r0, #12]
100016d6:	f403 23ee 	and.w	r3, r3, #487424	; 0x77000
100016da:	42a3      	cmp	r3, r4
100016dc:	d1ba      	bne.n	10001654 <pll_init+0x48>
100016de:	e7d6      	b.n	1000168e <pll_init+0x82>
100016e0:	230f      	movs	r3, #15
100016e2:	e7bb      	b.n	1000165c <pll_init+0x50>
100016e4:	00b71b00 	.word	0x00b71b00
100016e8:	d34be880 	.word	0xd34be880
100016ec:	32a9f880 	.word	0x32a9f880
100016f0:	40058000 	.word	0x40058000
100016f4:	40022000 	.word	0x40022000
100016f8:	40020000 	.word	0x40020000
100016fc:	10004fc4 	.word	0x10004fc4
10001700:	100050cc 	.word	0x100050cc
10001704:	10005014 	.word	0x10005014
10001708:	10005048 	.word	0x10005048
1000170c:	10005064 	.word	0x10005064
10001710:	100050b0 	.word	0x100050b0

10001714 <tick_start>:
10001714:	4a05      	ldr	r2, [pc, #20]	; (1000172c <tick_start+0x18>)
10001716:	eb00 0340 	add.w	r3, r0, r0, lsl #1
1000171a:	eb02 0383 	add.w	r3, r2, r3, lsl #2
1000171e:	6059      	str	r1, [r3, #4]
10001720:	eb00 0040 	add.w	r0, r0, r0, lsl #1
10001724:	0080      	lsls	r0, r0, #2
10001726:	2301      	movs	r3, #1
10001728:	5013      	str	r3, [r2, r0]
1000172a:	4770      	bx	lr
1000172c:	40108000 	.word	0x40108000

10001730 <rom_func_lookup>:
10001730:	b508      	push	{r3, lr}
10001732:	2300      	movs	r3, #0
10001734:	8adb      	ldrh	r3, [r3, #22]
10001736:	2200      	movs	r2, #0
10001738:	e842 f200 	tt	r2, r2
1000173c:	f412 0f80 	tst.w	r2, #4194304	; 0x400000
10001740:	d102      	bne.n	10001748 <rom_func_lookup+0x18>
10001742:	2110      	movs	r1, #16
10001744:	4798      	blx	r3
10001746:	bd08      	pop	{r3, pc}
10001748:	2104      	movs	r1, #4
1000174a:	4798      	blx	r3
1000174c:	e7fb      	b.n	10001746 <rom_func_lookup+0x16>
	...

10001750 <runtime_init_bootrom_locking_enable>:
10001750:	4b03      	ldr	r3, [pc, #12]	; (10001760 <runtime_init_bootrom_locking_enable+0x10>)
10001752:	f8d3 3828 	ldr.w	r3, [r3, #2088]	; 0x828
10001756:	2b00      	cmp	r3, #0
10001758:	d0fa      	beq.n	10001750 <runtime_init_bootrom_locking_enable>
1000175a:	f3bf 8f5f 	dmb	sy
1000175e:	4770      	bx	lr
10001760:	400e0000 	.word	0x400e0000

10001764 <boot_locks_reset>:
10001764:	2200      	movs	r2, #0
10001766:	e007      	b.n	10001778 <boot_locks_reset+0x14>
10001768:	4b05      	ldr	r3, [pc, #20]	; (10001780 <boot_locks_reset+0x1c>)
1000176a:	4413      	add	r3, r2
1000176c:	009b      	lsls	r3, r3, #2
1000176e:	f3bf 8f5f 	dmb	sy
10001772:	2100      	movs	r1, #0
10001774:	6019      	str	r1, [r3, #0]
10001776:	3201      	adds	r2, #1
10001778:	2a07      	cmp	r2, #7
1000177a:	d9f5      	bls.n	10001768 <boot_locks_reset+0x4>
1000177c:	4770      	bx	lr
1000177e:	bf00      	nop
10001780:	10038203 	.word	0x10038203

10001784 <runtime_init_boot_locks_reset>:
10001784:	b508      	push	{r3, lr}
10001786:	f7ff ffed 	bl	10001764 <boot_locks_reset>
1000178a:	bd08      	pop	{r3, pc}

1000178c <xosc_init>:
1000178c:	4b07      	ldr	r3, [pc, #28]	; (100017ac <xosc_init+0x20>)
1000178e:	f44f 622a 	mov.w	r2, #2720	; 0xaa0
10001792:	601a      	str	r2, [r3, #0]
10001794:	f44f 728d 	mov.w	r2, #282	; 0x11a
10001798:	60da      	str	r2, [r3, #12]
1000179a:	f503 5300 	add.w	r3, r3, #8192	; 0x2000
1000179e:	4a04      	ldr	r2, [pc, #16]	; (100017b0 <xosc_init+0x24>)
100017a0:	601a      	str	r2, [r3, #0]
100017a2:	4b02      	ldr	r3, [pc, #8]	; (100017ac <xosc_init+0x20>)
100017a4:	685b      	ldr	r3, [r3, #4]
100017a6:	2b00      	cmp	r3, #0
100017a8:	dafb      	bge.n	100017a2 <xosc_init+0x16>
100017aa:	4770      	bx	lr
100017ac:	40048000 	.word	0x40048000
100017b0:	00fab000 	.word	0x00fab000

100017b4 <runtime_run_initializers_from>:
100017b4:	b510      	push	{r4, lr}
100017b6:	4604      	mov	r4, r0
100017b8:	e002      	b.n	100017c0 <runtime_run_initializers_from+0xc>
100017ba:	f854 3b04 	ldr.w	r3, [r4], #4
100017be:	4798      	blx	r3
100017c0:	4b01      	ldr	r3, [pc, #4]	; (100017c8 <runtime_run_initializers_from+0x14>)
100017c2:	429c      	cmp	r4, r3
100017c4:	d3f9      	bcc.n	100017ba <runtime_run_initializers_from+0x6>
100017c6:	bd10      	pop	{r4, pc}
100017c8:	10004928 	.word	0x10004928

100017cc <first_per_core_initializer>:
100017cc:	4770      	bx	lr
	...

100017d0 <runtime_run_initializers>:
100017d0:	b508      	push	{r3, lr}
100017d2:	4802      	ldr	r0, [pc, #8]	; (100017dc <runtime_run_initializers+0xc>)
100017d4:	f7ff ffee 	bl	100017b4 <runtime_run_initializers_from>
100017d8:	bd08      	pop	{r3, pc}
100017da:	bf00      	nop
100017dc:	100048e8 	.word	0x100048e8

100017e0 <runtime_run_per_core_initializers>:
100017e0:	b508      	push	{r3, lr}
100017e2:	4802      	ldr	r0, [pc, #8]	; (100017ec <runtime_run_per_core_initializers+0xc>)
100017e4:	f7ff ffe6 	bl	100017b4 <runtime_run_initializers_from>
100017e8:	bd08      	pop	{r3, pc}
100017ea:	bf00      	nop
100017ec:	10004914 	.word	0x10004914

100017f0 <runtime_init_early_resets>:
100017f0:	4b06      	ldr	r3, [pc, #24]	; (1000180c <runtime_init_early_resets+0x1c>)
100017f2:	4a07      	ldr	r2, [pc, #28]	; (10001810 <runtime_init_early_resets+0x20>)
100017f4:	601a      	str	r2, [r3, #0]
100017f6:	f503 5380 	add.w	r3, r3, #4096	; 0x1000
100017fa:	4a06      	ldr	r2, [pc, #24]	; (10001814 <runtime_init_early_resets+0x24>)
100017fc:	601a      	str	r2, [r3, #0]
100017fe:	4b06      	ldr	r3, [pc, #24]	; (10001818 <runtime_init_early_resets+0x28>)
10001800:	689a      	ldr	r2, [r3, #8]
10001802:	4b04      	ldr	r3, [pc, #16]	; (10001814 <runtime_init_early_resets+0x24>)
10001804:	4393      	bics	r3, r2
10001806:	d1fa      	bne.n	100017fe <runtime_init_early_resets+0xe>
10001808:	4770      	bx	lr
1000180a:	bf00      	nop
1000180c:	40022000 	.word	0x40022000
10001810:	efef3b7f 	.word	0xefef3b7f
10001814:	03f3fff6 	.word	0x03f3fff6
10001818:	40020000 	.word	0x40020000

1000181c <runtime_init_usb_power_down>:
1000181c:	4b05      	ldr	r3, [pc, #20]	; (10001834 <runtime_init_usb_power_down+0x18>)
1000181e:	6cdb      	ldr	r3, [r3, #76]	; 0x4c
10001820:	f5b3 4f00 	cmp.w	r3, #32768	; 0x8000
10001824:	d000      	beq.n	10001828 <runtime_init_usb_power_down+0xc>
10001826:	4770      	bx	lr
10001828:	4b03      	ldr	r3, [pc, #12]	; (10001838 <runtime_init_usb_power_down+0x1c>)
1000182a:	f44f 2280 	mov.w	r2, #262144	; 0x40000
1000182e:	64da      	str	r2, [r3, #76]	; 0x4c
10001830:	e7f9      	b.n	10001826 <runtime_init_usb_power_down+0xa>
10001832:	bf00      	nop
10001834:	50110000 	.word	0x50110000
10001838:	50112000 	.word	0x50112000

1000183c <runtime_init_per_core_enable_coprocessors>:
1000183c:	f04f 22e0 	mov.w	r2, #3758153728	; 0xe000e000
10001840:	f8d2 1d88 	ldr.w	r1, [r2, #3464]	; 0xd88
10001844:	4b03      	ldr	r3, [pc, #12]	; (10001854 <runtime_init_per_core_enable_coprocessors+0x18>)
10001846:	430b      	orrs	r3, r1
10001848:	f8c2 3d88 	str.w	r3, [r2, #3464]	; 0xd88
1000184c:	ee10 0430 	dcp_rcmp r0
10001850:	4770      	bx	lr
10001852:	bf00      	nop
10001854:	00300303 	.word	0x00300303

10001858 <runtime_init_post_clock_resets>:
10001858:	4b05      	ldr	r3, [pc, #20]	; (10001870 <runtime_init_post_clock_resets+0x18>)
1000185a:	f06f 4260 	mvn.w	r2, #3758096384	; 0xe0000000
1000185e:	601a      	str	r2, [r3, #0]
10001860:	4b04      	ldr	r3, [pc, #16]	; (10001874 <runtime_init_post_clock_resets+0x1c>)
10001862:	689b      	ldr	r3, [r3, #8]
10001864:	43db      	mvns	r3, r3
10001866:	f033 4360 	bics.w	r3, r3, #3758096384	; 0xe0000000
1000186a:	d1f9      	bne.n	10001860 <runtime_init_post_clock_resets+0x8>
1000186c:	4770      	bx	lr
1000186e:	bf00      	nop
10001870:	40023000 	.word	0x40023000
10001874:	40020000 	.word	0x40020000

10001878 <runtime_init_bootrom_reset>:
10001878:	b508      	push	{r3, lr}
1000187a:	f245 2053 	movw	r0, #21075	; 0x5253
1000187e:	f7ff ff57 	bl	10001730 <rom_func_lookup>
10001882:	4603      	mov	r3, r0
10001884:	2004      	movs	r0, #4
10001886:	4798      	blx	r3
10001888:	bd08      	pop	{r3, pc}

1000188a <runtime_init_per_core_bootrom_reset>:
1000188a:	b508      	push	{r3, lr}
1000188c:	f245 2053 	movw	r0, #21075	; 0x5253
10001890:	f7ff ff4e 	bl	10001730 <rom_func_lookup>
10001894:	4603      	mov	r3, r0
10001896:	2001      	movs	r0, #1
10001898:	4798      	blx	r3
1000189a:	bd08      	pop	{r3, pc}

1000189c <runtime_init_spin_locks_reset>:
1000189c:	b508      	push	{r3, lr}
1000189e:	f7ff faad 	bl	10000dfc <spin_locks_reset>
100018a2:	bd08      	pop	{r3, pc}

100018a4 <runtime_init_install_ram_vector_table>:
100018a4:	b510      	push	{r4, lr}
100018a6:	490c      	ldr	r1, [pc, #48]	; (100018d8 <runtime_init_install_ram_vector_table+0x34>)
100018a8:	4a0c      	ldr	r2, [pc, #48]	; (100018dc <runtime_init_install_ram_vector_table+0x38>)
100018aa:	1a52      	subs	r2, r2, r1
100018ac:	1092      	asrs	r2, r2, #2
100018ae:	4614      	mov	r4, r2
100018b0:	2a44      	cmp	r2, #68	; 0x44
100018b2:	bf28      	it	cs
100018b4:	2244      	movcs	r2, #68	; 0x44
100018b6:	0092      	lsls	r2, r2, #2
100018b8:	4809      	ldr	r0, [pc, #36]	; (100018e0 <runtime_init_install_ram_vector_table+0x3c>)
100018ba:	f002 fd4f 	bl	1000435c <memcpy>
100018be:	e004      	b.n	100018ca <runtime_init_install_ram_vector_table+0x26>
100018c0:	4a08      	ldr	r2, [pc, #32]	; (100018e4 <runtime_init_install_ram_vector_table+0x40>)
100018c2:	4b07      	ldr	r3, [pc, #28]	; (100018e0 <runtime_init_install_ram_vector_table+0x3c>)
100018c4:	f843 2024 	str.w	r2, [r3, r4, lsl #2]
100018c8:	3401      	adds	r4, #1
100018ca:	2c43      	cmp	r4, #67	; 0x43
100018cc:	d9f8      	bls.n	100018c0 <runtime_init_install_ram_vector_table+0x1c>
100018ce:	4a04      	ldr	r2, [pc, #16]	; (100018e0 <runtime_init_install_ram_vector_table+0x3c>)
100018d0:	4b05      	ldr	r3, [pc, #20]	; (100018e8 <runtime_init_install_ram_vector_table+0x44>)
100018d2:	609a      	str	r2, [r3, #8]
100018d4:	bd10      	pop	{r4, pc}
100018d6:	bf00      	nop
100018d8:	10000000 	.word	0x10000000
100018dc:	10000110 	.word	0x10000110
100018e0:	20000000 	.word	0x20000000
100018e4:	10000111 	.word	0x10000111
100018e8:	e000ed00 	.word	0xe000ed00

100018ec <start_all_ticks>:
100018ec:	b538      	push	{r3, r4, r5, lr}
100018ee:	2004      	movs	r0, #4
100018f0:	f7ff fe1a 	bl	10001528 <clock_get_hz>
100018f4:	4d06      	ldr	r5, [pc, #24]	; (10001910 <start_all_ticks+0x24>)
100018f6:	fba5 3500 	umull	r3, r5, r5, r0
100018fa:	0cad      	lsrs	r5, r5, #18
100018fc:	2400      	movs	r4, #0
100018fe:	e004      	b.n	1000190a <start_all_ticks+0x1e>
10001900:	4629      	mov	r1, r5
10001902:	b2e0      	uxtb	r0, r4
10001904:	f7ff ff06 	bl	10001714 <tick_start>
10001908:	3401      	adds	r4, #1
1000190a:	2c05      	cmp	r4, #5
1000190c:	ddf8      	ble.n	10001900 <start_all_ticks+0x14>
1000190e:	bd38      	pop	{r3, r4, r5, pc}
10001910:	431bde83 	.word	0x431bde83

10001914 <runtime_init_clocks>:
10001914:	b530      	push	{r4, r5, lr}
10001916:	b083      	sub	sp, #12
10001918:	4b26      	ldr	r3, [pc, #152]	; (100019b4 <runtime_init_clocks+0xa0>)
1000191a:	2200      	movs	r2, #0
1000191c:	f8c3 2084 	str.w	r2, [r3, #132]	; 0x84
10001920:	f7ff ff34 	bl	1000178c <xosc_init>
10001924:	4b24      	ldr	r3, [pc, #144]	; (100019b8 <runtime_init_clocks+0xa4>)
10001926:	2201      	movs	r2, #1
10001928:	63da      	str	r2, [r3, #60]	; 0x3c
1000192a:	4b22      	ldr	r3, [pc, #136]	; (100019b4 <runtime_init_clocks+0xa0>)
1000192c:	6c5b      	ldr	r3, [r3, #68]	; 0x44
1000192e:	2b01      	cmp	r3, #1
10001930:	d1fb      	bne.n	1000192a <runtime_init_clocks+0x16>
10001932:	4b21      	ldr	r3, [pc, #132]	; (100019b8 <runtime_init_clocks+0xa4>)
10001934:	2203      	movs	r2, #3
10001936:	631a      	str	r2, [r3, #48]	; 0x30
10001938:	4b1e      	ldr	r3, [pc, #120]	; (100019b4 <runtime_init_clocks+0xa0>)
1000193a:	6b9b      	ldr	r3, [r3, #56]	; 0x38
1000193c:	2b01      	cmp	r3, #1
1000193e:	d1fb      	bne.n	10001938 <runtime_init_clocks+0x24>
10001940:	2402      	movs	r4, #2
10001942:	9400      	str	r4, [sp, #0]
10001944:	2305      	movs	r3, #5
10001946:	4a1d      	ldr	r2, [pc, #116]	; (100019bc <runtime_init_clocks+0xa8>)
10001948:	2101      	movs	r1, #1
1000194a:	481d      	ldr	r0, [pc, #116]	; (100019c0 <runtime_init_clocks+0xac>)
1000194c:	f7ff fe5e 	bl	1000160c <pll_init>
10001950:	2505      	movs	r5, #5
10001952:	9500      	str	r5, [sp, #0]
10001954:	462b      	mov	r3, r5
10001956:	4a1b      	ldr	r2, [pc, #108]	; (100019c4 <runtime_init_clocks+0xb0>)
10001958:	2101      	movs	r1, #1
1000195a:	481b      	ldr	r0, [pc, #108]	; (100019c8 <runtime_init_clocks+0xb4>)
1000195c:	f7ff fe56 	bl	1000160c <pll_init>
10001960:	4b1a      	ldr	r3, [pc, #104]	; (100019cc <runtime_init_clocks+0xb8>)
10001962:	2200      	movs	r2, #0
10001964:	4621      	mov	r1, r4
10001966:	2004      	movs	r0, #4
10001968:	f7ff fdd4 	bl	10001514 <clock_configure_undivided>
1000196c:	4c18      	ldr	r4, [pc, #96]	; (100019d0 <runtime_init_clocks+0xbc>)
1000196e:	4623      	mov	r3, r4
10001970:	2200      	movs	r2, #0
10001972:	2101      	movs	r1, #1
10001974:	4628      	mov	r0, r5
10001976:	f7ff fdcd 	bl	10001514 <clock_configure_undivided>
1000197a:	4d16      	ldr	r5, [pc, #88]	; (100019d4 <runtime_init_clocks+0xc0>)
1000197c:	462b      	mov	r3, r5
1000197e:	2200      	movs	r2, #0
10001980:	4611      	mov	r1, r2
10001982:	2008      	movs	r0, #8
10001984:	f7ff fdc6 	bl	10001514 <clock_configure_undivided>
10001988:	462b      	mov	r3, r5
1000198a:	2200      	movs	r2, #0
1000198c:	4611      	mov	r1, r2
1000198e:	2009      	movs	r0, #9
10001990:	f7ff fdc0 	bl	10001514 <clock_configure_undivided>
10001994:	4623      	mov	r3, r4
10001996:	2200      	movs	r2, #0
10001998:	4611      	mov	r1, r2
1000199a:	2006      	movs	r0, #6
1000199c:	f7ff fdba 	bl	10001514 <clock_configure_undivided>
100019a0:	4623      	mov	r3, r4
100019a2:	2200      	movs	r2, #0
100019a4:	4611      	mov	r1, r2
100019a6:	2007      	movs	r0, #7
100019a8:	f7ff fdb4 	bl	10001514 <clock_configure_undivided>
100019ac:	f7ff ff9e 	bl	100018ec <start_all_ticks>
100019b0:	b003      	add	sp, #12
100019b2:	bd30      	pop	{r4, r5, pc}
100019b4:	40010000 	.word	0x40010000
100019b8:	40013000 	.word	0x40013000
100019bc:	59682f00 	.word	0x59682f00
100019c0:	40050000 	.word	0x40050000
100019c4:	47868c00 	.word	0x47868c00
100019c8:	40058000 	.word	0x40058000
100019cc:	00b71b00 	.word	0x00b71b00
100019d0:	08f0d180 	.word	0x08f0d180
100019d4:	02dc6c00 	.word	0x02dc6c00

100019d8 <generic_save_state>:
100019d8:	b086      	sub	sp, #24
100019da:	b403      	push	{r0, r1}
100019dc:	fc51 0408 	dcp_pxmd r0, r1
100019e0:	e9cd 0102 	strd	r0, r1, [sp, #8]
100019e4:	fc51 0409 	dcp_pymd r0, r1
100019e8:	e9cd 0104 	strd	r0, r1, [sp, #16]
100019ec:	ec51 040a 	dcp_refd r0, r1
100019f0:	e9cd 0106 	strd	r0, r1, [sp, #24]
100019f4:	bc03      	pop	{r0, r1}
100019f6:	47f0      	blx	lr

100019f8 <generic_restore_state>:
100019f8:	e8bd 5000 	ldmia.w	sp!, {ip, lr}
100019fc:	ec4e c400 	dcp_wxmd ip, lr
10001a00:	e8bd 5000 	ldmia.w	sp!, {ip, lr}
10001a04:	ec4e c401 	dcp_wymd ip, lr
10001a08:	e8bd 5000 	ldmia.w	sp!, {ip, lr}
10001a0c:	ec4e c402 	dcp_wefd ip, lr
10001a10:	bd00      	pop	{pc}
10001a12:	0000      	movs	r0, r0
10001a14:	b500      	push	{lr}
10001a16:	f7ff ffdf 	bl	100019d8 <generic_save_state>
10001a1a:	e002      	b.n	10001a22 <__wrap___aeabi_dadd+0x6>

10001a1c <__wrap___aeabi_dadd>:
10001a1c:	fe10 f430 	dcp_pcmp APSR_nzcv
10001a20:	d4f8      	bmi.n	10001a14 <generic_restore_state+0x1c>
10001a22:	ec41 0410 	dcp_wxup r0, r1
10001a26:	ec43 2411 	dcp_wyup r2, r3
10001a2a:	ee00 0401 	dcp_add0
10001a2e:	ee10 0401 	dcp_add1
10001a32:	ee80 0420 	dcp_nrdd
10001a36:	ec51 0410 	dcp_rdda r0, r1
10001a3a:	4770      	bx	lr
10001a3c:	b500      	push	{lr}
10001a3e:	f7ff ffcb 	bl	100019d8 <generic_save_state>
10001a42:	e002      	b.n	10001a4a <__wrap___aeabi_dsub+0x6>

10001a44 <__wrap___aeabi_dsub>:
10001a44:	fe10 f430 	dcp_pcmp APSR_nzcv
10001a48:	d4f8      	bmi.n	10001a3c <__wrap___aeabi_dadd+0x20>
10001a4a:	ec41 0410 	dcp_wxup r0, r1
10001a4e:	ec43 2411 	dcp_wyup r2, r3
10001a52:	ee00 0401 	dcp_add0
10001a56:	ee10 0421 	dcp_sub1
10001a5a:	ee80 0420 	dcp_nrdd
10001a5e:	ec51 0430 	dcp_rdds r0, r1
10001a62:	4770      	bx	lr
10001a64:	b500      	push	{lr}
10001a66:	f7ff ffb7 	bl	100019d8 <generic_save_state>
10001a6a:	e002      	b.n	10001a72 <__wrap___aeabi_dmul+0x6>

10001a6c <__wrap___aeabi_dmul>:
10001a6c:	fe10 f430 	dcp_pcmp APSR_nzcv
10001a70:	d4f8      	bmi.n	10001a64 <__wrap___aeabi_dsub+0x20>
10001a72:	b510      	push	{r4, lr}
10001a74:	ec41 0410 	dcp_wxup r0, r1
10001a78:	ec43 2411 	dcp_wyup r2, r3
10001a7c:	ec51 0404 	dcp_rxms r0, r1, #0x0
10001a80:	ec53 2405 	dcp_ryms r2, r3, #0x0
10001a84:	fba0 4c02 	umull	r4, ip, r0, r2
10001a88:	f05f 0e00 	movs.w	lr, #0
10001a8c:	fbe0 ce03 	umlal	ip, lr, r0, r3
10001a90:	fbe1 ce02 	umlal	ip, lr, r1, r2
10001a94:	ec4c 4420 	dcp_wxms r4, ip
10001a98:	2400      	movs	r4, #0
10001a9a:	fbe1 e403 	umlal	lr, r4, r1, r3
10001a9e:	ec44 e430 	dcp_wxmo lr, r4
10001aa2:	ee80 0420 	dcp_nrdd
10001aa6:	ec51 0450 	dcp_rddm r0, r1
10001aaa:	e8bd 4010 	ldmia.w	sp!, {r4, lr}
10001aae:	4770      	bx	lr
10001ab0:	b500      	push	{lr}
10001ab2:	f7ff ff91 	bl	100019d8 <generic_save_state>
10001ab6:	e002      	b.n	10001abe <__wrap___aeabi_ddiv+0x6>

10001ab8 <__wrap___aeabi_ddiv>:
10001ab8:	fe10 f430 	dcp_pcmp APSR_nzcv
10001abc:	d4f8      	bmi.n	10001ab0 <__wrap___aeabi_dmul+0x44>
10001abe:	ec41 0410 	dcp_wxup r0, r1
10001ac2:	ec43 2411 	dcp_wyup r2, r3
10001ac6:	ec51 0421 	dcp_rymr r0, r1
10001aca:	fba0 1201 	umull	r1, r2, r0, r1
10001ace:	ea6f 0282 	mvn.w	r2, r2, lsl #2
10001ad2:	fb52 0010 	smmlar	r0, r2, r0, r0
10001ad6:	fb52 f212 	smmulr	r2, r2, r2
10001ada:	fb52 0010 	smmlar	r0, r2, r0, r0
10001ade:	eba0 7cd0 	sub.w	ip, r0, r0, lsr #31
10001ae2:	ec53 2404 	dcp_rxms r2, r3, #0x0
10001ae6:	fb5c f113 	smmulr	r1, ip, r3
10001aea:	ec53 2415 	dcp_ryms r2, r3, #0x1
10001aee:	fba1 2002 	umull	r2, r0, r1, r2
10001af2:	fb01 0003 	mla	r0, r1, r3, r0
10001af6:	ec53 2444 	dcp_rxms r2, r3, #0x4
10001afa:	eba2 0000 	sub.w	r0, r2, r0
10001afe:	fb50 f21c 	smmulr	r2, r0, ip
10001b02:	ea4f 1311 	mov.w	r3, r1, lsr #4
10001b06:	eb12 7001 	adds.w	r0, r2, r1, lsl #28
10001b0a:	eb43 71e2 	adc.w	r1, r3, r2, asr #31
10001b0e:	ea40 5051 	orr.w	r0, r0, r1, lsr #21
10001b12:	ea20 5091 	bic.w	r0, r0, r1, lsr #22
10001b16:	f020 0007 	bic.w	r0, r0, #7
10001b1a:	ec53 2475 	dcp_ryms r2, r3, #0x7
10001b1e:	fba0 3c02 	umull	r3, ip, r0, r2
10001b22:	ec53 2475 	dcp_ryms r2, r3, #0x7
10001b26:	fb00 cc03 	mla	ip, r0, r3, ip
10001b2a:	fb01 cc02 	mla	ip, r1, r2, ip
10001b2e:	ec53 2404 	dcp_rxms r2, r3, #0x0
10001b32:	ebac 4c82 	sub.w	ip, ip, r2, lsl #18
10001b36:	ea40 705c 	orr.w	r0, r0, ip, lsr #29
10001b3a:	f1a0 0001 	sub.w	r0, r0, #1
10001b3e:	ec41 0440 	dcp_wxdd r0, r1
10001b42:	ee80 0420 	dcp_nrdd
10001b46:	ec51 0470 	dcp_rddd r0, r1
10001b4a:	4770      	bx	lr
10001b4c:	b500      	push	{lr}
10001b4e:	f7ff ff43 	bl	100019d8 <generic_save_state>
10001b52:	e002      	b.n	10001b5a <__wrap___aeabi_i2d+0x6>

10001b54 <__wrap___aeabi_i2d>:
10001b54:	fe10 f430 	dcp_pcmp APSR_nzcv
10001b58:	d4f8      	bmi.n	10001b4c <__wrap___aeabi_ddiv+0x94>
10001b5a:	ec40 0470 	dcp_wxic r0, r0
10001b5e:	ee00 0401 	dcp_add0
10001b62:	ee10 0421 	dcp_sub1
10001b66:	ee80 0420 	dcp_nrdd
10001b6a:	ec51 0430 	dcp_rdds r0, r1
10001b6e:	4770      	bx	lr
10001b70:	b500      	push	{lr}
10001b72:	f7ff ff31 	bl	100019d8 <generic_save_state>
10001b76:	e002      	b.n	10001b7e <__wrap___aeabi_ui2d+0x6>

10001b78 <__wrap___aeabi_ui2d>:
10001b78:	fe10 f430 	dcp_pcmp APSR_nzcv
10001b7c:	d4f8      	bmi.n	10001b70 <__wrap___aeabi_i2d+0x1c>
10001b7e:	ec40 0460 	dcp_wxuc r0, r0
10001b82:	ee00 0401 	dcp_add0
10001b86:	ee10 0421 	dcp_sub1
10001b8a:	ee80 0420 	dcp_nrdd
10001b8e:	ec51 0430 	dcp_rdds r0, r1
10001b92:	4770      	bx	lr
10001b94:	b500      	push	{lr}
10001b96:	f7ff ff1f 	bl	100019d8 <generic_save_state>
10001b9a:	e002      	b.n	10001ba2 <double2int_z_entry>

10001b9c <__wrap___aeabi_d2iz>:
10001b9c:	fe10 f430 	dcp_pcmp APSR_nzcv
10001ba0:	d4f8      	bmi.n	10001b94 <__wrap___aeabi_ui2d+0x1c>

10001ba2 <double2int_z_entry>:
10001ba2:	ec41 0480 	dcp_wxdc r0, r1
10001ba6:	ee00 0401 	dcp_add0
10001baa:	ee10 0401 	dcp_add1
10001bae:	ee80 0440 	dcp_ntdc
10001bb2:	ee10 0413 	dcp_rdic r0
10001bb6:	4770      	bx	lr
10001bb8:	b500      	push	{lr}
10001bba:	f7ff ff0d 	bl	100019d8 <generic_save_state>
10001bbe:	e002      	b.n	10001bc6 <double2uint_z_entry>

10001bc0 <__wrap___aeabi_d2uiz>:
10001bc0:	fe10 f430 	dcp_pcmp APSR_nzcv
10001bc4:	d4f8      	bmi.n	10001bb8 <double2int_z_entry+0x16>

10001bc6 <double2uint_z_entry>:
10001bc6:	ec41 0480 	dcp_wxdc r0, r1
10001bca:	ee00 0401 	dcp_add0
10001bce:	ee10 0401 	dcp_add1
10001bd2:	ee80 0440 	dcp_ntdc
10001bd6:	ee10 0433 	dcp_rduc r0
10001bda:	4770      	bx	lr
10001bdc:	b500      	push	{lr}
10001bde:	f7ff fefb 	bl	100019d8 <generic_save_state>
10001be2:	e002      	b.n	10001bea <__wrap___aeabi_dcmpun+0x6>

10001be4 <__wrap___aeabi_dcmpun>:
10001be4:	fe10 f430 	dcp_pcmp APSR_nzcv
10001be8:	d4f8      	bmi.n	10001bdc <double2uint_z_entry+0x16>
10001bea:	ec41 0410 	dcp_wxup r0, r1
10001bee:	ec43 2411 	dcp_wyup r2, r3
10001bf2:	ee00 0401 	dcp_add0
10001bf6:	ee10 0430 	dcp_rcmp r0
10001bfa:	f3c0 7000 	ubfx	r0, r0, #28, #1
10001bfe:	4770      	bx	lr
10001c00:	b500      	push	{lr}
10001c02:	f7ff fee9 	bl	100019d8 <generic_save_state>
10001c06:	e002      	b.n	10001c0e <__wrap___aeabi_dcmplt+0x6>

10001c08 <__wrap___aeabi_dcmplt>:
10001c08:	fe10 f430 	dcp_pcmp APSR_nzcv
10001c0c:	d4f8      	bmi.n	10001c00 <__wrap___aeabi_dcmpun+0x1c>
10001c0e:	ec43 2410 	dcp_wxup r2, r3
10001c12:	ec41 0411 	dcp_wyup r0, r1
10001c16:	ee00 0401 	dcp_add0
10001c1a:	ee10 f430 	dcp_rcmp APSR_nzcv
10001c1e:	bf8c      	ite	hi
10001c20:	2001      	movhi	r0, #1
10001c22:	2000      	movls	r0, #0
10001c24:	4770      	bx	lr
10001c26:	bf00      	nop
10001c28:	b500      	push	{lr}
10001c2a:	f7ff fed5 	bl	100019d8 <generic_save_state>
10001c2e:	e002      	b.n	10001c36 <__wrap___aeabi_dcmple+0x6>

10001c30 <__wrap___aeabi_dcmple>:
10001c30:	fe10 f430 	dcp_pcmp APSR_nzcv
10001c34:	d4f8      	bmi.n	10001c28 <__wrap___aeabi_dcmplt+0x20>
10001c36:	ec43 2410 	dcp_wxup r2, r3
10001c3a:	ec41 0411 	dcp_wyup r0, r1
10001c3e:	ee00 0401 	dcp_add0
10001c42:	ee10 f430 	dcp_rcmp APSR_nzcv
10001c46:	bf2c      	ite	cs
10001c48:	2001      	movcs	r0, #1
10001c4a:	2000      	movcc	r0, #0
10001c4c:	4770      	bx	lr
10001c4e:	bf00      	nop
10001c50:	b500      	push	{lr}
10001c52:	f7ff fec1 	bl	100019d8 <generic_save_state>
10001c56:	e002      	b.n	10001c5e <__wrap___aeabi_dcmpge+0x6>

10001c58 <__wrap___aeabi_dcmpge>:
10001c58:	fe10 f430 	dcp_pcmp APSR_nzcv
10001c5c:	d4f8      	bmi.n	10001c50 <__wrap___aeabi_dcmple+0x20>
10001c5e:	ec41 0410 	dcp_wxup r0, r1
10001c62:	ec43 2411 	dcp_wyup r2, r3
10001c66:	ee00 0401 	dcp_add0
10001c6a:	ee10 f430 	dcp_rcmp APSR_nzcv
10001c6e:	bf2c      	ite	cs
10001c70:	2001      	movcs	r0, #1
10001c72:	2000      	movcc	r0, #0
10001c74:	4770      	bx	lr
10001c76:	bf00      	nop
10001c78:	b500      	push	{lr}
10001c7a:	f7ff fead 	bl	100019d8 <generic_save_state>
10001c7e:	e002      	b.n	10001c86 <__wrap___aeabi_dcmpgt+0x6>

10001c80 <__wrap___aeabi_dcmpgt>:
10001c80:	fe10 f430 	dcp_pcmp APSR_nzcv
10001c84:	d4f8      	bmi.n	10001c78 <__wrap___aeabi_dcmpge+0x20>
10001c86:	ec41 0410 	dcp_wxup r0, r1
10001c8a:	ec43 2411 	dcp_wyup r2, r3
10001c8e:	ee00 0401 	dcp_add0
10001c92:	ee10 f430 	dcp_rcmp APSR_nzcv
10001c96:	bf8c      	ite	hi
10001c98:	2001      	movhi	r0, #1
10001c9a:	2000      	movls	r0, #0
10001c9c:	4770      	bx	lr
10001c9e:	bf00      	nop

10001ca0 <__wrap_calloc>:
10001ca0:	b5f8      	push	{r3, r4, r5, r6, r7, lr}
10001ca2:	4604      	mov	r4, r0
10001ca4:	460e      	mov	r6, r1
10001ca6:	4f0c      	ldr	r7, [pc, #48]	; (10001cd8 <__wrap_calloc+0x38>)
10001ca8:	4638      	mov	r0, r7
10001caa:	f002 fe15 	bl	100048d8 <__mutex_enter_blocking_veneer>
10001cae:	4631      	mov	r1, r6
10001cb0:	4620      	mov	r0, r4
10001cb2:	f002 f855 	bl	10003d60 <calloc>
10001cb6:	4605      	mov	r5, r0
10001cb8:	4638      	mov	r0, r7
10001cba:	f002 fded 	bl	10004898 <__mutex_exit_veneer>
10001cbe:	fb06 f404 	mul.w	r4, r6, r4
10001cc2:	b12d      	cbz	r5, 10001cd0 <__wrap_calloc+0x30>
10001cc4:	442c      	add	r4, r5
10001cc6:	4b05      	ldr	r3, [pc, #20]	; (10001cdc <__wrap_calloc+0x3c>)
10001cc8:	429c      	cmp	r4, r3
10001cca:	d801      	bhi.n	10001cd0 <__wrap_calloc+0x30>
10001ccc:	4628      	mov	r0, r5
10001cce:	bdf8      	pop	{r3, r4, r5, r6, r7, pc}
10001cd0:	4803      	ldr	r0, [pc, #12]	; (10001ce0 <__wrap_calloc+0x40>)
10001cd2:	f7ff f82f 	bl	10000d34 <panic>
10001cd6:	bf00      	nop
10001cd8:	20012458 	.word	0x20012458
10001cdc:	20080000 	.word	0x20080000
10001ce0:	100050d8 	.word	0x100050d8

10001ce4 <_out_null>:
10001ce4:	4770      	bx	lr

10001ce6 <_out_fct>:
10001ce6:	b120      	cbz	r0, 10001cf2 <_out_fct+0xc>
10001ce8:	b508      	push	{r3, lr}
10001cea:	680a      	ldr	r2, [r1, #0]
10001cec:	6849      	ldr	r1, [r1, #4]
10001cee:	4790      	blx	r2
10001cf0:	bd08      	pop	{r3, pc}
10001cf2:	4770      	bx	lr

10001cf4 <_atoi>:
10001cf4:	4601      	mov	r1, r0
10001cf6:	2000      	movs	r0, #0
10001cf8:	e007      	b.n	10001d0a <_atoi+0x16>
10001cfa:	eb00 0080 	add.w	r0, r0, r0, lsl #2
10001cfe:	1c53      	adds	r3, r2, #1
10001d00:	600b      	str	r3, [r1, #0]
10001d02:	7813      	ldrb	r3, [r2, #0]
10001d04:	eb03 0040 	add.w	r0, r3, r0, lsl #1
10001d08:	3830      	subs	r0, #48	; 0x30
10001d0a:	680a      	ldr	r2, [r1, #0]
10001d0c:	7813      	ldrb	r3, [r2, #0]
10001d0e:	3b30      	subs	r3, #48	; 0x30
10001d10:	b2db      	uxtb	r3, r3
10001d12:	2b09      	cmp	r3, #9
10001d14:	d9f1      	bls.n	10001cfa <_atoi+0x6>
10001d16:	4770      	bx	lr

10001d18 <_out_rev>:
10001d18:	e92d 4ff0 	stmdb	sp!, {r4, r5, r6, r7, r8, r9, sl, fp, lr}
10001d1c:	b083      	sub	sp, #12
10001d1e:	4605      	mov	r5, r0
10001d20:	460e      	mov	r6, r1
10001d22:	4693      	mov	fp, r2
10001d24:	461f      	mov	r7, r3
10001d26:	f8dd a030 	ldr.w	sl, [sp, #48]	; 0x30
10001d2a:	9c0d      	ldr	r4, [sp, #52]	; 0x34
10001d2c:	f8dd 9038 	ldr.w	r9, [sp, #56]	; 0x38
10001d30:	9b0f      	ldr	r3, [sp, #60]	; 0x3c
10001d32:	f013 0f03 	tst.w	r3, #3
10001d36:	d119      	bne.n	10001d6c <_out_rev+0x54>
10001d38:	46a0      	mov	r8, r4
10001d3a:	9201      	str	r2, [sp, #4]
10001d3c:	45c8      	cmp	r8, r9
10001d3e:	d209      	bcs.n	10001d54 <_out_rev+0x3c>
10001d40:	f102 0b01 	add.w	fp, r2, #1
10001d44:	463b      	mov	r3, r7
10001d46:	4631      	mov	r1, r6
10001d48:	2020      	movs	r0, #32
10001d4a:	47a8      	blx	r5
10001d4c:	f108 0801 	add.w	r8, r8, #1
10001d50:	465a      	mov	r2, fp
10001d52:	e7f3      	b.n	10001d3c <_out_rev+0x24>
10001d54:	f8dd b004 	ldr.w	fp, [sp, #4]
10001d58:	e008      	b.n	10001d6c <_out_rev+0x54>
10001d5a:	3c01      	subs	r4, #1
10001d5c:	f102 0801 	add.w	r8, r2, #1
10001d60:	463b      	mov	r3, r7
10001d62:	4631      	mov	r1, r6
10001d64:	f81a 0004 	ldrb.w	r0, [sl, r4]
10001d68:	47a8      	blx	r5
10001d6a:	4642      	mov	r2, r8
10001d6c:	2c00      	cmp	r4, #0
10001d6e:	d1f4      	bne.n	10001d5a <_out_rev+0x42>
10001d70:	9b0f      	ldr	r3, [sp, #60]	; 0x3c
10001d72:	f013 0f02 	tst.w	r3, #2
10001d76:	d103      	bne.n	10001d80 <_out_rev+0x68>
10001d78:	4610      	mov	r0, r2
10001d7a:	b003      	add	sp, #12
10001d7c:	e8bd 8ff0 	ldmia.w	sp!, {r4, r5, r6, r7, r8, r9, sl, fp, pc}
10001d80:	eba2 030b 	sub.w	r3, r2, fp
10001d84:	454b      	cmp	r3, r9
10001d86:	d2f7      	bcs.n	10001d78 <_out_rev+0x60>
10001d88:	1c54      	adds	r4, r2, #1
10001d8a:	463b      	mov	r3, r7
10001d8c:	4631      	mov	r1, r6
10001d8e:	2020      	movs	r0, #32
10001d90:	47a8      	blx	r5
10001d92:	4622      	mov	r2, r4
10001d94:	e7f4      	b.n	10001d80 <_out_rev+0x68>

10001d96 <_ntoa_format>:
10001d96:	e92d 43f0 	stmdb	sp!, {r4, r5, r6, r7, r8, r9, lr}
10001d9a:	b085      	sub	sp, #20
10001d9c:	9d0c      	ldr	r5, [sp, #48]	; 0x30
10001d9e:	9c0d      	ldr	r4, [sp, #52]	; 0x34
10001da0:	f89d 9038 	ldrb.w	r9, [sp, #56]	; 0x38
10001da4:	f8dd 803c 	ldr.w	r8, [sp, #60]	; 0x3c
10001da8:	f8dd e040 	ldr.w	lr, [sp, #64]	; 0x40
10001dac:	9f11      	ldr	r7, [sp, #68]	; 0x44
10001dae:	9e12      	ldr	r6, [sp, #72]	; 0x48
10001db0:	f016 0f02 	tst.w	r6, #2
10001db4:	d121      	bne.n	10001dfa <_ntoa_format+0x64>
10001db6:	b17f      	cbz	r7, 10001dd8 <_ntoa_format+0x42>
10001db8:	f016 0f01 	tst.w	r6, #1
10001dbc:	d00c      	beq.n	10001dd8 <_ntoa_format+0x42>
10001dbe:	f1b9 0f00 	cmp.w	r9, #0
10001dc2:	d102      	bne.n	10001dca <_ntoa_format+0x34>
10001dc4:	f016 0f0c 	tst.w	r6, #12
10001dc8:	d006      	beq.n	10001dd8 <_ntoa_format+0x42>
10001dca:	3f01      	subs	r7, #1
10001dcc:	e004      	b.n	10001dd8 <_ntoa_format+0x42>
10001dce:	f04f 0c30 	mov.w	ip, #48	; 0x30
10001dd2:	f805 c004 	strb.w	ip, [r5, r4]
10001dd6:	3401      	adds	r4, #1
10001dd8:	4574      	cmp	r4, lr
10001dda:	d201      	bcs.n	10001de0 <_ntoa_format+0x4a>
10001ddc:	2c1f      	cmp	r4, #31
10001dde:	d9f6      	bls.n	10001dce <_ntoa_format+0x38>
10001de0:	f016 0f01 	tst.w	r6, #1
10001de4:	d009      	beq.n	10001dfa <_ntoa_format+0x64>
10001de6:	42bc      	cmp	r4, r7
10001de8:	d207      	bcs.n	10001dfa <_ntoa_format+0x64>
10001dea:	2c1f      	cmp	r4, #31
10001dec:	d805      	bhi.n	10001dfa <_ntoa_format+0x64>
10001dee:	f04f 0c30 	mov.w	ip, #48	; 0x30
10001df2:	f805 c004 	strb.w	ip, [r5, r4]
10001df6:	3401      	adds	r4, #1
10001df8:	e7f2      	b.n	10001de0 <_ntoa_format+0x4a>
10001dfa:	f016 0f10 	tst.w	r6, #16
10001dfe:	d017      	beq.n	10001e30 <_ntoa_format+0x9a>
10001e00:	f416 6f80 	tst.w	r6, #1024	; 0x400
10001e04:	d104      	bne.n	10001e10 <_ntoa_format+0x7a>
10001e06:	b11c      	cbz	r4, 10001e10 <_ntoa_format+0x7a>
10001e08:	4574      	cmp	r4, lr
10001e0a:	d024      	beq.n	10001e56 <_ntoa_format+0xc0>
10001e0c:	42bc      	cmp	r4, r7
10001e0e:	d022      	beq.n	10001e56 <_ntoa_format+0xc0>
10001e10:	f1b8 0f10 	cmp.w	r8, #16
10001e14:	d02b      	beq.n	10001e6e <_ntoa_format+0xd8>
10001e16:	f1b8 0f10 	cmp.w	r8, #16
10001e1a:	d033      	beq.n	10001e84 <_ntoa_format+0xee>
10001e1c:	f1b8 0f02 	cmp.w	r8, #2
10001e20:	d03b      	beq.n	10001e9a <_ntoa_format+0x104>
10001e22:	2c1f      	cmp	r4, #31
10001e24:	d804      	bhi.n	10001e30 <_ntoa_format+0x9a>
10001e26:	f04f 0c30 	mov.w	ip, #48	; 0x30
10001e2a:	f805 c004 	strb.w	ip, [r5, r4]
10001e2e:	3401      	adds	r4, #1
10001e30:	2c1f      	cmp	r4, #31
10001e32:	d807      	bhi.n	10001e44 <_ntoa_format+0xae>
10001e34:	f1b9 0f00 	cmp.w	r9, #0
10001e38:	d037      	beq.n	10001eaa <_ntoa_format+0x114>
10001e3a:	f04f 0c2d 	mov.w	ip, #45	; 0x2d
10001e3e:	f805 c004 	strb.w	ip, [r5, r4]
10001e42:	3401      	adds	r4, #1
10001e44:	9603      	str	r6, [sp, #12]
10001e46:	9702      	str	r7, [sp, #8]
10001e48:	9401      	str	r4, [sp, #4]
10001e4a:	9500      	str	r5, [sp, #0]
10001e4c:	f7ff ff64 	bl	10001d18 <_out_rev>
10001e50:	b005      	add	sp, #20
10001e52:	e8bd 83f0 	ldmia.w	sp!, {r4, r5, r6, r7, r8, r9, pc}
10001e56:	f1b4 0c01 	subs.w	ip, r4, #1
10001e5a:	d006      	beq.n	10001e6a <_ntoa_format+0xd4>
10001e5c:	f1b8 0f10 	cmp.w	r8, #16
10001e60:	d001      	beq.n	10001e66 <_ntoa_format+0xd0>
10001e62:	4664      	mov	r4, ip
10001e64:	e7d4      	b.n	10001e10 <_ntoa_format+0x7a>
10001e66:	3c02      	subs	r4, #2
10001e68:	e7d2      	b.n	10001e10 <_ntoa_format+0x7a>
10001e6a:	4664      	mov	r4, ip
10001e6c:	e7d0      	b.n	10001e10 <_ntoa_format+0x7a>
10001e6e:	f016 0f20 	tst.w	r6, #32
10001e72:	d1d0      	bne.n	10001e16 <_ntoa_format+0x80>
10001e74:	2c1f      	cmp	r4, #31
10001e76:	d8ce      	bhi.n	10001e16 <_ntoa_format+0x80>
10001e78:	f04f 0c78 	mov.w	ip, #120	; 0x78
10001e7c:	f805 c004 	strb.w	ip, [r5, r4]
10001e80:	3401      	adds	r4, #1
10001e82:	e7ce      	b.n	10001e22 <_ntoa_format+0x8c>
10001e84:	f016 0f20 	tst.w	r6, #32
10001e88:	d0c8      	beq.n	10001e1c <_ntoa_format+0x86>
10001e8a:	2c1f      	cmp	r4, #31
10001e8c:	d8c6      	bhi.n	10001e1c <_ntoa_format+0x86>
10001e8e:	f04f 0c58 	mov.w	ip, #88	; 0x58
10001e92:	f805 c004 	strb.w	ip, [r5, r4]
10001e96:	3401      	adds	r4, #1
10001e98:	e7c3      	b.n	10001e22 <_ntoa_format+0x8c>
10001e9a:	2c1f      	cmp	r4, #31
10001e9c:	d8c1      	bhi.n	10001e22 <_ntoa_format+0x8c>
10001e9e:	f04f 0c62 	mov.w	ip, #98	; 0x62
10001ea2:	f805 c004 	strb.w	ip, [r5, r4]
10001ea6:	3401      	adds	r4, #1
10001ea8:	e7bb      	b.n	10001e22 <_ntoa_format+0x8c>
10001eaa:	f016 0f04 	tst.w	r6, #4
10001eae:	d005      	beq.n	10001ebc <_ntoa_format+0x126>
10001eb0:	f04f 0c2b 	mov.w	ip, #43	; 0x2b
10001eb4:	f805 c004 	strb.w	ip, [r5, r4]
10001eb8:	3401      	adds	r4, #1
10001eba:	e7c3      	b.n	10001e44 <_ntoa_format+0xae>
10001ebc:	f016 0f08 	tst.w	r6, #8
10001ec0:	d0c0      	beq.n	10001e44 <_ntoa_format+0xae>
10001ec2:	f04f 0c20 	mov.w	ip, #32
10001ec6:	f805 c004 	strb.w	ip, [r5, r4]
10001eca:	3401      	adds	r4, #1
10001ecc:	e7ba      	b.n	10001e44 <_ntoa_format+0xae>

10001ece <_ntoa_long>:
10001ece:	b5f0      	push	{r4, r5, r6, r7, lr}
10001ed0:	b091      	sub	sp, #68	; 0x44
10001ed2:	9c16      	ldr	r4, [sp, #88]	; 0x58
10001ed4:	9d18      	ldr	r5, [sp, #96]	; 0x60
10001ed6:	9e1b      	ldr	r6, [sp, #108]	; 0x6c
10001ed8:	b90c      	cbnz	r4, 10001ede <_ntoa_long+0x10>
10001eda:	f026 0610 	bic.w	r6, r6, #16
10001ede:	f416 6e80 	ands.w	lr, r6, #1024	; 0x400
10001ee2:	d016      	beq.n	10001f12 <_ntoa_long+0x44>
10001ee4:	b364      	cbz	r4, 10001f40 <_ntoa_long+0x72>
10001ee6:	f04f 0e00 	mov.w	lr, #0
10001eea:	e012      	b.n	10001f12 <_ntoa_long+0x44>
10001eec:	f10c 0c30 	add.w	ip, ip, #48	; 0x30
10001ef0:	fa5f fc8c 	uxtb.w	ip, ip
10001ef4:	f10e 0701 	add.w	r7, lr, #1
10001ef8:	f10e 0e40 	add.w	lr, lr, #64	; 0x40
10001efc:	44ee      	add	lr, sp
10001efe:	f80e cc20 	strb.w	ip, [lr, #-32]
10001f02:	fbb4 fcf5 	udiv	ip, r4, r5
10001f06:	42ac      	cmp	r4, r5
10001f08:	d31b      	bcc.n	10001f42 <_ntoa_long+0x74>
10001f0a:	2f1f      	cmp	r7, #31
10001f0c:	d819      	bhi.n	10001f42 <_ntoa_long+0x74>
10001f0e:	46be      	mov	lr, r7
10001f10:	4664      	mov	r4, ip
10001f12:	fbb4 fcf5 	udiv	ip, r4, r5
10001f16:	fb05 4c1c 	mls	ip, r5, ip, r4
10001f1a:	fa5f fc8c 	uxtb.w	ip, ip
10001f1e:	f1bc 0f09 	cmp.w	ip, #9
10001f22:	d9e3      	bls.n	10001eec <_ntoa_long+0x1e>
10001f24:	f016 0f20 	tst.w	r6, #32
10001f28:	d008      	beq.n	10001f3c <_ntoa_long+0x6e>
10001f2a:	2741      	movs	r7, #65	; 0x41
10001f2c:	44bc      	add	ip, r7
10001f2e:	fa5f fc8c 	uxtb.w	ip, ip
10001f32:	f1ac 0c0a 	sub.w	ip, ip, #10
10001f36:	fa5f fc8c 	uxtb.w	ip, ip
10001f3a:	e7db      	b.n	10001ef4 <_ntoa_long+0x26>
10001f3c:	2761      	movs	r7, #97	; 0x61
10001f3e:	e7f5      	b.n	10001f2c <_ntoa_long+0x5e>
10001f40:	4627      	mov	r7, r4
10001f42:	9606      	str	r6, [sp, #24]
10001f44:	9c1a      	ldr	r4, [sp, #104]	; 0x68
10001f46:	9405      	str	r4, [sp, #20]
10001f48:	9c19      	ldr	r4, [sp, #100]	; 0x64
10001f4a:	9404      	str	r4, [sp, #16]
10001f4c:	9503      	str	r5, [sp, #12]
10001f4e:	f89d 405c 	ldrb.w	r4, [sp, #92]	; 0x5c
10001f52:	9402      	str	r4, [sp, #8]
10001f54:	9701      	str	r7, [sp, #4]
10001f56:	ac08      	add	r4, sp, #32
10001f58:	9400      	str	r4, [sp, #0]
10001f5a:	f7ff ff1c 	bl	10001d96 <_ntoa_format>
10001f5e:	b011      	add	sp, #68	; 0x44
10001f60:	bdf0      	pop	{r4, r5, r6, r7, pc}

10001f62 <_ntoa_long_long>:
10001f62:	e92d 4ff0 	stmdb	sp!, {r4, r5, r6, r7, r8, r9, sl, fp, lr}
10001f66:	b095      	sub	sp, #84	; 0x54
10001f68:	9009      	str	r0, [sp, #36]	; 0x24
10001f6a:	910a      	str	r1, [sp, #40]	; 0x28
10001f6c:	920b      	str	r2, [sp, #44]	; 0x2c
10001f6e:	469b      	mov	fp, r3
10001f70:	9d1e      	ldr	r5, [sp, #120]	; 0x78
10001f72:	9e1f      	ldr	r6, [sp, #124]	; 0x7c
10001f74:	9f22      	ldr	r7, [sp, #136]	; 0x88
10001f76:	f8dd 808c 	ldr.w	r8, [sp, #140]	; 0x8c
10001f7a:	f8dd a098 	ldr.w	sl, [sp, #152]	; 0x98
10001f7e:	ea55 0306 	orrs.w	r3, r5, r6
10001f82:	d101      	bne.n	10001f88 <_ntoa_long_long+0x26>
10001f84:	f02a 0a10 	bic.w	sl, sl, #16
10001f88:	f41a 6480 	ands.w	r4, sl, #1024	; 0x400
10001f8c:	d01f      	beq.n	10001fce <_ntoa_long_long+0x6c>
10001f8e:	ea55 0306 	orrs.w	r3, r5, r6
10001f92:	d030      	beq.n	10001ff6 <_ntoa_long_long+0x94>
10001f94:	2400      	movs	r4, #0
10001f96:	e01a      	b.n	10001fce <_ntoa_long_long+0x6c>
10001f98:	f103 0230 	add.w	r2, r3, #48	; 0x30
10001f9c:	b2d2      	uxtb	r2, r2
10001f9e:	f104 0901 	add.w	r9, r4, #1
10001fa2:	f104 0350 	add.w	r3, r4, #80	; 0x50
10001fa6:	eb0d 0403 	add.w	r4, sp, r3
10001faa:	f804 2c20 	strb.w	r2, [r4, #-32]
10001fae:	463a      	mov	r2, r7
10001fb0:	4643      	mov	r3, r8
10001fb2:	4628      	mov	r0, r5
10001fb4:	4631      	mov	r1, r6
10001fb6:	f002 fc67 	bl	10004888 <____aeabi_uldivmod_veneer>
10001fba:	42bd      	cmp	r5, r7
10001fbc:	eb76 0308 	sbcs.w	r3, r6, r8
10001fc0:	d31b      	bcc.n	10001ffa <_ntoa_long_long+0x98>
10001fc2:	f1b9 0f1f 	cmp.w	r9, #31
10001fc6:	d818      	bhi.n	10001ffa <_ntoa_long_long+0x98>
10001fc8:	464c      	mov	r4, r9
10001fca:	4605      	mov	r5, r0
10001fcc:	460e      	mov	r6, r1
10001fce:	463a      	mov	r2, r7
10001fd0:	4643      	mov	r3, r8
10001fd2:	4628      	mov	r0, r5
10001fd4:	4631      	mov	r1, r6
10001fd6:	f002 fc57 	bl	10004888 <____aeabi_uldivmod_veneer>
10001fda:	b2d3      	uxtb	r3, r2
10001fdc:	2b09      	cmp	r3, #9
10001fde:	d9db      	bls.n	10001f98 <_ntoa_long_long+0x36>
10001fe0:	f01a 0f20 	tst.w	sl, #32
10001fe4:	d005      	beq.n	10001ff2 <_ntoa_long_long+0x90>
10001fe6:	2241      	movs	r2, #65	; 0x41
10001fe8:	441a      	add	r2, r3
10001fea:	b2d2      	uxtb	r2, r2
10001fec:	3a0a      	subs	r2, #10
10001fee:	b2d2      	uxtb	r2, r2
10001ff0:	e7d5      	b.n	10001f9e <_ntoa_long_long+0x3c>
10001ff2:	2261      	movs	r2, #97	; 0x61
10001ff4:	e7f8      	b.n	10001fe8 <_ntoa_long_long+0x86>
10001ff6:	f04f 0900 	mov.w	r9, #0
10001ffa:	f8cd a018 	str.w	sl, [sp, #24]
10001ffe:	9b25      	ldr	r3, [sp, #148]	; 0x94
10002000:	9305      	str	r3, [sp, #20]
10002002:	9b24      	ldr	r3, [sp, #144]	; 0x90
10002004:	9304      	str	r3, [sp, #16]
10002006:	9703      	str	r7, [sp, #12]
10002008:	f89d 3080 	ldrb.w	r3, [sp, #128]	; 0x80
1000200c:	9302      	str	r3, [sp, #8]
1000200e:	f8cd 9004 	str.w	r9, [sp, #4]
10002012:	ab0c      	add	r3, sp, #48	; 0x30
10002014:	9300      	str	r3, [sp, #0]
10002016:	465b      	mov	r3, fp
10002018:	9a0b      	ldr	r2, [sp, #44]	; 0x2c
1000201a:	990a      	ldr	r1, [sp, #40]	; 0x28
1000201c:	9809      	ldr	r0, [sp, #36]	; 0x24
1000201e:	f7ff feba 	bl	10001d96 <_ntoa_format>
10002022:	b015      	add	sp, #84	; 0x54
10002024:	e8bd 8ff0 	ldmia.w	sp!, {r4, r5, r6, r7, r8, r9, sl, fp, pc}

10002028 <_etoa>:
10002028:	e92d 4ff0 	stmdb	sp!, {r4, r5, r6, r7, r8, r9, sl, fp, lr}
1000202c:	b091      	sub	sp, #68	; 0x44
1000202e:	4604      	mov	r4, r0
10002030:	460d      	mov	r5, r1
10002032:	4617      	mov	r7, r2
10002034:	461e      	mov	r6, r3
10002036:	e9dd 231a 	ldrd	r2, r3, [sp, #104]	; 0x68
1000203a:	4610      	mov	r0, r2
1000203c:	4619      	mov	r1, r3
1000203e:	f7ff fdd1 	bl	10001be4 <__wrap___aeabi_dcmpun>
10002042:	2800      	cmp	r0, #0
10002044:	f040 80ed 	bne.w	10002222 <_etoa+0x1fa>
10002048:	f04f 32ff 	mov.w	r2, #4294967295
1000204c:	4bae      	ldr	r3, [pc, #696]	; (10002308 <_etoa+0x2e0>)
1000204e:	e9dd 011a 	ldrd	r0, r1, [sp, #104]	; 0x68
10002052:	f7ff fe15 	bl	10001c80 <__wrap___aeabi_dcmpgt>
10002056:	2800      	cmp	r0, #0
10002058:	f040 80e3 	bne.w	10002222 <_etoa+0x1fa>
1000205c:	f04f 32ff 	mov.w	r2, #4294967295
10002060:	f46f 1380 	mvn.w	r3, #1048576	; 0x100000
10002064:	e9dd 011a 	ldrd	r0, r1, [sp, #104]	; 0x68
10002068:	f7ff fdce 	bl	10001c08 <__wrap___aeabi_dcmplt>
1000206c:	2800      	cmp	r0, #0
1000206e:	f040 80d8 	bne.w	10002222 <_etoa+0x1fa>
10002072:	2200      	movs	r2, #0
10002074:	2300      	movs	r3, #0
10002076:	e9dd 011a 	ldrd	r0, r1, [sp, #104]	; 0x68
1000207a:	f7ff fdc5 	bl	10001c08 <__wrap___aeabi_dcmplt>
1000207e:	2800      	cmp	r0, #0
10002080:	f040 80e2 	bne.w	10002248 <_etoa+0x220>
10002084:	ed9d 7b1a 	vldr	d7, [sp, #104]	; 0x68
10002088:	ed8d 7b06 	vstr	d7, [sp, #24]
1000208c:	9b1e      	ldr	r3, [sp, #120]	; 0x78
1000208e:	f413 6380 	ands.w	r3, r3, #1024	; 0x400
10002092:	930d      	str	r3, [sp, #52]	; 0x34
10002094:	d101      	bne.n	1000209a <_etoa+0x72>
10002096:	2306      	movs	r3, #6
10002098:	931c      	str	r3, [sp, #112]	; 0x70
1000209a:	e9dd 2306 	ldrd	r2, r3, [sp, #24]
1000209e:	4610      	mov	r0, r2
100020a0:	4619      	mov	r1, r3
100020a2:	e9cd 0108 	strd	r0, r1, [sp, #32]
100020a6:	ea52 0103 	orrs.w	r1, r2, r3
100020aa:	f000 80d8 	beq.w	1000225e <_etoa+0x236>
100020ae:	f3c3 500a 	ubfx	r0, r3, #20, #11
100020b2:	f3c3 0313 	ubfx	r3, r3, #0, #20
100020b6:	4690      	mov	r8, r2
100020b8:	f043 597f 	orr.w	r9, r3, #1069547520	; 0x3fc00000
100020bc:	f449 1940 	orr.w	r9, r9, #3145728	; 0x300000
100020c0:	f2a0 30ff 	subw	r0, r0, #1023	; 0x3ff
100020c4:	f7ff fd46 	bl	10001b54 <__wrap___aeabi_i2d>
100020c8:	a37d      	add	r3, pc, #500	; (adr r3, 100022c0 <_etoa+0x298>)
100020ca:	e9d3 2300 	ldrd	r2, r3, [r3]
100020ce:	f7ff fccd 	bl	10001a6c <__wrap___aeabi_dmul>
100020d2:	a37d      	add	r3, pc, #500	; (adr r3, 100022c8 <_etoa+0x2a0>)
100020d4:	e9d3 2300 	ldrd	r2, r3, [r3]
100020d8:	f7ff fca0 	bl	10001a1c <__wrap___aeabi_dadd>
100020dc:	4682      	mov	sl, r0
100020de:	468b      	mov	fp, r1
100020e0:	2200      	movs	r2, #0
100020e2:	4b8a      	ldr	r3, [pc, #552]	; (1000230c <_etoa+0x2e4>)
100020e4:	4640      	mov	r0, r8
100020e6:	4649      	mov	r1, r9
100020e8:	f7ff fcac 	bl	10001a44 <__wrap___aeabi_dsub>
100020ec:	a378      	add	r3, pc, #480	; (adr r3, 100022d0 <_etoa+0x2a8>)
100020ee:	e9d3 2300 	ldrd	r2, r3, [r3]
100020f2:	f7ff fcbb 	bl	10001a6c <__wrap___aeabi_dmul>
100020f6:	4602      	mov	r2, r0
100020f8:	460b      	mov	r3, r1
100020fa:	4650      	mov	r0, sl
100020fc:	4659      	mov	r1, fp
100020fe:	f7ff fc8d 	bl	10001a1c <__wrap___aeabi_dadd>
10002102:	f7ff fd4b 	bl	10001b9c <__wrap___aeabi_d2iz>
10002106:	4682      	mov	sl, r0
10002108:	f7ff fd24 	bl	10001b54 <__wrap___aeabi_i2d>
1000210c:	4680      	mov	r8, r0
1000210e:	4689      	mov	r9, r1
10002110:	a371      	add	r3, pc, #452	; (adr r3, 100022d8 <_etoa+0x2b0>)
10002112:	e9d3 2300 	ldrd	r2, r3, [r3]
10002116:	f7ff fca9 	bl	10001a6c <__wrap___aeabi_dmul>
1000211a:	2200      	movs	r2, #0
1000211c:	4b7c      	ldr	r3, [pc, #496]	; (10002310 <_etoa+0x2e8>)
1000211e:	f7ff fc7d 	bl	10001a1c <__wrap___aeabi_dadd>
10002122:	f7ff fd3b 	bl	10001b9c <__wrap___aeabi_d2iz>
10002126:	4683      	mov	fp, r0
10002128:	a36d      	add	r3, pc, #436	; (adr r3, 100022e0 <_etoa+0x2b8>)
1000212a:	e9d3 2300 	ldrd	r2, r3, [r3]
1000212e:	4640      	mov	r0, r8
10002130:	4649      	mov	r1, r9
10002132:	f7ff fc9b 	bl	10001a6c <__wrap___aeabi_dmul>
10002136:	4680      	mov	r8, r0
10002138:	4689      	mov	r9, r1
1000213a:	4658      	mov	r0, fp
1000213c:	f7ff fd0a 	bl	10001b54 <__wrap___aeabi_i2d>
10002140:	a369      	add	r3, pc, #420	; (adr r3, 100022e8 <_etoa+0x2c0>)
10002142:	e9d3 2300 	ldrd	r2, r3, [r3]
10002146:	f7ff fc91 	bl	10001a6c <__wrap___aeabi_dmul>
1000214a:	4602      	mov	r2, r0
1000214c:	460b      	mov	r3, r1
1000214e:	4640      	mov	r0, r8
10002150:	4649      	mov	r1, r9
10002152:	f7ff fc77 	bl	10001a44 <__wrap___aeabi_dsub>
10002156:	4680      	mov	r8, r0
10002158:	4689      	mov	r9, r1
1000215a:	4602      	mov	r2, r0
1000215c:	460b      	mov	r3, r1
1000215e:	f7ff fc85 	bl	10001a6c <__wrap___aeabi_dmul>
10002162:	e9cd 010a 	strd	r0, r1, [sp, #40]	; 0x28
10002166:	f20b 3bff 	addw	fp, fp, #1023	; 0x3ff
1000216a:	2100      	movs	r1, #0
1000216c:	2200      	movs	r2, #0
1000216e:	e9cd 1208 	strd	r1, r2, [sp, #32]
10002172:	ea4f 530b 	mov.w	r3, fp, lsl #20
10002176:	9309      	str	r3, [sp, #36]	; 0x24
10002178:	2300      	movs	r3, #0
1000217a:	9308      	str	r3, [sp, #32]
1000217c:	4642      	mov	r2, r8
1000217e:	464b      	mov	r3, r9
10002180:	4640      	mov	r0, r8
10002182:	4649      	mov	r1, r9
10002184:	f7ff fc4a 	bl	10001a1c <__wrap___aeabi_dadd>
10002188:	e9cd 010e 	strd	r0, r1, [sp, #56]	; 0x38
1000218c:	4642      	mov	r2, r8
1000218e:	464b      	mov	r3, r9
10002190:	2000      	movs	r0, #0
10002192:	f04f 4180 	mov.w	r1, #1073741824	; 0x40000000
10002196:	f7ff fc55 	bl	10001a44 <__wrap___aeabi_dsub>
1000219a:	4680      	mov	r8, r0
1000219c:	4689      	mov	r9, r1
1000219e:	2200      	movs	r2, #0
100021a0:	4b5c      	ldr	r3, [pc, #368]	; (10002314 <_etoa+0x2ec>)
100021a2:	e9dd 010a 	ldrd	r0, r1, [sp, #40]	; 0x28
100021a6:	f7ff fc87 	bl	10001ab8 <__wrap___aeabi_ddiv>
100021aa:	2200      	movs	r2, #0
100021ac:	4b5a      	ldr	r3, [pc, #360]	; (10002318 <_etoa+0x2f0>)
100021ae:	f7ff fc35 	bl	10001a1c <__wrap___aeabi_dadd>
100021b2:	4602      	mov	r2, r0
100021b4:	460b      	mov	r3, r1
100021b6:	e9dd 010a 	ldrd	r0, r1, [sp, #40]	; 0x28
100021ba:	f7ff fc7d 	bl	10001ab8 <__wrap___aeabi_ddiv>
100021be:	2200      	movs	r2, #0
100021c0:	4b56      	ldr	r3, [pc, #344]	; (1000231c <_etoa+0x2f4>)
100021c2:	f7ff fc2b 	bl	10001a1c <__wrap___aeabi_dadd>
100021c6:	4602      	mov	r2, r0
100021c8:	460b      	mov	r3, r1
100021ca:	e9dd 010a 	ldrd	r0, r1, [sp, #40]	; 0x28
100021ce:	f7ff fc73 	bl	10001ab8 <__wrap___aeabi_ddiv>
100021d2:	4602      	mov	r2, r0
100021d4:	460b      	mov	r3, r1
100021d6:	4640      	mov	r0, r8
100021d8:	4649      	mov	r1, r9
100021da:	f7ff fc1f 	bl	10001a1c <__wrap___aeabi_dadd>
100021de:	4602      	mov	r2, r0
100021e0:	460b      	mov	r3, r1
100021e2:	e9dd 010e 	ldrd	r0, r1, [sp, #56]	; 0x38
100021e6:	f7ff fc67 	bl	10001ab8 <__wrap___aeabi_ddiv>
100021ea:	2200      	movs	r2, #0
100021ec:	4b4c      	ldr	r3, [pc, #304]	; (10002320 <_etoa+0x2f8>)
100021ee:	f7ff fc15 	bl	10001a1c <__wrap___aeabi_dadd>
100021f2:	e9dd 2308 	ldrd	r2, r3, [sp, #32]
100021f6:	f7ff fc39 	bl	10001a6c <__wrap___aeabi_dmul>
100021fa:	4680      	mov	r8, r0
100021fc:	4689      	mov	r9, r1
100021fe:	e9cd 8908 	strd	r8, r9, [sp, #32]
10002202:	e9dd 2306 	ldrd	r2, r3, [sp, #24]
10002206:	f7ff fd3b 	bl	10001c80 <__wrap___aeabi_dcmpgt>
1000220a:	b350      	cbz	r0, 10002262 <_etoa+0x23a>
1000220c:	f10a 3aff 	add.w	sl, sl, #4294967295
10002210:	2200      	movs	r2, #0
10002212:	4b41      	ldr	r3, [pc, #260]	; (10002318 <_etoa+0x2f0>)
10002214:	4640      	mov	r0, r8
10002216:	4649      	mov	r1, r9
10002218:	f7ff fc4e 	bl	10001ab8 <__wrap___aeabi_ddiv>
1000221c:	e9cd 0108 	strd	r0, r1, [sp, #32]
10002220:	e01f      	b.n	10002262 <_etoa+0x23a>
10002222:	9b1e      	ldr	r3, [sp, #120]	; 0x78
10002224:	9304      	str	r3, [sp, #16]
10002226:	9b1d      	ldr	r3, [sp, #116]	; 0x74
10002228:	9303      	str	r3, [sp, #12]
1000222a:	9b1c      	ldr	r3, [sp, #112]	; 0x70
1000222c:	9302      	str	r3, [sp, #8]
1000222e:	ed9d 7b1a 	vldr	d7, [sp, #104]	; 0x68
10002232:	ed8d 7b00 	vstr	d7, [sp]
10002236:	4633      	mov	r3, r6
10002238:	463a      	mov	r2, r7
1000223a:	4629      	mov	r1, r5
1000223c:	4620      	mov	r0, r4
1000223e:	f000 f903 	bl	10002448 <_ftoa>
10002242:	b011      	add	sp, #68	; 0x44
10002244:	e8bd 8ff0 	ldmia.w	sp!, {r4, r5, r6, r7, r8, r9, sl, fp, pc}
10002248:	ed9f 7b29 	vldr	d7, [pc, #164]	; 100022f0 <_etoa+0x2c8>
1000224c:	ed8d 7b06 	vstr	d7, [sp, #24]
10002250:	9b1a      	ldr	r3, [sp, #104]	; 0x68
10002252:	9306      	str	r3, [sp, #24]
10002254:	9b1b      	ldr	r3, [sp, #108]	; 0x6c
10002256:	f103 4300 	add.w	r3, r3, #2147483648	; 0x80000000
1000225a:	9307      	str	r3, [sp, #28]
1000225c:	e716      	b.n	1000208c <_etoa+0x64>
1000225e:	f04f 0a00 	mov.w	sl, #0
10002262:	f10a 0363 	add.w	r3, sl, #99	; 0x63
10002266:	2bc6      	cmp	r3, #198	; 0xc6
10002268:	d827      	bhi.n	100022ba <_etoa+0x292>
1000226a:	f04f 0804 	mov.w	r8, #4
1000226e:	9b1e      	ldr	r3, [sp, #120]	; 0x78
10002270:	f413 6f00 	tst.w	r3, #2048	; 0x800
10002274:	d05f      	beq.n	10002336 <_etoa+0x30e>
10002276:	e9dd 1208 	ldrd	r1, r2, [sp, #32]
1000227a:	4613      	mov	r3, r2
1000227c:	430b      	orrs	r3, r1
1000227e:	d013      	beq.n	100022a8 <_etoa+0x280>
10002280:	a31d      	add	r3, pc, #116	; (adr r3, 100022f8 <_etoa+0x2d0>)
10002282:	e9d3 2300 	ldrd	r2, r3, [r3]
10002286:	e9dd 0106 	ldrd	r0, r1, [sp, #24]
1000228a:	f7ff fce5 	bl	10001c58 <__wrap___aeabi_dcmpge>
1000228e:	2800      	cmp	r0, #0
10002290:	f000 80b4 	beq.w	100023fc <_etoa+0x3d4>
10002294:	a31a      	add	r3, pc, #104	; (adr r3, 10002300 <_etoa+0x2d8>)
10002296:	e9d3 2300 	ldrd	r2, r3, [r3]
1000229a:	e9dd 0106 	ldrd	r0, r1, [sp, #24]
1000229e:	f7ff fcb3 	bl	10001c08 <__wrap___aeabi_dcmplt>
100022a2:	2800      	cmp	r0, #0
100022a4:	f000 80aa 	beq.w	100023fc <_etoa+0x3d4>
100022a8:	9b1c      	ldr	r3, [sp, #112]	; 0x70
100022aa:	4553      	cmp	r3, sl
100022ac:	dd3a      	ble.n	10002324 <_etoa+0x2fc>
100022ae:	eba3 0a0a 	sub.w	sl, r3, sl
100022b2:	f10a 33ff 	add.w	r3, sl, #4294967295
100022b6:	931c      	str	r3, [sp, #112]	; 0x70
100022b8:	e036      	b.n	10002328 <_etoa+0x300>
100022ba:	f04f 0805 	mov.w	r8, #5
100022be:	e7d6      	b.n	1000226e <_etoa+0x246>
100022c0:	509f79fb 	.word	0x509f79fb
100022c4:	3fd34413 	.word	0x3fd34413
100022c8:	8b60c8b3 	.word	0x8b60c8b3
100022cc:	3fc68a28 	.word	0x3fc68a28
100022d0:	636f4361 	.word	0x636f4361
100022d4:	3fd287a7 	.word	0x3fd287a7
100022d8:	0979a371 	.word	0x0979a371
100022dc:	400a934f 	.word	0x400a934f
100022e0:	bbb55516 	.word	0xbbb55516
100022e4:	40026bb1 	.word	0x40026bb1
100022e8:	fefa39ef 	.word	0xfefa39ef
100022ec:	3fe62e42 	.word	0x3fe62e42
	...
100022f8:	eb1c432d 	.word	0xeb1c432d
100022fc:	3f1a36e2 	.word	0x3f1a36e2
10002300:	00000000 	.word	0x00000000
10002304:	412e8480 	.word	0x412e8480
10002308:	7fefffff 	.word	0x7fefffff
1000230c:	3ff80000 	.word	0x3ff80000
10002310:	3fe00000 	.word	0x3fe00000
10002314:	402c0000 	.word	0x402c0000
10002318:	40240000 	.word	0x40240000
1000231c:	40180000 	.word	0x40180000
10002320:	3ff00000 	.word	0x3ff00000
10002324:	2300      	movs	r3, #0
10002326:	931c      	str	r3, [sp, #112]	; 0x70
10002328:	9b1e      	ldr	r3, [sp, #120]	; 0x78
1000232a:	f443 6380 	orr.w	r3, r3, #1024	; 0x400
1000232e:	931e      	str	r3, [sp, #120]	; 0x78
10002330:	f04f 0800 	mov.w	r8, #0
10002334:	46c2      	mov	sl, r8
10002336:	9b1d      	ldr	r3, [sp, #116]	; 0x74
10002338:	4598      	cmp	r8, r3
1000233a:	d269      	bcs.n	10002410 <_etoa+0x3e8>
1000233c:	eba3 0908 	sub.w	r9, r3, r8
10002340:	9b1e      	ldr	r3, [sp, #120]	; 0x78
10002342:	f013 0b02 	ands.w	fp, r3, #2
10002346:	d004      	beq.n	10002352 <_etoa+0x32a>
10002348:	f1b8 0f00 	cmp.w	r8, #0
1000234c:	d001      	beq.n	10002352 <_etoa+0x32a>
1000234e:	f04f 0900 	mov.w	r9, #0
10002352:	f1ba 0f00 	cmp.w	sl, #0
10002356:	d007      	beq.n	10002368 <_etoa+0x340>
10002358:	e9dd 2308 	ldrd	r2, r3, [sp, #32]
1000235c:	e9dd 0106 	ldrd	r0, r1, [sp, #24]
10002360:	f7ff fbaa 	bl	10001ab8 <__wrap___aeabi_ddiv>
10002364:	e9cd 0106 	strd	r0, r1, [sp, #24]
10002368:	2200      	movs	r2, #0
1000236a:	2300      	movs	r3, #0
1000236c:	e9dd 011a 	ldrd	r0, r1, [sp, #104]	; 0x68
10002370:	f7ff fc4a 	bl	10001c08 <__wrap___aeabi_dcmplt>
10002374:	2800      	cmp	r0, #0
10002376:	d14e      	bne.n	10002416 <_etoa+0x3ee>
10002378:	9b1e      	ldr	r3, [sp, #120]	; 0x78
1000237a:	f423 6300 	bic.w	r3, r3, #2048	; 0x800
1000237e:	9304      	str	r3, [sp, #16]
10002380:	f8cd 900c 	str.w	r9, [sp, #12]
10002384:	9b1c      	ldr	r3, [sp, #112]	; 0x70
10002386:	9302      	str	r3, [sp, #8]
10002388:	ed9d 7b06 	vldr	d7, [sp, #24]
1000238c:	ed8d 7b00 	vstr	d7, [sp]
10002390:	4633      	mov	r3, r6
10002392:	463a      	mov	r2, r7
10002394:	4629      	mov	r1, r5
10002396:	4620      	mov	r0, r4
10002398:	f000 f856 	bl	10002448 <_ftoa>
1000239c:	f1b8 0f00 	cmp.w	r8, #0
100023a0:	f43f af4f 	beq.w	10002242 <_etoa+0x21a>
100023a4:	9b1e      	ldr	r3, [sp, #120]	; 0x78
100023a6:	f013 0f20 	tst.w	r3, #32
100023aa:	d03c      	beq.n	10002426 <_etoa+0x3fe>
100023ac:	f04f 0c45 	mov.w	ip, #69	; 0x45
100023b0:	f100 0901 	add.w	r9, r0, #1
100023b4:	4633      	mov	r3, r6
100023b6:	4602      	mov	r2, r0
100023b8:	4629      	mov	r1, r5
100023ba:	4660      	mov	r0, ip
100023bc:	47a0      	blx	r4
100023be:	ea8a 72ea 	eor.w	r2, sl, sl, asr #31
100023c2:	eba2 72ea 	sub.w	r2, r2, sl, asr #31
100023c6:	2305      	movs	r3, #5
100023c8:	9305      	str	r3, [sp, #20]
100023ca:	f108 33ff 	add.w	r3, r8, #4294967295
100023ce:	9304      	str	r3, [sp, #16]
100023d0:	2300      	movs	r3, #0
100023d2:	9303      	str	r3, [sp, #12]
100023d4:	230a      	movs	r3, #10
100023d6:	9302      	str	r3, [sp, #8]
100023d8:	ea4f 70da 	mov.w	r0, sl, lsr #31
100023dc:	9001      	str	r0, [sp, #4]
100023de:	9200      	str	r2, [sp, #0]
100023e0:	4633      	mov	r3, r6
100023e2:	464a      	mov	r2, r9
100023e4:	4629      	mov	r1, r5
100023e6:	4620      	mov	r0, r4
100023e8:	f7ff fd71 	bl	10001ece <_ntoa_long>
100023ec:	f1bb 0f00 	cmp.w	fp, #0
100023f0:	f43f af27 	beq.w	10002242 <_etoa+0x21a>
100023f4:	4602      	mov	r2, r0
100023f6:	f8dd 9074 	ldr.w	r9, [sp, #116]	; 0x74
100023fa:	e01e      	b.n	1000243a <_etoa+0x412>
100023fc:	9b1c      	ldr	r3, [sp, #112]	; 0x70
100023fe:	2b00      	cmp	r3, #0
10002400:	d099      	beq.n	10002336 <_etoa+0x30e>
10002402:	9b0d      	ldr	r3, [sp, #52]	; 0x34
10002404:	2b00      	cmp	r3, #0
10002406:	d096      	beq.n	10002336 <_etoa+0x30e>
10002408:	9b1c      	ldr	r3, [sp, #112]	; 0x70
1000240a:	3b01      	subs	r3, #1
1000240c:	931c      	str	r3, [sp, #112]	; 0x70
1000240e:	e792      	b.n	10002336 <_etoa+0x30e>
10002410:	f04f 0900 	mov.w	r9, #0
10002414:	e794      	b.n	10002340 <_etoa+0x318>
10002416:	e9dd 0106 	ldrd	r0, r1, [sp, #24]
1000241a:	4602      	mov	r2, r0
1000241c:	f101 4300 	add.w	r3, r1, #2147483648	; 0x80000000
10002420:	e9cd 2306 	strd	r2, r3, [sp, #24]
10002424:	e7a8      	b.n	10002378 <_etoa+0x350>
10002426:	f04f 0c65 	mov.w	ip, #101	; 0x65
1000242a:	e7c1      	b.n	100023b0 <_etoa+0x388>
1000242c:	f102 0801 	add.w	r8, r2, #1
10002430:	4633      	mov	r3, r6
10002432:	4629      	mov	r1, r5
10002434:	2020      	movs	r0, #32
10002436:	47a0      	blx	r4
10002438:	4642      	mov	r2, r8
1000243a:	1bd3      	subs	r3, r2, r7
1000243c:	454b      	cmp	r3, r9
1000243e:	d3f5      	bcc.n	1000242c <_etoa+0x404>
10002440:	4610      	mov	r0, r2
10002442:	e6fe      	b.n	10002242 <_etoa+0x21a>
10002444:	0000      	movs	r0, r0
	...

10002448 <_ftoa>:
10002448:	e92d 4ff0 	stmdb	sp!, {r4, r5, r6, r7, r8, r9, sl, fp, lr}
1000244c:	ed2d 8b02 	vpush	{d8}
10002450:	b095      	sub	sp, #84	; 0x54
10002452:	9007      	str	r0, [sp, #28]
10002454:	910a      	str	r1, [sp, #40]	; 0x28
10002456:	4692      	mov	sl, r2
10002458:	469b      	mov	fp, r3
1000245a:	e9dd 8920 	ldrd	r8, r9, [sp, #128]	; 0x80
1000245e:	9d22      	ldr	r5, [sp, #136]	; 0x88
10002460:	4642      	mov	r2, r8
10002462:	464b      	mov	r3, r9
10002464:	4640      	mov	r0, r8
10002466:	4649      	mov	r1, r9
10002468:	f7ff fbbc 	bl	10001be4 <__wrap___aeabi_dcmpun>
1000246c:	2800      	cmp	r0, #0
1000246e:	d135      	bne.n	100024dc <_ftoa+0x94>
10002470:	f04f 32ff 	mov.w	r2, #4294967295
10002474:	f46f 1380 	mvn.w	r3, #1048576	; 0x100000
10002478:	4640      	mov	r0, r8
1000247a:	4649      	mov	r1, r9
1000247c:	f7ff fbc4 	bl	10001c08 <__wrap___aeabi_dcmplt>
10002480:	2800      	cmp	r0, #0
10002482:	d13a      	bne.n	100024fa <_ftoa+0xb2>
10002484:	f04f 32ff 	mov.w	r2, #4294967295
10002488:	4b9f      	ldr	r3, [pc, #636]	; (10002708 <_ftoa+0x2c0>)
1000248a:	4640      	mov	r0, r8
1000248c:	4649      	mov	r1, r9
1000248e:	f7ff fbf7 	bl	10001c80 <__wrap___aeabi_dcmpgt>
10002492:	2800      	cmp	r0, #0
10002494:	d140      	bne.n	10002518 <_ftoa+0xd0>
10002496:	a398      	add	r3, pc, #608	; (adr r3, 100026f8 <_ftoa+0x2b0>)
10002498:	e9d3 2300 	ldrd	r2, r3, [r3]
1000249c:	4640      	mov	r0, r8
1000249e:	4649      	mov	r1, r9
100024a0:	f7ff fbee 	bl	10001c80 <__wrap___aeabi_dcmpgt>
100024a4:	2800      	cmp	r0, #0
100024a6:	d14f      	bne.n	10002548 <_ftoa+0x100>
100024a8:	a395      	add	r3, pc, #596	; (adr r3, 10002700 <_ftoa+0x2b8>)
100024aa:	e9d3 2300 	ldrd	r2, r3, [r3]
100024ae:	4640      	mov	r0, r8
100024b0:	4649      	mov	r1, r9
100024b2:	f7ff fba9 	bl	10001c08 <__wrap___aeabi_dcmplt>
100024b6:	2800      	cmp	r0, #0
100024b8:	d146      	bne.n	10002548 <_ftoa+0x100>
100024ba:	2200      	movs	r2, #0
100024bc:	2300      	movs	r3, #0
100024be:	4640      	mov	r0, r8
100024c0:	4649      	mov	r1, r9
100024c2:	f7ff fba1 	bl	10001c08 <__wrap___aeabi_dcmplt>
100024c6:	2800      	cmp	r0, #0
100024c8:	d14c      	bne.n	10002564 <_ftoa+0x11c>
100024ca:	2300      	movs	r3, #0
100024cc:	930b      	str	r3, [sp, #44]	; 0x2c
100024ce:	9b24      	ldr	r3, [sp, #144]	; 0x90
100024d0:	f413 6f80 	tst.w	r3, #1024	; 0x400
100024d4:	f000 80b7 	beq.w	10002646 <_ftoa+0x1fe>
100024d8:	2400      	movs	r4, #0
100024da:	e056      	b.n	1000258a <_ftoa+0x142>
100024dc:	9b24      	ldr	r3, [sp, #144]	; 0x90
100024de:	9303      	str	r3, [sp, #12]
100024e0:	9b23      	ldr	r3, [sp, #140]	; 0x8c
100024e2:	9302      	str	r3, [sp, #8]
100024e4:	2303      	movs	r3, #3
100024e6:	9301      	str	r3, [sp, #4]
100024e8:	4b88      	ldr	r3, [pc, #544]	; (1000270c <_ftoa+0x2c4>)
100024ea:	9300      	str	r3, [sp, #0]
100024ec:	465b      	mov	r3, fp
100024ee:	4652      	mov	r2, sl
100024f0:	990a      	ldr	r1, [sp, #40]	; 0x28
100024f2:	9807      	ldr	r0, [sp, #28]
100024f4:	f7ff fc10 	bl	10001d18 <_out_rev>
100024f8:	e137      	b.n	1000276a <_ftoa+0x322>
100024fa:	9b24      	ldr	r3, [sp, #144]	; 0x90
100024fc:	9303      	str	r3, [sp, #12]
100024fe:	9b23      	ldr	r3, [sp, #140]	; 0x8c
10002500:	9302      	str	r3, [sp, #8]
10002502:	2304      	movs	r3, #4
10002504:	9301      	str	r3, [sp, #4]
10002506:	4b82      	ldr	r3, [pc, #520]	; (10002710 <_ftoa+0x2c8>)
10002508:	9300      	str	r3, [sp, #0]
1000250a:	465b      	mov	r3, fp
1000250c:	4652      	mov	r2, sl
1000250e:	990a      	ldr	r1, [sp, #40]	; 0x28
10002510:	9807      	ldr	r0, [sp, #28]
10002512:	f7ff fc01 	bl	10001d18 <_out_rev>
10002516:	e128      	b.n	1000276a <_ftoa+0x322>
10002518:	9b24      	ldr	r3, [sp, #144]	; 0x90
1000251a:	f013 0304 	ands.w	r3, r3, #4
1000251e:	d00f      	beq.n	10002540 <_ftoa+0xf8>
10002520:	4a7c      	ldr	r2, [pc, #496]	; (10002714 <_ftoa+0x2cc>)
10002522:	b17b      	cbz	r3, 10002544 <_ftoa+0xfc>
10002524:	2304      	movs	r3, #4
10002526:	9924      	ldr	r1, [sp, #144]	; 0x90
10002528:	9103      	str	r1, [sp, #12]
1000252a:	9923      	ldr	r1, [sp, #140]	; 0x8c
1000252c:	9102      	str	r1, [sp, #8]
1000252e:	9301      	str	r3, [sp, #4]
10002530:	9200      	str	r2, [sp, #0]
10002532:	465b      	mov	r3, fp
10002534:	4652      	mov	r2, sl
10002536:	990a      	ldr	r1, [sp, #40]	; 0x28
10002538:	9807      	ldr	r0, [sp, #28]
1000253a:	f7ff fbed 	bl	10001d18 <_out_rev>
1000253e:	e114      	b.n	1000276a <_ftoa+0x322>
10002540:	4a75      	ldr	r2, [pc, #468]	; (10002718 <_ftoa+0x2d0>)
10002542:	e7ee      	b.n	10002522 <_ftoa+0xda>
10002544:	2303      	movs	r3, #3
10002546:	e7ee      	b.n	10002526 <_ftoa+0xde>
10002548:	9b24      	ldr	r3, [sp, #144]	; 0x90
1000254a:	9304      	str	r3, [sp, #16]
1000254c:	9b23      	ldr	r3, [sp, #140]	; 0x8c
1000254e:	9303      	str	r3, [sp, #12]
10002550:	9502      	str	r5, [sp, #8]
10002552:	e9cd 8900 	strd	r8, r9, [sp]
10002556:	465b      	mov	r3, fp
10002558:	4652      	mov	r2, sl
1000255a:	990a      	ldr	r1, [sp, #40]	; 0x28
1000255c:	9807      	ldr	r0, [sp, #28]
1000255e:	f7ff fd63 	bl	10002028 <_etoa>
10002562:	e102      	b.n	1000276a <_ftoa+0x322>
10002564:	4642      	mov	r2, r8
10002566:	464b      	mov	r3, r9
10002568:	2000      	movs	r0, #0
1000256a:	2100      	movs	r1, #0
1000256c:	f7ff fa6a 	bl	10001a44 <__wrap___aeabi_dsub>
10002570:	4680      	mov	r8, r0
10002572:	4689      	mov	r9, r1
10002574:	2301      	movs	r3, #1
10002576:	930b      	str	r3, [sp, #44]	; 0x2c
10002578:	e7a9      	b.n	100024ce <_ftoa+0x86>
1000257a:	f104 0350 	add.w	r3, r4, #80	; 0x50
1000257e:	446b      	add	r3, sp
10002580:	2230      	movs	r2, #48	; 0x30
10002582:	f803 2c20 	strb.w	r2, [r3, #-32]
10002586:	3d01      	subs	r5, #1
10002588:	3401      	adds	r4, #1
1000258a:	2c1f      	cmp	r4, #31
1000258c:	d801      	bhi.n	10002592 <_ftoa+0x14a>
1000258e:	2d09      	cmp	r5, #9
10002590:	d8f3      	bhi.n	1000257a <_ftoa+0x132>
10002592:	4640      	mov	r0, r8
10002594:	4649      	mov	r1, r9
10002596:	f7ff fb01 	bl	10001b9c <__wrap___aeabi_d2iz>
1000259a:	4606      	mov	r6, r0
1000259c:	f7ff fada 	bl	10001b54 <__wrap___aeabi_i2d>
100025a0:	4602      	mov	r2, r0
100025a2:	460b      	mov	r3, r1
100025a4:	4640      	mov	r0, r8
100025a6:	4649      	mov	r1, r9
100025a8:	f7ff fa4c 	bl	10001a44 <__wrap___aeabi_dsub>
100025ac:	4b5b      	ldr	r3, [pc, #364]	; (1000271c <_ftoa+0x2d4>)
100025ae:	eb03 03c5 	add.w	r3, r3, r5, lsl #3
100025b2:	ed93 8b00 	vldr	d8, [r3]
100025b6:	ec53 2b18 	vmov	r2, r3, d8
100025ba:	f7ff fa57 	bl	10001a6c <__wrap___aeabi_dmul>
100025be:	4602      	mov	r2, r0
100025c0:	460b      	mov	r3, r1
100025c2:	e9cd 2308 	strd	r2, r3, [sp, #32]
100025c6:	f7ff fafb 	bl	10001bc0 <__wrap___aeabi_d2uiz>
100025ca:	4607      	mov	r7, r0
100025cc:	f7ff fad4 	bl	10001b78 <__wrap___aeabi_ui2d>
100025d0:	4602      	mov	r2, r0
100025d2:	460b      	mov	r3, r1
100025d4:	e9dd 0108 	ldrd	r0, r1, [sp, #32]
100025d8:	f7ff fa34 	bl	10001a44 <__wrap___aeabi_dsub>
100025dc:	4602      	mov	r2, r0
100025de:	460b      	mov	r3, r1
100025e0:	e9cd 2308 	strd	r2, r3, [sp, #32]
100025e4:	2200      	movs	r2, #0
100025e6:	4b4e      	ldr	r3, [pc, #312]	; (10002720 <_ftoa+0x2d8>)
100025e8:	f7ff fb4a 	bl	10001c80 <__wrap___aeabi_dcmpgt>
100025ec:	b368      	cbz	r0, 1000264a <_ftoa+0x202>
100025ee:	3701      	adds	r7, #1
100025f0:	4638      	mov	r0, r7
100025f2:	f7ff fac1 	bl	10001b78 <__wrap___aeabi_ui2d>
100025f6:	4602      	mov	r2, r0
100025f8:	460b      	mov	r3, r1
100025fa:	ec51 0b18 	vmov	r0, r1, d8
100025fe:	f7ff fb17 	bl	10001c30 <__wrap___aeabi_dcmple>
10002602:	b108      	cbz	r0, 10002608 <_ftoa+0x1c0>
10002604:	3601      	adds	r6, #1
10002606:	2700      	movs	r7, #0
10002608:	bb6d      	cbnz	r5, 10002666 <_ftoa+0x21e>
1000260a:	4630      	mov	r0, r6
1000260c:	f7ff faa2 	bl	10001b54 <__wrap___aeabi_i2d>
10002610:	4602      	mov	r2, r0
10002612:	460b      	mov	r3, r1
10002614:	4640      	mov	r0, r8
10002616:	4649      	mov	r1, r9
10002618:	f7ff fa14 	bl	10001a44 <__wrap___aeabi_dsub>
1000261c:	4607      	mov	r7, r0
1000261e:	4688      	mov	r8, r1
10002620:	2200      	movs	r2, #0
10002622:	4b3f      	ldr	r3, [pc, #252]	; (10002720 <_ftoa+0x2d8>)
10002624:	f7ff faf0 	bl	10001c08 <__wrap___aeabi_dcmplt>
10002628:	2800      	cmp	r0, #0
1000262a:	d14c      	bne.n	100026c6 <_ftoa+0x27e>
1000262c:	2200      	movs	r2, #0
1000262e:	4b3c      	ldr	r3, [pc, #240]	; (10002720 <_ftoa+0x2d8>)
10002630:	4638      	mov	r0, r7
10002632:	4641      	mov	r1, r8
10002634:	f7ff fb24 	bl	10001c80 <__wrap___aeabi_dcmpgt>
10002638:	2800      	cmp	r0, #0
1000263a:	d144      	bne.n	100026c6 <_ftoa+0x27e>
1000263c:	f016 0f01 	tst.w	r6, #1
10002640:	d041      	beq.n	100026c6 <_ftoa+0x27e>
10002642:	3601      	adds	r6, #1
10002644:	e03f      	b.n	100026c6 <_ftoa+0x27e>
10002646:	2506      	movs	r5, #6
10002648:	e746      	b.n	100024d8 <_ftoa+0x90>
1000264a:	2200      	movs	r2, #0
1000264c:	4b34      	ldr	r3, [pc, #208]	; (10002720 <_ftoa+0x2d8>)
1000264e:	e9dd 0108 	ldrd	r0, r1, [sp, #32]
10002652:	f7ff fad9 	bl	10001c08 <__wrap___aeabi_dcmplt>
10002656:	2800      	cmp	r0, #0
10002658:	d1d6      	bne.n	10002608 <_ftoa+0x1c0>
1000265a:	b117      	cbz	r7, 10002662 <_ftoa+0x21a>
1000265c:	f017 0f01 	tst.w	r7, #1
10002660:	d0d2      	beq.n	10002608 <_ftoa+0x1c0>
10002662:	3701      	adds	r7, #1
10002664:	e7d0      	b.n	10002608 <_ftoa+0x1c0>
10002666:	2c1f      	cmp	r4, #31
10002668:	d817      	bhi.n	1000269a <_ftoa+0x252>
1000266a:	3d01      	subs	r5, #1
1000266c:	4b2d      	ldr	r3, [pc, #180]	; (10002724 <_ftoa+0x2dc>)
1000266e:	fba3 2307 	umull	r2, r3, r3, r7
10002672:	08db      	lsrs	r3, r3, #3
10002674:	4619      	mov	r1, r3
10002676:	eb03 0383 	add.w	r3, r3, r3, lsl #2
1000267a:	eba7 0343 	sub.w	r3, r7, r3, lsl #1
1000267e:	1c62      	adds	r2, r4, #1
10002680:	3330      	adds	r3, #48	; 0x30
10002682:	f104 0050 	add.w	r0, r4, #80	; 0x50
10002686:	eb0d 0400 	add.w	r4, sp, r0
1000268a:	f804 3c20 	strb.w	r3, [r4, #-32]
1000268e:	2f09      	cmp	r7, #9
10002690:	d902      	bls.n	10002698 <_ftoa+0x250>
10002692:	460f      	mov	r7, r1
10002694:	4614      	mov	r4, r2
10002696:	e7e6      	b.n	10002666 <_ftoa+0x21e>
10002698:	4614      	mov	r4, r2
1000269a:	2c1f      	cmp	r4, #31
1000269c:	d80a      	bhi.n	100026b4 <_ftoa+0x26c>
1000269e:	1e6b      	subs	r3, r5, #1
100026a0:	b145      	cbz	r5, 100026b4 <_ftoa+0x26c>
100026a2:	f104 0250 	add.w	r2, r4, #80	; 0x50
100026a6:	446a      	add	r2, sp
100026a8:	2130      	movs	r1, #48	; 0x30
100026aa:	f802 1c20 	strb.w	r1, [r2, #-32]
100026ae:	461d      	mov	r5, r3
100026b0:	3401      	adds	r4, #1
100026b2:	e7f2      	b.n	1000269a <_ftoa+0x252>
100026b4:	2c1f      	cmp	r4, #31
100026b6:	d806      	bhi.n	100026c6 <_ftoa+0x27e>
100026b8:	f104 0350 	add.w	r3, r4, #80	; 0x50
100026bc:	446b      	add	r3, sp
100026be:	222e      	movs	r2, #46	; 0x2e
100026c0:	f803 2c20 	strb.w	r2, [r3, #-32]
100026c4:	3401      	adds	r4, #1
100026c6:	2c1f      	cmp	r4, #31
100026c8:	d831      	bhi.n	1000272e <_ftoa+0x2e6>
100026ca:	4a17      	ldr	r2, [pc, #92]	; (10002728 <_ftoa+0x2e0>)
100026cc:	fb82 3206 	smull	r3, r2, r2, r6
100026d0:	17f3      	asrs	r3, r6, #31
100026d2:	ebc3 03a2 	rsb	r3, r3, r2, asr #2
100026d6:	461a      	mov	r2, r3
100026d8:	eb03 0383 	add.w	r3, r3, r3, lsl #2
100026dc:	eba6 0343 	sub.w	r3, r6, r3, lsl #1
100026e0:	1c61      	adds	r1, r4, #1
100026e2:	3330      	adds	r3, #48	; 0x30
100026e4:	f104 0050 	add.w	r0, r4, #80	; 0x50
100026e8:	eb0d 0400 	add.w	r4, sp, r0
100026ec:	f804 3c20 	strb.w	r3, [r4, #-32]
100026f0:	4616      	mov	r6, r2
100026f2:	b1da      	cbz	r2, 1000272c <_ftoa+0x2e4>
100026f4:	460c      	mov	r4, r1
100026f6:	e7e6      	b.n	100026c6 <_ftoa+0x27e>
100026f8:	00000000 	.word	0x00000000
100026fc:	41cdcd65 	.word	0x41cdcd65
10002700:	00000000 	.word	0x00000000
10002704:	c1cdcd65 	.word	0xc1cdcd65
10002708:	7fefffff 	.word	0x7fefffff
1000270c:	10005188 	.word	0x10005188
10002710:	1000518c 	.word	0x1000518c
10002714:	10005180 	.word	0x10005180
10002718:	1000517c 	.word	0x1000517c
1000271c:	10005198 	.word	0x10005198
10002720:	3fe00000 	.word	0x3fe00000
10002724:	cccccccd 	.word	0xcccccccd
10002728:	66666667 	.word	0x66666667
1000272c:	460c      	mov	r4, r1
1000272e:	9b24      	ldr	r3, [sp, #144]	; 0x90
10002730:	f003 0303 	and.w	r3, r3, #3
10002734:	2b01      	cmp	r3, #1
10002736:	d01d      	beq.n	10002774 <_ftoa+0x32c>
10002738:	2c1f      	cmp	r4, #31
1000273a:	d809      	bhi.n	10002750 <_ftoa+0x308>
1000273c:	9b0b      	ldr	r3, [sp, #44]	; 0x2c
1000273e:	2b00      	cmp	r3, #0
10002740:	d035      	beq.n	100027ae <_ftoa+0x366>
10002742:	f104 0350 	add.w	r3, r4, #80	; 0x50
10002746:	446b      	add	r3, sp
10002748:	222d      	movs	r2, #45	; 0x2d
1000274a:	f803 2c20 	strb.w	r2, [r3, #-32]
1000274e:	3401      	adds	r4, #1
10002750:	9b24      	ldr	r3, [sp, #144]	; 0x90
10002752:	9303      	str	r3, [sp, #12]
10002754:	9b23      	ldr	r3, [sp, #140]	; 0x8c
10002756:	9302      	str	r3, [sp, #8]
10002758:	9401      	str	r4, [sp, #4]
1000275a:	ab0c      	add	r3, sp, #48	; 0x30
1000275c:	9300      	str	r3, [sp, #0]
1000275e:	465b      	mov	r3, fp
10002760:	4652      	mov	r2, sl
10002762:	990a      	ldr	r1, [sp, #40]	; 0x28
10002764:	9807      	ldr	r0, [sp, #28]
10002766:	f7ff fad7 	bl	10001d18 <_out_rev>
1000276a:	b015      	add	sp, #84	; 0x54
1000276c:	ecbd 8b02 	vpop	{d8}
10002770:	e8bd 8ff0 	ldmia.w	sp!, {r4, r5, r6, r7, r8, r9, sl, fp, pc}
10002774:	9b23      	ldr	r3, [sp, #140]	; 0x8c
10002776:	b1b3      	cbz	r3, 100027a6 <_ftoa+0x35e>
10002778:	9b0b      	ldr	r3, [sp, #44]	; 0x2c
1000277a:	b91b      	cbnz	r3, 10002784 <_ftoa+0x33c>
1000277c:	9b24      	ldr	r3, [sp, #144]	; 0x90
1000277e:	f013 0f0c 	tst.w	r3, #12
10002782:	d012      	beq.n	100027aa <_ftoa+0x362>
10002784:	9b23      	ldr	r3, [sp, #140]	; 0x8c
10002786:	3b01      	subs	r3, #1
10002788:	9323      	str	r3, [sp, #140]	; 0x8c
1000278a:	4619      	mov	r1, r3
1000278c:	e006      	b.n	1000279c <_ftoa+0x354>
1000278e:	f104 0350 	add.w	r3, r4, #80	; 0x50
10002792:	446b      	add	r3, sp
10002794:	2230      	movs	r2, #48	; 0x30
10002796:	f803 2c20 	strb.w	r2, [r3, #-32]
1000279a:	3401      	adds	r4, #1
1000279c:	428c      	cmp	r4, r1
1000279e:	d2cb      	bcs.n	10002738 <_ftoa+0x2f0>
100027a0:	2c1f      	cmp	r4, #31
100027a2:	d9f4      	bls.n	1000278e <_ftoa+0x346>
100027a4:	e7c8      	b.n	10002738 <_ftoa+0x2f0>
100027a6:	9923      	ldr	r1, [sp, #140]	; 0x8c
100027a8:	e7f8      	b.n	1000279c <_ftoa+0x354>
100027aa:	9923      	ldr	r1, [sp, #140]	; 0x8c
100027ac:	e7f6      	b.n	1000279c <_ftoa+0x354>
100027ae:	9b24      	ldr	r3, [sp, #144]	; 0x90
100027b0:	f013 0f04 	tst.w	r3, #4
100027b4:	d007      	beq.n	100027c6 <_ftoa+0x37e>
100027b6:	f104 0350 	add.w	r3, r4, #80	; 0x50
100027ba:	446b      	add	r3, sp
100027bc:	222b      	movs	r2, #43	; 0x2b
100027be:	f803 2c20 	strb.w	r2, [r3, #-32]
100027c2:	3401      	adds	r4, #1
100027c4:	e7c4      	b.n	10002750 <_ftoa+0x308>
100027c6:	9b24      	ldr	r3, [sp, #144]	; 0x90
100027c8:	f013 0f08 	tst.w	r3, #8
100027cc:	d0c0      	beq.n	10002750 <_ftoa+0x308>
100027ce:	f104 0350 	add.w	r3, r4, #80	; 0x50
100027d2:	446b      	add	r3, sp
100027d4:	2220      	movs	r2, #32
100027d6:	f803 2c20 	strb.w	r2, [r3, #-32]
100027da:	3401      	adds	r4, #1
100027dc:	e7b8      	b.n	10002750 <_ftoa+0x308>
100027de:	bf00      	nop

100027e0 <_vsnprintf>:
100027e0:	e92d 4ff0 	stmdb	sp!, {r4, r5, r6, r7, r8, r9, sl, fp, lr}
100027e4:	b08f      	sub	sp, #60	; 0x3c
100027e6:	4607      	mov	r7, r0
100027e8:	4616      	mov	r6, r2
100027ea:	930d      	str	r3, [sp, #52]	; 0x34
100027ec:	4688      	mov	r8, r1
100027ee:	2900      	cmp	r1, #0
100027f0:	f000 8324 	beq.w	10002e3c <_vsnprintf+0x65c>
100027f4:	2400      	movs	r4, #0
100027f6:	9b0d      	ldr	r3, [sp, #52]	; 0x34
100027f8:	7818      	ldrb	r0, [r3, #0]
100027fa:	2800      	cmp	r0, #0
100027fc:	f000 8320 	beq.w	10002e40 <_vsnprintf+0x660>
10002800:	2825      	cmp	r0, #37	; 0x25
10002802:	d009      	beq.n	10002818 <_vsnprintf+0x38>
10002804:	1c65      	adds	r5, r4, #1
10002806:	4633      	mov	r3, r6
10002808:	4622      	mov	r2, r4
1000280a:	4641      	mov	r1, r8
1000280c:	47b8      	blx	r7
1000280e:	9b0d      	ldr	r3, [sp, #52]	; 0x34
10002810:	3301      	adds	r3, #1
10002812:	930d      	str	r3, [sp, #52]	; 0x34
10002814:	462c      	mov	r4, r5
10002816:	e7ee      	b.n	100027f6 <_vsnprintf+0x16>
10002818:	3301      	adds	r3, #1
1000281a:	930d      	str	r3, [sp, #52]	; 0x34
1000281c:	2500      	movs	r5, #0
1000281e:	9b0d      	ldr	r3, [sp, #52]	; 0x34
10002820:	7819      	ldrb	r1, [r3, #0]
10002822:	f1a1 0220 	sub.w	r2, r1, #32
10002826:	2a10      	cmp	r2, #16
10002828:	d80a      	bhi.n	10002840 <_vsnprintf+0x60>
1000282a:	e8df f002 	tbb	[pc, r2]
1000282e:	0938      	.short	0x0938
10002830:	09093d09 	.word	0x09093d09
10002834:	09090909 	.word	0x09090909
10002838:	2e093309 	.word	0x2e093309
1000283c:	0909      	.short	0x0909
1000283e:	29          	.byte	0x29
1000283f:	00          	.byte	0x00
10002840:	f1a1 0330 	sub.w	r3, r1, #48	; 0x30
10002844:	b2db      	uxtb	r3, r3
10002846:	2b09      	cmp	r3, #9
10002848:	d933      	bls.n	100028b2 <_vsnprintf+0xd2>
1000284a:	292a      	cmp	r1, #42	; 0x2a
1000284c:	d036      	beq.n	100028bc <_vsnprintf+0xdc>
1000284e:	2300      	movs	r3, #0
10002850:	930a      	str	r3, [sp, #40]	; 0x28
10002852:	9b0d      	ldr	r3, [sp, #52]	; 0x34
10002854:	781a      	ldrb	r2, [r3, #0]
10002856:	2a2e      	cmp	r2, #46	; 0x2e
10002858:	d040      	beq.n	100028dc <_vsnprintf+0xfc>
1000285a:	f04f 0b00 	mov.w	fp, #0
1000285e:	9a0d      	ldr	r2, [sp, #52]	; 0x34
10002860:	7813      	ldrb	r3, [r2, #0]
10002862:	3b68      	subs	r3, #104	; 0x68
10002864:	2b12      	cmp	r3, #18
10002866:	d877      	bhi.n	10002958 <_vsnprintf+0x178>
10002868:	e8df f003 	tbb	[pc, r3]
1000286c:	76d37664 	.word	0x76d37664
10002870:	76767656 	.word	0x76767656
10002874:	76767676 	.word	0x76767676
10002878:	76767672 	.word	0x76767672
1000287c:	7676      	.short	0x7676
1000287e:	d8          	.byte	0xd8
1000287f:	00          	.byte	0x00
10002880:	f045 0501 	orr.w	r5, r5, #1
10002884:	3301      	adds	r3, #1
10002886:	930d      	str	r3, [sp, #52]	; 0x34
10002888:	e7c9      	b.n	1000281e <_vsnprintf+0x3e>
1000288a:	f045 0502 	orr.w	r5, r5, #2
1000288e:	3301      	adds	r3, #1
10002890:	930d      	str	r3, [sp, #52]	; 0x34
10002892:	e7c4      	b.n	1000281e <_vsnprintf+0x3e>
10002894:	f045 0504 	orr.w	r5, r5, #4
10002898:	3301      	adds	r3, #1
1000289a:	930d      	str	r3, [sp, #52]	; 0x34
1000289c:	e7bf      	b.n	1000281e <_vsnprintf+0x3e>
1000289e:	f045 0508 	orr.w	r5, r5, #8
100028a2:	3301      	adds	r3, #1
100028a4:	930d      	str	r3, [sp, #52]	; 0x34
100028a6:	e7ba      	b.n	1000281e <_vsnprintf+0x3e>
100028a8:	f045 0510 	orr.w	r5, r5, #16
100028ac:	3301      	adds	r3, #1
100028ae:	930d      	str	r3, [sp, #52]	; 0x34
100028b0:	e7b5      	b.n	1000281e <_vsnprintf+0x3e>
100028b2:	a80d      	add	r0, sp, #52	; 0x34
100028b4:	f7ff fa1e 	bl	10001cf4 <_atoi>
100028b8:	900a      	str	r0, [sp, #40]	; 0x28
100028ba:	e7ca      	b.n	10002852 <_vsnprintf+0x72>
100028bc:	9b18      	ldr	r3, [sp, #96]	; 0x60
100028be:	1d1a      	adds	r2, r3, #4
100028c0:	9218      	str	r2, [sp, #96]	; 0x60
100028c2:	6818      	ldr	r0, [r3, #0]
100028c4:	2800      	cmp	r0, #0
100028c6:	db04      	blt.n	100028d2 <_vsnprintf+0xf2>
100028c8:	900a      	str	r0, [sp, #40]	; 0x28
100028ca:	9b0d      	ldr	r3, [sp, #52]	; 0x34
100028cc:	3301      	adds	r3, #1
100028ce:	930d      	str	r3, [sp, #52]	; 0x34
100028d0:	e7bf      	b.n	10002852 <_vsnprintf+0x72>
100028d2:	f045 0502 	orr.w	r5, r5, #2
100028d6:	4243      	negs	r3, r0
100028d8:	930a      	str	r3, [sp, #40]	; 0x28
100028da:	e7f6      	b.n	100028ca <_vsnprintf+0xea>
100028dc:	f445 6580 	orr.w	r5, r5, #1024	; 0x400
100028e0:	1c5a      	adds	r2, r3, #1
100028e2:	920d      	str	r2, [sp, #52]	; 0x34
100028e4:	785a      	ldrb	r2, [r3, #1]
100028e6:	f1a2 0330 	sub.w	r3, r2, #48	; 0x30
100028ea:	b2db      	uxtb	r3, r3
100028ec:	2b09      	cmp	r3, #9
100028ee:	d904      	bls.n	100028fa <_vsnprintf+0x11a>
100028f0:	2a2a      	cmp	r2, #42	; 0x2a
100028f2:	d007      	beq.n	10002904 <_vsnprintf+0x124>
100028f4:	f04f 0b00 	mov.w	fp, #0
100028f8:	e7b1      	b.n	1000285e <_vsnprintf+0x7e>
100028fa:	a80d      	add	r0, sp, #52	; 0x34
100028fc:	f7ff f9fa 	bl	10001cf4 <_atoi>
10002900:	4683      	mov	fp, r0
10002902:	e7ac      	b.n	1000285e <_vsnprintf+0x7e>
10002904:	9b18      	ldr	r3, [sp, #96]	; 0x60
10002906:	1d1a      	adds	r2, r3, #4
10002908:	9218      	str	r2, [sp, #96]	; 0x60
1000290a:	681b      	ldr	r3, [r3, #0]
1000290c:	ea23 7be3 	bic.w	fp, r3, r3, asr #31
10002910:	9b0d      	ldr	r3, [sp, #52]	; 0x34
10002912:	3301      	adds	r3, #1
10002914:	930d      	str	r3, [sp, #52]	; 0x34
10002916:	e7a2      	b.n	1000285e <_vsnprintf+0x7e>
10002918:	f445 7180 	orr.w	r1, r5, #256	; 0x100
1000291c:	1c53      	adds	r3, r2, #1
1000291e:	930d      	str	r3, [sp, #52]	; 0x34
10002920:	7852      	ldrb	r2, [r2, #1]
10002922:	2a6c      	cmp	r2, #108	; 0x6c
10002924:	d001      	beq.n	1000292a <_vsnprintf+0x14a>
10002926:	460d      	mov	r5, r1
10002928:	e016      	b.n	10002958 <_vsnprintf+0x178>
1000292a:	f445 7540 	orr.w	r5, r5, #768	; 0x300
1000292e:	3301      	adds	r3, #1
10002930:	930d      	str	r3, [sp, #52]	; 0x34
10002932:	e011      	b.n	10002958 <_vsnprintf+0x178>
10002934:	f045 0180 	orr.w	r1, r5, #128	; 0x80
10002938:	1c53      	adds	r3, r2, #1
1000293a:	930d      	str	r3, [sp, #52]	; 0x34
1000293c:	7852      	ldrb	r2, [r2, #1]
1000293e:	2a68      	cmp	r2, #104	; 0x68
10002940:	d001      	beq.n	10002946 <_vsnprintf+0x166>
10002942:	460d      	mov	r5, r1
10002944:	e008      	b.n	10002958 <_vsnprintf+0x178>
10002946:	f045 05c0 	orr.w	r5, r5, #192	; 0xc0
1000294a:	3301      	adds	r3, #1
1000294c:	930d      	str	r3, [sp, #52]	; 0x34
1000294e:	e003      	b.n	10002958 <_vsnprintf+0x178>
10002950:	f445 7580 	orr.w	r5, r5, #256	; 0x100
10002954:	3201      	adds	r2, #1
10002956:	920d      	str	r2, [sp, #52]	; 0x34
10002958:	9b0d      	ldr	r3, [sp, #52]	; 0x34
1000295a:	7818      	ldrb	r0, [r3, #0]
1000295c:	f1a0 0325 	sub.w	r3, r0, #37	; 0x25
10002960:	2b53      	cmp	r3, #83	; 0x53
10002962:	f200 8261 	bhi.w	10002e28 <_vsnprintf+0x648>
10002966:	e8df f013 	tbh	[pc, r3, lsl #1]
1000296a:	0254      	.short	0x0254
1000296c:	025f025f 	.word	0x025f025f
10002970:	025f025f 	.word	0x025f025f
10002974:	025f025f 	.word	0x025f025f
10002978:	025f025f 	.word	0x025f025f
1000297c:	025f025f 	.word	0x025f025f
10002980:	025f025f 	.word	0x025f025f
10002984:	025f025f 	.word	0x025f025f
10002988:	025f025f 	.word	0x025f025f
1000298c:	025f025f 	.word	0x025f025f
10002990:	025f025f 	.word	0x025f025f
10002994:	025f025f 	.word	0x025f025f
10002998:	025f025f 	.word	0x025f025f
1000299c:	025f025f 	.word	0x025f025f
100029a0:	025f025f 	.word	0x025f025f
100029a4:	025f025f 	.word	0x025f025f
100029a8:	0174025f 	.word	0x0174025f
100029ac:	01740154 	.word	0x01740154
100029b0:	025f025f 	.word	0x025f025f
100029b4:	025f025f 	.word	0x025f025f
100029b8:	025f025f 	.word	0x025f025f
100029bc:	025f025f 	.word	0x025f025f
100029c0:	025f025f 	.word	0x025f025f
100029c4:	025f025f 	.word	0x025f025f
100029c8:	025f025f 	.word	0x025f025f
100029cc:	025f025f 	.word	0x025f025f
100029d0:	025f005e 	.word	0x025f005e
100029d4:	025f025f 	.word	0x025f025f
100029d8:	025f025f 	.word	0x025f025f
100029dc:	025f025f 	.word	0x025f025f
100029e0:	025f025f 	.word	0x025f025f
100029e4:	019b005e 	.word	0x019b005e
100029e8:	0174005e 	.word	0x0174005e
100029ec:	01740154 	.word	0x01740154
100029f0:	005e025f 	.word	0x005e025f
100029f4:	025f025f 	.word	0x025f025f
100029f8:	025f025f 	.word	0x025f025f
100029fc:	005e025f 	.word	0x005e025f
10002a00:	025f0239 	.word	0x025f0239
10002a04:	01d4025f 	.word	0x01d4025f
10002a08:	005e025f 	.word	0x005e025f
10002a0c:	025f025f 	.word	0x025f025f
10002a10:	005e      	.short	0x005e
10002a12:	f445 7500 	orr.w	r5, r5, #512	; 0x200
10002a16:	3201      	adds	r2, #1
10002a18:	920d      	str	r2, [sp, #52]	; 0x34
10002a1a:	e79d      	b.n	10002958 <_vsnprintf+0x178>
10002a1c:	f445 7580 	orr.w	r5, r5, #256	; 0x100
10002a20:	3201      	adds	r2, #1
10002a22:	920d      	str	r2, [sp, #52]	; 0x34
10002a24:	e798      	b.n	10002958 <_vsnprintf+0x178>
10002a26:	2878      	cmp	r0, #120	; 0x78
10002a28:	d009      	beq.n	10002a3e <_vsnprintf+0x25e>
10002a2a:	2858      	cmp	r0, #88	; 0x58
10002a2c:	d03a      	beq.n	10002aa4 <_vsnprintf+0x2c4>
10002a2e:	286f      	cmp	r0, #111	; 0x6f
10002a30:	d03a      	beq.n	10002aa8 <_vsnprintf+0x2c8>
10002a32:	2862      	cmp	r0, #98	; 0x62
10002a34:	d03a      	beq.n	10002aac <_vsnprintf+0x2cc>
10002a36:	f025 0510 	bic.w	r5, r5, #16
10002a3a:	230a      	movs	r3, #10
10002a3c:	e000      	b.n	10002a40 <_vsnprintf+0x260>
10002a3e:	2310      	movs	r3, #16
10002a40:	2858      	cmp	r0, #88	; 0x58
10002a42:	d035      	beq.n	10002ab0 <_vsnprintf+0x2d0>
10002a44:	2869      	cmp	r0, #105	; 0x69
10002a46:	d003      	beq.n	10002a50 <_vsnprintf+0x270>
10002a48:	2864      	cmp	r0, #100	; 0x64
10002a4a:	d001      	beq.n	10002a50 <_vsnprintf+0x270>
10002a4c:	f025 050c 	bic.w	r5, r5, #12
10002a50:	f415 6f80 	tst.w	r5, #1024	; 0x400
10002a54:	d001      	beq.n	10002a5a <_vsnprintf+0x27a>
10002a56:	f025 0501 	bic.w	r5, r5, #1
10002a5a:	2869      	cmp	r0, #105	; 0x69
10002a5c:	d02b      	beq.n	10002ab6 <_vsnprintf+0x2d6>
10002a5e:	2864      	cmp	r0, #100	; 0x64
10002a60:	d029      	beq.n	10002ab6 <_vsnprintf+0x2d6>
10002a62:	f415 7f00 	tst.w	r5, #512	; 0x200
10002a66:	f040 8096 	bne.w	10002b96 <_vsnprintf+0x3b6>
10002a6a:	f415 7f80 	tst.w	r5, #256	; 0x100
10002a6e:	f040 80ae 	bne.w	10002bce <_vsnprintf+0x3ee>
10002a72:	f015 0f40 	tst.w	r5, #64	; 0x40
10002a76:	f000 80bf 	beq.w	10002bf8 <_vsnprintf+0x418>
10002a7a:	9a18      	ldr	r2, [sp, #96]	; 0x60
10002a7c:	1d11      	adds	r1, r2, #4
10002a7e:	9118      	str	r1, [sp, #96]	; 0x60
10002a80:	7812      	ldrb	r2, [r2, #0]
10002a82:	9505      	str	r5, [sp, #20]
10002a84:	990a      	ldr	r1, [sp, #40]	; 0x28
10002a86:	9104      	str	r1, [sp, #16]
10002a88:	f8cd b00c 	str.w	fp, [sp, #12]
10002a8c:	9302      	str	r3, [sp, #8]
10002a8e:	2300      	movs	r3, #0
10002a90:	9301      	str	r3, [sp, #4]
10002a92:	9200      	str	r2, [sp, #0]
10002a94:	4633      	mov	r3, r6
10002a96:	4622      	mov	r2, r4
10002a98:	4641      	mov	r1, r8
10002a9a:	4638      	mov	r0, r7
10002a9c:	f7ff fa17 	bl	10001ece <_ntoa_long>
10002aa0:	4604      	mov	r4, r0
10002aa2:	e029      	b.n	10002af8 <_vsnprintf+0x318>
10002aa4:	2310      	movs	r3, #16
10002aa6:	e7cb      	b.n	10002a40 <_vsnprintf+0x260>
10002aa8:	2308      	movs	r3, #8
10002aaa:	e7c9      	b.n	10002a40 <_vsnprintf+0x260>
10002aac:	2302      	movs	r3, #2
10002aae:	e7c7      	b.n	10002a40 <_vsnprintf+0x260>
10002ab0:	f045 0520 	orr.w	r5, r5, #32
10002ab4:	e7c6      	b.n	10002a44 <_vsnprintf+0x264>
10002ab6:	f415 7f00 	tst.w	r5, #512	; 0x200
10002aba:	d121      	bne.n	10002b00 <_vsnprintf+0x320>
10002abc:	f415 7f80 	tst.w	r5, #256	; 0x100
10002ac0:	d142      	bne.n	10002b48 <_vsnprintf+0x368>
10002ac2:	f015 0f40 	tst.w	r5, #64	; 0x40
10002ac6:	d058      	beq.n	10002b7a <_vsnprintf+0x39a>
10002ac8:	9a18      	ldr	r2, [sp, #96]	; 0x60
10002aca:	1d11      	adds	r1, r2, #4
10002acc:	9118      	str	r1, [sp, #96]	; 0x60
10002ace:	7812      	ldrb	r2, [r2, #0]
10002ad0:	ea82 71e2 	eor.w	r1, r2, r2, asr #31
10002ad4:	eba1 71e2 	sub.w	r1, r1, r2, asr #31
10002ad8:	9505      	str	r5, [sp, #20]
10002ada:	980a      	ldr	r0, [sp, #40]	; 0x28
10002adc:	9004      	str	r0, [sp, #16]
10002ade:	f8cd b00c 	str.w	fp, [sp, #12]
10002ae2:	9302      	str	r3, [sp, #8]
10002ae4:	0fd2      	lsrs	r2, r2, #31
10002ae6:	9201      	str	r2, [sp, #4]
10002ae8:	9100      	str	r1, [sp, #0]
10002aea:	4633      	mov	r3, r6
10002aec:	4622      	mov	r2, r4
10002aee:	4641      	mov	r1, r8
10002af0:	4638      	mov	r0, r7
10002af2:	f7ff f9ec 	bl	10001ece <_ntoa_long>
10002af6:	4604      	mov	r4, r0
10002af8:	9b0d      	ldr	r3, [sp, #52]	; 0x34
10002afa:	3301      	adds	r3, #1
10002afc:	930d      	str	r3, [sp, #52]	; 0x34
10002afe:	e67a      	b.n	100027f6 <_vsnprintf+0x16>
10002b00:	9a18      	ldr	r2, [sp, #96]	; 0x60
10002b02:	3207      	adds	r2, #7
10002b04:	f022 0207 	bic.w	r2, r2, #7
10002b08:	f102 0108 	add.w	r1, r2, #8
10002b0c:	9118      	str	r1, [sp, #96]	; 0x60
10002b0e:	6851      	ldr	r1, [r2, #4]
10002b10:	6812      	ldr	r2, [r2, #0]
10002b12:	4608      	mov	r0, r1
10002b14:	2900      	cmp	r1, #0
10002b16:	db13      	blt.n	10002b40 <_vsnprintf+0x360>
10002b18:	9508      	str	r5, [sp, #32]
10002b1a:	9d0a      	ldr	r5, [sp, #40]	; 0x28
10002b1c:	9507      	str	r5, [sp, #28]
10002b1e:	f8cd b018 	str.w	fp, [sp, #24]
10002b22:	9304      	str	r3, [sp, #16]
10002b24:	2300      	movs	r3, #0
10002b26:	9305      	str	r3, [sp, #20]
10002b28:	0fc9      	lsrs	r1, r1, #31
10002b2a:	9102      	str	r1, [sp, #8]
10002b2c:	9200      	str	r2, [sp, #0]
10002b2e:	9001      	str	r0, [sp, #4]
10002b30:	4633      	mov	r3, r6
10002b32:	4622      	mov	r2, r4
10002b34:	4641      	mov	r1, r8
10002b36:	4638      	mov	r0, r7
10002b38:	f7ff fa13 	bl	10001f62 <_ntoa_long_long>
10002b3c:	4604      	mov	r4, r0
10002b3e:	e7db      	b.n	10002af8 <_vsnprintf+0x318>
10002b40:	4252      	negs	r2, r2
10002b42:	eb61 0041 	sbc.w	r0, r1, r1, lsl #1
10002b46:	e7e7      	b.n	10002b18 <_vsnprintf+0x338>
10002b48:	9a18      	ldr	r2, [sp, #96]	; 0x60
10002b4a:	1d11      	adds	r1, r2, #4
10002b4c:	9118      	str	r1, [sp, #96]	; 0x60
10002b4e:	6812      	ldr	r2, [r2, #0]
10002b50:	ea82 71e2 	eor.w	r1, r2, r2, asr #31
10002b54:	eba1 71e2 	sub.w	r1, r1, r2, asr #31
10002b58:	9505      	str	r5, [sp, #20]
10002b5a:	980a      	ldr	r0, [sp, #40]	; 0x28
10002b5c:	9004      	str	r0, [sp, #16]
10002b5e:	f8cd b00c 	str.w	fp, [sp, #12]
10002b62:	9302      	str	r3, [sp, #8]
10002b64:	0fd2      	lsrs	r2, r2, #31
10002b66:	9201      	str	r2, [sp, #4]
10002b68:	9100      	str	r1, [sp, #0]
10002b6a:	4633      	mov	r3, r6
10002b6c:	4622      	mov	r2, r4
10002b6e:	4641      	mov	r1, r8
10002b70:	4638      	mov	r0, r7
10002b72:	f7ff f9ac 	bl	10001ece <_ntoa_long>
10002b76:	4604      	mov	r4, r0
10002b78:	e7be      	b.n	10002af8 <_vsnprintf+0x318>
10002b7a:	f015 0f80 	tst.w	r5, #128	; 0x80
10002b7e:	d005      	beq.n	10002b8c <_vsnprintf+0x3ac>
10002b80:	9a18      	ldr	r2, [sp, #96]	; 0x60
10002b82:	1d11      	adds	r1, r2, #4
10002b84:	9118      	str	r1, [sp, #96]	; 0x60
10002b86:	f9b2 2000 	ldrsh.w	r2, [r2]
10002b8a:	e7a1      	b.n	10002ad0 <_vsnprintf+0x2f0>
10002b8c:	9a18      	ldr	r2, [sp, #96]	; 0x60
10002b8e:	1d11      	adds	r1, r2, #4
10002b90:	9118      	str	r1, [sp, #96]	; 0x60
10002b92:	6812      	ldr	r2, [r2, #0]
10002b94:	e79c      	b.n	10002ad0 <_vsnprintf+0x2f0>
10002b96:	9a18      	ldr	r2, [sp, #96]	; 0x60
10002b98:	3207      	adds	r2, #7
10002b9a:	f022 0207 	bic.w	r2, r2, #7
10002b9e:	f102 0108 	add.w	r1, r2, #8
10002ba2:	9118      	str	r1, [sp, #96]	; 0x60
10002ba4:	9508      	str	r5, [sp, #32]
10002ba6:	990a      	ldr	r1, [sp, #40]	; 0x28
10002ba8:	9107      	str	r1, [sp, #28]
10002baa:	f8cd b018 	str.w	fp, [sp, #24]
10002bae:	2100      	movs	r1, #0
10002bb0:	9304      	str	r3, [sp, #16]
10002bb2:	9105      	str	r1, [sp, #20]
10002bb4:	9102      	str	r1, [sp, #8]
10002bb6:	e9d2 2300 	ldrd	r2, r3, [r2]
10002bba:	e9cd 2300 	strd	r2, r3, [sp]
10002bbe:	4633      	mov	r3, r6
10002bc0:	4622      	mov	r2, r4
10002bc2:	4641      	mov	r1, r8
10002bc4:	4638      	mov	r0, r7
10002bc6:	f7ff f9cc 	bl	10001f62 <_ntoa_long_long>
10002bca:	4604      	mov	r4, r0
10002bcc:	e794      	b.n	10002af8 <_vsnprintf+0x318>
10002bce:	9a18      	ldr	r2, [sp, #96]	; 0x60
10002bd0:	1d11      	adds	r1, r2, #4
10002bd2:	9118      	str	r1, [sp, #96]	; 0x60
10002bd4:	9505      	str	r5, [sp, #20]
10002bd6:	990a      	ldr	r1, [sp, #40]	; 0x28
10002bd8:	9104      	str	r1, [sp, #16]
10002bda:	f8cd b00c 	str.w	fp, [sp, #12]
10002bde:	9302      	str	r3, [sp, #8]
10002be0:	2300      	movs	r3, #0
10002be2:	9301      	str	r3, [sp, #4]
10002be4:	6813      	ldr	r3, [r2, #0]
10002be6:	9300      	str	r3, [sp, #0]
10002be8:	4633      	mov	r3, r6
10002bea:	4622      	mov	r2, r4
10002bec:	4641      	mov	r1, r8
10002bee:	4638      	mov	r0, r7
10002bf0:	f7ff f96d 	bl	10001ece <_ntoa_long>
10002bf4:	4604      	mov	r4, r0
10002bf6:	e77f      	b.n	10002af8 <_vsnprintf+0x318>
10002bf8:	f015 0f80 	tst.w	r5, #128	; 0x80
10002bfc:	d004      	beq.n	10002c08 <_vsnprintf+0x428>
10002bfe:	9a18      	ldr	r2, [sp, #96]	; 0x60
10002c00:	1d11      	adds	r1, r2, #4
10002c02:	9118      	str	r1, [sp, #96]	; 0x60
10002c04:	8812      	ldrh	r2, [r2, #0]
10002c06:	e73c      	b.n	10002a82 <_vsnprintf+0x2a2>
10002c08:	9a18      	ldr	r2, [sp, #96]	; 0x60
10002c0a:	1d11      	adds	r1, r2, #4
10002c0c:	9118      	str	r1, [sp, #96]	; 0x60
10002c0e:	6812      	ldr	r2, [r2, #0]
10002c10:	e737      	b.n	10002a82 <_vsnprintf+0x2a2>
10002c12:	2846      	cmp	r0, #70	; 0x46
10002c14:	d01a      	beq.n	10002c4c <_vsnprintf+0x46c>
10002c16:	9b18      	ldr	r3, [sp, #96]	; 0x60
10002c18:	3307      	adds	r3, #7
10002c1a:	f023 0307 	bic.w	r3, r3, #7
10002c1e:	f103 0208 	add.w	r2, r3, #8
10002c22:	9218      	str	r2, [sp, #96]	; 0x60
10002c24:	9504      	str	r5, [sp, #16]
10002c26:	9a0a      	ldr	r2, [sp, #40]	; 0x28
10002c28:	9203      	str	r2, [sp, #12]
10002c2a:	f8cd b008 	str.w	fp, [sp, #8]
10002c2e:	e9d3 2300 	ldrd	r2, r3, [r3]
10002c32:	e9cd 2300 	strd	r2, r3, [sp]
10002c36:	4633      	mov	r3, r6
10002c38:	4622      	mov	r2, r4
10002c3a:	4641      	mov	r1, r8
10002c3c:	4638      	mov	r0, r7
10002c3e:	f7ff fc03 	bl	10002448 <_ftoa>
10002c42:	4604      	mov	r4, r0
10002c44:	9b0d      	ldr	r3, [sp, #52]	; 0x34
10002c46:	3301      	adds	r3, #1
10002c48:	930d      	str	r3, [sp, #52]	; 0x34
10002c4a:	e5d4      	b.n	100027f6 <_vsnprintf+0x16>
10002c4c:	f045 0520 	orr.w	r5, r5, #32
10002c50:	e7e1      	b.n	10002c16 <_vsnprintf+0x436>
10002c52:	2867      	cmp	r0, #103	; 0x67
10002c54:	d001      	beq.n	10002c5a <_vsnprintf+0x47a>
10002c56:	2847      	cmp	r0, #71	; 0x47
10002c58:	d101      	bne.n	10002c5e <_vsnprintf+0x47e>
10002c5a:	f445 6500 	orr.w	r5, r5, #2048	; 0x800
10002c5e:	2845      	cmp	r0, #69	; 0x45
10002c60:	d001      	beq.n	10002c66 <_vsnprintf+0x486>
10002c62:	2847      	cmp	r0, #71	; 0x47
10002c64:	d101      	bne.n	10002c6a <_vsnprintf+0x48a>
10002c66:	f045 0520 	orr.w	r5, r5, #32
10002c6a:	9b18      	ldr	r3, [sp, #96]	; 0x60
10002c6c:	3307      	adds	r3, #7
10002c6e:	f023 0307 	bic.w	r3, r3, #7
10002c72:	f103 0208 	add.w	r2, r3, #8
10002c76:	9218      	str	r2, [sp, #96]	; 0x60
10002c78:	9504      	str	r5, [sp, #16]
10002c7a:	9a0a      	ldr	r2, [sp, #40]	; 0x28
10002c7c:	9203      	str	r2, [sp, #12]
10002c7e:	f8cd b008 	str.w	fp, [sp, #8]
10002c82:	e9d3 2300 	ldrd	r2, r3, [r3]
10002c86:	e9cd 2300 	strd	r2, r3, [sp]
10002c8a:	4633      	mov	r3, r6
10002c8c:	4622      	mov	r2, r4
10002c8e:	4641      	mov	r1, r8
10002c90:	4638      	mov	r0, r7
10002c92:	f7ff f9c9 	bl	10002028 <_etoa>
10002c96:	4604      	mov	r4, r0
10002c98:	9b0d      	ldr	r3, [sp, #52]	; 0x34
10002c9a:	3301      	adds	r3, #1
10002c9c:	930d      	str	r3, [sp, #52]	; 0x34
10002c9e:	e5aa      	b.n	100027f6 <_vsnprintf+0x16>
10002ca0:	f015 0502 	ands.w	r5, r5, #2
10002ca4:	d01f      	beq.n	10002ce6 <_vsnprintf+0x506>
10002ca6:	f04f 0901 	mov.w	r9, #1
10002caa:	9818      	ldr	r0, [sp, #96]	; 0x60
10002cac:	1d03      	adds	r3, r0, #4
10002cae:	9318      	str	r3, [sp, #96]	; 0x60
10002cb0:	f104 0a01 	add.w	sl, r4, #1
10002cb4:	4633      	mov	r3, r6
10002cb6:	4622      	mov	r2, r4
10002cb8:	4641      	mov	r1, r8
10002cba:	7800      	ldrb	r0, [r0, #0]
10002cbc:	47b8      	blx	r7
10002cbe:	b9bd      	cbnz	r5, 10002cf0 <_vsnprintf+0x510>
10002cc0:	9b0d      	ldr	r3, [sp, #52]	; 0x34
10002cc2:	3301      	adds	r3, #1
10002cc4:	930d      	str	r3, [sp, #52]	; 0x34
10002cc6:	4654      	mov	r4, sl
10002cc8:	e595      	b.n	100027f6 <_vsnprintf+0x16>
10002cca:	f102 0a01 	add.w	sl, r2, #1
10002cce:	4633      	mov	r3, r6
10002cd0:	4641      	mov	r1, r8
10002cd2:	2020      	movs	r0, #32
10002cd4:	47b8      	blx	r7
10002cd6:	464b      	mov	r3, r9
10002cd8:	4652      	mov	r2, sl
10002cda:	f103 0901 	add.w	r9, r3, #1
10002cde:	459b      	cmp	fp, r3
10002ce0:	d8f3      	bhi.n	10002cca <_vsnprintf+0x4ea>
10002ce2:	4614      	mov	r4, r2
10002ce4:	e7e1      	b.n	10002caa <_vsnprintf+0x4ca>
10002ce6:	2301      	movs	r3, #1
10002ce8:	f8dd b028 	ldr.w	fp, [sp, #40]	; 0x28
10002cec:	4622      	mov	r2, r4
10002cee:	e7f4      	b.n	10002cda <_vsnprintf+0x4fa>
10002cf0:	4652      	mov	r2, sl
10002cf2:	f8dd a028 	ldr.w	sl, [sp, #40]	; 0x28
10002cf6:	e006      	b.n	10002d06 <_vsnprintf+0x526>
10002cf8:	1c55      	adds	r5, r2, #1
10002cfa:	4633      	mov	r3, r6
10002cfc:	4641      	mov	r1, r8
10002cfe:	2020      	movs	r0, #32
10002d00:	47b8      	blx	r7
10002d02:	46a1      	mov	r9, r4
10002d04:	462a      	mov	r2, r5
10002d06:	f109 0401 	add.w	r4, r9, #1
10002d0a:	45ca      	cmp	sl, r9
10002d0c:	d8f4      	bhi.n	10002cf8 <_vsnprintf+0x518>
10002d0e:	4692      	mov	sl, r2
10002d10:	e7d6      	b.n	10002cc0 <_vsnprintf+0x4e0>
10002d12:	9b18      	ldr	r3, [sp, #96]	; 0x60
10002d14:	1d1a      	adds	r2, r3, #4
10002d16:	9218      	str	r2, [sp, #96]	; 0x60
10002d18:	f8d3 a000 	ldr.w	sl, [r3]
10002d1c:	f1bb 0f00 	cmp.w	fp, #0
10002d20:	d11e      	bne.n	10002d60 <_vsnprintf+0x580>
10002d22:	f04f 33ff 	mov.w	r3, #4294967295
10002d26:	46d1      	mov	r9, sl
10002d28:	e002      	b.n	10002d30 <_vsnprintf+0x550>
10002d2a:	f109 0901 	add.w	r9, r9, #1
10002d2e:	4613      	mov	r3, r2
10002d30:	f899 2000 	ldrb.w	r2, [r9]
10002d34:	b112      	cbz	r2, 10002d3c <_vsnprintf+0x55c>
10002d36:	1e5a      	subs	r2, r3, #1
10002d38:	2b00      	cmp	r3, #0
10002d3a:	d1f6      	bne.n	10002d2a <_vsnprintf+0x54a>
10002d3c:	eba9 090a 	sub.w	r9, r9, sl
10002d40:	f415 6380 	ands.w	r3, r5, #1024	; 0x400
10002d44:	930b      	str	r3, [sp, #44]	; 0x2c
10002d46:	d002      	beq.n	10002d4e <_vsnprintf+0x56e>
10002d48:	45d9      	cmp	r9, fp
10002d4a:	bf28      	it	cs
10002d4c:	46d9      	movcs	r9, fp
10002d4e:	f015 0302 	ands.w	r3, r5, #2
10002d52:	930c      	str	r3, [sp, #48]	; 0x30
10002d54:	d006      	beq.n	10002d64 <_vsnprintf+0x584>
10002d56:	4622      	mov	r2, r4
10002d58:	465c      	mov	r4, fp
10002d5a:	46b3      	mov	fp, r6
10002d5c:	9e0b      	ldr	r6, [sp, #44]	; 0x2c
10002d5e:	e01d      	b.n	10002d9c <_vsnprintf+0x5bc>
10002d60:	465b      	mov	r3, fp
10002d62:	e7e0      	b.n	10002d26 <_vsnprintf+0x546>
10002d64:	4622      	mov	r2, r4
10002d66:	9c0a      	ldr	r4, [sp, #40]	; 0x28
10002d68:	464b      	mov	r3, r9
10002d6a:	e007      	b.n	10002d7c <_vsnprintf+0x59c>
10002d6c:	f102 0901 	add.w	r9, r2, #1
10002d70:	4633      	mov	r3, r6
10002d72:	4641      	mov	r1, r8
10002d74:	2020      	movs	r0, #32
10002d76:	47b8      	blx	r7
10002d78:	462b      	mov	r3, r5
10002d7a:	464a      	mov	r2, r9
10002d7c:	1c5d      	adds	r5, r3, #1
10002d7e:	429c      	cmp	r4, r3
10002d80:	d8f4      	bhi.n	10002d6c <_vsnprintf+0x58c>
10002d82:	46a9      	mov	r9, r5
10002d84:	465c      	mov	r4, fp
10002d86:	46b3      	mov	fp, r6
10002d88:	9e0b      	ldr	r6, [sp, #44]	; 0x2c
10002d8a:	e007      	b.n	10002d9c <_vsnprintf+0x5bc>
10002d8c:	461c      	mov	r4, r3
10002d8e:	f10a 0a01 	add.w	sl, sl, #1
10002d92:	1c55      	adds	r5, r2, #1
10002d94:	465b      	mov	r3, fp
10002d96:	4641      	mov	r1, r8
10002d98:	47b8      	blx	r7
10002d9a:	462a      	mov	r2, r5
10002d9c:	f89a 0000 	ldrb.w	r0, [sl]
10002da0:	b120      	cbz	r0, 10002dac <_vsnprintf+0x5cc>
10002da2:	2e00      	cmp	r6, #0
10002da4:	d0f3      	beq.n	10002d8e <_vsnprintf+0x5ae>
10002da6:	1e63      	subs	r3, r4, #1
10002da8:	2c00      	cmp	r4, #0
10002daa:	d1ef      	bne.n	10002d8c <_vsnprintf+0x5ac>
10002dac:	4614      	mov	r4, r2
10002dae:	465e      	mov	r6, fp
10002db0:	9b0c      	ldr	r3, [sp, #48]	; 0x30
10002db2:	b91b      	cbnz	r3, 10002dbc <_vsnprintf+0x5dc>
10002db4:	9b0d      	ldr	r3, [sp, #52]	; 0x34
10002db6:	3301      	adds	r3, #1
10002db8:	930d      	str	r3, [sp, #52]	; 0x34
10002dba:	e51c      	b.n	100027f6 <_vsnprintf+0x16>
10002dbc:	f8dd a028 	ldr.w	sl, [sp, #40]	; 0x28
10002dc0:	e006      	b.n	10002dd0 <_vsnprintf+0x5f0>
10002dc2:	1c55      	adds	r5, r2, #1
10002dc4:	4633      	mov	r3, r6
10002dc6:	4641      	mov	r1, r8
10002dc8:	2020      	movs	r0, #32
10002dca:	47b8      	blx	r7
10002dcc:	46a1      	mov	r9, r4
10002dce:	462a      	mov	r2, r5
10002dd0:	f109 0401 	add.w	r4, r9, #1
10002dd4:	45ca      	cmp	sl, r9
10002dd6:	d8f4      	bhi.n	10002dc2 <_vsnprintf+0x5e2>
10002dd8:	4614      	mov	r4, r2
10002dda:	e7eb      	b.n	10002db4 <_vsnprintf+0x5d4>
10002ddc:	f045 0521 	orr.w	r5, r5, #33	; 0x21
10002de0:	9b18      	ldr	r3, [sp, #96]	; 0x60
10002de2:	1d1a      	adds	r2, r3, #4
10002de4:	9218      	str	r2, [sp, #96]	; 0x60
10002de6:	681b      	ldr	r3, [r3, #0]
10002de8:	9505      	str	r5, [sp, #20]
10002dea:	2208      	movs	r2, #8
10002dec:	9204      	str	r2, [sp, #16]
10002dee:	f8cd b00c 	str.w	fp, [sp, #12]
10002df2:	2210      	movs	r2, #16
10002df4:	9202      	str	r2, [sp, #8]
10002df6:	2200      	movs	r2, #0
10002df8:	9201      	str	r2, [sp, #4]
10002dfa:	9300      	str	r3, [sp, #0]
10002dfc:	4633      	mov	r3, r6
10002dfe:	4622      	mov	r2, r4
10002e00:	4641      	mov	r1, r8
10002e02:	4638      	mov	r0, r7
10002e04:	f7ff f863 	bl	10001ece <_ntoa_long>
10002e08:	4604      	mov	r4, r0
10002e0a:	9b0d      	ldr	r3, [sp, #52]	; 0x34
10002e0c:	3301      	adds	r3, #1
10002e0e:	930d      	str	r3, [sp, #52]	; 0x34
10002e10:	e4f1      	b.n	100027f6 <_vsnprintf+0x16>
10002e12:	1c65      	adds	r5, r4, #1
10002e14:	4633      	mov	r3, r6
10002e16:	4622      	mov	r2, r4
10002e18:	4641      	mov	r1, r8
10002e1a:	2025      	movs	r0, #37	; 0x25
10002e1c:	47b8      	blx	r7
10002e1e:	9b0d      	ldr	r3, [sp, #52]	; 0x34
10002e20:	3301      	adds	r3, #1
10002e22:	930d      	str	r3, [sp, #52]	; 0x34
10002e24:	462c      	mov	r4, r5
10002e26:	e4e6      	b.n	100027f6 <_vsnprintf+0x16>
10002e28:	1c65      	adds	r5, r4, #1
10002e2a:	4633      	mov	r3, r6
10002e2c:	4622      	mov	r2, r4
10002e2e:	4641      	mov	r1, r8
10002e30:	47b8      	blx	r7
10002e32:	9b0d      	ldr	r3, [sp, #52]	; 0x34
10002e34:	3301      	adds	r3, #1
10002e36:	930d      	str	r3, [sp, #52]	; 0x34
10002e38:	462c      	mov	r4, r5
10002e3a:	e4dc      	b.n	100027f6 <_vsnprintf+0x16>
10002e3c:	4f07      	ldr	r7, [pc, #28]	; (10002e5c <_vsnprintf+0x67c>)
10002e3e:	e4d9      	b.n	100027f4 <_vsnprintf+0x14>
10002e40:	42b4      	cmp	r4, r6
10002e42:	d301      	bcc.n	10002e48 <_vsnprintf+0x668>
10002e44:	1e72      	subs	r2, r6, #1
10002e46:	e000      	b.n	10002e4a <_vsnprintf+0x66a>
10002e48:	4622      	mov	r2, r4
10002e4a:	4633      	mov	r3, r6
10002e4c:	4641      	mov	r1, r8
10002e4e:	2000      	movs	r0, #0
10002e50:	47b8      	blx	r7
10002e52:	4620      	mov	r0, r4
10002e54:	b00f      	add	sp, #60	; 0x3c
10002e56:	e8bd 8ff0 	ldmia.w	sp!, {r4, r5, r6, r7, r8, r9, sl, fp, pc}
10002e5a:	bf00      	nop
10002e5c:	10001ce5 	.word	0x10001ce5

10002e60 <vfctprintf>:
10002e60:	b500      	push	{lr}
10002e62:	b085      	sub	sp, #20
10002e64:	9002      	str	r0, [sp, #8]
10002e66:	9103      	str	r1, [sp, #12]
10002e68:	9300      	str	r3, [sp, #0]
10002e6a:	4613      	mov	r3, r2
10002e6c:	f04f 32ff 	mov.w	r2, #4294967295
10002e70:	a902      	add	r1, sp, #8
10002e72:	4803      	ldr	r0, [pc, #12]	; (10002e80 <vfctprintf+0x20>)
10002e74:	f7ff fcb4 	bl	100027e0 <_vsnprintf>
10002e78:	b005      	add	sp, #20
10002e7a:	f85d fb04 	ldr.w	pc, [sp], #4
10002e7e:	bf00      	nop
10002e80:	10001ce7 	.word	0x10001ce7

10002e84 <_exit>:
10002e84:	be00      	bkpt	0x0000
10002e86:	e7fd      	b.n	10002e84 <_exit>

10002e88 <_sbrk>:
10002e88:	4603      	mov	r3, r0
10002e8a:	4a09      	ldr	r2, [pc, #36]	; (10002eb0 <_sbrk+0x28>)
10002e8c:	6812      	ldr	r2, [r2, #0]
10002e8e:	b142      	cbz	r2, 10002ea2 <_sbrk+0x1a>
10002e90:	4a07      	ldr	r2, [pc, #28]	; (10002eb0 <_sbrk+0x28>)
10002e92:	6810      	ldr	r0, [r2, #0]
10002e94:	4403      	add	r3, r0
10002e96:	4a07      	ldr	r2, [pc, #28]	; (10002eb4 <_sbrk+0x2c>)
10002e98:	4293      	cmp	r3, r2
10002e9a:	d806      	bhi.n	10002eaa <_sbrk+0x22>
10002e9c:	4a04      	ldr	r2, [pc, #16]	; (10002eb0 <_sbrk+0x28>)
10002e9e:	6013      	str	r3, [r2, #0]
10002ea0:	4770      	bx	lr
10002ea2:	4a03      	ldr	r2, [pc, #12]	; (10002eb0 <_sbrk+0x28>)
10002ea4:	4904      	ldr	r1, [pc, #16]	; (10002eb8 <_sbrk+0x30>)
10002ea6:	6011      	str	r1, [r2, #0]
10002ea8:	e7f2      	b.n	10002e90 <_sbrk+0x8>
10002eaa:	f04f 30ff 	mov.w	r0, #4294967295
10002eae:	4770      	bx	lr
10002eb0:	200128fc 	.word	0x200128fc
10002eb4:	20080000 	.word	0x20080000
10002eb8:	20012c14 	.word	0x20012c14

10002ebc <exit>:
10002ebc:	b508      	push	{r3, lr}
10002ebe:	f7ff ffe1 	bl	10002e84 <_exit>
	...

10002ec4 <__assert_func>:
10002ec4:	b500      	push	{lr}
10002ec6:	b083      	sub	sp, #12
10002ec8:	468c      	mov	ip, r1
10002eca:	4619      	mov	r1, r3
10002ecc:	4613      	mov	r3, r2
10002ece:	b15a      	cbz	r2, 10002ee8 <__assert_func+0x24>
10002ed0:	4a07      	ldr	r2, [pc, #28]	; (10002ef0 <__assert_func+0x2c>)
10002ed2:	b15b      	cbz	r3, 10002eec <__assert_func+0x28>
10002ed4:	9301      	str	r3, [sp, #4]
10002ed6:	9200      	str	r2, [sp, #0]
10002ed8:	4663      	mov	r3, ip
10002eda:	4602      	mov	r2, r0
10002edc:	4805      	ldr	r0, [pc, #20]	; (10002ef4 <__assert_func+0x30>)
10002ede:	f000 f94f 	bl	10003180 <__wrap_printf>
10002ee2:	2001      	movs	r0, #1
10002ee4:	f7ff ffce 	bl	10002e84 <_exit>
10002ee8:	4a03      	ldr	r2, [pc, #12]	; (10002ef8 <__assert_func+0x34>)
10002eea:	e7f2      	b.n	10002ed2 <__assert_func+0xe>
10002eec:	4b02      	ldr	r3, [pc, #8]	; (10002ef8 <__assert_func+0x34>)
10002eee:	e7f1      	b.n	10002ed4 <__assert_func+0x10>
10002ef0:	100051e8 	.word	0x100051e8
10002ef4:	100051f8 	.word	0x100051f8
10002ef8:	100051f4 	.word	0x100051f4

10002efc <runtime_init>:
10002efc:	b510      	push	{r4, lr}
10002efe:	f3ef 8305 	mrs	r3, IPSR
10002f02:	b2db      	uxtb	r3, r3
10002f04:	b103      	cbz	r3, 10002f08 <runtime_init+0xc>
10002f06:	be00      	bkpt	0x0000
10002f08:	f7fe fc62 	bl	100017d0 <runtime_run_initializers>
10002f0c:	4c04      	ldr	r4, [pc, #16]	; (10002f20 <runtime_init+0x24>)
10002f0e:	e002      	b.n	10002f16 <runtime_init+0x1a>
10002f10:	f854 3b04 	ldr.w	r3, [r4], #4
10002f14:	4798      	blx	r3
10002f16:	4b03      	ldr	r3, [pc, #12]	; (10002f24 <runtime_init+0x28>)
10002f18:	429c      	cmp	r4, r3
10002f1a:	d3f9      	bcc.n	10002f10 <runtime_init+0x14>
10002f1c:	bd10      	pop	{r4, pc}
10002f1e:	bf00      	nop
10002f20:	10004928 	.word	0x10004928
10002f24:	1000492c 	.word	0x1000492c

10002f28 <stdio_out_chars_no_crlf>:
10002f28:	b508      	push	{r3, lr}
10002f2a:	4603      	mov	r3, r0
10002f2c:	4608      	mov	r0, r1
10002f2e:	681b      	ldr	r3, [r3, #0]
10002f30:	4611      	mov	r1, r2
10002f32:	4798      	blx	r3
10002f34:	bd08      	pop	{r3, pc}
	...

10002f38 <stdio_out_chars_crlf>:
10002f38:	b5f8      	push	{r3, r4, r5, r6, r7, lr}
10002f3a:	4607      	mov	r7, r0
10002f3c:	460d      	mov	r5, r1
10002f3e:	4616      	mov	r6, r2
10002f40:	7d43      	ldrb	r3, [r0, #21]
10002f42:	b113      	cbz	r3, 10002f4a <stdio_out_chars_crlf+0x12>
10002f44:	2400      	movs	r4, #0
10002f46:	4620      	mov	r0, r4
10002f48:	e00c      	b.n	10002f64 <stdio_out_chars_crlf+0x2c>
10002f4a:	6803      	ldr	r3, [r0, #0]
10002f4c:	4611      	mov	r1, r2
10002f4e:	4628      	mov	r0, r5
10002f50:	4798      	blx	r3
10002f52:	e02e      	b.n	10002fb2 <stdio_out_chars_crlf+0x7a>
10002f54:	7d3b      	ldrb	r3, [r7, #20]
10002f56:	e010      	b.n	10002f7a <stdio_out_chars_crlf+0x42>
10002f58:	683b      	ldr	r3, [r7, #0]
10002f5a:	2102      	movs	r1, #2
10002f5c:	4815      	ldr	r0, [pc, #84]	; (10002fb4 <stdio_out_chars_crlf+0x7c>)
10002f5e:	4798      	blx	r3
10002f60:	1c60      	adds	r0, r4, #1
10002f62:	3401      	adds	r4, #1
10002f64:	42b4      	cmp	r4, r6
10002f66:	da14      	bge.n	10002f92 <stdio_out_chars_crlf+0x5a>
10002f68:	2c00      	cmp	r4, #0
10002f6a:	ddf3      	ble.n	10002f54 <stdio_out_chars_crlf+0x1c>
10002f6c:	192b      	adds	r3, r5, r4
10002f6e:	f813 3c01 	ldrb.w	r3, [r3, #-1]
10002f72:	2b0d      	cmp	r3, #13
10002f74:	bf14      	ite	ne
10002f76:	2300      	movne	r3, #0
10002f78:	2301      	moveq	r3, #1
10002f7a:	5d2a      	ldrb	r2, [r5, r4]
10002f7c:	2a0a      	cmp	r2, #10
10002f7e:	d1f0      	bne.n	10002f62 <stdio_out_chars_crlf+0x2a>
10002f80:	2b00      	cmp	r3, #0
10002f82:	d1ee      	bne.n	10002f62 <stdio_out_chars_crlf+0x2a>
10002f84:	42a0      	cmp	r0, r4
10002f86:	dae7      	bge.n	10002f58 <stdio_out_chars_crlf+0x20>
10002f88:	683b      	ldr	r3, [r7, #0]
10002f8a:	1a21      	subs	r1, r4, r0
10002f8c:	4428      	add	r0, r5
10002f8e:	4798      	blx	r3
10002f90:	e7e2      	b.n	10002f58 <stdio_out_chars_crlf+0x20>
10002f92:	42b0      	cmp	r0, r6
10002f94:	da03      	bge.n	10002f9e <stdio_out_chars_crlf+0x66>
10002f96:	683b      	ldr	r3, [r7, #0]
10002f98:	1a31      	subs	r1, r6, r0
10002f9a:	4428      	add	r0, r5
10002f9c:	4798      	blx	r3
10002f9e:	2e00      	cmp	r6, #0
10002fa0:	dd07      	ble.n	10002fb2 <stdio_out_chars_crlf+0x7a>
10002fa2:	4435      	add	r5, r6
10002fa4:	f815 3c01 	ldrb.w	r3, [r5, #-1]
10002fa8:	2b0d      	cmp	r3, #13
10002faa:	bf14      	ite	ne
10002fac:	2300      	movne	r3, #0
10002fae:	2301      	moveq	r3, #1
10002fb0:	753b      	strb	r3, [r7, #20]
10002fb2:	bdf8      	pop	{r3, r4, r5, r6, r7, pc}
10002fb4:	10005228 	.word	0x10005228

10002fb8 <stdio_stack_buffer_flush>:
10002fb8:	b538      	push	{r3, r4, r5, lr}
10002fba:	6803      	ldr	r3, [r0, #0]
10002fbc:	b1bb      	cbz	r3, 10002fee <stdio_stack_buffer_flush+0x36>
10002fbe:	4605      	mov	r5, r0
10002fc0:	4b0b      	ldr	r3, [pc, #44]	; (10002ff0 <stdio_stack_buffer_flush+0x38>)
10002fc2:	681c      	ldr	r4, [r3, #0]
10002fc4:	e006      	b.n	10002fd4 <stdio_stack_buffer_flush+0x1c>
10002fc6:	4629      	mov	r1, r5
10002fc8:	f851 2b04 	ldr.w	r2, [r1], #4
10002fcc:	4620      	mov	r0, r4
10002fce:	f7ff ffb3 	bl	10002f38 <stdio_out_chars_crlf>
10002fd2:	6924      	ldr	r4, [r4, #16]
10002fd4:	b14c      	cbz	r4, 10002fea <stdio_stack_buffer_flush+0x32>
10002fd6:	6823      	ldr	r3, [r4, #0]
10002fd8:	2b00      	cmp	r3, #0
10002fda:	d0fa      	beq.n	10002fd2 <stdio_stack_buffer_flush+0x1a>
10002fdc:	4b05      	ldr	r3, [pc, #20]	; (10002ff4 <stdio_stack_buffer_flush+0x3c>)
10002fde:	681b      	ldr	r3, [r3, #0]
10002fe0:	2b00      	cmp	r3, #0
10002fe2:	d0f0      	beq.n	10002fc6 <stdio_stack_buffer_flush+0xe>
10002fe4:	42a3      	cmp	r3, r4
10002fe6:	d1f4      	bne.n	10002fd2 <stdio_stack_buffer_flush+0x1a>
10002fe8:	e7ed      	b.n	10002fc6 <stdio_stack_buffer_flush+0xe>
10002fea:	2300      	movs	r3, #0
10002fec:	602b      	str	r3, [r5, #0]
10002fee:	bd38      	pop	{r3, r4, r5, pc}
10002ff0:	200128e8 	.word	0x200128e8
10002ff4:	200128f0 	.word	0x200128f0

10002ff8 <stdio_buffered_printer>:
10002ff8:	b538      	push	{r3, r4, r5, lr}
10002ffa:	4605      	mov	r5, r0
10002ffc:	460c      	mov	r4, r1
10002ffe:	680b      	ldr	r3, [r1, #0]
10003000:	2b80      	cmp	r3, #128	; 0x80
10003002:	d005      	beq.n	10003010 <stdio_buffered_printer+0x18>
10003004:	6821      	ldr	r1, [r4, #0]
10003006:	1c4b      	adds	r3, r1, #1
10003008:	6023      	str	r3, [r4, #0]
1000300a:	440c      	add	r4, r1
1000300c:	7125      	strb	r5, [r4, #4]
1000300e:	bd38      	pop	{r3, r4, r5, pc}
10003010:	4608      	mov	r0, r1
10003012:	f7ff ffd1 	bl	10002fb8 <stdio_stack_buffer_flush>
10003016:	e7f5      	b.n	10003004 <stdio_buffered_printer+0xc>

10003018 <stdout_serialize_begin>:
10003018:	b508      	push	{r3, lr}
1000301a:	f7fd fe79 	bl	10000d10 <time_us_64>
1000301e:	4a07      	ldr	r2, [pc, #28]	; (1000303c <stdout_serialize_begin+0x24>)
10003020:	1882      	adds	r2, r0, r2
10003022:	f141 0300 	adc.w	r3, r1, #0
10003026:	2b00      	cmp	r3, #0
10003028:	db03      	blt.n	10003032 <stdout_serialize_begin+0x1a>
1000302a:	4805      	ldr	r0, [pc, #20]	; (10003040 <stdout_serialize_begin+0x28>)
1000302c:	f001 fc44 	bl	100048b8 <__mutex_try_enter_block_until_veneer>
10003030:	bd08      	pop	{r3, pc}
10003032:	f04f 32ff 	mov.w	r2, #4294967295
10003036:	f06f 4300 	mvn.w	r3, #2147483648	; 0x80000000
1000303a:	e7f6      	b.n	1000302a <stdout_serialize_begin+0x12>
1000303c:	000f4240 	.word	0x000f4240
10003040:	20012460 	.word	0x20012460

10003044 <stdout_serialize_end>:
10003044:	b508      	push	{r3, lr}
10003046:	4802      	ldr	r0, [pc, #8]	; (10003050 <stdout_serialize_end+0xc>)
10003048:	f001 fc26 	bl	10004898 <__mutex_exit_veneer>
1000304c:	bd08      	pop	{r3, pc}
1000304e:	bf00      	nop
10003050:	20012460 	.word	0x20012460

10003054 <stdio_put_string>:
10003054:	e92d 43f0 	stmdb	sp!, {r4, r5, r6, r7, r8, r9, lr}
10003058:	b083      	sub	sp, #12
1000305a:	4606      	mov	r6, r0
1000305c:	460d      	mov	r5, r1
1000305e:	4690      	mov	r8, r2
10003060:	461c      	mov	r4, r3
10003062:	f7ff ffd9 	bl	10003018 <stdout_serialize_begin>
10003066:	4681      	mov	r9, r0
10003068:	f1b5 3fff 	cmp.w	r5, #4294967295
1000306c:	d004      	beq.n	10003078 <stdio_put_string+0x24>
1000306e:	b144      	cbz	r4, 10003082 <stdio_put_string+0x2e>
10003070:	4f17      	ldr	r7, [pc, #92]	; (100030d0 <stdio_put_string+0x7c>)
10003072:	4b18      	ldr	r3, [pc, #96]	; (100030d4 <stdio_put_string+0x80>)
10003074:	681c      	ldr	r4, [r3, #0]
10003076:	e007      	b.n	10003088 <stdio_put_string+0x34>
10003078:	4630      	mov	r0, r6
1000307a:	f001 fa73 	bl	10004564 <strlen>
1000307e:	4605      	mov	r5, r0
10003080:	e7f5      	b.n	1000306e <stdio_put_string+0x1a>
10003082:	4f15      	ldr	r7, [pc, #84]	; (100030d8 <stdio_put_string+0x84>)
10003084:	e7f5      	b.n	10003072 <stdio_put_string+0x1e>
10003086:	6924      	ldr	r4, [r4, #16]
10003088:	b1bc      	cbz	r4, 100030ba <stdio_put_string+0x66>
1000308a:	6823      	ldr	r3, [r4, #0]
1000308c:	2b00      	cmp	r3, #0
1000308e:	d0fa      	beq.n	10003086 <stdio_put_string+0x32>
10003090:	4b12      	ldr	r3, [pc, #72]	; (100030dc <stdio_put_string+0x88>)
10003092:	681b      	ldr	r3, [r3, #0]
10003094:	b10b      	cbz	r3, 1000309a <stdio_put_string+0x46>
10003096:	42a3      	cmp	r3, r4
10003098:	d1f5      	bne.n	10003086 <stdio_put_string+0x32>
1000309a:	462a      	mov	r2, r5
1000309c:	4631      	mov	r1, r6
1000309e:	4620      	mov	r0, r4
100030a0:	47b8      	blx	r7
100030a2:	f1b8 0f00 	cmp.w	r8, #0
100030a6:	d0ee      	beq.n	10003086 <stdio_put_string+0x32>
100030a8:	230a      	movs	r3, #10
100030aa:	f88d 3007 	strb.w	r3, [sp, #7]
100030ae:	2201      	movs	r2, #1
100030b0:	f10d 0107 	add.w	r1, sp, #7
100030b4:	4620      	mov	r0, r4
100030b6:	47b8      	blx	r7
100030b8:	e7e5      	b.n	10003086 <stdio_put_string+0x32>
100030ba:	f1b9 0f00 	cmp.w	r9, #0
100030be:	d103      	bne.n	100030c8 <stdio_put_string+0x74>
100030c0:	4628      	mov	r0, r5
100030c2:	b003      	add	sp, #12
100030c4:	e8bd 83f0 	ldmia.w	sp!, {r4, r5, r6, r7, r8, r9, pc}
100030c8:	f7ff ffbc 	bl	10003044 <stdout_serialize_end>
100030cc:	e7f8      	b.n	100030c0 <stdio_put_string+0x6c>
100030ce:	bf00      	nop
100030d0:	10002f39 	.word	0x10002f39
100030d4:	200128e8 	.word	0x200128e8
100030d8:	10002f29 	.word	0x10002f29
100030dc:	200128f0 	.word	0x200128f0

100030e0 <stdio_set_driver_enabled>:
100030e0:	4a08      	ldr	r2, [pc, #32]	; (10003104 <stdio_set_driver_enabled+0x24>)
100030e2:	e001      	b.n	100030e8 <stdio_set_driver_enabled+0x8>
100030e4:	f103 0210 	add.w	r2, r3, #16
100030e8:	6813      	ldr	r3, [r2, #0]
100030ea:	b13b      	cbz	r3, 100030fc <stdio_set_driver_enabled+0x1c>
100030ec:	4283      	cmp	r3, r0
100030ee:	d1f9      	bne.n	100030e4 <stdio_set_driver_enabled+0x4>
100030f0:	b931      	cbnz	r1, 10003100 <stdio_set_driver_enabled+0x20>
100030f2:	6903      	ldr	r3, [r0, #16]
100030f4:	6013      	str	r3, [r2, #0]
100030f6:	2300      	movs	r3, #0
100030f8:	6103      	str	r3, [r0, #16]
100030fa:	4770      	bx	lr
100030fc:	b101      	cbz	r1, 10003100 <stdio_set_driver_enabled+0x20>
100030fe:	6010      	str	r0, [r2, #0]
10003100:	4770      	bx	lr
10003102:	bf00      	nop
10003104:	200128e8 	.word	0x200128e8

10003108 <stdio_flush>:
10003108:	b510      	push	{r4, lr}
1000310a:	4b05      	ldr	r3, [pc, #20]	; (10003120 <stdio_flush+0x18>)
1000310c:	681c      	ldr	r4, [r3, #0]
1000310e:	e001      	b.n	10003114 <stdio_flush+0xc>
10003110:	4798      	blx	r3
10003112:	6924      	ldr	r4, [r4, #16]
10003114:	b11c      	cbz	r4, 1000311e <stdio_flush+0x16>
10003116:	6863      	ldr	r3, [r4, #4]
10003118:	2b00      	cmp	r3, #0
1000311a:	d1f9      	bne.n	10003110 <stdio_flush+0x8>
1000311c:	e7f9      	b.n	10003112 <stdio_flush+0xa>
1000311e:	bd10      	pop	{r4, pc}
10003120:	200128e8 	.word	0x200128e8

10003124 <__wrap_puts>:
10003124:	b538      	push	{r3, r4, r5, lr}
10003126:	4605      	mov	r5, r0
10003128:	f001 fa1c 	bl	10004564 <strlen>
1000312c:	4604      	mov	r4, r0
1000312e:	2301      	movs	r3, #1
10003130:	461a      	mov	r2, r3
10003132:	4601      	mov	r1, r0
10003134:	4628      	mov	r0, r5
10003136:	f7ff ff8d 	bl	10003054 <stdio_put_string>
1000313a:	f7ff ffe5 	bl	10003108 <stdio_flush>
1000313e:	4620      	mov	r0, r4
10003140:	bd38      	pop	{r3, r4, r5, pc}
	...

10003144 <__wrap_vprintf>:
10003144:	b570      	push	{r4, r5, r6, lr}
10003146:	b0a2      	sub	sp, #136	; 0x88
10003148:	4604      	mov	r4, r0
1000314a:	460e      	mov	r6, r1
1000314c:	f7ff ff64 	bl	10003018 <stdout_serialize_begin>
10003150:	4605      	mov	r5, r0
10003152:	2300      	movs	r3, #0
10003154:	9301      	str	r3, [sp, #4]
10003156:	4633      	mov	r3, r6
10003158:	4622      	mov	r2, r4
1000315a:	a901      	add	r1, sp, #4
1000315c:	4807      	ldr	r0, [pc, #28]	; (1000317c <__wrap_vprintf+0x38>)
1000315e:	f7ff fe7f 	bl	10002e60 <vfctprintf>
10003162:	4604      	mov	r4, r0
10003164:	a801      	add	r0, sp, #4
10003166:	f7ff ff27 	bl	10002fb8 <stdio_stack_buffer_flush>
1000316a:	f7ff ffcd 	bl	10003108 <stdio_flush>
1000316e:	b915      	cbnz	r5, 10003176 <__wrap_vprintf+0x32>
10003170:	4620      	mov	r0, r4
10003172:	b022      	add	sp, #136	; 0x88
10003174:	bd70      	pop	{r4, r5, r6, pc}
10003176:	f7ff ff65 	bl	10003044 <stdout_serialize_end>
1000317a:	e7f9      	b.n	10003170 <__wrap_vprintf+0x2c>
1000317c:	10002ff9 	.word	0x10002ff9

10003180 <__wrap_printf>:
10003180:	b40f      	push	{r0, r1, r2, r3}
10003182:	b500      	push	{lr}
10003184:	b083      	sub	sp, #12
10003186:	a904      	add	r1, sp, #16
10003188:	f851 0b04 	ldr.w	r0, [r1], #4
1000318c:	9101      	str	r1, [sp, #4]
1000318e:	f7ff ffd9 	bl	10003144 <__wrap_vprintf>
10003192:	b003      	add	sp, #12
10003194:	f85d eb04 	ldr.w	lr, [sp], #4
10003198:	b004      	add	sp, #16
1000319a:	4770      	bx	lr

1000319c <stdio_uart_out_chars>:
1000319c:	b530      	push	{r4, r5, lr}
1000319e:	b083      	sub	sp, #12
100031a0:	4686      	mov	lr, r0
100031a2:	460c      	mov	r4, r1
100031a4:	f04f 0c00 	mov.w	ip, #0
100031a8:	e013      	b.n	100031d2 <stdio_uart_out_chars+0x36>
100031aa:	230d      	movs	r3, #13
100031ac:	f88d 3007 	strb.w	r3, [sp, #7]
100031b0:	2000      	movs	r0, #0
100031b2:	f10d 0107 	add.w	r1, sp, #7
100031b6:	b9e0      	cbnz	r0, 100031f2 <stdio_uart_out_chars+0x56>
100031b8:	6993      	ldr	r3, [r2, #24]
100031ba:	f013 0f20 	tst.w	r3, #32
100031be:	d1fb      	bne.n	100031b8 <stdio_uart_out_chars+0x1c>
100031c0:	460b      	mov	r3, r1
100031c2:	f813 1b01 	ldrb.w	r1, [r3], #1
100031c6:	6011      	str	r1, [r2, #0]
100031c8:	3001      	adds	r0, #1
100031ca:	4619      	mov	r1, r3
100031cc:	e7f3      	b.n	100031b6 <stdio_uart_out_chars+0x1a>
100031ce:	f10c 0c01 	add.w	ip, ip, #1
100031d2:	45a4      	cmp	ip, r4
100031d4:	da1f      	bge.n	10003216 <stdio_uart_out_chars+0x7a>
100031d6:	4b11      	ldr	r3, [pc, #68]	; (1000321c <stdio_uart_out_chars+0x80>)
100031d8:	681a      	ldr	r2, [r3, #0]
100031da:	f81e 500c 	ldrb.w	r5, [lr, ip]
100031de:	4b10      	ldr	r3, [pc, #64]	; (10003220 <stdio_uart_out_chars+0x84>)
100031e0:	429a      	cmp	r2, r3
100031e2:	bf14      	ite	ne
100031e4:	2300      	movne	r3, #0
100031e6:	2301      	moveq	r3, #1
100031e8:	490e      	ldr	r1, [pc, #56]	; (10003224 <stdio_uart_out_chars+0x88>)
100031ea:	f931 3013 	ldrsh.w	r3, [r1, r3, lsl #1]
100031ee:	42ab      	cmp	r3, r5
100031f0:	d0db      	beq.n	100031aa <stdio_uart_out_chars+0xe>
100031f2:	f88d 5007 	strb.w	r5, [sp, #7]
100031f6:	2000      	movs	r0, #0
100031f8:	f10d 0107 	add.w	r1, sp, #7
100031fc:	2800      	cmp	r0, #0
100031fe:	d1e6      	bne.n	100031ce <stdio_uart_out_chars+0x32>
10003200:	6993      	ldr	r3, [r2, #24]
10003202:	f013 0f20 	tst.w	r3, #32
10003206:	d1fb      	bne.n	10003200 <stdio_uart_out_chars+0x64>
10003208:	460b      	mov	r3, r1
1000320a:	f813 1b01 	ldrb.w	r1, [r3], #1
1000320e:	6011      	str	r1, [r2, #0]
10003210:	3001      	adds	r0, #1
10003212:	4619      	mov	r1, r3
10003214:	e7f2      	b.n	100031fc <stdio_uart_out_chars+0x60>
10003216:	b003      	add	sp, #12
10003218:	bd30      	pop	{r4, r5, pc}
1000321a:	bf00      	nop
1000321c:	20012a6c 	.word	0x20012a6c
10003220:	40078000 	.word	0x40078000
10003224:	20012a68 	.word	0x20012a68

10003228 <stdio_uart_in_chars>:
10003228:	b570      	push	{r4, r5, r6, lr}
1000322a:	b082      	sub	sp, #8
1000322c:	4605      	mov	r5, r0
1000322e:	460e      	mov	r6, r1
10003230:	2100      	movs	r1, #0
10003232:	e004      	b.n	1000323e <stdio_uart_in_chars+0x16>
10003234:	f89d 3007 	ldrb.w	r3, [sp, #7]
10003238:	f88e 3000 	strb.w	r3, [lr]
1000323c:	4661      	mov	r1, ip
1000323e:	42b1      	cmp	r1, r6
10003240:	da18      	bge.n	10003274 <stdio_uart_in_chars+0x4c>
10003242:	4b16      	ldr	r3, [pc, #88]	; (1000329c <stdio_uart_in_chars+0x74>)
10003244:	681a      	ldr	r2, [r3, #0]
10003246:	6990      	ldr	r0, [r2, #24]
10003248:	f010 0010 	ands.w	r0, r0, #16
1000324c:	d112      	bne.n	10003274 <stdio_uart_in_chars+0x4c>
1000324e:	f101 0c01 	add.w	ip, r1, #1
10003252:	eb05 0e01 	add.w	lr, r5, r1
10003256:	f10d 0107 	add.w	r1, sp, #7
1000325a:	2800      	cmp	r0, #0
1000325c:	d1ea      	bne.n	10003234 <stdio_uart_in_chars+0xc>
1000325e:	6993      	ldr	r3, [r2, #24]
10003260:	f013 0f10 	tst.w	r3, #16
10003264:	d1fb      	bne.n	1000325e <stdio_uart_in_chars+0x36>
10003266:	6814      	ldr	r4, [r2, #0]
10003268:	460b      	mov	r3, r1
1000326a:	f803 4b01 	strb.w	r4, [r3], #1
1000326e:	3001      	adds	r0, #1
10003270:	4619      	mov	r1, r3
10003272:	e7f2      	b.n	1000325a <stdio_uart_in_chars+0x32>
10003274:	4b0a      	ldr	r3, [pc, #40]	; (100032a0 <stdio_uart_in_chars+0x78>)
10003276:	681b      	ldr	r3, [r3, #0]
10003278:	b14b      	cbz	r3, 1000328e <stdio_uart_in_chars+0x66>
1000327a:	4b08      	ldr	r3, [pc, #32]	; (1000329c <stdio_uart_in_chars+0x74>)
1000327c:	681b      	ldr	r3, [r3, #0]
1000327e:	2250      	movs	r2, #80	; 0x50
10003280:	639a      	str	r2, [r3, #56]	; 0x38
10003282:	6b5a      	ldr	r2, [r3, #52]	; 0x34
10003284:	f002 0238 	and.w	r2, r2, #56	; 0x38
10003288:	f503 5381 	add.w	r3, r3, #4128	; 0x1020
1000328c:	615a      	str	r2, [r3, #20]
1000328e:	b111      	cbz	r1, 10003296 <stdio_uart_in_chars+0x6e>
10003290:	4608      	mov	r0, r1
10003292:	b002      	add	sp, #8
10003294:	bd70      	pop	{r4, r5, r6, pc}
10003296:	f06f 0102 	mvn.w	r1, #2
1000329a:	e7f9      	b.n	10003290 <stdio_uart_in_chars+0x68>
1000329c:	20012a6c 	.word	0x20012a6c
100032a0:	200128a0 	.word	0x200128a0

100032a4 <on_uart_rx>:
100032a4:	b508      	push	{r3, lr}
100032a6:	4b05      	ldr	r3, [pc, #20]	; (100032bc <on_uart_rx+0x18>)
100032a8:	681b      	ldr	r3, [r3, #0]
100032aa:	b133      	cbz	r3, 100032ba <on_uart_rx+0x16>
100032ac:	4a04      	ldr	r2, [pc, #16]	; (100032c0 <on_uart_rx+0x1c>)
100032ae:	6812      	ldr	r2, [r2, #0]
100032b0:	2100      	movs	r1, #0
100032b2:	6391      	str	r1, [r2, #56]	; 0x38
100032b4:	4a03      	ldr	r2, [pc, #12]	; (100032c4 <on_uart_rx+0x20>)
100032b6:	6810      	ldr	r0, [r2, #0]
100032b8:	4798      	blx	r3
100032ba:	bd08      	pop	{r3, pc}
100032bc:	200128a0 	.word	0x200128a0
100032c0:	20012a6c 	.word	0x20012a6c
100032c4:	200128a4 	.word	0x200128a4

100032c8 <stdio_uart_out_flush>:
100032c8:	4b03      	ldr	r3, [pc, #12]	; (100032d8 <stdio_uart_out_flush+0x10>)
100032ca:	681a      	ldr	r2, [r3, #0]
100032cc:	6993      	ldr	r3, [r2, #24]
100032ce:	f013 0f08 	tst.w	r3, #8
100032d2:	d1fb      	bne.n	100032cc <stdio_uart_out_flush+0x4>
100032d4:	4770      	bx	lr
100032d6:	bf00      	nop
100032d8:	20012a6c 	.word	0x20012a6c

100032dc <stdio_uart_set_chars_available_callback>:
100032dc:	b538      	push	{r3, r4, r5, lr}
100032de:	4b1c      	ldr	r3, [pc, #112]	; (10003350 <stdio_uart_set_chars_available_callback+0x74>)
100032e0:	681b      	ldr	r3, [r3, #0]
100032e2:	4a1c      	ldr	r2, [pc, #112]	; (10003354 <stdio_uart_set_chars_available_callback+0x78>)
100032e4:	4293      	cmp	r3, r2
100032e6:	d006      	beq.n	100032f6 <stdio_uart_set_chars_available_callback+0x1a>
100032e8:	2421      	movs	r4, #33	; 0x21
100032ea:	b110      	cbz	r0, 100032f2 <stdio_uart_set_chars_available_callback+0x16>
100032ec:	4a1a      	ldr	r2, [pc, #104]	; (10003358 <stdio_uart_set_chars_available_callback+0x7c>)
100032ee:	6812      	ldr	r2, [r2, #0]
100032f0:	b11a      	cbz	r2, 100032fa <stdio_uart_set_chars_available_callback+0x1e>
100032f2:	b1c8      	cbz	r0, 10003328 <stdio_uart_set_chars_available_callback+0x4c>
100032f4:	bd38      	pop	{r3, r4, r5, pc}
100032f6:	2422      	movs	r4, #34	; 0x22
100032f8:	e7f7      	b.n	100032ea <stdio_uart_set_chars_available_callback+0xe>
100032fa:	4b17      	ldr	r3, [pc, #92]	; (10003358 <stdio_uart_set_chars_available_callback+0x7c>)
100032fc:	6018      	str	r0, [r3, #0]
100032fe:	4b17      	ldr	r3, [pc, #92]	; (1000335c <stdio_uart_set_chars_available_callback+0x80>)
10003300:	6019      	str	r1, [r3, #0]
10003302:	4917      	ldr	r1, [pc, #92]	; (10003360 <stdio_uart_set_chars_available_callback+0x84>)
10003304:	4620      	mov	r0, r4
10003306:	f7fd fe3d 	bl	10000f84 <irq_set_exclusive_handler>
1000330a:	2101      	movs	r1, #1
1000330c:	4620      	mov	r0, r4
1000330e:	f7fd fe27 	bl	10000f60 <irq_set_enabled>
10003312:	4b0f      	ldr	r3, [pc, #60]	; (10003350 <stdio_uart_set_chars_available_callback+0x74>)
10003314:	681b      	ldr	r3, [r3, #0]
10003316:	2250      	movs	r2, #80	; 0x50
10003318:	639a      	str	r2, [r3, #56]	; 0x38
1000331a:	6b5a      	ldr	r2, [r3, #52]	; 0x34
1000331c:	f002 0238 	and.w	r2, r2, #56	; 0x38
10003320:	f503 5381 	add.w	r3, r3, #4128	; 0x1020
10003324:	615a      	str	r2, [r3, #20]
10003326:	e7e5      	b.n	100032f4 <stdio_uart_set_chars_available_callback+0x18>
10003328:	4a0b      	ldr	r2, [pc, #44]	; (10003358 <stdio_uart_set_chars_available_callback+0x7c>)
1000332a:	6812      	ldr	r2, [r2, #0]
1000332c:	2a00      	cmp	r2, #0
1000332e:	d0e1      	beq.n	100032f4 <stdio_uart_set_chars_available_callback+0x18>
10003330:	2500      	movs	r5, #0
10003332:	639d      	str	r5, [r3, #56]	; 0x38
10003334:	4629      	mov	r1, r5
10003336:	4620      	mov	r0, r4
10003338:	f7fd fe12 	bl	10000f60 <irq_set_enabled>
1000333c:	4908      	ldr	r1, [pc, #32]	; (10003360 <stdio_uart_set_chars_available_callback+0x84>)
1000333e:	4620      	mov	r0, r4
10003340:	f7fd fe50 	bl	10000fe4 <irq_remove_handler>
10003344:	4b04      	ldr	r3, [pc, #16]	; (10003358 <stdio_uart_set_chars_available_callback+0x7c>)
10003346:	601d      	str	r5, [r3, #0]
10003348:	4b04      	ldr	r3, [pc, #16]	; (1000335c <stdio_uart_set_chars_available_callback+0x80>)
1000334a:	601d      	str	r5, [r3, #0]
1000334c:	e7d2      	b.n	100032f4 <stdio_uart_set_chars_available_callback+0x18>
1000334e:	bf00      	nop
10003350:	20012a6c 	.word	0x20012a6c
10003354:	40078000 	.word	0x40078000
10003358:	200128a0 	.word	0x200128a0
1000335c:	200128a4 	.word	0x200128a4
10003360:	100032a5 	.word	0x100032a5

10003364 <stdio_uart_init_full>:
10003364:	b538      	push	{r3, r4, r5, lr}
10003366:	460d      	mov	r5, r1
10003368:	461c      	mov	r4, r3
1000336a:	4b10      	ldr	r3, [pc, #64]	; (100033ac <stdio_uart_init_full+0x48>)
1000336c:	6018      	str	r0, [r3, #0]
1000336e:	1e10      	subs	r0, r2, #0
10003370:	db05      	blt.n	1000337e <stdio_uart_init_full+0x1a>
10003372:	f010 0f02 	tst.w	r0, #2
10003376:	d015      	beq.n	100033a4 <stdio_uart_init_full+0x40>
10003378:	210b      	movs	r1, #11
1000337a:	f7fd ffa3 	bl	100012c4 <gpio_set_function>
1000337e:	2c00      	cmp	r4, #0
10003380:	db06      	blt.n	10003390 <stdio_uart_init_full+0x2c>
10003382:	f014 0f02 	tst.w	r4, #2
10003386:	d00f      	beq.n	100033a8 <stdio_uart_init_full+0x44>
10003388:	210b      	movs	r1, #11
1000338a:	4620      	mov	r0, r4
1000338c:	f7fd ff9a 	bl	100012c4 <gpio_set_function>
10003390:	4629      	mov	r1, r5
10003392:	4b06      	ldr	r3, [pc, #24]	; (100033ac <stdio_uart_init_full+0x48>)
10003394:	6818      	ldr	r0, [r3, #0]
10003396:	f7fe f825 	bl	100013e4 <uart_init>
1000339a:	2101      	movs	r1, #1
1000339c:	4804      	ldr	r0, [pc, #16]	; (100033b0 <stdio_uart_init_full+0x4c>)
1000339e:	f7ff fe9f 	bl	100030e0 <stdio_set_driver_enabled>
100033a2:	bd38      	pop	{r3, r4, r5, pc}
100033a4:	2102      	movs	r1, #2
100033a6:	e7e8      	b.n	1000337a <stdio_uart_init_full+0x16>
100033a8:	2102      	movs	r1, #2
100033aa:	e7ee      	b.n	1000338a <stdio_uart_init_full+0x26>
100033ac:	20012a6c 	.word	0x20012a6c
100033b0:	20011bf4 	.word	0x20011bf4

100033b4 <stdio_uart_init>:
100033b4:	b508      	push	{r3, lr}
100033b6:	4b07      	ldr	r3, [pc, #28]	; (100033d4 <stdio_uart_init+0x20>)
100033b8:	781b      	ldrb	r3, [r3, #0]
100033ba:	4b07      	ldr	r3, [pc, #28]	; (100033d8 <stdio_uart_init+0x24>)
100033bc:	781b      	ldrb	r3, [r3, #0]
100033be:	4b07      	ldr	r3, [pc, #28]	; (100033dc <stdio_uart_init+0x28>)
100033c0:	781b      	ldrb	r3, [r3, #0]
100033c2:	2301      	movs	r3, #1
100033c4:	2200      	movs	r2, #0
100033c6:	f44f 31e1 	mov.w	r1, #115200	; 0x1c200
100033ca:	4805      	ldr	r0, [pc, #20]	; (100033e0 <stdio_uart_init+0x2c>)
100033cc:	f7ff ffca 	bl	10003364 <stdio_uart_init_full>
100033d0:	bd08      	pop	{r3, pc}
100033d2:	bf00      	nop
100033d4:	100055c0 	.word	0x100055c0
100033d8:	100055c4 	.word	0x100055c4
100033dc:	100055c8 	.word	0x100055c8
100033e0:	40070000 	.word	0x40070000

100033e4 <abort_all_dma_channels_assuming_no_irq_preemption>:
100033e4:	f04f 42a0 	mov.w	r2, #1342177280	; 0x50000000
100033e8:	2301      	movs	r3, #1
100033ea:	f8c2 3464 	str.w	r3, [r2, #1124]	; 0x464
100033ee:	f8d2 3464 	ldr.w	r3, [r2, #1124]	; 0x464
100033f2:	07db      	lsls	r3, r3, #31
100033f4:	d4fb      	bmi.n	100033ee <abort_all_dma_channels_assuming_no_irq_preemption+0xa>
100033f6:	2301      	movs	r3, #1
100033f8:	f8c2 340c 	str.w	r3, [r2, #1036]	; 0x40c
100033fc:	4770      	bx	lr
100033fe:	bf00      	nop

10003400 <video_24mhz_composable_adapt_for_mode>:
10003400:	2001      	movs	r0, #1
10003402:	b530      	push	{r4, r5, lr}
10003404:	f04f 1403 	mov.w	r4, #196611	; 0x30003
10003408:	7b09      	ldrb	r1, [r1, #12]
1000340a:	f8b3 e00a 	ldrh.w	lr, [r3, #10]
1000340e:	3901      	subs	r1, #1
10003410:	fa01 fc00 	lsl.w	ip, r1, r0
10003414:	4484      	add	ip, r0
10003416:	ea4f 2c0c 	mov.w	ip, ip, lsl #8
1000341a:	fa1f fc8c 	uxth.w	ip, ip
1000341e:	ea4c 0e0e 	orr.w	lr, ip, lr
10003422:	f8a3 e00a 	strh.w	lr, [r3, #10]
10003426:	f8b3 e00c 	ldrh.w	lr, [r3, #12]
1000342a:	0249      	lsls	r1, r1, #9
1000342c:	ea4c 0e0e 	orr.w	lr, ip, lr
10003430:	f8a3 e00c 	strh.w	lr, [r3, #12]
10003434:	f8b3 e00e 	ldrh.w	lr, [r3, #14]
10003438:	b289      	uxth	r1, r1
1000343a:	ea41 0e0e 	orr.w	lr, r1, lr
1000343e:	f8a3 e00e 	strh.w	lr, [r3, #14]
10003442:	f8b3 e012 	ldrh.w	lr, [r3, #18]
10003446:	4d0f      	ldr	r5, [pc, #60]	; (10003484 <video_24mhz_composable_adapt_for_mode+0x84>)
10003448:	ea41 0e0e 	orr.w	lr, r1, lr
1000344c:	f8a3 e012 	strh.w	lr, [r3, #18]
10003450:	f8b3 e016 	ldrh.w	lr, [r3, #22]
10003454:	ea41 0e0e 	orr.w	lr, r1, lr
10003458:	f8a3 e016 	strh.w	lr, [r3, #22]
1000345c:	f8b3 e01a 	ldrh.w	lr, [r3, #26]
10003460:	ea4c 0c0e 	orr.w	ip, ip, lr
10003464:	f8a3 c01a 	strh.w	ip, [r3, #26]
10003468:	f8b3 c01e 	ldrh.w	ip, [r3, #30]
1000346c:	ea41 0c0c 	orr.w	ip, r1, ip
10003470:	f8a3 c01e 	strh.w	ip, [r3, #30]
10003474:	f8b3 c006 	ldrh.w	ip, [r3, #6]
10003478:	ea41 010c 	orr.w	r1, r1, ip
1000347c:	80d9      	strh	r1, [r3, #6]
1000347e:	e9c2 5401 	strd	r5, r4, [r2, #4]
10003482:	bd30      	pop	{r4, r5, pc}
10003484:	20011c0c 	.word	0x20011c0c

10003488 <update_dma_transfer_state_irqs_enabled.part.0>:
10003488:	b508      	push	{r3, lr}
1000348a:	f44f 7115 	mov.w	r1, #596	; 0x254
1000348e:	4b02      	ldr	r3, [pc, #8]	; (10003498 <update_dma_transfer_state_irqs_enabled.part.0+0x10>)
10003490:	4a02      	ldr	r2, [pc, #8]	; (1000349c <update_dma_transfer_state_irqs_enabled.part.0+0x14>)
10003492:	4803      	ldr	r0, [pc, #12]	; (100034a0 <update_dma_transfer_state_irqs_enabled.part.0+0x18>)
10003494:	f7ff fd16 	bl	10002ec4 <__assert_func>
10003498:	10005274 	.word	0x10005274
1000349c:	100053f0 	.word	0x100053f0
100034a0:	1000529c 	.word	0x1000529c

100034a4 <copy_program.part.0>:
100034a4:	b508      	push	{r3, lr}
100034a6:	f240 511d 	movw	r1, #1309	; 0x51d
100034aa:	4b02      	ldr	r3, [pc, #8]	; (100034b4 <copy_program.part.0+0x10>)
100034ac:	4a02      	ldr	r2, [pc, #8]	; (100034b8 <copy_program.part.0+0x14>)
100034ae:	4803      	ldr	r0, [pc, #12]	; (100034bc <copy_program.part.0+0x18>)
100034b0:	f7ff fd08 	bl	10002ec4 <__assert_func>
100034b4:	100052e0 	.word	0x100052e0
100034b8:	10005418 	.word	0x10005418
100034bc:	1000529c 	.word	0x1000529c

100034c0 <video_24mhz_composable_configure_pio>:
100034c0:	b570      	push	{r4, r5, r6, lr}
100034c2:	469c      	mov	ip, r3
100034c4:	2401      	movs	r4, #1
100034c6:	4616      	mov	r6, r2
100034c8:	b082      	sub	sp, #8
100034ca:	9400      	str	r4, [sp, #0]
100034cc:	f10c 040d 	add.w	r4, ip, #13
100034d0:	4605      	mov	r5, r0
100034d2:	0324      	lsls	r4, r4, #12
100034d4:	4608      	mov	r0, r1
100034d6:	f10c 010b 	add.w	r1, ip, #11
100034da:	ea44 14c1 	orr.w	r4, r4, r1, lsl #7
100034de:	2310      	movs	r3, #16
100034e0:	2200      	movs	r2, #0
100034e2:	4631      	mov	r1, r6
100034e4:	f000 fb7f 	bl	10003be6 <pio_sm_set_consecutive_pindirs>
100034e8:	f424 047e 	bic.w	r4, r4, #16646144	; 0xfe0000
100034ec:	b16e      	cbz	r6, 1000350a <video_24mhz_composable_configure_pio+0x4a>
100034ee:	f444 1438 	orr.w	r4, r4, #3014656	; 0x2e0000
100034f2:	f44f 3280 	mov.w	r2, #65536	; 0x10000
100034f6:	f04f 7380 	mov.w	r3, #16777216	; 0x1000000
100034fa:	4628      	mov	r0, r5
100034fc:	4904      	ldr	r1, [pc, #16]	; (10003510 <video_24mhz_composable_configure_pio+0x50>)
100034fe:	602a      	str	r2, [r5, #0]
10003500:	e9c5 4101 	strd	r4, r1, [r5, #4]
10003504:	60eb      	str	r3, [r5, #12]
10003506:	b002      	add	sp, #8
10003508:	bd70      	pop	{r4, r5, r6, pc}
1000350a:	f444 3400 	orr.w	r4, r4, #131072	; 0x20000
1000350e:	e7f0      	b.n	100034f2 <video_24mhz_composable_configure_pio+0x32>
10003510:	400e0000 	.word	0x400e0000
10003514:	00000000 	.word	0x00000000

10003518 <scanvideo_setup_with_timing>:
10003518:	e92d 4ff0 	stmdb	sp!, {r4, r5, r6, r7, r8, r9, sl, fp, lr}
1000351c:	4f33      	ldr	r7, [pc, #204]	; (100035ec <scanvideo_setup_with_timing+0xd4>)
1000351e:	2244      	movs	r2, #68	; 0x44
10003520:	b09b      	sub	sp, #108	; 0x6c
10003522:	4681      	mov	r9, r0
10003524:	460c      	mov	r4, r1
10003526:	4638      	mov	r0, r7
10003528:	2100      	movs	r1, #0
1000352a:	f000 ff8d 	bl	10004448 <memset>
1000352e:	2002      	movs	r0, #2
10003530:	f7fd fc72 	bl	10000e18 <spin_lock_init>
10003534:	4603      	mov	r3, r0
10003536:	2004      	movs	r0, #4
10003538:	60fb      	str	r3, [r7, #12]
1000353a:	f7fd fc6d 	bl	10000e18 <spin_lock_init>
1000353e:	6378      	str	r0, [r7, #52]	; 0x34
10003540:	2003      	movs	r0, #3
10003542:	f7fd fc69 	bl	10000e18 <spin_lock_init>
10003546:	4603      	mov	r3, r0
10003548:	f8df 80c0 	ldr.w	r8, [pc, #192]	; 1000360c <scanvideo_setup_with_timing+0xf4>
1000354c:	2005      	movs	r0, #5
1000354e:	62fb      	str	r3, [r7, #44]	; 0x2c
10003550:	4645      	mov	r5, r8
10003552:	f7fd fc61 	bl	10000e18 <spin_lock_init>
10003556:	464e      	mov	r6, r9
10003558:	f04f 33ff 	mov.w	r3, #4294967295
1000355c:	6038      	str	r0, [r7, #0]
1000355e:	617b      	str	r3, [r7, #20]
10003560:	ce0f      	ldmia	r6!, {r0, r1, r2, r3}
10003562:	c50f      	stmia	r5!, {r0, r1, r2, r3}
10003564:	6833      	ldr	r3, [r6, #0]
10003566:	f8c8 4000 	str.w	r4, [r8]
1000356a:	602b      	str	r3, [r5, #0]
1000356c:	b29b      	uxth	r3, r3
1000356e:	b913      	cbnz	r3, 10003576 <scanvideo_setup_with_timing+0x5e>
10003570:	2301      	movs	r3, #1
10003572:	f8a8 3010 	strh.w	r3, [r8, #16]
10003576:	f8b9 3008 	ldrh.w	r3, [r9, #8]
1000357a:	4a1d      	ldr	r2, [pc, #116]	; (100035f0 <scanvideo_setup_with_timing+0xd8>)
1000357c:	085b      	lsrs	r3, r3, #1
1000357e:	3b03      	subs	r3, #3
10003580:	8093      	strh	r3, [r2, #4]
10003582:	2100      	movs	r1, #0
10003584:	2201      	movs	r2, #1
10003586:	481b      	ldr	r0, [pc, #108]	; (100035f4 <scanvideo_setup_with_timing+0xdc>)
10003588:	f7fc ffc2 	bl	10000510 <sem_init>
1000358c:	f44f 61fa 	mov.w	r1, #2000	; 0x7d0
10003590:	2001      	movs	r0, #1
10003592:	f7fe fb85 	bl	10001ca0 <__wrap_calloc>
10003596:	f44f 76fa 	mov.w	r6, #500	; 0x1f4
1000359a:	f8df b074 	ldr.w	fp, [pc, #116]	; 10003610 <scanvideo_setup_with_timing+0xf8>
1000359e:	f8cb 0004 	str.w	r0, [fp, #4]
100035a2:	f8ab 600a 	strh.w	r6, [fp, #10]
100035a6:	f10b 0518 	add.w	r5, fp, #24
100035aa:	f10b 0ac0 	add.w	sl, fp, #192	; 0xc0
100035ae:	f845 5c04 	str.w	r5, [r5, #-4]
100035b2:	f44f 61fa 	mov.w	r1, #2000	; 0x7d0
100035b6:	2001      	movs	r0, #1
100035b8:	f7fe fb72 	bl	10001ca0 <__wrap_calloc>
100035bc:	3518      	adds	r5, #24
100035be:	f825 6c0e 	strh.w	r6, [r5, #-14]
100035c2:	4555      	cmp	r5, sl
100035c4:	f845 0c14 	str.w	r0, [r5, #-20]
100035c8:	d1f1      	bne.n	100035ae <scanvideo_setup_with_timing+0x96>
100035ca:	2500      	movs	r5, #0
100035cc:	f8c7 b030 	str.w	fp, [r7, #48]	; 0x30
100035d0:	f8cb 50bc 	str.w	r5, [fp, #188]	; 0xbc
100035d4:	f3bf 8f5f 	dmb	sy
100035d8:	4b07      	ldr	r3, [pc, #28]	; (100035f8 <scanvideo_setup_with_timing+0xe0>)
100035da:	4e08      	ldr	r6, [pc, #32]	; (100035fc <scanvideo_setup_with_timing+0xe4>)
100035dc:	781b      	ldrb	r3, [r3, #0]
100035de:	4b08      	ldr	r3, [pc, #32]	; (10003600 <scanvideo_setup_with_timing+0xe8>)
100035e0:	781b      	ldrb	r3, [r3, #0]
100035e2:	4b08      	ldr	r3, [pc, #32]	; (10003604 <scanvideo_setup_with_timing+0xec>)
100035e4:	781b      	ldrb	r3, [r3, #0]
100035e6:	4b08      	ldr	r3, [pc, #32]	; (10003608 <scanvideo_setup_with_timing+0xf0>)
100035e8:	781b      	ldrb	r3, [r3, #0]
100035ea:	e018      	b.n	1000361e <scanvideo_setup_with_timing+0x106>
100035ec:	200129e4 	.word	0x200129e4
100035f0:	20011c0c 	.word	0x20011c0c
100035f4:	20012a70 	.word	0x20012a70
100035f8:	100055cc 	.word	0x100055cc
100035fc:	0003ffdf 	.word	0x0003ffdf
10003600:	100055d0 	.word	0x100055d0
10003604:	100055d4 	.word	0x100055d4
10003608:	100055d8 	.word	0x100055d8
1000360c:	20012a78 	.word	0x20012a78
10003610:	20012924 	.word	0x20012924
10003614:	3501      	adds	r5, #1
10003616:	2d12      	cmp	r5, #18
10003618:	ea4f 0656 	mov.w	r6, r6, lsr #1
1000361c:	d00a      	beq.n	10003634 <scanvideo_setup_with_timing+0x11c>
1000361e:	07f0      	lsls	r0, r6, #31
10003620:	d5f8      	bpl.n	10003614 <scanvideo_setup_with_timing+0xfc>
10003622:	4628      	mov	r0, r5
10003624:	2106      	movs	r1, #6
10003626:	3501      	adds	r5, #1
10003628:	f7fd fe4c 	bl	100012c4 <gpio_set_function>
1000362c:	2d12      	cmp	r5, #18
1000362e:	ea4f 0656 	mov.w	r6, r6, lsr #1
10003632:	d1f4      	bne.n	1000361e <scanvideo_setup_with_timing+0x106>
10003634:	2005      	movs	r0, #5
10003636:	f7fd ff77 	bl	10001528 <clock_get_hz>
1000363a:	6822      	ldr	r2, [r4, #0]
1000363c:	f8df b2e8 	ldr.w	fp, [pc, #744]	; 10003928 <scanvideo_setup_with_timing+0x410>
10003640:	fbb0 f3f2 	udiv	r3, r0, r2
10003644:	f8ab 3000 	strh.w	r3, [fp]
10003648:	b29b      	uxth	r3, r3
1000364a:	fb02 f303 	mul.w	r3, r2, r3
1000364e:	4283      	cmp	r3, r0
10003650:	f040 813d 	bne.w	100038ce <scanvideo_setup_with_timing+0x3b6>
10003654:	f8d9 5004 	ldr.w	r5, [r9, #4]
10003658:	682b      	ldr	r3, [r5, #0]
1000365a:	791a      	ldrb	r2, [r3, #4]
1000365c:	2a20      	cmp	r2, #32
1000365e:	f200 813a 	bhi.w	100038d6 <scanvideo_setup_with_timing+0x3be>
10003662:	e9d3 1a00 	ldrd	r1, sl, [r3]
10003666:	ae0a      	add	r6, sp, #40	; 0x28
10003668:	0052      	lsls	r2, r2, #1
1000366a:	4630      	mov	r0, r6
1000366c:	f000 fe76 	bl	1000435c <memcpy>
10003670:	4633      	mov	r3, r6
10003672:	4a9d      	ldr	r2, [pc, #628]	; (100038e8 <scanvideo_setup_with_timing+0x3d0>)
10003674:	4649      	mov	r1, r9
10003676:	4628      	mov	r0, r5
10003678:	e9cd 6a04 	strd	r6, sl, [sp, #16]
1000367c:	68ad      	ldr	r5, [r5, #8]
1000367e:	47a8      	blx	r5
10003680:	489a      	ldr	r0, [pc, #616]	; (100038ec <scanvideo_setup_with_timing+0x3d4>)
10003682:	a904      	add	r1, sp, #16
10003684:	f000 fa97 	bl	10003bb6 <pio_add_program>
10003688:	f8d9 3004 	ldr.w	r3, [r9, #4]
1000368c:	4a98      	ldr	r2, [pc, #608]	; (100038f0 <scanvideo_setup_with_timing+0x3d8>)
1000368e:	681b      	ldr	r3, [r3, #0]
10003690:	7010      	strb	r0, [r2, #0]
10003692:	791b      	ldrb	r3, [r3, #4]
10003694:	2b00      	cmp	r3, #0
10003696:	f000 8117 	beq.w	100038c8 <scanvideo_setup_with_timing+0x3b0>
1000369a:	46b4      	mov	ip, r6
1000369c:	2100      	movs	r1, #0
1000369e:	f04f 35ff 	mov.w	r5, #4294967295
100036a2:	f242 09c4 	movw	r9, #8388	; 0x20c4
100036a6:	f83c 2b02 	ldrh.w	r2, [ip], #2
100036aa:	454a      	cmp	r2, r9
100036ac:	bf08      	it	eq
100036ae:	460d      	moveq	r5, r1
100036b0:	3101      	adds	r1, #1
100036b2:	428b      	cmp	r3, r1
100036b4:	d1f7      	bne.n	100036a6 <scanvideo_setup_with_timing+0x18e>
100036b6:	2201      	movs	r2, #1
100036b8:	4b8b      	ldr	r3, [pc, #556]	; (100038e8 <scanvideo_setup_with_timing+0x3d0>)
100036ba:	643d      	str	r5, [r7, #64]	; 0x40
100036bc:	2100      	movs	r1, #0
100036be:	b2c5      	uxtb	r5, r0
100036c0:	488c      	ldr	r0, [pc, #560]	; (100038f4 <scanvideo_setup_with_timing+0x3dc>)
100036c2:	741a      	strb	r2, [r3, #16]
100036c4:	f7ff fd5c 	bl	10003180 <__wrap_printf>
100036c8:	f8d8 3004 	ldr.w	r3, [r8, #4]
100036cc:	2200      	movs	r2, #0
100036ce:	68df      	ldr	r7, [r3, #12]
100036d0:	4986      	ldr	r1, [pc, #536]	; (100038ec <scanvideo_setup_with_timing+0x3d4>)
100036d2:	462b      	mov	r3, r5
100036d4:	a806      	add	r0, sp, #24
100036d6:	47b8      	blx	r7
100036d8:	f8bb 3000 	ldrh.w	r3, [fp]
100036dc:	462a      	mov	r2, r5
100036de:	01d8      	lsls	r0, r3, #7
100036e0:	085b      	lsrs	r3, r3, #1
100036e2:	b2c0      	uxtb	r0, r0
100036e4:	041b      	lsls	r3, r3, #16
100036e6:	ea43 2300 	orr.w	r3, r3, r0, lsl #8
100036ea:	2100      	movs	r1, #0
100036ec:	9306      	str	r3, [sp, #24]
100036ee:	487f      	ldr	r0, [pc, #508]	; (100038ec <scanvideo_setup_with_timing+0x3d4>)
100036f0:	ab06      	add	r3, sp, #24
100036f2:	f000 fac7 	bl	10003c84 <pio_sm_init>
100036f6:	4a80      	ldr	r2, [pc, #512]	; (100038f8 <scanvideo_setup_with_timing+0x3e0>)
100036f8:	4b80      	ldr	r3, [pc, #512]	; (100038fc <scanvideo_setup_with_timing+0x3e4>)
100036fa:	7e25      	ldrb	r5, [r4, #24]
100036fc:	9205      	str	r2, [sp, #20]
100036fe:	9604      	str	r6, [sp, #16]
10003700:	e893 0007 	ldmia.w	r3, {r0, r1, r2}
10003704:	e886 0007 	stmia.w	r6, {r0, r1, r2}
10003708:	2d00      	cmp	r5, #0
1000370a:	f040 80c6 	bne.w	1000389a <scanvideo_setup_with_timing+0x382>
1000370e:	f24c 0304 	movw	r3, #49156	; 0xc004
10003712:	f24c 0744 	movw	r7, #49220	; 0xc044
10003716:	f24c 0501 	movw	r5, #49153	; 0xc001
1000371a:	f44f 4640 	mov.w	r6, #49152	; 0xc000
1000371e:	9303      	str	r3, [sp, #12]
10003720:	f8df 91c8 	ldr.w	r9, [pc, #456]	; 100038ec <scanvideo_setup_with_timing+0x3d4>
10003724:	a904      	add	r1, sp, #16
10003726:	4648      	mov	r0, r9
10003728:	f000 fa45 	bl	10003bb6 <pio_add_program>
1000372c:	4680      	mov	r8, r0
1000372e:	f04f 0a01 	mov.w	sl, #1
10003732:	4b73      	ldr	r3, [pc, #460]	; (10003900 <scanvideo_setup_with_timing+0x3e8>)
10003734:	2103      	movs	r1, #3
10003736:	486f      	ldr	r0, [pc, #444]	; (100038f4 <scanvideo_setup_with_timing+0x3dc>)
10003738:	f883 8000 	strb.w	r8, [r3]
1000373c:	f7ff fd20 	bl	10003180 <__wrap_printf>
10003740:	ed9f 7b67 	vldr	d7, [pc, #412]	; 100038e0 <scanvideo_setup_with_timing+0x3c8>
10003744:	f8bb 3000 	ldrh.w	r3, [fp]
10003748:	fa5f f888 	uxtb.w	r8, r8
1000374c:	01da      	lsls	r2, r3, #7
1000374e:	fa23 f30a 	lsr.w	r3, r3, sl
10003752:	b2d2      	uxtb	r2, r2
10003754:	041b      	lsls	r3, r3, #16
10003756:	ea43 2302 	orr.w	r3, r3, r2, lsl #8
1000375a:	9306      	str	r3, [sp, #24]
1000375c:	f108 0305 	add.w	r3, r8, #5
10003760:	eb08 020a 	add.w	r2, r8, sl
10003764:	031b      	lsls	r3, r3, #12
10003766:	ea43 13c2 	orr.w	r3, r3, r2, lsl #7
1000376a:	4648      	mov	r0, r9
1000376c:	2103      	movs	r1, #3
1000376e:	2210      	movs	r2, #16
10003770:	f8cd a000 	str.w	sl, [sp]
10003774:	9307      	str	r3, [sp, #28]
10003776:	2302      	movs	r3, #2
10003778:	ed8d 7b08 	vstr	d7, [sp, #32]
1000377c:	f000 fa33 	bl	10003be6 <pio_sm_set_consecutive_pindirs>
10003780:	4642      	mov	r2, r8
10003782:	ab06      	add	r3, sp, #24
10003784:	4648      	mov	r0, r9
10003786:	2103      	movs	r1, #3
10003788:	f000 fa7c 	bl	10003c84 <pio_sm_init>
1000378c:	2100      	movs	r1, #0
1000378e:	200f      	movs	r0, #15
10003790:	f7fd fcfe 	bl	10001190 <irq_set_priority>
10003794:	2140      	movs	r1, #64	; 0x40
10003796:	2010      	movs	r0, #16
10003798:	f7fd fcfa 	bl	10001190 <irq_set_priority>
1000379c:	2140      	movs	r1, #64	; 0x40
1000379e:	200a      	movs	r0, #10
100037a0:	f7fd fcf6 	bl	10001190 <irq_set_priority>
100037a4:	4650      	mov	r0, sl
100037a6:	f000 f91b 	bl	100039e0 <dma_claim_mask>
100037aa:	f04f 0819 	mov.w	r8, #25
100037ae:	2000      	movs	r0, #0
100037b0:	f04f 41a0 	mov.w	r1, #1342177280	; 0x50000000
100037b4:	f24c 0e44 	movw	lr, #49220	; 0xc044
100037b8:	4b52      	ldr	r3, [pc, #328]	; (10003904 <scanvideo_setup_with_timing+0x3ec>)
100037ba:	f8b4 c00a 	ldrh.w	ip, [r4, #10]
100037be:	f8c3 a404 	str.w	sl, [r3, #1028]	; 0x404
100037c2:	f8df a168 	ldr.w	sl, [pc, #360]	; 1000392c <scanvideo_setup_with_timing+0x414>
100037c6:	89a3      	ldrh	r3, [r4, #12]
100037c8:	8922      	ldrh	r2, [r4, #8]
100037ca:	6008      	str	r0, [r1, #0]
100037cc:	f8c1 a004 	str.w	sl, [r1, #4]
100037d0:	6088      	str	r0, [r1, #8]
100037d2:	f8c1 8010 	str.w	r8, [r1, #16]
100037d6:	f8c9 e120 	str.w	lr, [r9, #288]	; 0x120
100037da:	7da1      	ldrb	r1, [r4, #22]
100037dc:	1a9a      	subs	r2, r3, r2
100037de:	4281      	cmp	r1, r0
100037e0:	7ba1      	ldrb	r1, [r4, #14]
100037e2:	bf13      	iteet	ne
100037e4:	4683      	movne	fp, r0
100037e6:	4681      	moveq	r9, r0
100037e8:	f04f 4b80 	moveq.w	fp, #1073741824	; 0x40000000
100037ec:	f04f 4980 	movne.w	r9, #1073741824	; 0x40000000
100037f0:	4281      	cmp	r1, r0
100037f2:	bf14      	ite	ne
100037f4:	4680      	movne	r8, r0
100037f6:	f04f 0801 	moveq.w	r8, #1
100037fa:	88a1      	ldrh	r1, [r4, #4]
100037fc:	eba2 020c 	sub.w	r2, r2, ip
10003800:	eba2 0201 	sub.w	r2, r2, r1
10003804:	f1ac 0107 	sub.w	r1, ip, #7
10003808:	f8b4 a006 	ldrh.w	sl, [r4, #6]
1000380c:	8a20      	ldrh	r0, [r4, #16]
1000380e:	ea4f 4101 	mov.w	r1, r1, lsl #16
10003812:	f8b4 e012 	ldrh.w	lr, [r4, #18]
10003816:	ea41 7148 	orr.w	r1, r1, r8, lsl #29
1000381a:	4450      	add	r0, sl
1000381c:	ea46 7648 	orr.w	r6, r6, r8, lsl #29
10003820:	ea45 7548 	orr.w	r5, r5, r8, lsl #29
10003824:	ea41 0807 	orr.w	r8, r1, r7
10003828:	4937      	ldr	r1, [pc, #220]	; (10003908 <scanvideo_setup_with_timing+0x3f0>)
1000382a:	4486      	add	lr, r0
1000382c:	8aa4      	ldrh	r4, [r4, #20]
1000382e:	eba3 0302 	sub.w	r3, r3, r2
10003832:	e9c1 0e02 	strd	r0, lr, [r1, #8]
10003836:	f446 3680 	orr.w	r6, r6, #65536	; 0x10000
1000383a:	f445 3580 	orr.w	r5, r5, #65536	; 0x10000
1000383e:	f1a2 0003 	sub.w	r0, r2, #3
10003842:	eba3 030c 	sub.w	r3, r3, ip
10003846:	e9c1 a400 	strd	sl, r4, [r1]
1000384a:	e9c1 9605 	strd	r9, r6, [r1, #20]
1000384e:	e9c1 5807 	strd	r5, r8, [r1, #28]
10003852:	f8c1 b010 	str.w	fp, [r1, #16]
10003856:	ea47 4000 	orr.w	r0, r7, r0, lsl #16
1000385a:	f1a3 0303 	sub.w	r3, r3, #3
1000385e:	d02c      	beq.n	100038ba <scanvideo_setup_with_timing+0x3a2>
10003860:	9a03      	ldr	r2, [sp, #12]
10003862:	f040 5000 	orr.w	r0, r0, #536870912	; 0x20000000
10003866:	ea42 4403 	orr.w	r4, r2, r3, lsl #16
1000386a:	f04f 4220 	mov.w	r2, #2684354560	; 0xa0000000
1000386e:	041b      	lsls	r3, r3, #16
10003870:	f043 5300 	orr.w	r3, r3, #536870912	; 0x20000000
10003874:	431f      	orrs	r7, r3
10003876:	4b25      	ldr	r3, [pc, #148]	; (1000390c <scanvideo_setup_with_timing+0x3f4>)
10003878:	6248      	str	r0, [r1, #36]	; 0x24
1000387a:	e9c3 8001 	strd	r8, r0, [r3, #4]
1000387e:	2001      	movs	r0, #1
10003880:	4322      	orrs	r2, r4
10003882:	628a      	str	r2, [r1, #40]	; 0x28
10003884:	f8c1 9030 	str.w	r9, [r1, #48]	; 0x30
10003888:	4a21      	ldr	r2, [pc, #132]	; (10003910 <scanvideo_setup_with_timing+0x3f8>)
1000388a:	62cf      	str	r7, [r1, #44]	; 0x2c
1000388c:	4921      	ldr	r1, [pc, #132]	; (10003914 <scanvideo_setup_with_timing+0x3fc>)
1000388e:	601d      	str	r5, [r3, #0]
10003890:	60df      	str	r7, [r3, #12]
10003892:	6011      	str	r1, [r2, #0]
10003894:	b01b      	add	sp, #108	; 0x6c
10003896:	e8bd 8ff0 	ldmia.w	sp!, {r4, r5, r6, r7, r8, r9, sl, fp, pc}
1000389a:	4b1f      	ldr	r3, [pc, #124]	; (10003918 <scanvideo_setup_with_timing+0x400>)
1000389c:	4a1f      	ldr	r2, [pc, #124]	; (1000391c <scanvideo_setup_with_timing+0x404>)
1000389e:	f24d 0744 	movw	r7, #53316	; 0xd044
100038a2:	e9cd 230a 	strd	r2, r3, [sp, #40]	; 0x28
100038a6:	4b1e      	ldr	r3, [pc, #120]	; (10003920 <scanvideo_setup_with_timing+0x408>)
100038a8:	f24d 0501 	movw	r5, #53249	; 0xd001
100038ac:	930c      	str	r3, [sp, #48]	; 0x30
100038ae:	f24d 0304 	movw	r3, #53252	; 0xd004
100038b2:	f44f 4650 	mov.w	r6, #53248	; 0xd000
100038b6:	9303      	str	r3, [sp, #12]
100038b8:	e732      	b.n	10003720 <scanvideo_setup_with_timing+0x208>
100038ba:	9a03      	ldr	r2, [sp, #12]
100038bc:	ea42 4403 	orr.w	r4, r2, r3, lsl #16
100038c0:	f04f 4200 	mov.w	r2, #2147483648	; 0x80000000
100038c4:	041b      	lsls	r3, r3, #16
100038c6:	e7d5      	b.n	10003874 <scanvideo_setup_with_timing+0x35c>
100038c8:	f04f 35ff 	mov.w	r5, #4294967295
100038cc:	e6f3      	b.n	100036b6 <scanvideo_setup_with_timing+0x19e>
100038ce:	4601      	mov	r1, r0
100038d0:	4814      	ldr	r0, [pc, #80]	; (10003924 <scanvideo_setup_with_timing+0x40c>)
100038d2:	f7fd fa2f 	bl	10000d34 <panic>
100038d6:	f7ff fde5 	bl	100034a4 <copy_program.part.0>
100038da:	bf00      	nop
100038dc:	f3af 8000 	nop.w
100038e0:	000e0000 	.word	0x000e0000
100038e4:	20200010 	.word	0x20200010
100038e8:	2001263c 	.word	0x2001263c
100038ec:	50200000 	.word	0x50200000
100038f0:	20012c12 	.word	0x20012c12
100038f4:	100053ac 	.word	0x100053ac
100038f8:	0001ff06 	.word	0x0001ff06
100038fc:	10005460 	.word	0x10005460
10003900:	20012c11 	.word	0x20012c11
10003904:	50002000 	.word	0x50002000
10003908:	20012a2c 	.word	0x20012a2c
1000390c:	200128d8 	.word	0x200128d8
10003910:	20012654 	.word	0x20012654
10003914:	200005dd 	.word	0x200005dd
10003918:	7003602d 	.word	0x7003602d
1000391c:	60f090a0 	.word	0x60f090a0
10003920:	1044a042 	.word	0x1044a042
10003924:	10005358 	.word	0x10005358
10003928:	20012c0e 	.word	0x20012c0e
1000392c:	50200010 	.word	0x50200010

10003930 <scanvideo_setup>:
10003930:	6801      	ldr	r1, [r0, #0]
10003932:	f7ff bdf1 	b.w	10003518 <scanvideo_setup_with_timing>
10003936:	bf00      	nop

10003938 <scanvideo_timing_enable>:
10003938:	b5f8      	push	{r3, r4, r5, r6, r7, lr}
1000393a:	4e1b      	ldr	r6, [pc, #108]	; (100039a8 <scanvideo_timing_enable+0x70>)
1000393c:	7833      	ldrb	r3, [r6, #0]
1000393e:	4283      	cmp	r3, r0
10003940:	d100      	bne.n	10003944 <scanvideo_timing_enable+0xc>
10003942:	bdf8      	pop	{r3, r4, r5, r6, r7, pc}
10003944:	2280      	movs	r2, #128	; 0x80
10003946:	f44f 7c40 	mov.w	ip, #768	; 0x300
1000394a:	4b18      	ldr	r3, [pc, #96]	; (100039ac <scanvideo_timing_enable+0x74>)
1000394c:	4f18      	ldr	r7, [pc, #96]	; (100039b0 <scanvideo_timing_enable+0x78>)
1000394e:	4d19      	ldr	r5, [pc, #100]	; (100039b4 <scanvideo_timing_enable+0x7c>)
10003950:	4601      	mov	r1, r0
10003952:	f8c7 c000 	str.w	ip, [r7]
10003956:	4604      	mov	r4, r0
10003958:	601a      	str	r2, [r3, #0]
1000395a:	f44f 30c2 	mov.w	r0, #99328	; 0x18400
1000395e:	f7fd fae3 	bl	10000f28 <irq_set_mask_enabled>
10003962:	2109      	movs	r1, #9
10003964:	4628      	mov	r0, r5
10003966:	f000 f915 	bl	10003b94 <pio_claim_sm_mask>
1000396a:	f44f 6210 	mov.w	r2, #2304	; 0x900
1000396e:	682b      	ldr	r3, [r5, #0]
10003970:	f023 0309 	bic.w	r3, r3, #9
10003974:	602b      	str	r3, [r5, #0]
10003976:	4b10      	ldr	r3, [pc, #64]	; (100039b8 <scanvideo_timing_enable+0x80>)
10003978:	601a      	str	r2, [r3, #0]
1000397a:	b19c      	cbz	r4, 100039a4 <scanvideo_timing_enable+0x6c>
1000397c:	4b0f      	ldr	r3, [pc, #60]	; (100039bc <scanvideo_timing_enable+0x84>)
1000397e:	4a10      	ldr	r2, [pc, #64]	; (100039c0 <scanvideo_timing_enable+0x88>)
10003980:	685b      	ldr	r3, [r3, #4]
10003982:	7812      	ldrb	r2, [r2, #0]
10003984:	791b      	ldrb	r3, [r3, #4]
10003986:	f003 031f 	and.w	r3, r3, #31
1000398a:	4413      	add	r3, r2
1000398c:	4a0d      	ldr	r2, [pc, #52]	; (100039c4 <scanvideo_timing_enable+0x8c>)
1000398e:	f8c5 30d8 	str.w	r3, [r5, #216]	; 0xd8
10003992:	7813      	ldrb	r3, [r2, #0]
10003994:	f003 031f 	and.w	r3, r3, #31
10003998:	f8c5 3120 	str.w	r3, [r5, #288]	; 0x120
1000399c:	682b      	ldr	r3, [r5, #0]
1000399e:	f043 0309 	orr.w	r3, r3, #9
100039a2:	602b      	str	r3, [r5, #0]
100039a4:	7034      	strb	r4, [r6, #0]
100039a6:	bdf8      	pop	{r3, r4, r5, r6, r7, pc}
100039a8:	20012c13 	.word	0x20012c13
100039ac:	5020217c 	.word	0x5020217c
100039b0:	50202170 	.word	0x50202170
100039b4:	50200000 	.word	0x50200000
100039b8:	50202000 	.word	0x50202000
100039bc:	20012a78 	.word	0x20012a78
100039c0:	20012c12 	.word	0x20012c12
100039c4:	20012c11 	.word	0x20012c11

100039c8 <dma_channel_claim>:
100039c8:	b508      	push	{r3, lr}
100039ca:	4601      	mov	r1, r0
100039cc:	4a02      	ldr	r2, [pc, #8]	; (100039d8 <dma_channel_claim+0x10>)
100039ce:	4803      	ldr	r0, [pc, #12]	; (100039dc <dma_channel_claim+0x14>)
100039d0:	f7fd f9e4 	bl	10000d9c <hw_claim_or_assert>
100039d4:	bd08      	pop	{r3, pc}
100039d6:	bf00      	nop
100039d8:	1000546c 	.word	0x1000546c
100039dc:	20012c0c 	.word	0x20012c0c

100039e0 <dma_claim_mask>:
100039e0:	b538      	push	{r3, r4, r5, lr}
100039e2:	4604      	mov	r4, r0
100039e4:	2500      	movs	r5, #0
100039e6:	e001      	b.n	100039ec <dma_claim_mask+0xc>
100039e8:	3501      	adds	r5, #1
100039ea:	0864      	lsrs	r4, r4, #1
100039ec:	b134      	cbz	r4, 100039fc <dma_claim_mask+0x1c>
100039ee:	f014 0f01 	tst.w	r4, #1
100039f2:	d0f9      	beq.n	100039e8 <dma_claim_mask+0x8>
100039f4:	4628      	mov	r0, r5
100039f6:	f7ff ffe7 	bl	100039c8 <dma_channel_claim>
100039fa:	e7f5      	b.n	100039e8 <dma_claim_mask+0x8>
100039fc:	bd38      	pop	{r3, r4, r5, pc}

100039fe <is_gpio_compatible>:
100039fe:	f8d0 3168 	ldr.w	r3, [r0, #360]	; 0x168
10003a02:	b113      	cbz	r3, 10003a0a <is_gpio_compatible+0xc>
10003a04:	f011 0f01 	tst.w	r1, #1
10003a08:	d105      	bne.n	10003a16 <is_gpio_compatible+0x18>
10003a0a:	b933      	cbnz	r3, 10003a1a <is_gpio_compatible+0x1c>
10003a0c:	f011 0f04 	tst.w	r1, #4
10003a10:	d005      	beq.n	10003a1e <is_gpio_compatible+0x20>
10003a12:	2000      	movs	r0, #0
10003a14:	4770      	bx	lr
10003a16:	2000      	movs	r0, #0
10003a18:	4770      	bx	lr
10003a1a:	2001      	movs	r0, #1
10003a1c:	4770      	bx	lr
10003a1e:	2001      	movs	r0, #1
10003a20:	4770      	bx	lr

10003a22 <is_program_gpio_compatible>:
10003a22:	b508      	push	{r3, lr}
10003a24:	79c9      	ldrb	r1, [r1, #7]
10003a26:	f7ff ffea 	bl	100039fe <is_gpio_compatible>
10003a2a:	bd08      	pop	{r3, pc}

10003a2c <add_program_at_offset_check>:
10003a2c:	b570      	push	{r4, r5, r6, lr}
10003a2e:	4604      	mov	r4, r0
10003a30:	460d      	mov	r5, r1
10003a32:	4616      	mov	r6, r2
10003a34:	f7ff fff5 	bl	10003a22 <is_program_gpio_compatible>
10003a38:	b1d0      	cbz	r0, 10003a70 <add_program_at_offset_check+0x44>
10003a3a:	f995 3005 	ldrsb.w	r3, [r5, #5]
10003a3e:	2b00      	cmp	r3, #0
10003a40:	db01      	blt.n	10003a46 <add_program_at_offset_check+0x1a>
10003a42:	42b3      	cmp	r3, r6
10003a44:	d117      	bne.n	10003a76 <add_program_at_offset_check+0x4a>
10003a46:	f104 402f 	add.w	r0, r4, #2936012800	; 0xaf000000
10003a4a:	f500 0060 	add.w	r0, r0, #14680064	; 0xe00000
10003a4e:	0d00      	lsrs	r0, r0, #20
10003a50:	4b0a      	ldr	r3, [pc, #40]	; (10003a7c <add_program_at_offset_check+0x50>)
10003a52:	f853 1020 	ldr.w	r1, [r3, r0, lsl #2]
10003a56:	792a      	ldrb	r2, [r5, #4]
10003a58:	2301      	movs	r3, #1
10003a5a:	4093      	lsls	r3, r2
10003a5c:	3b01      	subs	r3, #1
10003a5e:	fa03 f206 	lsl.w	r2, r3, r6
10003a62:	420a      	tst	r2, r1
10003a64:	d101      	bne.n	10003a6a <add_program_at_offset_check+0x3e>
10003a66:	2000      	movs	r0, #0
10003a68:	bd70      	pop	{r4, r5, r6, pc}
10003a6a:	f06f 0008 	mvn.w	r0, #8
10003a6e:	e7fb      	b.n	10003a68 <add_program_at_offset_check+0x3c>
10003a70:	f06f 000a 	mvn.w	r0, #10
10003a74:	e7f8      	b.n	10003a68 <add_program_at_offset_check+0x3c>
10003a76:	f06f 000a 	mvn.w	r0, #10
10003a7a:	e7f5      	b.n	10003a68 <add_program_at_offset_check+0x3c>
10003a7c:	20012678 	.word	0x20012678

10003a80 <add_program_at_offset>:
10003a80:	b5f8      	push	{r3, r4, r5, r6, r7, lr}
10003a82:	4606      	mov	r6, r0
10003a84:	460d      	mov	r5, r1
10003a86:	4617      	mov	r7, r2
10003a88:	f7ff ffd0 	bl	10003a2c <add_program_at_offset_check>
10003a8c:	bb20      	cbnz	r0, 10003ad8 <add_program_at_offset+0x58>
10003a8e:	4603      	mov	r3, r0
10003a90:	e006      	b.n	10003aa0 <add_program_at_offset+0x20>
10003a92:	eb03 0c07 	add.w	ip, r3, r7
10003a96:	f10c 0c12 	add.w	ip, ip, #18
10003a9a:	f846 402c 	str.w	r4, [r6, ip, lsl #2]
10003a9e:	3301      	adds	r3, #1
10003aa0:	7929      	ldrb	r1, [r5, #4]
10003aa2:	4299      	cmp	r1, r3
10003aa4:	d907      	bls.n	10003ab6 <add_program_at_offset+0x36>
10003aa6:	682a      	ldr	r2, [r5, #0]
10003aa8:	f832 4013 	ldrh.w	r4, [r2, r3, lsl #1]
10003aac:	f414 4f60 	tst.w	r4, #57344	; 0xe000
10003ab0:	d1ef      	bne.n	10003a92 <add_program_at_offset+0x12>
10003ab2:	443c      	add	r4, r7
10003ab4:	e7ed      	b.n	10003a92 <add_program_at_offset+0x12>
10003ab6:	2301      	movs	r3, #1
10003ab8:	fa03 f101 	lsl.w	r1, r3, r1
10003abc:	3901      	subs	r1, #1
10003abe:	f106 462f 	add.w	r6, r6, #2936012800	; 0xaf000000
10003ac2:	f506 0660 	add.w	r6, r6, #14680064	; 0xe00000
10003ac6:	0d36      	lsrs	r6, r6, #20
10003ac8:	40b9      	lsls	r1, r7
10003aca:	4a04      	ldr	r2, [pc, #16]	; (10003adc <add_program_at_offset+0x5c>)
10003acc:	f852 3026 	ldr.w	r3, [r2, r6, lsl #2]
10003ad0:	4319      	orrs	r1, r3
10003ad2:	f842 1026 	str.w	r1, [r2, r6, lsl #2]
10003ad6:	4638      	mov	r0, r7
10003ad8:	bdf8      	pop	{r3, r4, r5, r6, r7, pc}
10003ada:	bf00      	nop
10003adc:	20012678 	.word	0x20012678

10003ae0 <find_offset_for_program>:
10003ae0:	b510      	push	{r4, lr}
10003ae2:	790a      	ldrb	r2, [r1, #4]
10003ae4:	2a20      	cmp	r2, #32
10003ae6:	d819      	bhi.n	10003b1c <find_offset_for_program+0x3c>
10003ae8:	f100 402f 	add.w	r0, r0, #2936012800	; 0xaf000000
10003aec:	f500 0060 	add.w	r0, r0, #14680064	; 0xe00000
10003af0:	0d00      	lsrs	r0, r0, #20
10003af2:	4b15      	ldr	r3, [pc, #84]	; (10003b48 <find_offset_for_program+0x68>)
10003af4:	f853 4020 	ldr.w	r4, [r3, r0, lsl #2]
10003af8:	2301      	movs	r3, #1
10003afa:	4093      	lsls	r3, r2
10003afc:	3b01      	subs	r3, #1
10003afe:	f991 1005 	ldrsb.w	r1, [r1, #5]
10003b02:	2900      	cmp	r1, #0
10003b04:	db10      	blt.n	10003b28 <find_offset_for_program+0x48>
10003b06:	4608      	mov	r0, r1
10003b08:	f1c2 0220 	rsb	r2, r2, #32
10003b0c:	4291      	cmp	r1, r2
10003b0e:	dc18      	bgt.n	10003b42 <find_offset_for_program+0x62>
10003b10:	408b      	lsls	r3, r1
10003b12:	4223      	tst	r3, r4
10003b14:	d001      	beq.n	10003b1a <find_offset_for_program+0x3a>
10003b16:	f04f 30ff 	mov.w	r0, #4294967295
10003b1a:	bd10      	pop	{r4, pc}
10003b1c:	4b0b      	ldr	r3, [pc, #44]	; (10003b4c <find_offset_for_program+0x6c>)
10003b1e:	4a0c      	ldr	r2, [pc, #48]	; (10003b50 <find_offset_for_program+0x70>)
10003b20:	2143      	movs	r1, #67	; 0x43
10003b22:	480c      	ldr	r0, [pc, #48]	; (10003b54 <find_offset_for_program+0x74>)
10003b24:	f7ff f9ce 	bl	10002ec4 <__assert_func>
10003b28:	f1c2 0020 	rsb	r0, r2, #32
10003b2c:	2800      	cmp	r0, #0
10003b2e:	db05      	blt.n	10003b3c <find_offset_for_program+0x5c>
10003b30:	fa03 f200 	lsl.w	r2, r3, r0
10003b34:	4222      	tst	r2, r4
10003b36:	d0f0      	beq.n	10003b1a <find_offset_for_program+0x3a>
10003b38:	3801      	subs	r0, #1
10003b3a:	e7f7      	b.n	10003b2c <find_offset_for_program+0x4c>
10003b3c:	f06f 0008 	mvn.w	r0, #8
10003b40:	e7eb      	b.n	10003b1a <find_offset_for_program+0x3a>
10003b42:	f04f 30ff 	mov.w	r0, #4294967295
10003b46:	e7e8      	b.n	10003b1a <find_offset_for_program+0x3a>
10003b48:	20012678 	.word	0x20012678
10003b4c:	10005490 	.word	0x10005490
10003b50:	10005554 	.word	0x10005554
10003b54:	100054bc 	.word	0x100054bc

10003b58 <pio_sm_claim>:
10003b58:	b508      	push	{r3, lr}
10003b5a:	f100 402f 	add.w	r0, r0, #2936012800	; 0xaf000000
10003b5e:	f500 0060 	add.w	r0, r0, #14680064	; 0xe00000
10003b62:	0d00      	lsrs	r0, r0, #20
10003b64:	2802      	cmp	r0, #2
10003b66:	d00a      	beq.n	10003b7e <pio_sm_claim+0x26>
10003b68:	2801      	cmp	r0, #1
10003b6a:	d006      	beq.n	10003b7a <pio_sm_claim+0x22>
10003b6c:	4a05      	ldr	r2, [pc, #20]	; (10003b84 <pio_sm_claim+0x2c>)
10003b6e:	eb01 0180 	add.w	r1, r1, r0, lsl #2
10003b72:	4805      	ldr	r0, [pc, #20]	; (10003b88 <pio_sm_claim+0x30>)
10003b74:	f7fd f912 	bl	10000d9c <hw_claim_or_assert>
10003b78:	bd08      	pop	{r3, pc}
10003b7a:	4a04      	ldr	r2, [pc, #16]	; (10003b8c <pio_sm_claim+0x34>)
10003b7c:	e7f7      	b.n	10003b6e <pio_sm_claim+0x16>
10003b7e:	4a04      	ldr	r2, [pc, #16]	; (10003b90 <pio_sm_claim+0x38>)
10003b80:	e7f5      	b.n	10003b6e <pio_sm_claim+0x16>
10003b82:	bf00      	nop
10003b84:	100054f0 	.word	0x100054f0
10003b88:	200128ac 	.word	0x200128ac
10003b8c:	10005530 	.word	0x10005530
10003b90:	1000550c 	.word	0x1000550c

10003b94 <pio_claim_sm_mask>:
10003b94:	b570      	push	{r4, r5, r6, lr}
10003b96:	4606      	mov	r6, r0
10003b98:	460c      	mov	r4, r1
10003b9a:	2500      	movs	r5, #0
10003b9c:	e001      	b.n	10003ba2 <pio_claim_sm_mask+0xe>
10003b9e:	3501      	adds	r5, #1
10003ba0:	0864      	lsrs	r4, r4, #1
10003ba2:	b13c      	cbz	r4, 10003bb4 <pio_claim_sm_mask+0x20>
10003ba4:	f014 0f01 	tst.w	r4, #1
10003ba8:	d0f9      	beq.n	10003b9e <pio_claim_sm_mask+0xa>
10003baa:	4629      	mov	r1, r5
10003bac:	4630      	mov	r0, r6
10003bae:	f7ff ffd3 	bl	10003b58 <pio_sm_claim>
10003bb2:	e7f4      	b.n	10003b9e <pio_claim_sm_mask+0xa>
10003bb4:	bd70      	pop	{r4, r5, r6, pc}

10003bb6 <pio_add_program>:
10003bb6:	b5f8      	push	{r3, r4, r5, r6, r7, lr}
10003bb8:	4605      	mov	r5, r0
10003bba:	460e      	mov	r6, r1
10003bbc:	f7fd f8d2 	bl	10000d64 <hw_claim_lock>
10003bc0:	4607      	mov	r7, r0
10003bc2:	4631      	mov	r1, r6
10003bc4:	4628      	mov	r0, r5
10003bc6:	f7ff ff8b 	bl	10003ae0 <find_offset_for_program>
10003bca:	1e04      	subs	r4, r0, #0
10003bcc:	da04      	bge.n	10003bd8 <pio_add_program+0x22>
10003bce:	4638      	mov	r0, r7
10003bd0:	f7fd f8da 	bl	10000d88 <hw_claim_unlock>
10003bd4:	4620      	mov	r0, r4
10003bd6:	bdf8      	pop	{r3, r4, r5, r6, r7, pc}
10003bd8:	4622      	mov	r2, r4
10003bda:	4631      	mov	r1, r6
10003bdc:	4628      	mov	r0, r5
10003bde:	f7ff ff4f 	bl	10003a80 <add_program_at_offset>
10003be2:	4604      	mov	r4, r0
10003be4:	e7f3      	b.n	10003bce <pio_add_program+0x18>

10003be6 <pio_sm_set_consecutive_pindirs>:
10003be6:	b5f0      	push	{r4, r5, r6, r7, lr}
10003be8:	f89d 7014 	ldrb.w	r7, [sp, #20]
10003bec:	f8d0 4168 	ldr.w	r4, [r0, #360]	; 0x168
10003bf0:	1b12      	subs	r2, r2, r4
10003bf2:	2a1f      	cmp	r2, #31
10003bf4:	d843      	bhi.n	10003c7e <pio_sm_set_consecutive_pindirs+0x98>
10003bf6:	eb01 0441 	add.w	r4, r1, r1, lsl #1
10003bfa:	eb00 04c4 	add.w	r4, r0, r4, lsl #3
10003bfe:	f8d4 60dc 	ldr.w	r6, [r4, #220]	; 0xdc
10003c02:	f8d4 50cc 	ldr.w	r5, [r4, #204]	; 0xcc
10003c06:	eb01 0441 	add.w	r4, r1, r1, lsl #1
10003c0a:	00e4      	lsls	r4, r4, #3
10003c0c:	34c8      	adds	r4, #200	; 0xc8
10003c0e:	4404      	add	r4, r0
10003c10:	f504 5440 	add.w	r4, r4, #12288	; 0x3000
10003c14:	f44f 3c00 	mov.w	ip, #131072	; 0x20000
10003c18:	f8c4 c004 	str.w	ip, [r4, #4]
10003c1c:	b117      	cbz	r7, 10003c24 <pio_sm_set_consecutive_pindirs+0x3e>
10003c1e:	f04f 0e1f 	mov.w	lr, #31
10003c22:	e015      	b.n	10003c50 <pio_sm_set_consecutive_pindirs+0x6a>
10003c24:	f04f 0e00 	mov.w	lr, #0
10003c28:	e012      	b.n	10003c50 <pio_sm_set_consecutive_pindirs+0x6a>
10003c2a:	0154      	lsls	r4, r2, #5
10003c2c:	f044 54a0 	orr.w	r4, r4, #335544320	; 0x14000000
10003c30:	eb01 0c41 	add.w	ip, r1, r1, lsl #1
10003c34:	eb00 0ccc 	add.w	ip, r0, ip, lsl #3
10003c38:	f8cc 40dc 	str.w	r4, [ip, #220]	; 0xdc
10003c3c:	f44e 4460 	orr.w	r4, lr, #57344	; 0xe000
10003c40:	f044 0480 	orr.w	r4, r4, #128	; 0x80
10003c44:	f8cc 40d8 	str.w	r4, [ip, #216]	; 0xd8
10003c48:	3b05      	subs	r3, #5
10003c4a:	3205      	adds	r2, #5
10003c4c:	f002 021f 	and.w	r2, r2, #31
10003c50:	2b05      	cmp	r3, #5
10003c52:	d8ea      	bhi.n	10003c2a <pio_sm_set_consecutive_pindirs+0x44>
10003c54:	0152      	lsls	r2, r2, #5
10003c56:	ea42 6283 	orr.w	r2, r2, r3, lsl #26
10003c5a:	eb01 0441 	add.w	r4, r1, r1, lsl #1
10003c5e:	eb00 04c4 	add.w	r4, r0, r4, lsl #3
10003c62:	f8c4 20dc 	str.w	r2, [r4, #220]	; 0xdc
10003c66:	f44e 4360 	orr.w	r3, lr, #57344	; 0xe000
10003c6a:	f043 0380 	orr.w	r3, r3, #128	; 0x80
10003c6e:	f8c4 30d8 	str.w	r3, [r4, #216]	; 0xd8
10003c72:	f8c4 60dc 	str.w	r6, [r4, #220]	; 0xdc
10003c76:	f8c4 50cc 	str.w	r5, [r4, #204]	; 0xcc
10003c7a:	2000      	movs	r0, #0
10003c7c:	bdf0      	pop	{r4, r5, r6, r7, pc}
10003c7e:	f06f 0004 	mvn.w	r0, #4
10003c82:	e7fb      	b.n	10003c7c <pio_sm_set_consecutive_pindirs+0x96>

10003c84 <pio_sm_init>:
10003c84:	b530      	push	{r4, r5, lr}
10003c86:	b089      	sub	sp, #36	; 0x24
10003c88:	4686      	mov	lr, r0
10003c8a:	468c      	mov	ip, r1
10003c8c:	4614      	mov	r4, r2
10003c8e:	6802      	ldr	r2, [r0, #0]
10003c90:	2101      	movs	r1, #1
10003c92:	fa01 f10c 	lsl.w	r1, r1, ip
10003c96:	ea22 0201 	bic.w	r2, r2, r1
10003c9a:	6002      	str	r2, [r0, #0]
10003c9c:	2b00      	cmp	r3, #0
10003c9e:	d038      	beq.n	10003d12 <pio_sm_init+0x8e>
10003ca0:	461a      	mov	r2, r3
10003ca2:	6819      	ldr	r1, [r3, #0]
10003ca4:	eb0c 034c 	add.w	r3, ip, ip, lsl #1
10003ca8:	eb00 03c3 	add.w	r3, r0, r3, lsl #3
10003cac:	f8c3 10c8 	str.w	r1, [r3, #200]	; 0xc8
10003cb0:	6891      	ldr	r1, [r2, #8]
10003cb2:	f8c3 10d0 	str.w	r1, [r3, #208]	; 0xd0
10003cb6:	6851      	ldr	r1, [r2, #4]
10003cb8:	f8c3 10cc 	str.w	r1, [r3, #204]	; 0xcc
10003cbc:	68d2      	ldr	r2, [r2, #12]
10003cbe:	f8c3 20dc 	str.w	r2, [r3, #220]	; 0xdc
10003cc2:	eb0c 034c 	add.w	r3, ip, ip, lsl #1
10003cc6:	00db      	lsls	r3, r3, #3
10003cc8:	33d0      	adds	r3, #208	; 0xd0
10003cca:	4473      	add	r3, lr
10003ccc:	f503 5380 	add.w	r3, r3, #4096	; 0x1000
10003cd0:	f04f 4200 	mov.w	r2, #2147483648	; 0x80000000
10003cd4:	601a      	str	r2, [r3, #0]
10003cd6:	601a      	str	r2, [r3, #0]
10003cd8:	f04f 3301 	mov.w	r3, #16843009	; 0x1010101
10003cdc:	fa03 f30c 	lsl.w	r3, r3, ip
10003ce0:	f8ce 3008 	str.w	r3, [lr, #8]
10003ce4:	f10c 0204 	add.w	r2, ip, #4
10003ce8:	2301      	movs	r3, #1
10003cea:	fa03 f202 	lsl.w	r2, r3, r2
10003cee:	f50e 5100 	add.w	r1, lr, #8192	; 0x2000
10003cf2:	600a      	str	r2, [r1, #0]
10003cf4:	f10c 0208 	add.w	r2, ip, #8
10003cf8:	4093      	lsls	r3, r2
10003cfa:	600b      	str	r3, [r1, #0]
10003cfc:	f004 041f 	and.w	r4, r4, #31
10003d00:	eb0c 0c4c 	add.w	ip, ip, ip, lsl #1
10003d04:	eb0e 0ccc 	add.w	ip, lr, ip, lsl #3
10003d08:	f8cc 40d8 	str.w	r4, [ip, #216]	; 0xd8
10003d0c:	2000      	movs	r0, #0
10003d0e:	b009      	add	sp, #36	; 0x24
10003d10:	bd30      	pop	{r4, r5, pc}
10003d12:	ab04      	add	r3, sp, #16
10003d14:	2200      	movs	r2, #0
10003d16:	9204      	str	r2, [sp, #16]
10003d18:	9205      	str	r2, [sp, #20]
10003d1a:	9206      	str	r2, [sp, #24]
10003d1c:	9207      	str	r2, [sp, #28]
10003d1e:	f44f 3280 	mov.w	r2, #65536	; 0x10000
10003d22:	9204      	str	r2, [sp, #16]
10003d24:	f44f 32f8 	mov.w	r2, #126976	; 0x1f000
10003d28:	9205      	str	r2, [sp, #20]
10003d2a:	f44f 2280 	mov.w	r2, #262144	; 0x40000
10003d2e:	9206      	str	r2, [sp, #24]
10003d30:	f44f 2240 	mov.w	r2, #786432	; 0xc0000
10003d34:	9206      	str	r2, [sp, #24]
10003d36:	466d      	mov	r5, sp
10003d38:	cb0f      	ldmia	r3, {r0, r1, r2, r3}
10003d3a:	e885 000f 	stmia.w	r5, {r0, r1, r2, r3}
10003d3e:	eb0c 034c 	add.w	r3, ip, ip, lsl #1
10003d42:	eb0e 03c3 	add.w	r3, lr, r3, lsl #3
10003d46:	f8c3 00c8 	str.w	r0, [r3, #200]	; 0xc8
10003d4a:	f44f 2240 	mov.w	r2, #786432	; 0xc0000
10003d4e:	f8c3 20d0 	str.w	r2, [r3, #208]	; 0xd0
10003d52:	f8c3 10cc 	str.w	r1, [r3, #204]	; 0xcc
10003d56:	2200      	movs	r2, #0
10003d58:	f8c3 20dc 	str.w	r2, [r3, #220]	; 0xdc
10003d5c:	e7b1      	b.n	10003cc2 <pio_sm_init+0x3e>
	...

10003d60 <calloc>:
10003d60:	4b02      	ldr	r3, [pc, #8]	; (10003d6c <calloc+0xc>)
10003d62:	460a      	mov	r2, r1
10003d64:	4601      	mov	r1, r0
10003d66:	6818      	ldr	r0, [r3, #0]
10003d68:	f000 b802 	b.w	10003d70 <_calloc_r>
10003d6c:	20011c18 	.word	0x20011c18

10003d70 <_calloc_r>:
10003d70:	b538      	push	{r3, r4, r5, lr}
10003d72:	fba1 1402 	umull	r1, r4, r1, r2
10003d76:	bb5c      	cbnz	r4, 10003dd0 <_calloc_r+0x60>
10003d78:	f000 f836 	bl	10003de8 <_malloc_r>
10003d7c:	4605      	mov	r5, r0
10003d7e:	b1c0      	cbz	r0, 10003db2 <_calloc_r+0x42>
10003d80:	f850 2c04 	ldr.w	r2, [r0, #-4]
10003d84:	f022 0203 	bic.w	r2, r2, #3
10003d88:	3a04      	subs	r2, #4
10003d8a:	2a24      	cmp	r2, #36	; 0x24
10003d8c:	d813      	bhi.n	10003db6 <_calloc_r+0x46>
10003d8e:	2a13      	cmp	r2, #19
10003d90:	d90a      	bls.n	10003da8 <_calloc_r+0x38>
10003d92:	2a1b      	cmp	r2, #27
10003d94:	e9c0 4400 	strd	r4, r4, [r0]
10003d98:	d912      	bls.n	10003dc0 <_calloc_r+0x50>
10003d9a:	2a24      	cmp	r2, #36	; 0x24
10003d9c:	e9c0 4402 	strd	r4, r4, [r0, #8]
10003da0:	d011      	beq.n	10003dc6 <_calloc_r+0x56>
10003da2:	f100 0210 	add.w	r2, r0, #16
10003da6:	e000      	b.n	10003daa <_calloc_r+0x3a>
10003da8:	4602      	mov	r2, r0
10003daa:	2300      	movs	r3, #0
10003dac:	e9c2 3300 	strd	r3, r3, [r2]
10003db0:	6093      	str	r3, [r2, #8]
10003db2:	4628      	mov	r0, r5
10003db4:	bd38      	pop	{r3, r4, r5, pc}
10003db6:	4621      	mov	r1, r4
10003db8:	f000 fb46 	bl	10004448 <memset>
10003dbc:	4628      	mov	r0, r5
10003dbe:	bd38      	pop	{r3, r4, r5, pc}
10003dc0:	f100 0208 	add.w	r2, r0, #8
10003dc4:	e7f1      	b.n	10003daa <_calloc_r+0x3a>
10003dc6:	f100 0218 	add.w	r2, r0, #24
10003dca:	e9c0 4404 	strd	r4, r4, [r0, #16]
10003dce:	e7ec      	b.n	10003daa <_calloc_r+0x3a>
10003dd0:	f000 f804 	bl	10003ddc <__errno>
10003dd4:	230c      	movs	r3, #12
10003dd6:	2500      	movs	r5, #0
10003dd8:	6003      	str	r3, [r0, #0]
10003dda:	e7ea      	b.n	10003db2 <_calloc_r+0x42>

10003ddc <__errno>:
10003ddc:	4b01      	ldr	r3, [pc, #4]	; (10003de4 <__errno+0x8>)
10003dde:	6818      	ldr	r0, [r3, #0]
10003de0:	4770      	bx	lr
10003de2:	bf00      	nop
10003de4:	20011c18 	.word	0x20011c18

10003de8 <_malloc_r>:
10003de8:	f101 030b 	add.w	r3, r1, #11
10003dec:	2b16      	cmp	r3, #22
10003dee:	e92d 4ff0 	stmdb	sp!, {r4, r5, r6, r7, r8, r9, sl, fp, lr}
10003df2:	4605      	mov	r5, r0
10003df4:	b083      	sub	sp, #12
10003df6:	d824      	bhi.n	10003e42 <_malloc_r+0x5a>
10003df8:	2910      	cmp	r1, #16
10003dfa:	f200 80f5 	bhi.w	10003fe8 <_malloc_r+0x200>
10003dfe:	f000 fb75 	bl	100044ec <__malloc_lock>
10003e02:	2410      	movs	r4, #16
10003e04:	2218      	movs	r2, #24
10003e06:	2002      	movs	r0, #2
10003e08:	4ec0      	ldr	r6, [pc, #768]	; (1000410c <_malloc_r+0x324>)
10003e0a:	4432      	add	r2, r6
10003e0c:	6853      	ldr	r3, [r2, #4]
10003e0e:	f1a2 0108 	sub.w	r1, r2, #8
10003e12:	428b      	cmp	r3, r1
10003e14:	f000 80ef 	beq.w	10003ff6 <_malloc_r+0x20e>
10003e18:	685a      	ldr	r2, [r3, #4]
10003e1a:	4628      	mov	r0, r5
10003e1c:	f022 0203 	bic.w	r2, r2, #3
10003e20:	e9d3 4102 	ldrd	r4, r1, [r3, #8]
10003e24:	441a      	add	r2, r3
10003e26:	60e1      	str	r1, [r4, #12]
10003e28:	608c      	str	r4, [r1, #8]
10003e2a:	f103 0408 	add.w	r4, r3, #8
10003e2e:	6853      	ldr	r3, [r2, #4]
10003e30:	f043 0301 	orr.w	r3, r3, #1
10003e34:	6053      	str	r3, [r2, #4]
10003e36:	f000 fb5f 	bl	100044f8 <__malloc_unlock>
10003e3a:	4620      	mov	r0, r4
10003e3c:	b003      	add	sp, #12
10003e3e:	e8bd 8ff0 	ldmia.w	sp!, {r4, r5, r6, r7, r8, r9, sl, fp, pc}
10003e42:	2b00      	cmp	r3, #0
10003e44:	f023 0407 	bic.w	r4, r3, #7
10003e48:	f2c0 80ce 	blt.w	10003fe8 <_malloc_r+0x200>
10003e4c:	42a1      	cmp	r1, r4
10003e4e:	f200 80cb 	bhi.w	10003fe8 <_malloc_r+0x200>
10003e52:	f000 fb4b 	bl	100044ec <__malloc_lock>
10003e56:	f5b4 7ffc 	cmp.w	r4, #504	; 0x1f8
10003e5a:	f0c0 81c2 	bcc.w	100041e2 <_malloc_r+0x3fa>
10003e5e:	0a63      	lsrs	r3, r4, #9
10003e60:	f000 8133 	beq.w	100040ca <_malloc_r+0x2e2>
10003e64:	2b04      	cmp	r3, #4
10003e66:	f200 8198 	bhi.w	1000419a <_malloc_r+0x3b2>
10003e6a:	09a3      	lsrs	r3, r4, #6
10003e6c:	f103 0039 	add.w	r0, r3, #57	; 0x39
10003e70:	f103 0738 	add.w	r7, r3, #56	; 0x38
10003e74:	00c3      	lsls	r3, r0, #3
10003e76:	4ea5      	ldr	r6, [pc, #660]	; (1000410c <_malloc_r+0x324>)
10003e78:	4433      	add	r3, r6
10003e7a:	f1a3 0c08 	sub.w	ip, r3, #8
10003e7e:	685b      	ldr	r3, [r3, #4]
10003e80:	459c      	cmp	ip, r3
10003e82:	d107      	bne.n	10003e94 <_malloc_r+0xac>
10003e84:	e0bc      	b.n	10004000 <_malloc_r+0x218>
10003e86:	2900      	cmp	r1, #0
10003e88:	f280 8150 	bge.w	1000412c <_malloc_r+0x344>
10003e8c:	68db      	ldr	r3, [r3, #12]
10003e8e:	459c      	cmp	ip, r3
10003e90:	f000 80b6 	beq.w	10004000 <_malloc_r+0x218>
10003e94:	685a      	ldr	r2, [r3, #4]
10003e96:	f022 0203 	bic.w	r2, r2, #3
10003e9a:	1b11      	subs	r1, r2, r4
10003e9c:	290f      	cmp	r1, #15
10003e9e:	ddf2      	ble.n	10003e86 <_malloc_r+0x9e>
10003ea0:	6933      	ldr	r3, [r6, #16]
10003ea2:	4638      	mov	r0, r7
10003ea4:	f8df e27c 	ldr.w	lr, [pc, #636]	; 10004124 <_malloc_r+0x33c>
10003ea8:	4573      	cmp	r3, lr
10003eaa:	f040 80af 	bne.w	1000400c <_malloc_r+0x224>
10003eae:	1083      	asrs	r3, r0, #2
10003eb0:	2101      	movs	r1, #1
10003eb2:	6872      	ldr	r2, [r6, #4]
10003eb4:	4099      	lsls	r1, r3
10003eb6:	4291      	cmp	r1, r2
10003eb8:	f240 80d1 	bls.w	1000405e <_malloc_r+0x276>
10003ebc:	68b7      	ldr	r7, [r6, #8]
10003ebe:	687b      	ldr	r3, [r7, #4]
10003ec0:	f023 0903 	bic.w	r9, r3, #3
10003ec4:	eba9 0304 	sub.w	r3, r9, r4
10003ec8:	2b0f      	cmp	r3, #15
10003eca:	dd02      	ble.n	10003ed2 <_malloc_r+0xea>
10003ecc:	454c      	cmp	r4, r9
10003ece:	f240 810c 	bls.w	100040ea <_malloc_r+0x302>
10003ed2:	4b8f      	ldr	r3, [pc, #572]	; (10004110 <_malloc_r+0x328>)
10003ed4:	eb07 0b09 	add.w	fp, r7, r9
10003ed8:	681b      	ldr	r3, [r3, #0]
10003eda:	eb04 0803 	add.w	r8, r4, r3
10003ede:	4b8d      	ldr	r3, [pc, #564]	; (10004114 <_malloc_r+0x32c>)
10003ee0:	681a      	ldr	r2, [r3, #0]
10003ee2:	3201      	adds	r2, #1
10003ee4:	f000 81cb 	beq.w	1000427e <_malloc_r+0x496>
10003ee8:	f241 020f 	movw	r2, #4111	; 0x100f
10003eec:	4442      	add	r2, r8
10003eee:	f8df 8238 	ldr.w	r8, [pc, #568]	; 10004128 <_malloc_r+0x340>
10003ef2:	ea02 0808 	and.w	r8, r2, r8
10003ef6:	4641      	mov	r1, r8
10003ef8:	4628      	mov	r0, r5
10003efa:	f000 fb21 	bl	10004540 <_sbrk_r>
10003efe:	f1b0 3fff 	cmp.w	r0, #4294967295
10003f02:	4682      	mov	sl, r0
10003f04:	4b83      	ldr	r3, [pc, #524]	; (10004114 <_malloc_r+0x32c>)
10003f06:	f000 81a9 	beq.w	1000425c <_malloc_r+0x474>
10003f0a:	42b7      	cmp	r7, r6
10003f0c:	d002      	beq.n	10003f14 <_malloc_r+0x12c>
10003f0e:	4583      	cmp	fp, r0
10003f10:	f200 81a4 	bhi.w	1000425c <_malloc_r+0x474>
10003f14:	4a80      	ldr	r2, [pc, #512]	; (10004118 <_malloc_r+0x330>)
10003f16:	45d3      	cmp	fp, sl
10003f18:	6811      	ldr	r1, [r2, #0]
10003f1a:	4441      	add	r1, r8
10003f1c:	6011      	str	r1, [r2, #0]
10003f1e:	f000 81a0 	beq.w	10004262 <_malloc_r+0x47a>
10003f22:	6818      	ldr	r0, [r3, #0]
10003f24:	3001      	adds	r0, #1
10003f26:	f000 81a7 	beq.w	10004278 <_malloc_r+0x490>
10003f2a:	ebaa 0b0b 	sub.w	fp, sl, fp
10003f2e:	4459      	add	r1, fp
10003f30:	6011      	str	r1, [r2, #0]
10003f32:	f01a 0307 	ands.w	r3, sl, #7
10003f36:	f000 81ac 	beq.w	10004292 <_malloc_r+0x4aa>
10003f3a:	f1c3 0108 	rsb	r1, r3, #8
10003f3e:	4628      	mov	r0, r5
10003f40:	9301      	str	r3, [sp, #4]
10003f42:	448a      	add	sl, r1
10003f44:	f241 0108 	movw	r1, #4104	; 0x1008
10003f48:	44d0      	add	r8, sl
10003f4a:	1ac9      	subs	r1, r1, r3
10003f4c:	eba1 0108 	sub.w	r1, r1, r8
10003f50:	f3c1 0b0b 	ubfx	fp, r1, #0, #12
10003f54:	4659      	mov	r1, fp
10003f56:	f000 faf3 	bl	10004540 <_sbrk_r>
10003f5a:	1c42      	adds	r2, r0, #1
10003f5c:	9b01      	ldr	r3, [sp, #4]
10003f5e:	4a6e      	ldr	r2, [pc, #440]	; (10004118 <_malloc_r+0x330>)
10003f60:	f000 81de 	beq.w	10004320 <_malloc_r+0x538>
10003f64:	eba0 000a 	sub.w	r0, r0, sl
10003f68:	eb00 080b 	add.w	r8, r0, fp
10003f6c:	6810      	ldr	r0, [r2, #0]
10003f6e:	f048 0301 	orr.w	r3, r8, #1
10003f72:	42b7      	cmp	r7, r6
10003f74:	f8c6 a008 	str.w	sl, [r6, #8]
10003f78:	eb0b 0100 	add.w	r1, fp, r0
10003f7c:	f8ca 3004 	str.w	r3, [sl, #4]
10003f80:	6011      	str	r1, [r2, #0]
10003f82:	f000 81a9 	beq.w	100042d8 <_malloc_r+0x4f0>
10003f86:	f1b9 0f0f 	cmp.w	r9, #15
10003f8a:	f240 81a7 	bls.w	100042dc <_malloc_r+0x4f4>
10003f8e:	687b      	ldr	r3, [r7, #4]
10003f90:	f1a9 000c 	sub.w	r0, r9, #12
10003f94:	f04f 0c05 	mov.w	ip, #5
10003f98:	f020 0007 	bic.w	r0, r0, #7
10003f9c:	f003 0301 	and.w	r3, r3, #1
10003fa0:	4303      	orrs	r3, r0
10003fa2:	280f      	cmp	r0, #15
10003fa4:	607b      	str	r3, [r7, #4]
10003fa6:	eb07 0300 	add.w	r3, r7, r0
10003faa:	e9c3 cc01 	strd	ip, ip, [r3, #4]
10003fae:	f200 81ad 	bhi.w	1000430c <_malloc_r+0x524>
10003fb2:	f8da 3004 	ldr.w	r3, [sl, #4]
10003fb6:	4657      	mov	r7, sl
10003fb8:	4a58      	ldr	r2, [pc, #352]	; (1000411c <_malloc_r+0x334>)
10003fba:	6810      	ldr	r0, [r2, #0]
10003fbc:	4288      	cmp	r0, r1
10003fbe:	bf38      	it	cc
10003fc0:	6011      	strcc	r1, [r2, #0]
10003fc2:	4a57      	ldr	r2, [pc, #348]	; (10004120 <_malloc_r+0x338>)
10003fc4:	6810      	ldr	r0, [r2, #0]
10003fc6:	4288      	cmp	r0, r1
10003fc8:	bf38      	it	cc
10003fca:	6011      	strcc	r1, [r2, #0]
10003fcc:	f023 0803 	bic.w	r8, r3, #3
10003fd0:	4544      	cmp	r4, r8
10003fd2:	eba8 0304 	sub.w	r3, r8, r4
10003fd6:	d802      	bhi.n	10003fde <_malloc_r+0x1f6>
10003fd8:	2b0f      	cmp	r3, #15
10003fda:	f300 8086 	bgt.w	100040ea <_malloc_r+0x302>
10003fde:	4628      	mov	r0, r5
10003fe0:	2400      	movs	r4, #0
10003fe2:	f000 fa89 	bl	100044f8 <__malloc_unlock>
10003fe6:	e728      	b.n	10003e3a <_malloc_r+0x52>
10003fe8:	2400      	movs	r4, #0
10003fea:	230c      	movs	r3, #12
10003fec:	4620      	mov	r0, r4
10003fee:	602b      	str	r3, [r5, #0]
10003ff0:	b003      	add	sp, #12
10003ff2:	e8bd 8ff0 	ldmia.w	sp!, {r4, r5, r6, r7, r8, r9, sl, fp, pc}
10003ff6:	68d3      	ldr	r3, [r2, #12]
10003ff8:	429a      	cmp	r2, r3
10003ffa:	f47f af0d 	bne.w	10003e18 <_malloc_r+0x30>
10003ffe:	3002      	adds	r0, #2
10004000:	6933      	ldr	r3, [r6, #16]
10004002:	f8df e120 	ldr.w	lr, [pc, #288]	; 10004124 <_malloc_r+0x33c>
10004006:	4573      	cmp	r3, lr
10004008:	f43f af51 	beq.w	10003eae <_malloc_r+0xc6>
1000400c:	6859      	ldr	r1, [r3, #4]
1000400e:	f021 0103 	bic.w	r1, r1, #3
10004012:	1b0a      	subs	r2, r1, r4
10004014:	2a0f      	cmp	r2, #15
10004016:	f300 80e8 	bgt.w	100041ea <_malloc_r+0x402>
1000401a:	2a00      	cmp	r2, #0
1000401c:	e9c6 ee04 	strd	lr, lr, [r6, #16]
10004020:	da58      	bge.n	100040d4 <_malloc_r+0x2ec>
10004022:	f5b1 7f00 	cmp.w	r1, #512	; 0x200
10004026:	f080 8093 	bcs.w	10004150 <_malloc_r+0x368>
1000402a:	ea4f 0cd1 	mov.w	ip, r1, lsr #3
1000402e:	2201      	movs	r2, #1
10004030:	0949      	lsrs	r1, r1, #5
10004032:	f10c 0c01 	add.w	ip, ip, #1
10004036:	408a      	lsls	r2, r1
10004038:	6871      	ldr	r1, [r6, #4]
1000403a:	f856 703c 	ldr.w	r7, [r6, ip, lsl #3]
1000403e:	430a      	orrs	r2, r1
10004040:	eb06 01cc 	add.w	r1, r6, ip, lsl #3
10004044:	3908      	subs	r1, #8
10004046:	6072      	str	r2, [r6, #4]
10004048:	e9c3 7102 	strd	r7, r1, [r3, #8]
1000404c:	f846 303c 	str.w	r3, [r6, ip, lsl #3]
10004050:	60fb      	str	r3, [r7, #12]
10004052:	1083      	asrs	r3, r0, #2
10004054:	2101      	movs	r1, #1
10004056:	4099      	lsls	r1, r3
10004058:	4291      	cmp	r1, r2
1000405a:	f63f af2f 	bhi.w	10003ebc <_malloc_r+0xd4>
1000405e:	4211      	tst	r1, r2
10004060:	d105      	bne.n	1000406e <_malloc_r+0x286>
10004062:	f020 0003 	bic.w	r0, r0, #3
10004066:	0049      	lsls	r1, r1, #1
10004068:	3004      	adds	r0, #4
1000406a:	4211      	tst	r1, r2
1000406c:	d0fb      	beq.n	10004066 <_malloc_r+0x27e>
1000406e:	eb06 09c0 	add.w	r9, r6, r0, lsl #3
10004072:	4680      	mov	r8, r0
10004074:	46cc      	mov	ip, r9
10004076:	f8dc 700c 	ldr.w	r7, [ip, #12]
1000407a:	45bc      	cmp	ip, r7
1000407c:	d107      	bne.n	1000408e <_malloc_r+0x2a6>
1000407e:	e098      	b.n	100041b2 <_malloc_r+0x3ca>
10004080:	2b00      	cmp	r3, #0
10004082:	f280 809f 	bge.w	100041c4 <_malloc_r+0x3dc>
10004086:	68ff      	ldr	r7, [r7, #12]
10004088:	45bc      	cmp	ip, r7
1000408a:	f000 8092 	beq.w	100041b2 <_malloc_r+0x3ca>
1000408e:	687a      	ldr	r2, [r7, #4]
10004090:	f022 0203 	bic.w	r2, r2, #3
10004094:	1b13      	subs	r3, r2, r4
10004096:	2b0f      	cmp	r3, #15
10004098:	ddf2      	ble.n	10004080 <_malloc_r+0x298>
1000409a:	1939      	adds	r1, r7, r4
1000409c:	f044 0401 	orr.w	r4, r4, #1
100040a0:	4628      	mov	r0, r5
100040a2:	607c      	str	r4, [r7, #4]
100040a4:	f043 0401 	orr.w	r4, r3, #1
100040a8:	e9d7 c502 	ldrd	ip, r5, [r7, #8]
100040ac:	f8cc 500c 	str.w	r5, [ip, #12]
100040b0:	f8c5 c008 	str.w	ip, [r5, #8]
100040b4:	e9c6 1104 	strd	r1, r1, [r6, #16]
100040b8:	604c      	str	r4, [r1, #4]
100040ba:	f107 0408 	add.w	r4, r7, #8
100040be:	e9c1 ee02 	strd	lr, lr, [r1, #8]
100040c2:	50bb      	str	r3, [r7, r2]
100040c4:	f000 fa18 	bl	100044f8 <__malloc_unlock>
100040c8:	e6b7      	b.n	10003e3a <_malloc_r+0x52>
100040ca:	f44f 7300 	mov.w	r3, #512	; 0x200
100040ce:	2040      	movs	r0, #64	; 0x40
100040d0:	273f      	movs	r7, #63	; 0x3f
100040d2:	e6d0      	b.n	10003e76 <_malloc_r+0x8e>
100040d4:	4419      	add	r1, r3
100040d6:	f103 0408 	add.w	r4, r3, #8
100040da:	4628      	mov	r0, r5
100040dc:	684b      	ldr	r3, [r1, #4]
100040de:	f043 0301 	orr.w	r3, r3, #1
100040e2:	604b      	str	r3, [r1, #4]
100040e4:	f000 fa08 	bl	100044f8 <__malloc_unlock>
100040e8:	e6a7      	b.n	10003e3a <_malloc_r+0x52>
100040ea:	193a      	adds	r2, r7, r4
100040ec:	f044 0401 	orr.w	r4, r4, #1
100040f0:	f043 0301 	orr.w	r3, r3, #1
100040f4:	4628      	mov	r0, r5
100040f6:	607c      	str	r4, [r7, #4]
100040f8:	f107 0408 	add.w	r4, r7, #8
100040fc:	60b2      	str	r2, [r6, #8]
100040fe:	6053      	str	r3, [r2, #4]
10004100:	f000 f9fa 	bl	100044f8 <__malloc_unlock>
10004104:	4620      	mov	r0, r4
10004106:	b003      	add	sp, #12
10004108:	e8bd 8ff0 	ldmia.w	sp!, {r4, r5, r6, r7, r8, r9, sl, fp, pc}
1000410c:	20012048 	.word	0x20012048
10004110:	20012638 	.word	0x20012638
10004114:	20012450 	.word	0x20012450
10004118:	20012608 	.word	0x20012608
1000411c:	20012630 	.word	0x20012630
10004120:	20012634 	.word	0x20012634
10004124:	20012050 	.word	0x20012050
10004128:	fffff000 	.word	0xfffff000
1000412c:	441a      	add	r2, r3
1000412e:	f103 0408 	add.w	r4, r3, #8
10004132:	4628      	mov	r0, r5
10004134:	e9d3 6102 	ldrd	r6, r1, [r3, #8]
10004138:	6853      	ldr	r3, [r2, #4]
1000413a:	60f1      	str	r1, [r6, #12]
1000413c:	f043 0301 	orr.w	r3, r3, #1
10004140:	608e      	str	r6, [r1, #8]
10004142:	6053      	str	r3, [r2, #4]
10004144:	f000 f9d8 	bl	100044f8 <__malloc_unlock>
10004148:	4620      	mov	r0, r4
1000414a:	b003      	add	sp, #12
1000414c:	e8bd 8ff0 	ldmia.w	sp!, {r4, r5, r6, r7, r8, r9, sl, fp, pc}
10004150:	f5b1 6f20 	cmp.w	r1, #2560	; 0xa00
10004154:	ea4f 2251 	mov.w	r2, r1, lsr #9
10004158:	d359      	bcc.n	1000420e <_malloc_r+0x426>
1000415a:	2a14      	cmp	r2, #20
1000415c:	f200 80aa 	bhi.w	100042b4 <_malloc_r+0x4cc>
10004160:	f102 075c 	add.w	r7, r2, #92	; 0x5c
10004164:	325b      	adds	r2, #91	; 0x5b
10004166:	00ff      	lsls	r7, r7, #3
10004168:	eb06 0c07 	add.w	ip, r6, r7
1000416c:	59f7      	ldr	r7, [r6, r7]
1000416e:	f1ac 0c08 	sub.w	ip, ip, #8
10004172:	45bc      	cmp	ip, r7
10004174:	f000 8086 	beq.w	10004284 <_malloc_r+0x49c>
10004178:	687a      	ldr	r2, [r7, #4]
1000417a:	f022 0203 	bic.w	r2, r2, #3
1000417e:	428a      	cmp	r2, r1
10004180:	d902      	bls.n	10004188 <_malloc_r+0x3a0>
10004182:	68bf      	ldr	r7, [r7, #8]
10004184:	45bc      	cmp	ip, r7
10004186:	d1f7      	bne.n	10004178 <_malloc_r+0x390>
10004188:	f8d7 c00c 	ldr.w	ip, [r7, #12]
1000418c:	6872      	ldr	r2, [r6, #4]
1000418e:	e9c3 7c02 	strd	r7, ip, [r3, #8]
10004192:	f8cc 3008 	str.w	r3, [ip, #8]
10004196:	60fb      	str	r3, [r7, #12]
10004198:	e75b      	b.n	10004052 <_malloc_r+0x26a>
1000419a:	2b14      	cmp	r3, #20
1000419c:	d93d      	bls.n	1000421a <_malloc_r+0x432>
1000419e:	2b54      	cmp	r3, #84	; 0x54
100041a0:	f200 8090 	bhi.w	100042c4 <_malloc_r+0x4dc>
100041a4:	0b23      	lsrs	r3, r4, #12
100041a6:	f103 006f 	add.w	r0, r3, #111	; 0x6f
100041aa:	f103 076e 	add.w	r7, r3, #110	; 0x6e
100041ae:	00c3      	lsls	r3, r0, #3
100041b0:	e661      	b.n	10003e76 <_malloc_r+0x8e>
100041b2:	f108 0801 	add.w	r8, r8, #1
100041b6:	f10c 0c08 	add.w	ip, ip, #8
100041ba:	f018 0f03 	tst.w	r8, #3
100041be:	f47f af5a 	bne.w	10004076 <_malloc_r+0x28e>
100041c2:	e035      	b.n	10004230 <_malloc_r+0x448>
100041c4:	443a      	add	r2, r7
100041c6:	463c      	mov	r4, r7
100041c8:	68f9      	ldr	r1, [r7, #12]
100041ca:	4628      	mov	r0, r5
100041cc:	6853      	ldr	r3, [r2, #4]
100041ce:	f043 0301 	orr.w	r3, r3, #1
100041d2:	6053      	str	r3, [r2, #4]
100041d4:	f854 3f08 	ldr.w	r3, [r4, #8]!
100041d8:	60d9      	str	r1, [r3, #12]
100041da:	608b      	str	r3, [r1, #8]
100041dc:	f000 f98c 	bl	100044f8 <__malloc_unlock>
100041e0:	e62b      	b.n	10003e3a <_malloc_r+0x52>
100041e2:	08e0      	lsrs	r0, r4, #3
100041e4:	f104 0208 	add.w	r2, r4, #8
100041e8:	e60e      	b.n	10003e08 <_malloc_r+0x20>
100041ea:	4628      	mov	r0, r5
100041ec:	191d      	adds	r5, r3, r4
100041ee:	f044 0401 	orr.w	r4, r4, #1
100041f2:	605c      	str	r4, [r3, #4]
100041f4:	f042 0401 	orr.w	r4, r2, #1
100041f8:	e9c6 5504 	strd	r5, r5, [r6, #16]
100041fc:	606c      	str	r4, [r5, #4]
100041fe:	f103 0408 	add.w	r4, r3, #8
10004202:	e9c5 ee02 	strd	lr, lr, [r5, #8]
10004206:	505a      	str	r2, [r3, r1]
10004208:	f000 f976 	bl	100044f8 <__malloc_unlock>
1000420c:	e615      	b.n	10003e3a <_malloc_r+0x52>
1000420e:	098a      	lsrs	r2, r1, #6
10004210:	f102 0739 	add.w	r7, r2, #57	; 0x39
10004214:	3238      	adds	r2, #56	; 0x38
10004216:	00ff      	lsls	r7, r7, #3
10004218:	e7a6      	b.n	10004168 <_malloc_r+0x380>
1000421a:	f103 005c 	add.w	r0, r3, #92	; 0x5c
1000421e:	f103 075b 	add.w	r7, r3, #91	; 0x5b
10004222:	00c3      	lsls	r3, r0, #3
10004224:	e627      	b.n	10003e76 <_malloc_r+0x8e>
10004226:	f859 3908 	ldr.w	r3, [r9], #-8
1000422a:	454b      	cmp	r3, r9
1000422c:	f040 8092 	bne.w	10004354 <_malloc_r+0x56c>
10004230:	f010 0f03 	tst.w	r0, #3
10004234:	f100 30ff 	add.w	r0, r0, #4294967295
10004238:	d1f5      	bne.n	10004226 <_malloc_r+0x43e>
1000423a:	6873      	ldr	r3, [r6, #4]
1000423c:	ea23 0301 	bic.w	r3, r3, r1
10004240:	6073      	str	r3, [r6, #4]
10004242:	0049      	lsls	r1, r1, #1
10004244:	f43f ae3a 	beq.w	10003ebc <_malloc_r+0xd4>
10004248:	4299      	cmp	r1, r3
1000424a:	d903      	bls.n	10004254 <_malloc_r+0x46c>
1000424c:	e636      	b.n	10003ebc <_malloc_r+0xd4>
1000424e:	0049      	lsls	r1, r1, #1
10004250:	f108 0804 	add.w	r8, r8, #4
10004254:	4219      	tst	r1, r3
10004256:	d0fa      	beq.n	1000424e <_malloc_r+0x466>
10004258:	4640      	mov	r0, r8
1000425a:	e708      	b.n	1000406e <_malloc_r+0x286>
1000425c:	68b7      	ldr	r7, [r6, #8]
1000425e:	687b      	ldr	r3, [r7, #4]
10004260:	e6b4      	b.n	10003fcc <_malloc_r+0x1e4>
10004262:	f3cb 000b 	ubfx	r0, fp, #0, #12
10004266:	2800      	cmp	r0, #0
10004268:	f47f ae5b 	bne.w	10003f22 <_malloc_r+0x13a>
1000426c:	44c8      	add	r8, r9
1000426e:	68b7      	ldr	r7, [r6, #8]
10004270:	f048 0301 	orr.w	r3, r8, #1
10004274:	607b      	str	r3, [r7, #4]
10004276:	e69f      	b.n	10003fb8 <_malloc_r+0x1d0>
10004278:	f8c3 a000 	str.w	sl, [r3]
1000427c:	e659      	b.n	10003f32 <_malloc_r+0x14a>
1000427e:	f108 0810 	add.w	r8, r8, #16
10004282:	e638      	b.n	10003ef6 <_malloc_r+0x10e>
10004284:	1092      	asrs	r2, r2, #2
10004286:	2101      	movs	r1, #1
10004288:	4091      	lsls	r1, r2
1000428a:	6872      	ldr	r2, [r6, #4]
1000428c:	430a      	orrs	r2, r1
1000428e:	6072      	str	r2, [r6, #4]
10004290:	e77d      	b.n	1000418e <_malloc_r+0x3a6>
10004292:	eb0a 0108 	add.w	r1, sl, r8
10004296:	4628      	mov	r0, r5
10004298:	9301      	str	r3, [sp, #4]
1000429a:	4249      	negs	r1, r1
1000429c:	f3c1 0b0b 	ubfx	fp, r1, #0, #12
100042a0:	4659      	mov	r1, fp
100042a2:	f000 f94d 	bl	10004540 <_sbrk_r>
100042a6:	1c43      	adds	r3, r0, #1
100042a8:	4a2b      	ldr	r2, [pc, #172]	; (10004358 <_malloc_r+0x570>)
100042aa:	9b01      	ldr	r3, [sp, #4]
100042ac:	f47f ae5a 	bne.w	10003f64 <_malloc_r+0x17c>
100042b0:	469b      	mov	fp, r3
100042b2:	e65b      	b.n	10003f6c <_malloc_r+0x184>
100042b4:	2a54      	cmp	r2, #84	; 0x54
100042b6:	d815      	bhi.n	100042e4 <_malloc_r+0x4fc>
100042b8:	0b0a      	lsrs	r2, r1, #12
100042ba:	f102 076f 	add.w	r7, r2, #111	; 0x6f
100042be:	326e      	adds	r2, #110	; 0x6e
100042c0:	00ff      	lsls	r7, r7, #3
100042c2:	e751      	b.n	10004168 <_malloc_r+0x380>
100042c4:	f5b3 7faa 	cmp.w	r3, #340	; 0x154
100042c8:	d815      	bhi.n	100042f6 <_malloc_r+0x50e>
100042ca:	0be3      	lsrs	r3, r4, #15
100042cc:	f103 0078 	add.w	r0, r3, #120	; 0x78
100042d0:	f103 0777 	add.w	r7, r3, #119	; 0x77
100042d4:	00c3      	lsls	r3, r0, #3
100042d6:	e5ce      	b.n	10003e76 <_malloc_r+0x8e>
100042d8:	4657      	mov	r7, sl
100042da:	e66d      	b.n	10003fb8 <_malloc_r+0x1d0>
100042dc:	2301      	movs	r3, #1
100042de:	f8ca 3004 	str.w	r3, [sl, #4]
100042e2:	e67c      	b.n	10003fde <_malloc_r+0x1f6>
100042e4:	f5b2 7faa 	cmp.w	r2, #340	; 0x154
100042e8:	d821      	bhi.n	1000432e <_malloc_r+0x546>
100042ea:	0bca      	lsrs	r2, r1, #15
100042ec:	f102 0778 	add.w	r7, r2, #120	; 0x78
100042f0:	3277      	adds	r2, #119	; 0x77
100042f2:	00ff      	lsls	r7, r7, #3
100042f4:	e738      	b.n	10004168 <_malloc_r+0x380>
100042f6:	f240 5254 	movw	r2, #1364	; 0x554
100042fa:	4293      	cmp	r3, r2
100042fc:	d821      	bhi.n	10004342 <_malloc_r+0x55a>
100042fe:	0ca3      	lsrs	r3, r4, #18
10004300:	f103 007d 	add.w	r0, r3, #125	; 0x7d
10004304:	f103 077c 	add.w	r7, r3, #124	; 0x7c
10004308:	00c3      	lsls	r3, r0, #3
1000430a:	e5b4      	b.n	10003e76 <_malloc_r+0x8e>
1000430c:	f107 0108 	add.w	r1, r7, #8
10004310:	4628      	mov	r0, r5
10004312:	f000 f9a5 	bl	10004660 <_free_r>
10004316:	68b7      	ldr	r7, [r6, #8]
10004318:	4a0f      	ldr	r2, [pc, #60]	; (10004358 <_malloc_r+0x570>)
1000431a:	687b      	ldr	r3, [r7, #4]
1000431c:	6811      	ldr	r1, [r2, #0]
1000431e:	e64b      	b.n	10003fb8 <_malloc_r+0x1d0>
10004320:	3b08      	subs	r3, #8
10004322:	f04f 0b00 	mov.w	fp, #0
10004326:	4498      	add	r8, r3
10004328:	eba8 080a 	sub.w	r8, r8, sl
1000432c:	e61e      	b.n	10003f6c <_malloc_r+0x184>
1000432e:	f240 5754 	movw	r7, #1364	; 0x554
10004332:	42ba      	cmp	r2, r7
10004334:	d80a      	bhi.n	1000434c <_malloc_r+0x564>
10004336:	0c8a      	lsrs	r2, r1, #18
10004338:	f102 077d 	add.w	r7, r2, #125	; 0x7d
1000433c:	327c      	adds	r2, #124	; 0x7c
1000433e:	00ff      	lsls	r7, r7, #3
10004340:	e712      	b.n	10004168 <_malloc_r+0x380>
10004342:	f44f 737e 	mov.w	r3, #1016	; 0x3f8
10004346:	207f      	movs	r0, #127	; 0x7f
10004348:	277e      	movs	r7, #126	; 0x7e
1000434a:	e594      	b.n	10003e76 <_malloc_r+0x8e>
1000434c:	f44f 777e 	mov.w	r7, #1016	; 0x3f8
10004350:	227e      	movs	r2, #126	; 0x7e
10004352:	e709      	b.n	10004168 <_malloc_r+0x380>
10004354:	6873      	ldr	r3, [r6, #4]
10004356:	e774      	b.n	10004242 <_malloc_r+0x45a>
10004358:	20012608 	.word	0x20012608

1000435c <memcpy>:
1000435c:	4684      	mov	ip, r0
1000435e:	ea41 0300 	orr.w	r3, r1, r0
10004362:	f013 0303 	ands.w	r3, r3, #3
10004366:	d149      	bne.n	100043fc <memcpy+0xa0>
10004368:	3a40      	subs	r2, #64	; 0x40
1000436a:	d323      	bcc.n	100043b4 <memcpy+0x58>
1000436c:	680b      	ldr	r3, [r1, #0]
1000436e:	6003      	str	r3, [r0, #0]
10004370:	684b      	ldr	r3, [r1, #4]
10004372:	6043      	str	r3, [r0, #4]
10004374:	688b      	ldr	r3, [r1, #8]
10004376:	6083      	str	r3, [r0, #8]
10004378:	68cb      	ldr	r3, [r1, #12]
1000437a:	60c3      	str	r3, [r0, #12]
1000437c:	690b      	ldr	r3, [r1, #16]
1000437e:	6103      	str	r3, [r0, #16]
10004380:	694b      	ldr	r3, [r1, #20]
10004382:	6143      	str	r3, [r0, #20]
10004384:	698b      	ldr	r3, [r1, #24]
10004386:	6183      	str	r3, [r0, #24]
10004388:	69cb      	ldr	r3, [r1, #28]
1000438a:	61c3      	str	r3, [r0, #28]
1000438c:	6a0b      	ldr	r3, [r1, #32]
1000438e:	6203      	str	r3, [r0, #32]
10004390:	6a4b      	ldr	r3, [r1, #36]	; 0x24
10004392:	6243      	str	r3, [r0, #36]	; 0x24
10004394:	6a8b      	ldr	r3, [r1, #40]	; 0x28
10004396:	6283      	str	r3, [r0, #40]	; 0x28
10004398:	6acb      	ldr	r3, [r1, #44]	; 0x2c
1000439a:	62c3      	str	r3, [r0, #44]	; 0x2c
1000439c:	6b0b      	ldr	r3, [r1, #48]	; 0x30
1000439e:	6303      	str	r3, [r0, #48]	; 0x30
100043a0:	6b4b      	ldr	r3, [r1, #52]	; 0x34
100043a2:	6343      	str	r3, [r0, #52]	; 0x34
100043a4:	6b8b      	ldr	r3, [r1, #56]	; 0x38
100043a6:	6383      	str	r3, [r0, #56]	; 0x38
100043a8:	6bcb      	ldr	r3, [r1, #60]	; 0x3c
100043aa:	63c3      	str	r3, [r0, #60]	; 0x3c
100043ac:	3040      	adds	r0, #64	; 0x40
100043ae:	3140      	adds	r1, #64	; 0x40
100043b0:	3a40      	subs	r2, #64	; 0x40
100043b2:	d2db      	bcs.n	1000436c <memcpy+0x10>
100043b4:	3230      	adds	r2, #48	; 0x30
100043b6:	d30b      	bcc.n	100043d0 <memcpy+0x74>
100043b8:	680b      	ldr	r3, [r1, #0]
100043ba:	6003      	str	r3, [r0, #0]
100043bc:	684b      	ldr	r3, [r1, #4]
100043be:	6043      	str	r3, [r0, #4]
100043c0:	688b      	ldr	r3, [r1, #8]
100043c2:	6083      	str	r3, [r0, #8]
100043c4:	68cb      	ldr	r3, [r1, #12]
100043c6:	60c3      	str	r3, [r0, #12]
100043c8:	3010      	adds	r0, #16
100043ca:	3110      	adds	r1, #16
100043cc:	3a10      	subs	r2, #16
100043ce:	d2f3      	bcs.n	100043b8 <memcpy+0x5c>
100043d0:	320c      	adds	r2, #12
100043d2:	d305      	bcc.n	100043e0 <memcpy+0x84>
100043d4:	f851 3b04 	ldr.w	r3, [r1], #4
100043d8:	f840 3b04 	str.w	r3, [r0], #4
100043dc:	3a04      	subs	r2, #4
100043de:	d2f9      	bcs.n	100043d4 <memcpy+0x78>
100043e0:	3204      	adds	r2, #4
100043e2:	d008      	beq.n	100043f6 <memcpy+0x9a>
100043e4:	07d2      	lsls	r2, r2, #31
100043e6:	bf1c      	itt	ne
100043e8:	f811 3b01 	ldrbne.w	r3, [r1], #1
100043ec:	f800 3b01 	strbne.w	r3, [r0], #1
100043f0:	d301      	bcc.n	100043f6 <memcpy+0x9a>
100043f2:	880b      	ldrh	r3, [r1, #0]
100043f4:	8003      	strh	r3, [r0, #0]
100043f6:	4660      	mov	r0, ip
100043f8:	4770      	bx	lr
100043fa:	bf00      	nop
100043fc:	2a08      	cmp	r2, #8
100043fe:	d313      	bcc.n	10004428 <memcpy+0xcc>
10004400:	078b      	lsls	r3, r1, #30
10004402:	d0b1      	beq.n	10004368 <memcpy+0xc>
10004404:	f010 0303 	ands.w	r3, r0, #3
10004408:	d0ae      	beq.n	10004368 <memcpy+0xc>
1000440a:	f1c3 0304 	rsb	r3, r3, #4
1000440e:	1ad2      	subs	r2, r2, r3
10004410:	07db      	lsls	r3, r3, #31
10004412:	bf1c      	itt	ne
10004414:	f811 3b01 	ldrbne.w	r3, [r1], #1
10004418:	f800 3b01 	strbne.w	r3, [r0], #1
1000441c:	d3a4      	bcc.n	10004368 <memcpy+0xc>
1000441e:	f831 3b02 	ldrh.w	r3, [r1], #2
10004422:	f820 3b02 	strh.w	r3, [r0], #2
10004426:	e79f      	b.n	10004368 <memcpy+0xc>
10004428:	3a04      	subs	r2, #4
1000442a:	d3d9      	bcc.n	100043e0 <memcpy+0x84>
1000442c:	3a01      	subs	r2, #1
1000442e:	f811 3b01 	ldrb.w	r3, [r1], #1
10004432:	f800 3b01 	strb.w	r3, [r0], #1
10004436:	d2f9      	bcs.n	1000442c <memcpy+0xd0>
10004438:	780b      	ldrb	r3, [r1, #0]
1000443a:	7003      	strb	r3, [r0, #0]
1000443c:	784b      	ldrb	r3, [r1, #1]
1000443e:	7043      	strb	r3, [r0, #1]
10004440:	788b      	ldrb	r3, [r1, #2]
10004442:	7083      	strb	r3, [r0, #2]
10004444:	4660      	mov	r0, ip
10004446:	4770      	bx	lr

10004448 <memset>:
10004448:	b570      	push	{r4, r5, r6, lr}
1000444a:	0786      	lsls	r6, r0, #30
1000444c:	d048      	beq.n	100044e0 <memset+0x98>
1000444e:	1e54      	subs	r4, r2, #1
10004450:	2a00      	cmp	r2, #0
10004452:	d03f      	beq.n	100044d4 <memset+0x8c>
10004454:	b2ca      	uxtb	r2, r1
10004456:	4603      	mov	r3, r0
10004458:	e001      	b.n	1000445e <memset+0x16>
1000445a:	3c01      	subs	r4, #1
1000445c:	d33a      	bcc.n	100044d4 <memset+0x8c>
1000445e:	f803 2b01 	strb.w	r2, [r3], #1
10004462:	079d      	lsls	r5, r3, #30
10004464:	d1f9      	bne.n	1000445a <memset+0x12>
10004466:	2c03      	cmp	r4, #3
10004468:	d92d      	bls.n	100044c6 <memset+0x7e>
1000446a:	b2cd      	uxtb	r5, r1
1000446c:	2c0f      	cmp	r4, #15
1000446e:	ea45 2505 	orr.w	r5, r5, r5, lsl #8
10004472:	ea45 4505 	orr.w	r5, r5, r5, lsl #16
10004476:	d936      	bls.n	100044e6 <memset+0x9e>
10004478:	f1a4 0c10 	sub.w	ip, r4, #16
1000447c:	f103 0e20 	add.w	lr, r3, #32
10004480:	f103 0210 	add.w	r2, r3, #16
10004484:	f02c 060f 	bic.w	r6, ip, #15
10004488:	ea4f 1c1c 	mov.w	ip, ip, lsr #4
1000448c:	44b6      	add	lr, r6
1000448e:	e942 5504 	strd	r5, r5, [r2, #-16]
10004492:	e942 5502 	strd	r5, r5, [r2, #-8]
10004496:	3210      	adds	r2, #16
10004498:	4572      	cmp	r2, lr
1000449a:	d1f8      	bne.n	1000448e <memset+0x46>
1000449c:	f10c 0201 	add.w	r2, ip, #1
100044a0:	f014 0f0c 	tst.w	r4, #12
100044a4:	f004 0c0f 	and.w	ip, r4, #15
100044a8:	eb03 1202 	add.w	r2, r3, r2, lsl #4
100044ac:	d013      	beq.n	100044d6 <memset+0x8e>
100044ae:	f1ac 0304 	sub.w	r3, ip, #4
100044b2:	f023 0303 	bic.w	r3, r3, #3
100044b6:	3304      	adds	r3, #4
100044b8:	4413      	add	r3, r2
100044ba:	f842 5b04 	str.w	r5, [r2], #4
100044be:	4293      	cmp	r3, r2
100044c0:	d1fb      	bne.n	100044ba <memset+0x72>
100044c2:	f00c 0403 	and.w	r4, ip, #3
100044c6:	b12c      	cbz	r4, 100044d4 <memset+0x8c>
100044c8:	b2ca      	uxtb	r2, r1
100044ca:	441c      	add	r4, r3
100044cc:	f803 2b01 	strb.w	r2, [r3], #1
100044d0:	429c      	cmp	r4, r3
100044d2:	d1fb      	bne.n	100044cc <memset+0x84>
100044d4:	bd70      	pop	{r4, r5, r6, pc}
100044d6:	4664      	mov	r4, ip
100044d8:	4613      	mov	r3, r2
100044da:	2c00      	cmp	r4, #0
100044dc:	d1f4      	bne.n	100044c8 <memset+0x80>
100044de:	e7f9      	b.n	100044d4 <memset+0x8c>
100044e0:	4603      	mov	r3, r0
100044e2:	4614      	mov	r4, r2
100044e4:	e7bf      	b.n	10004466 <memset+0x1e>
100044e6:	461a      	mov	r2, r3
100044e8:	46a4      	mov	ip, r4
100044ea:	e7e0      	b.n	100044ae <memset+0x66>

100044ec <__malloc_lock>:
100044ec:	4801      	ldr	r0, [pc, #4]	; (100044f4 <__malloc_lock+0x8>)
100044ee:	f000 b9bd 	b.w	1000486c <__retarget_lock_acquire_recursive>
100044f2:	bf00      	nop
100044f4:	20012604 	.word	0x20012604

100044f8 <__malloc_unlock>:
100044f8:	4801      	ldr	r0, [pc, #4]	; (10004500 <__malloc_unlock+0x8>)
100044fa:	f000 b9b9 	b.w	10004870 <__retarget_lock_release_recursive>
100044fe:	bf00      	nop
10004500:	20012604 	.word	0x20012604

10004504 <rand>:
10004504:	490b      	ldr	r1, [pc, #44]	; (10004534 <rand+0x30>)
10004506:	4a0c      	ldr	r2, [pc, #48]	; (10004538 <rand+0x34>)
10004508:	4b0c      	ldr	r3, [pc, #48]	; (1000453c <rand+0x38>)
1000450a:	b410      	push	{r4}
1000450c:	680c      	ldr	r4, [r1, #0]
1000450e:	e9d4 012a 	ldrd	r0, r1, [r4, #168]	; 0xa8
10004512:	fb00 f202 	mul.w	r2, r0, r2
10004516:	fb03 2201 	mla	r2, r3, r1, r2
1000451a:	fba0 0103 	umull	r0, r1, r0, r3
1000451e:	1c43      	adds	r3, r0, #1
10004520:	eb42 0001 	adc.w	r0, r2, r1
10004524:	e9c4 302a 	strd	r3, r0, [r4, #168]	; 0xa8
10004528:	f020 4000 	bic.w	r0, r0, #2147483648	; 0x80000000
1000452c:	f85d 4b04 	ldr.w	r4, [sp], #4
10004530:	4770      	bx	lr
10004532:	bf00      	nop
10004534:	20011c18 	.word	0x20011c18
10004538:	5851f42d 	.word	0x5851f42d
1000453c:	4c957f2d 	.word	0x4c957f2d

10004540 <_sbrk_r>:
10004540:	b538      	push	{r3, r4, r5, lr}
10004542:	2200      	movs	r2, #0
10004544:	4d06      	ldr	r5, [pc, #24]	; (10004560 <_sbrk_r+0x20>)
10004546:	4604      	mov	r4, r0
10004548:	4608      	mov	r0, r1
1000454a:	602a      	str	r2, [r5, #0]
1000454c:	f7fe fc9c 	bl	10002e88 <_sbrk>
10004550:	1c43      	adds	r3, r0, #1
10004552:	d000      	beq.n	10004556 <_sbrk_r+0x16>
10004554:	bd38      	pop	{r3, r4, r5, pc}
10004556:	682b      	ldr	r3, [r5, #0]
10004558:	2b00      	cmp	r3, #0
1000455a:	d0fb      	beq.n	10004554 <_sbrk_r+0x14>
1000455c:	6023      	str	r3, [r4, #0]
1000455e:	bd38      	pop	{r3, r4, r5, pc}
10004560:	200128ec 	.word	0x200128ec

10004564 <strlen>:
10004564:	f020 0103 	bic.w	r1, r0, #3
10004568:	f010 0003 	ands.w	r0, r0, #3
1000456c:	f1c0 0000 	rsb	r0, r0, #0
10004570:	f851 3b04 	ldr.w	r3, [r1], #4
10004574:	f100 0c04 	add.w	ip, r0, #4
10004578:	ea4f 0ccc 	mov.w	ip, ip, lsl #3
1000457c:	f06f 0200 	mvn.w	r2, #0
10004580:	bf1c      	itt	ne
10004582:	fa22 f20c 	lsrne.w	r2, r2, ip
10004586:	4313      	orrne	r3, r2
10004588:	f04f 0c01 	mov.w	ip, #1
1000458c:	ea4c 2c0c 	orr.w	ip, ip, ip, lsl #8
10004590:	ea4c 4c0c 	orr.w	ip, ip, ip, lsl #16
10004594:	eba3 020c 	sub.w	r2, r3, ip
10004598:	ea22 0203 	bic.w	r2, r2, r3
1000459c:	ea12 12cc 	ands.w	r2, r2, ip, lsl #7
100045a0:	bf04      	itt	eq
100045a2:	f851 3b04 	ldreq.w	r3, [r1], #4
100045a6:	3004      	addeq	r0, #4
100045a8:	d0f4      	beq.n	10004594 <strlen+0x30>
100045aa:	f1c2 0100 	rsb	r1, r2, #0
100045ae:	ea02 0201 	and.w	r2, r2, r1
100045b2:	fab2 f282 	clz	r2, r2
100045b6:	f1c2 021f 	rsb	r2, r2, #31
100045ba:	eb00 00d2 	add.w	r0, r0, r2, lsr #3
100045be:	4770      	bx	lr

100045c0 <_malloc_trim_r>:
100045c0:	b5f8      	push	{r3, r4, r5, r6, r7, lr}
100045c2:	4f23      	ldr	r7, [pc, #140]	; (10004650 <_malloc_trim_r+0x90>)
100045c4:	460c      	mov	r4, r1
100045c6:	4606      	mov	r6, r0
100045c8:	f7ff ff90 	bl	100044ec <__malloc_lock>
100045cc:	68ba      	ldr	r2, [r7, #8]
100045ce:	f640 73ef 	movw	r3, #4079	; 0xfef
100045d2:	6855      	ldr	r5, [r2, #4]
100045d4:	1b1b      	subs	r3, r3, r4
100045d6:	4c1f      	ldr	r4, [pc, #124]	; (10004654 <_malloc_trim_r+0x94>)
100045d8:	f025 0503 	bic.w	r5, r5, #3
100045dc:	442b      	add	r3, r5
100045de:	401c      	ands	r4, r3
100045e0:	f5a4 5480 	sub.w	r4, r4, #4096	; 0x1000
100045e4:	f5b4 5f80 	cmp.w	r4, #4096	; 0x1000
100045e8:	db07      	blt.n	100045fa <_malloc_trim_r+0x3a>
100045ea:	2100      	movs	r1, #0
100045ec:	4630      	mov	r0, r6
100045ee:	f7ff ffa7 	bl	10004540 <_sbrk_r>
100045f2:	68bb      	ldr	r3, [r7, #8]
100045f4:	442b      	add	r3, r5
100045f6:	4298      	cmp	r0, r3
100045f8:	d004      	beq.n	10004604 <_malloc_trim_r+0x44>
100045fa:	4630      	mov	r0, r6
100045fc:	f7ff ff7c 	bl	100044f8 <__malloc_unlock>
10004600:	2000      	movs	r0, #0
10004602:	bdf8      	pop	{r3, r4, r5, r6, r7, pc}
10004604:	4261      	negs	r1, r4
10004606:	4630      	mov	r0, r6
10004608:	f7ff ff9a 	bl	10004540 <_sbrk_r>
1000460c:	3001      	adds	r0, #1
1000460e:	d00d      	beq.n	1000462c <_malloc_trim_r+0x6c>
10004610:	1b2d      	subs	r5, r5, r4
10004612:	4b11      	ldr	r3, [pc, #68]	; (10004658 <_malloc_trim_r+0x98>)
10004614:	68ba      	ldr	r2, [r7, #8]
10004616:	4630      	mov	r0, r6
10004618:	f045 0501 	orr.w	r5, r5, #1
1000461c:	6055      	str	r5, [r2, #4]
1000461e:	681a      	ldr	r2, [r3, #0]
10004620:	1b12      	subs	r2, r2, r4
10004622:	601a      	str	r2, [r3, #0]
10004624:	f7ff ff68 	bl	100044f8 <__malloc_unlock>
10004628:	2001      	movs	r0, #1
1000462a:	bdf8      	pop	{r3, r4, r5, r6, r7, pc}
1000462c:	2100      	movs	r1, #0
1000462e:	4630      	mov	r0, r6
10004630:	f7ff ff86 	bl	10004540 <_sbrk_r>
10004634:	68ba      	ldr	r2, [r7, #8]
10004636:	1a83      	subs	r3, r0, r2
10004638:	2b0f      	cmp	r3, #15
1000463a:	ddde      	ble.n	100045fa <_malloc_trim_r+0x3a>
1000463c:	f043 0301 	orr.w	r3, r3, #1
10004640:	4905      	ldr	r1, [pc, #20]	; (10004658 <_malloc_trim_r+0x98>)
10004642:	6053      	str	r3, [r2, #4]
10004644:	4b05      	ldr	r3, [pc, #20]	; (1000465c <_malloc_trim_r+0x9c>)
10004646:	681b      	ldr	r3, [r3, #0]
10004648:	1ac0      	subs	r0, r0, r3
1000464a:	6008      	str	r0, [r1, #0]
1000464c:	e7d5      	b.n	100045fa <_malloc_trim_r+0x3a>
1000464e:	bf00      	nop
10004650:	20012048 	.word	0x20012048
10004654:	fffff000 	.word	0xfffff000
10004658:	20012608 	.word	0x20012608
1000465c:	20012450 	.word	0x20012450

10004660 <_free_r>:
10004660:	2900      	cmp	r1, #0
10004662:	d061      	beq.n	10004728 <_free_r+0xc8>
10004664:	b5f8      	push	{r3, r4, r5, r6, r7, lr}
10004666:	460c      	mov	r4, r1
10004668:	4606      	mov	r6, r0
1000466a:	f7ff ff3f 	bl	100044ec <__malloc_lock>
1000466e:	4f7c      	ldr	r7, [pc, #496]	; (10004860 <_free_r+0x200>)
10004670:	f854 2c04 	ldr.w	r2, [r4, #-4]
10004674:	f1a4 0508 	sub.w	r5, r4, #8
10004678:	68b8      	ldr	r0, [r7, #8]
1000467a:	f022 0101 	bic.w	r1, r2, #1
1000467e:	eb05 0c01 	add.w	ip, r5, r1
10004682:	f8dc 3004 	ldr.w	r3, [ip, #4]
10004686:	4560      	cmp	r0, ip
10004688:	f023 0303 	bic.w	r3, r3, #3
1000468c:	f000 808b 	beq.w	100047a6 <_free_r+0x146>
10004690:	07d2      	lsls	r2, r2, #31
10004692:	f8cc 3004 	str.w	r3, [ip, #4]
10004696:	d432      	bmi.n	100046fe <_free_r+0x9e>
10004698:	f854 2c08 	ldr.w	r2, [r4, #-8]
1000469c:	f107 0008 	add.w	r0, r7, #8
100046a0:	1aad      	subs	r5, r5, r2
100046a2:	4411      	add	r1, r2
100046a4:	68aa      	ldr	r2, [r5, #8]
100046a6:	4282      	cmp	r2, r0
100046a8:	d06a      	beq.n	10004780 <_free_r+0x120>
100046aa:	eb0c 0403 	add.w	r4, ip, r3
100046ae:	f8d4 e004 	ldr.w	lr, [r4, #4]
100046b2:	68ec      	ldr	r4, [r5, #12]
100046b4:	f01e 0f01 	tst.w	lr, #1
100046b8:	60d4      	str	r4, [r2, #12]
100046ba:	60a2      	str	r2, [r4, #8]
100046bc:	f000 8097 	beq.w	100047ee <_free_r+0x18e>
100046c0:	f041 0301 	orr.w	r3, r1, #1
100046c4:	606b      	str	r3, [r5, #4]
100046c6:	f8cc 1000 	str.w	r1, [ip]
100046ca:	f5b1 7f00 	cmp.w	r1, #512	; 0x200
100046ce:	d235      	bcs.n	1000473c <_free_r+0xdc>
100046d0:	094a      	lsrs	r2, r1, #5
100046d2:	08cb      	lsrs	r3, r1, #3
100046d4:	2101      	movs	r1, #1
100046d6:	3301      	adds	r3, #1
100046d8:	4091      	lsls	r1, r2
100046da:	687a      	ldr	r2, [r7, #4]
100046dc:	4311      	orrs	r1, r2
100046de:	eb07 02c3 	add.w	r2, r7, r3, lsl #3
100046e2:	6079      	str	r1, [r7, #4]
100046e4:	3a08      	subs	r2, #8
100046e6:	f857 1033 	ldr.w	r1, [r7, r3, lsl #3]
100046ea:	e9c5 1202 	strd	r1, r2, [r5, #8]
100046ee:	f847 5033 	str.w	r5, [r7, r3, lsl #3]
100046f2:	60cd      	str	r5, [r1, #12]
100046f4:	4630      	mov	r0, r6
100046f6:	e8bd 40f8 	ldmia.w	sp!, {r3, r4, r5, r6, r7, lr}
100046fa:	f7ff befd 	b.w	100044f8 <__malloc_unlock>
100046fe:	eb0c 0203 	add.w	r2, ip, r3
10004702:	6852      	ldr	r2, [r2, #4]
10004704:	07d0      	lsls	r0, r2, #31
10004706:	d410      	bmi.n	1000472a <_free_r+0xca>
10004708:	4419      	add	r1, r3
1000470a:	f107 0008 	add.w	r0, r7, #8
1000470e:	f8dc 3008 	ldr.w	r3, [ip, #8]
10004712:	4283      	cmp	r3, r0
10004714:	d073      	beq.n	100047fe <_free_r+0x19e>
10004716:	f8dc 200c 	ldr.w	r2, [ip, #12]
1000471a:	60da      	str	r2, [r3, #12]
1000471c:	6093      	str	r3, [r2, #8]
1000471e:	f041 0301 	orr.w	r3, r1, #1
10004722:	606b      	str	r3, [r5, #4]
10004724:	5069      	str	r1, [r5, r1]
10004726:	e7d0      	b.n	100046ca <_free_r+0x6a>
10004728:	4770      	bx	lr
1000472a:	f041 0301 	orr.w	r3, r1, #1
1000472e:	f5b1 7f00 	cmp.w	r1, #512	; 0x200
10004732:	f844 3c04 	str.w	r3, [r4, #-4]
10004736:	f8cc 1000 	str.w	r1, [ip]
1000473a:	d3c9      	bcc.n	100046d0 <_free_r+0x70>
1000473c:	f5b1 6f20 	cmp.w	r1, #2560	; 0xa00
10004740:	ea4f 2351 	mov.w	r3, r1, lsr #9
10004744:	d248      	bcs.n	100047d8 <_free_r+0x178>
10004746:	098b      	lsrs	r3, r1, #6
10004748:	f103 0039 	add.w	r0, r3, #57	; 0x39
1000474c:	f103 0238 	add.w	r2, r3, #56	; 0x38
10004750:	00c3      	lsls	r3, r0, #3
10004752:	18f8      	adds	r0, r7, r3
10004754:	58fb      	ldr	r3, [r7, r3]
10004756:	3808      	subs	r0, #8
10004758:	4298      	cmp	r0, r3
1000475a:	d059      	beq.n	10004810 <_free_r+0x1b0>
1000475c:	685a      	ldr	r2, [r3, #4]
1000475e:	f022 0203 	bic.w	r2, r2, #3
10004762:	428a      	cmp	r2, r1
10004764:	d902      	bls.n	1000476c <_free_r+0x10c>
10004766:	689b      	ldr	r3, [r3, #8]
10004768:	4298      	cmp	r0, r3
1000476a:	d1f7      	bne.n	1000475c <_free_r+0xfc>
1000476c:	68d8      	ldr	r0, [r3, #12]
1000476e:	e9c5 3002 	strd	r3, r0, [r5, #8]
10004772:	6085      	str	r5, [r0, #8]
10004774:	4630      	mov	r0, r6
10004776:	60dd      	str	r5, [r3, #12]
10004778:	e8bd 40f8 	ldmia.w	sp!, {r3, r4, r5, r6, r7, lr}
1000477c:	f7ff bebc 	b.w	100044f8 <__malloc_unlock>
10004780:	eb0c 0203 	add.w	r2, ip, r3
10004784:	6852      	ldr	r2, [r2, #4]
10004786:	07d2      	lsls	r2, r2, #31
10004788:	d463      	bmi.n	10004852 <_free_r+0x1f2>
1000478a:	440b      	add	r3, r1
1000478c:	4630      	mov	r0, r6
1000478e:	e9dc 1202 	ldrd	r1, r2, [ip, #8]
10004792:	60ca      	str	r2, [r1, #12]
10004794:	6091      	str	r1, [r2, #8]
10004796:	f043 0201 	orr.w	r2, r3, #1
1000479a:	606a      	str	r2, [r5, #4]
1000479c:	50eb      	str	r3, [r5, r3]
1000479e:	e8bd 40f8 	ldmia.w	sp!, {r3, r4, r5, r6, r7, lr}
100047a2:	f7ff bea9 	b.w	100044f8 <__malloc_unlock>
100047a6:	440b      	add	r3, r1
100047a8:	07d1      	lsls	r1, r2, #31
100047aa:	d407      	bmi.n	100047bc <_free_r+0x15c>
100047ac:	f854 2c08 	ldr.w	r2, [r4, #-8]
100047b0:	1aad      	subs	r5, r5, r2
100047b2:	4413      	add	r3, r2
100047b4:	e9d5 1202 	ldrd	r1, r2, [r5, #8]
100047b8:	60ca      	str	r2, [r1, #12]
100047ba:	6091      	str	r1, [r2, #8]
100047bc:	f043 0201 	orr.w	r2, r3, #1
100047c0:	606a      	str	r2, [r5, #4]
100047c2:	4a28      	ldr	r2, [pc, #160]	; (10004864 <_free_r+0x204>)
100047c4:	60bd      	str	r5, [r7, #8]
100047c6:	6812      	ldr	r2, [r2, #0]
100047c8:	429a      	cmp	r2, r3
100047ca:	d893      	bhi.n	100046f4 <_free_r+0x94>
100047cc:	4b26      	ldr	r3, [pc, #152]	; (10004868 <_free_r+0x208>)
100047ce:	4630      	mov	r0, r6
100047d0:	6819      	ldr	r1, [r3, #0]
100047d2:	f7ff fef5 	bl	100045c0 <_malloc_trim_r>
100047d6:	e78d      	b.n	100046f4 <_free_r+0x94>
100047d8:	2b14      	cmp	r3, #20
100047da:	d90a      	bls.n	100047f2 <_free_r+0x192>
100047dc:	2b54      	cmp	r3, #84	; 0x54
100047de:	d81f      	bhi.n	10004820 <_free_r+0x1c0>
100047e0:	0b0b      	lsrs	r3, r1, #12
100047e2:	f103 006f 	add.w	r0, r3, #111	; 0x6f
100047e6:	f103 026e 	add.w	r2, r3, #110	; 0x6e
100047ea:	00c3      	lsls	r3, r0, #3
100047ec:	e7b1      	b.n	10004752 <_free_r+0xf2>
100047ee:	4419      	add	r1, r3
100047f0:	e78d      	b.n	1000470e <_free_r+0xae>
100047f2:	f103 005c 	add.w	r0, r3, #92	; 0x5c
100047f6:	f103 025b 	add.w	r2, r3, #91	; 0x5b
100047fa:	00c3      	lsls	r3, r0, #3
100047fc:	e7a9      	b.n	10004752 <_free_r+0xf2>
100047fe:	f041 0301 	orr.w	r3, r1, #1
10004802:	e9c7 5504 	strd	r5, r5, [r7, #16]
10004806:	e9c5 0002 	strd	r0, r0, [r5, #8]
1000480a:	606b      	str	r3, [r5, #4]
1000480c:	5069      	str	r1, [r5, r1]
1000480e:	e771      	b.n	100046f4 <_free_r+0x94>
10004810:	2101      	movs	r1, #1
10004812:	1092      	asrs	r2, r2, #2
10004814:	fa01 f202 	lsl.w	r2, r1, r2
10004818:	6879      	ldr	r1, [r7, #4]
1000481a:	430a      	orrs	r2, r1
1000481c:	607a      	str	r2, [r7, #4]
1000481e:	e7a6      	b.n	1000476e <_free_r+0x10e>
10004820:	f5b3 7faa 	cmp.w	r3, #340	; 0x154
10004824:	d806      	bhi.n	10004834 <_free_r+0x1d4>
10004826:	0bcb      	lsrs	r3, r1, #15
10004828:	f103 0078 	add.w	r0, r3, #120	; 0x78
1000482c:	f103 0277 	add.w	r2, r3, #119	; 0x77
10004830:	00c3      	lsls	r3, r0, #3
10004832:	e78e      	b.n	10004752 <_free_r+0xf2>
10004834:	f240 5254 	movw	r2, #1364	; 0x554
10004838:	4293      	cmp	r3, r2
1000483a:	d806      	bhi.n	1000484a <_free_r+0x1ea>
1000483c:	0c8b      	lsrs	r3, r1, #18
1000483e:	f103 007d 	add.w	r0, r3, #125	; 0x7d
10004842:	f103 027c 	add.w	r2, r3, #124	; 0x7c
10004846:	00c3      	lsls	r3, r0, #3
10004848:	e783      	b.n	10004752 <_free_r+0xf2>
1000484a:	f44f 737e 	mov.w	r3, #1016	; 0x3f8
1000484e:	227e      	movs	r2, #126	; 0x7e
10004850:	e77f      	b.n	10004752 <_free_r+0xf2>
10004852:	f041 0301 	orr.w	r3, r1, #1
10004856:	606b      	str	r3, [r5, #4]
10004858:	f8cc 1000 	str.w	r1, [ip]
1000485c:	e74a      	b.n	100046f4 <_free_r+0x94>
1000485e:	bf00      	nop
10004860:	20012048 	.word	0x20012048
10004864:	20012454 	.word	0x20012454
10004868:	20012638 	.word	0x20012638

1000486c <__retarget_lock_acquire_recursive>:
1000486c:	4770      	bx	lr
1000486e:	bf00      	nop

10004870 <__retarget_lock_release_recursive>:
10004870:	4770      	bx	lr
10004872:	bf00      	nop

10004874 <_fini>:
10004874:	b5f8      	push	{r3, r4, r5, r6, r7, lr}
10004876:	bf00      	nop

10004878 <__sem_release_veneer>:
10004878:	b401      	push	{r0}
1000487a:	4802      	ldr	r0, [pc, #8]	; (10004884 <__sem_release_veneer+0xc>)
1000487c:	4684      	mov	ip, r0
1000487e:	bc01      	pop	{r0}
10004880:	4760      	bx	ip
10004882:	bf00      	nop
10004884:	200003cd 	.word	0x200003cd

10004888 <____aeabi_uldivmod_veneer>:
10004888:	b401      	push	{r0}
1000488a:	4802      	ldr	r0, [pc, #8]	; (10004894 <____aeabi_uldivmod_veneer+0xc>)
1000488c:	4684      	mov	ip, r0
1000488e:	bc01      	pop	{r0}
10004890:	4760      	bx	ip
10004892:	bf00      	nop
10004894:	2000140d 	.word	0x2000140d

10004898 <__mutex_exit_veneer>:
10004898:	b401      	push	{r0}
1000489a:	4802      	ldr	r0, [pc, #8]	; (100048a4 <__mutex_exit_veneer+0xc>)
1000489c:	4684      	mov	ip, r0
1000489e:	bc01      	pop	{r0}
100048a0:	4760      	bx	ip
100048a2:	bf00      	nop
100048a4:	20000585 	.word	0x20000585

100048a8 <__sem_acquire_blocking_veneer>:
100048a8:	b401      	push	{r0}
100048aa:	4802      	ldr	r0, [pc, #8]	; (100048b4 <__sem_acquire_blocking_veneer+0xc>)
100048ac:	4684      	mov	ip, r0
100048ae:	bc01      	pop	{r0}
100048b0:	4760      	bx	ip
100048b2:	bf00      	nop
100048b4:	20000381 	.word	0x20000381

100048b8 <__mutex_try_enter_block_until_veneer>:
100048b8:	b401      	push	{r0}
100048ba:	4802      	ldr	r0, [pc, #8]	; (100048c4 <__mutex_try_enter_block_until_veneer+0xc>)
100048bc:	4684      	mov	ip, r0
100048be:	bc01      	pop	{r0}
100048c0:	4760      	bx	ip
100048c2:	bf00      	nop
100048c4:	20000551 	.word	0x20000551

100048c8 <__render_loop_veneer>:
100048c8:	b401      	push	{r0}
100048ca:	4802      	ldr	r0, [pc, #8]	; (100048d4 <__render_loop_veneer+0xc>)
100048cc:	4684      	mov	ip, r0
100048ce:	bc01      	pop	{r0}
100048d0:	4760      	bx	ip
100048d2:	bf00      	nop
100048d4:	2000032d 	.word	0x2000032d

100048d8 <__mutex_enter_blocking_veneer>:
100048d8:	b401      	push	{r0}
100048da:	4802      	ldr	r0, [pc, #8]	; (100048e4 <__mutex_enter_blocking_veneer+0xc>)
100048dc:	4684      	mov	ip, r0
100048de:	bc01      	pop	{r0}
100048e0:	4760      	bx	ip
100048e2:	bf00      	nop
100048e4:	2000041f 	.word	0x2000041f

100048e8 <__pre_init_runtime_init_bootrom_reset>:
100048e8:	10001879                                y...

100048ec <__pre_init_runtime_init_early_resets>:
100048ec:	100017f1                                ....

100048f0 <__pre_init_runtime_init_usb_power_down>:
100048f0:	1000181d                                ....

100048f4 <__pre_init_runtime_init_clocks>:
100048f4:	10001915                                ....

100048f8 <__pre_init_runtime_init_post_clock_resets>:
100048f8:	10001859                                Y...

100048fc <__pre_init_runtime_init_boot_locks_reset>:
100048fc:	10001785                                ....

10004900 <__pre_init_runtime_init_spin_locks_reset>:
10004900:	1000189d                                ....

10004904 <__pre_init_runtime_init_bootrom_locking_enable>:
10004904:	10001751                                Q...

10004908 <__pre_init_runtime_init_mutex>:
10004908:	10000575                                u...

1000490c <__pre_init_runtime_init_install_ram_vector_table>:
1000490c:	100018a5                                ....

10004910 <__pre_init_runtime_init_default_alarm_pool>:
10004910:	10000c65                                e...

10004914 <__pre_init_first_per_core_initializer>:
10004914:	100017cd                                ....

10004918 <__pre_init_runtime_init_per_core_bootrom_reset>:
10004918:	1000188b                                ....

1000491c <__pre_init_runtime_init_per_core_enable_coprocessors>:
1000491c:	1000183d                                =...

10004920 <__pre_init_spinlock_set_extexclall>:
10004920:	10000ded                                ....

10004924 <__pre_init_runtime_init_per_core_irq_priorities>:
10004924:	10000e75                                u...

10004928 <__frame_dummy_init_array_entry>:
10004928:	1000020d                                ....

Disassembly of section .data:

20000110 <render_scanline>:
20000110:	e92d 43f8 	stmdb	sp!, {r3, r4, r5, r6, r7, r8, r9, lr}
20000114:	8807      	ldrh	r7, [r0, #0]
20000116:	4b35      	ldr	r3, [pc, #212]	; (200001ec <render_scanline+0xdc>)
20000118:	891d      	ldrh	r5, [r3, #8]
2000011a:	2d02      	cmp	r5, #2
2000011c:	d92d      	bls.n	2000017a <render_scanline+0x6a>
2000011e:	4680      	mov	r8, r0
20000120:	4689      	mov	r9, r1
20000122:	f015 0f01 	tst.w	r5, #1
20000126:	d12e      	bne.n	20000186 <render_scanline+0x76>
20000128:	1eab      	subs	r3, r5, #2
2000012a:	041b      	lsls	r3, r3, #16
2000012c:	6842      	ldr	r2, [r0, #4]
2000012e:	f043 0307 	orr.w	r3, r3, #7
20000132:	6013      	str	r3, [r2, #0]
20000134:	6842      	ldr	r2, [r0, #4]
20000136:	086b      	lsrs	r3, r5, #1
20000138:	1c99      	adds	r1, r3, #2
2000013a:	f44f 3080 	mov.w	r0, #65536	; 0x10000
2000013e:	f842 0021 	str.w	r0, [r2, r1, lsl #2]
20000142:	f8a8 1008 	strh.w	r1, [r8, #8]
20000146:	f8b8 200a 	ldrh.w	r2, [r8, #10]
2000014a:	4291      	cmp	r1, r2
2000014c:	d821      	bhi.n	20000192 <render_scanline+0x82>
2000014e:	f8d8 6004 	ldr.w	r6, [r8, #4]
20000152:	3604      	adds	r6, #4
20000154:	f109 0301 	add.w	r3, r9, #1
20000158:	04db      	lsls	r3, r3, #19
2000015a:	ee40 3010 	gpioc_lo_out_set r3
2000015e:	f44f 1400 	mov.w	r4, #2097152	; 0x200000
20000162:	ee40 4010 	gpioc_lo_out_set r4
20000166:	462a      	mov	r2, r5
20000168:	f64f 6108 	movw	r1, #65032	; 0xfe08
2000016c:	4630      	mov	r0, r6
2000016e:	f001 f823 	bl	200011b8 <sprite_fill16>
20000172:	ee60 4010 	gpioc_lo_out_clr r4
20000176:	2400      	movs	r4, #0
20000178:	e01c      	b.n	200001b4 <render_scanline+0xa4>
2000017a:	4b1d      	ldr	r3, [pc, #116]	; (200001f0 <render_scanline+0xe0>)
2000017c:	4a1d      	ldr	r2, [pc, #116]	; (200001f4 <render_scanline+0xe4>)
2000017e:	2165      	movs	r1, #101	; 0x65
20000180:	481d      	ldr	r0, [pc, #116]	; (200001f8 <render_scanline+0xe8>)
20000182:	f001 fae5 	bl	20001750 <____assert_func_veneer>
20000186:	4b1d      	ldr	r3, [pc, #116]	; (200001fc <render_scanline+0xec>)
20000188:	4a1a      	ldr	r2, [pc, #104]	; (200001f4 <render_scanline+0xe4>)
2000018a:	2166      	movs	r1, #102	; 0x66
2000018c:	481a      	ldr	r0, [pc, #104]	; (200001f8 <render_scanline+0xe8>)
2000018e:	f001 fadf 	bl	20001750 <____assert_func_veneer>
20000192:	4b1b      	ldr	r3, [pc, #108]	; (20000200 <render_scanline+0xf0>)
20000194:	4a17      	ldr	r2, [pc, #92]	; (200001f4 <render_scanline+0xe4>)
20000196:	216c      	movs	r1, #108	; 0x6c
20000198:	4817      	ldr	r0, [pc, #92]	; (200001f8 <render_scanline+0xe8>)
2000019a:	f001 fad9 	bl	20001750 <____assert_func_veneer>
2000019e:	eb04 0c44 	add.w	ip, r4, r4, lsl #1
200001a2:	462b      	mov	r3, r5
200001a4:	463a      	mov	r2, r7
200001a6:	4917      	ldr	r1, [pc, #92]	; (20000204 <render_scanline+0xf4>)
200001a8:	eb01 018c 	add.w	r1, r1, ip, lsl #2
200001ac:	4630      	mov	r0, r6
200001ae:	f001 f895 	bl	200012dc <sprite_sprite16>
200001b2:	3401      	adds	r4, #1
200001b4:	2c2c      	cmp	r4, #44	; 0x2c
200001b6:	ddf2      	ble.n	2000019e <render_scanline+0x8e>
200001b8:	f109 0901 	add.w	r9, r9, #1
200001bc:	ea4f 49c9 	mov.w	r9, r9, lsl #19
200001c0:	ee60 9010 	gpioc_lo_out_clr r9
200001c4:	f8d8 2004 	ldr.w	r2, [r8, #4]
200001c8:	6810      	ldr	r0, [r2, #0]
200001ca:	6853      	ldr	r3, [r2, #4]
200001cc:	b281      	uxth	r1, r0
200001ce:	ea41 4103 	orr.w	r1, r1, r3, lsl #16
200001d2:	6011      	str	r1, [r2, #0]
200001d4:	0c1b      	lsrs	r3, r3, #16
200001d6:	041b      	lsls	r3, r3, #16
200001d8:	f8d8 2004 	ldr.w	r2, [r8, #4]
200001dc:	ea43 4310 	orr.w	r3, r3, r0, lsr #16
200001e0:	6053      	str	r3, [r2, #4]
200001e2:	2301      	movs	r3, #1
200001e4:	f888 3010 	strb.w	r3, [r8, #16]
200001e8:	e8bd 83f8 	ldmia.w	sp!, {r3, r4, r5, r6, r7, r8, r9, pc}
200001ec:	1000556c 	.word	0x1000556c
200001f0:	10004930 	.word	0x10004930
200001f4:	10004a48 	.word	0x10004a48
200001f8:	1000493c 	.word	0x1000493c
200001fc:	10004978 	.word	0x10004978
20000200:	10004988 	.word	0x10004988
20000204:	20012684 	.word	0x20012684

20000208 <frame_update_logic>:
20000208:	b538      	push	{r3, r4, r5, lr}
2000020a:	2400      	movs	r4, #0
2000020c:	e042      	b.n	20000294 <frame_update_logic+0x8c>
2000020e:	4b3d      	ldr	r3, [pc, #244]	; (20000304 <frame_update_logic+0xfc>)
20000210:	eb04 0244 	add.w	r2, r4, r4, lsl #1
20000214:	eb03 0582 	add.w	r5, r3, r2, lsl #2
20000218:	f823 1022 	strh.w	r1, [r3, r2, lsl #2]
2000021c:	8068      	strh	r0, [r5, #2]
2000021e:	f001 faa7 	bl	20001770 <__rand_veneer>
20000222:	4a39      	ldr	r2, [pc, #228]	; (20000308 <frame_update_logic+0x100>)
20000224:	fb82 3200 	smull	r3, r2, r2, r0
20000228:	17c3      	asrs	r3, r0, #31
2000022a:	ebc3 0362 	rsb	r3, r3, r2, asr #1
2000022e:	eb03 0383 	add.w	r3, r3, r3, lsl #2
20000232:	1ac3      	subs	r3, r0, r3
20000234:	1c5d      	adds	r5, r3, #1
20000236:	f001 fa9b 	bl	20001770 <__rand_veneer>
2000023a:	f410 4f00 	tst.w	r0, #32768	; 0x8000
2000023e:	d058      	beq.n	200002f2 <frame_update_logic+0xea>
20000240:	2301      	movs	r3, #1
20000242:	fb05 f303 	mul.w	r3, r5, r3
20000246:	4a31      	ldr	r2, [pc, #196]	; (2000030c <frame_update_logic+0x104>)
20000248:	f842 3024 	str.w	r3, [r2, r4, lsl #2]
2000024c:	f001 fa90 	bl	20001770 <__rand_veneer>
20000250:	4a2d      	ldr	r2, [pc, #180]	; (20000308 <frame_update_logic+0x100>)
20000252:	fb82 3200 	smull	r3, r2, r2, r0
20000256:	17c3      	asrs	r3, r0, #31
20000258:	ebc3 0362 	rsb	r3, r3, r2, asr #1
2000025c:	eb03 0383 	add.w	r3, r3, r3, lsl #2
20000260:	1ac3      	subs	r3, r0, r3
20000262:	1c5d      	adds	r5, r3, #1
20000264:	f001 fa84 	bl	20001770 <__rand_veneer>
20000268:	f410 4f00 	tst.w	r0, #32768	; 0x8000
2000026c:	d044      	beq.n	200002f8 <frame_update_logic+0xf0>
2000026e:	2301      	movs	r3, #1
20000270:	fb05 f303 	mul.w	r3, r5, r3
20000274:	4a26      	ldr	r2, [pc, #152]	; (20000310 <frame_update_logic+0x108>)
20000276:	f842 3024 	str.w	r3, [r2, r4, lsl #2]
2000027a:	4b24      	ldr	r3, [pc, #144]	; (2000030c <frame_update_logic+0x104>)
2000027c:	f853 3024 	ldr.w	r3, [r3, r4, lsl #2]
20000280:	2b00      	cmp	r3, #0
20000282:	db3c      	blt.n	200002fe <frame_update_logic+0xf6>
20000284:	4923      	ldr	r1, [pc, #140]	; (20000314 <frame_update_logic+0x10c>)
20000286:	eb04 0344 	add.w	r3, r4, r4, lsl #1
2000028a:	4a1e      	ldr	r2, [pc, #120]	; (20000304 <frame_update_logic+0xfc>)
2000028c:	eb02 0383 	add.w	r3, r2, r3, lsl #2
20000290:	6059      	str	r1, [r3, #4]
20000292:	3401      	adds	r4, #1
20000294:	2c2c      	cmp	r4, #44	; 0x2c
20000296:	dc34      	bgt.n	20000302 <frame_update_logic+0xfa>
20000298:	4b1c      	ldr	r3, [pc, #112]	; (2000030c <frame_update_logic+0x104>)
2000029a:	f853 3024 	ldr.w	r3, [r3, r4, lsl #2]
2000029e:	4a19      	ldr	r2, [pc, #100]	; (20000304 <frame_update_logic+0xfc>)
200002a0:	eb04 0144 	add.w	r1, r4, r4, lsl #1
200002a4:	0088      	lsls	r0, r1, #2
200002a6:	eb02 0181 	add.w	r1, r2, r1, lsl #2
200002aa:	5a15      	ldrh	r5, [r2, r0]
200002ac:	442b      	add	r3, r5
200002ae:	b21b      	sxth	r3, r3
200002b0:	5213      	strh	r3, [r2, r0]
200002b2:	4a17      	ldr	r2, [pc, #92]	; (20000310 <frame_update_logic+0x108>)
200002b4:	f852 2024 	ldr.w	r2, [r2, r4, lsl #2]
200002b8:	8848      	ldrh	r0, [r1, #2]
200002ba:	4402      	add	r2, r0
200002bc:	b212      	sxth	r2, r2
200002be:	804a      	strh	r2, [r1, #2]
200002c0:	4915      	ldr	r1, [pc, #84]	; (20000318 <frame_update_logic+0x110>)
200002c2:	6809      	ldr	r1, [r1, #0]
200002c4:	4815      	ldr	r0, [pc, #84]	; (2000031c <frame_update_logic+0x114>)
200002c6:	6800      	ldr	r0, [r0, #0]
200002c8:	428b      	cmp	r3, r1
200002ca:	db03      	blt.n	200002d4 <frame_update_logic+0xcc>
200002cc:	4601      	mov	r1, r0
200002ce:	4298      	cmp	r0, r3
200002d0:	bfa8      	it	ge
200002d2:	4619      	movge	r1, r3
200002d4:	4812      	ldr	r0, [pc, #72]	; (20000320 <frame_update_logic+0x118>)
200002d6:	6800      	ldr	r0, [r0, #0]
200002d8:	4d12      	ldr	r5, [pc, #72]	; (20000324 <frame_update_logic+0x11c>)
200002da:	682d      	ldr	r5, [r5, #0]
200002dc:	4282      	cmp	r2, r0
200002de:	db03      	blt.n	200002e8 <frame_update_logic+0xe0>
200002e0:	4628      	mov	r0, r5
200002e2:	4295      	cmp	r5, r2
200002e4:	bfa8      	it	ge
200002e6:	4610      	movge	r0, r2
200002e8:	428b      	cmp	r3, r1
200002ea:	d190      	bne.n	2000020e <frame_update_logic+0x6>
200002ec:	4282      	cmp	r2, r0
200002ee:	d18e      	bne.n	2000020e <frame_update_logic+0x6>
200002f0:	e7cf      	b.n	20000292 <frame_update_logic+0x8a>
200002f2:	f04f 33ff 	mov.w	r3, #4294967295
200002f6:	e7a4      	b.n	20000242 <frame_update_logic+0x3a>
200002f8:	f04f 33ff 	mov.w	r3, #4294967295
200002fc:	e7b8      	b.n	20000270 <frame_update_logic+0x68>
200002fe:	490a      	ldr	r1, [pc, #40]	; (20000328 <frame_update_logic+0x120>)
20000300:	e7c1      	b.n	20000286 <frame_update_logic+0x7e>
20000302:	bd38      	pop	{r3, r4, r5, pc}
20000304:	20012684 	.word	0x20012684
20000308:	66666667 	.word	0x66666667
2000030c:	20012a94 	.word	0x20012a94
20000310:	20012b48 	.word	0x20012b48
20000314:	20001790 	.word	0x20001790
20000318:	20012c00 	.word	0x20012c00
2000031c:	20012bfc 	.word	0x20012bfc
20000320:	20012c08 	.word	0x20012c08
20000324:	20012c04 	.word	0x20012c04
20000328:	20009990 	.word	0x20009990

2000032c <render_loop>:
2000032c:	b538      	push	{r3, r4, r5, lr}
2000032e:	f04f 4350 	mov.w	r3, #3489660928	; 0xd0000000
20000332:	681d      	ldr	r5, [r3, #0]
20000334:	4629      	mov	r1, r5
20000336:	480f      	ldr	r0, [pc, #60]	; (20000374 <render_loop+0x48>)
20000338:	f001 fa12 	bl	20001760 <____wrap_printf_veneer>
2000033c:	e00d      	b.n	2000035a <render_loop+0x2e>
2000033e:	4a0e      	ldr	r2, [pc, #56]	; (20000378 <render_loop+0x4c>)
20000340:	6013      	str	r3, [r2, #0]
20000342:	f7ff ff61 	bl	20000208 <frame_update_logic>
20000346:	480d      	ldr	r0, [pc, #52]	; (2000037c <render_loop+0x50>)
20000348:	f000 f91c 	bl	20000584 <mutex_exit>
2000034c:	4629      	mov	r1, r5
2000034e:	4620      	mov	r0, r4
20000350:	f7ff fede 	bl	20000110 <render_scanline>
20000354:	4620      	mov	r0, r4
20000356:	f000 fef7 	bl	20001148 <scanvideo_end_scanline_generation>
2000035a:	2001      	movs	r0, #1
2000035c:	f000 fe78 	bl	20001050 <scanvideo_begin_scanline_generation>
20000360:	4604      	mov	r4, r0
20000362:	4806      	ldr	r0, [pc, #24]	; (2000037c <render_loop+0x50>)
20000364:	f000 f85b 	bl	2000041e <mutex_enter_blocking>
20000368:	8863      	ldrh	r3, [r4, #2]
2000036a:	4a03      	ldr	r2, [pc, #12]	; (20000378 <render_loop+0x4c>)
2000036c:	6812      	ldr	r2, [r2, #0]
2000036e:	429a      	cmp	r2, r3
20000370:	d1e5      	bne.n	2000033e <render_loop+0x12>
20000372:	e7e8      	b.n	20000346 <render_loop+0x1a>
20000374:	100049ac 	.word	0x100049ac
20000378:	20012900 	.word	0x20012900
2000037c:	200128f4 	.word	0x200128f4

20000380 <sem_acquire_blocking>:
20000380:	e006      	b.n	20000390 <sem_acquire_blocking+0x10>
20000382:	6801      	ldr	r1, [r0, #0]
20000384:	2300      	movs	r3, #0
20000386:	e8c1 3f8f 	stlb	r3, [r1]
2000038a:	f382 8810 	msr	PRIMASK, r2
2000038e:	bf20      	wfe
20000390:	6803      	ldr	r3, [r0, #0]
20000392:	f3ef 8210 	mrs	r2, PRIMASK
20000396:	b672      	cpsid	i
20000398:	e8d3 cfcf 	ldaexb	ip, [r3]
2000039c:	2101      	movs	r1, #1
2000039e:	f1bc 0f00 	cmp.w	ip, #0
200003a2:	d1f9      	bne.n	20000398 <sem_acquire_blocking+0x18>
200003a4:	e8c3 1f4c 	strexb	ip, r1, [r3]
200003a8:	f1bc 0f00 	cmp.w	ip, #0
200003ac:	d1f4      	bne.n	20000398 <sem_acquire_blocking+0x18>
200003ae:	f3bf 8f5f 	dmb	sy
200003b2:	f9b0 3004 	ldrsh.w	r3, [r0, #4]
200003b6:	2b00      	cmp	r3, #0
200003b8:	dde3      	ble.n	20000382 <sem_acquire_blocking+0x2>
200003ba:	3b01      	subs	r3, #1
200003bc:	8083      	strh	r3, [r0, #4]
200003be:	6801      	ldr	r1, [r0, #0]
200003c0:	2300      	movs	r3, #0
200003c2:	e8c1 3f8f 	stlb	r3, [r1]
200003c6:	f382 8810 	msr	PRIMASK, r2
200003ca:	4770      	bx	lr

200003cc <sem_release>:
200003cc:	6803      	ldr	r3, [r0, #0]
200003ce:	f3ef 8210 	mrs	r2, PRIMASK
200003d2:	b672      	cpsid	i
200003d4:	e8d3 cfcf 	ldaexb	ip, [r3]
200003d8:	2101      	movs	r1, #1
200003da:	f1bc 0f00 	cmp.w	ip, #0
200003de:	d1f9      	bne.n	200003d4 <sem_release+0x8>
200003e0:	e8c3 1f4c 	strexb	ip, r1, [r3]
200003e4:	f1bc 0f00 	cmp.w	ip, #0
200003e8:	d1f4      	bne.n	200003d4 <sem_release+0x8>
200003ea:	f3bf 8f5f 	dmb	sy
200003ee:	f9b0 3004 	ldrsh.w	r3, [r0, #4]
200003f2:	f9b0 1006 	ldrsh.w	r1, [r0, #6]
200003f6:	428b      	cmp	r3, r1
200003f8:	da0a      	bge.n	20000410 <sem_release+0x44>
200003fa:	3301      	adds	r3, #1
200003fc:	8083      	strh	r3, [r0, #4]
200003fe:	6801      	ldr	r1, [r0, #0]
20000400:	2300      	movs	r3, #0
20000402:	e8c1 3f8f 	stlb	r3, [r1]
20000406:	f382 8810 	msr	PRIMASK, r2
2000040a:	bf40      	sev
2000040c:	2001      	movs	r0, #1
2000040e:	4770      	bx	lr
20000410:	6803      	ldr	r3, [r0, #0]
20000412:	2000      	movs	r0, #0
20000414:	e8c3 0f8f 	stlb	r0, [r3]
20000418:	f382 8810 	msr	PRIMASK, r2
2000041c:	4770      	bx	lr

2000041e <mutex_enter_blocking>:
2000041e:	b500      	push	{lr}
20000420:	f04f 4350 	mov.w	r3, #3489660928	; 0xd0000000
20000424:	f993 e000 	ldrsb.w	lr, [r3]
20000428:	e006      	b.n	20000438 <mutex_enter_blocking+0x1a>
2000042a:	6801      	ldr	r1, [r0, #0]
2000042c:	2300      	movs	r3, #0
2000042e:	e8c1 3f8f 	stlb	r3, [r1]
20000432:	f382 8810 	msr	PRIMASK, r2
20000436:	bf20      	wfe
20000438:	6803      	ldr	r3, [r0, #0]
2000043a:	f3ef 8210 	mrs	r2, PRIMASK
2000043e:	b672      	cpsid	i
20000440:	e8d3 cfcf 	ldaexb	ip, [r3]
20000444:	2101      	movs	r1, #1
20000446:	f1bc 0f00 	cmp.w	ip, #0
2000044a:	d1f9      	bne.n	20000440 <mutex_enter_blocking+0x22>
2000044c:	e8c3 1f4c 	strexb	ip, r1, [r3]
20000450:	f1bc 0f00 	cmp.w	ip, #0
20000454:	d1f4      	bne.n	20000440 <mutex_enter_blocking+0x22>
20000456:	f3bf 8f5f 	dmb	sy
2000045a:	f990 3004 	ldrsb.w	r3, [r0, #4]
2000045e:	2b00      	cmp	r3, #0
20000460:	dae3      	bge.n	2000042a <mutex_enter_blocking+0xc>
20000462:	f880 e004 	strb.w	lr, [r0, #4]
20000466:	6801      	ldr	r1, [r0, #0]
20000468:	2300      	movs	r3, #0
2000046a:	e8c1 3f8f 	stlb	r3, [r1]
2000046e:	f382 8810 	msr	PRIMASK, r2
20000472:	f85d fb04 	ldr.w	pc, [sp], #4

20000476 <mutex_try_enter>:
20000476:	b500      	push	{lr}
20000478:	4603      	mov	r3, r0
2000047a:	6802      	ldr	r2, [r0, #0]
2000047c:	f3ef 8c10 	mrs	ip, PRIMASK
20000480:	b672      	cpsid	i
20000482:	e8d2 efcf 	ldaexb	lr, [r2]
20000486:	2001      	movs	r0, #1
20000488:	f1be 0f00 	cmp.w	lr, #0
2000048c:	d1f9      	bne.n	20000482 <mutex_try_enter+0xc>
2000048e:	e8c2 0f4e 	strexb	lr, r0, [r2]
20000492:	f1be 0f00 	cmp.w	lr, #0
20000496:	d1f4      	bne.n	20000482 <mutex_try_enter+0xc>
20000498:	f3bf 8f5f 	dmb	sy
2000049c:	f993 2004 	ldrsb.w	r2, [r3, #4]
200004a0:	2a00      	cmp	r2, #0
200004a2:	db0a      	blt.n	200004ba <mutex_try_enter+0x44>
200004a4:	b181      	cbz	r1, 200004c8 <mutex_try_enter+0x52>
200004a6:	600a      	str	r2, [r1, #0]
200004a8:	2000      	movs	r0, #0
200004aa:	681a      	ldr	r2, [r3, #0]
200004ac:	2300      	movs	r3, #0
200004ae:	e8c2 3f8f 	stlb	r3, [r2]
200004b2:	f38c 8810 	msr	PRIMASK, ip
200004b6:	f85d fb04 	ldr.w	pc, [sp], #4
200004ba:	f04f 4250 	mov.w	r2, #3489660928	; 0xd0000000
200004be:	f992 2000 	ldrsb.w	r2, [r2]
200004c2:	711a      	strb	r2, [r3, #4]
200004c4:	2001      	movs	r0, #1
200004c6:	e7f0      	b.n	200004aa <mutex_try_enter+0x34>
200004c8:	2000      	movs	r0, #0
200004ca:	e7ee      	b.n	200004aa <mutex_try_enter+0x34>

200004cc <mutex_enter_block_until>:
200004cc:	b5f8      	push	{r3, r4, r5, r6, r7, lr}
200004ce:	461e      	mov	r6, r3
200004d0:	6803      	ldr	r3, [r0, #0]
200004d2:	2b00      	cmp	r3, #0
200004d4:	d027      	beq.n	20000526 <mutex_enter_block_until+0x5a>
200004d6:	4604      	mov	r4, r0
200004d8:	4615      	mov	r5, r2
200004da:	f04f 4350 	mov.w	r3, #3489660928	; 0xd0000000
200004de:	f993 7000 	ldrsb.w	r7, [r3]
200004e2:	6821      	ldr	r1, [r4, #0]
200004e4:	f3ef 8c10 	mrs	ip, PRIMASK
200004e8:	b672      	cpsid	i
200004ea:	e8d1 2fcf 	ldaexb	r2, [r1]
200004ee:	2301      	movs	r3, #1
200004f0:	2a00      	cmp	r2, #0
200004f2:	d1fa      	bne.n	200004ea <mutex_enter_block_until+0x1e>
200004f4:	e8c1 3f42 	strexb	r2, r3, [r1]
200004f8:	2a00      	cmp	r2, #0
200004fa:	d1f6      	bne.n	200004ea <mutex_enter_block_until+0x1e>
200004fc:	f3bf 8f5f 	dmb	sy
20000500:	f994 e004 	ldrsb.w	lr, [r4, #4]
20000504:	f1be 0f00 	cmp.w	lr, #0
20000508:	db13      	blt.n	20000532 <mutex_enter_block_until+0x66>
2000050a:	6822      	ldr	r2, [r4, #0]
2000050c:	2300      	movs	r3, #0
2000050e:	e8c2 3f8f 	stlb	r3, [r2]
20000512:	f38c 8810 	msr	PRIMASK, ip
20000516:	4628      	mov	r0, r5
20000518:	4631      	mov	r1, r6
2000051a:	f001 f931 	bl	20001780 <__best_effort_wfe_or_timeout_veneer>
2000051e:	2800      	cmp	r0, #0
20000520:	d0df      	beq.n	200004e2 <mutex_enter_block_until+0x16>
20000522:	2000      	movs	r0, #0
20000524:	e00d      	b.n	20000542 <mutex_enter_block_until+0x76>
20000526:	4b07      	ldr	r3, [pc, #28]	; (20000544 <mutex_enter_block_until+0x78>)
20000528:	4a07      	ldr	r2, [pc, #28]	; (20000548 <mutex_enter_block_until+0x7c>)
2000052a:	21a6      	movs	r1, #166	; 0xa6
2000052c:	4807      	ldr	r0, [pc, #28]	; (2000054c <mutex_enter_block_until+0x80>)
2000052e:	f001 f90f 	bl	20001750 <____assert_func_veneer>
20000532:	7127      	strb	r7, [r4, #4]
20000534:	6822      	ldr	r2, [r4, #0]
20000536:	2300      	movs	r3, #0
20000538:	e8c2 3f8f 	stlb	r3, [r2]
2000053c:	f38c 8810 	msr	PRIMASK, ip
20000540:	2001      	movs	r0, #1
20000542:	bdf8      	pop	{r3, r4, r5, r6, r7, pc}
20000544:	10004b5c 	.word	0x10004b5c
20000548:	10004bb4 	.word	0x10004bb4
2000054c:	10004b24 	.word	0x10004b24

20000550 <mutex_try_enter_block_until>:
20000550:	b570      	push	{r4, r5, r6, lr}
20000552:	b082      	sub	sp, #8
20000554:	4606      	mov	r6, r0
20000556:	4615      	mov	r5, r2
20000558:	461c      	mov	r4, r3
2000055a:	a901      	add	r1, sp, #4
2000055c:	f7ff ff8b 	bl	20000476 <mutex_try_enter>
20000560:	b938      	cbnz	r0, 20000572 <mutex_try_enter_block_until+0x22>
20000562:	f99d 2004 	ldrsb.w	r2, [sp, #4]
20000566:	f04f 4350 	mov.w	r3, #3489660928	; 0xd0000000
2000056a:	f993 3000 	ldrsb.w	r3, [r3]
2000056e:	429a      	cmp	r2, r3
20000570:	d101      	bne.n	20000576 <mutex_try_enter_block_until+0x26>
20000572:	b002      	add	sp, #8
20000574:	bd70      	pop	{r4, r5, r6, pc}
20000576:	462a      	mov	r2, r5
20000578:	4623      	mov	r3, r4
2000057a:	4630      	mov	r0, r6
2000057c:	f7ff ffa6 	bl	200004cc <mutex_enter_block_until>
20000580:	e7f7      	b.n	20000572 <mutex_try_enter_block_until+0x22>
	...

20000584 <mutex_exit>:
20000584:	b508      	push	{r3, lr}
20000586:	6803      	ldr	r3, [r0, #0]
20000588:	f3ef 8210 	mrs	r2, PRIMASK
2000058c:	b672      	cpsid	i
2000058e:	e8d3 cfcf 	ldaexb	ip, [r3]
20000592:	2101      	movs	r1, #1
20000594:	f1bc 0f00 	cmp.w	ip, #0
20000598:	d1f9      	bne.n	2000058e <mutex_exit+0xa>
2000059a:	e8c3 1f4c 	strexb	ip, r1, [r3]
2000059e:	f1bc 0f00 	cmp.w	ip, #0
200005a2:	d1f4      	bne.n	2000058e <mutex_exit+0xa>
200005a4:	f3bf 8f5f 	dmb	sy
200005a8:	f990 3004 	ldrsb.w	r3, [r0, #4]
200005ac:	2b00      	cmp	r3, #0
200005ae:	db09      	blt.n	200005c4 <mutex_exit+0x40>
200005b0:	23ff      	movs	r3, #255	; 0xff
200005b2:	7103      	strb	r3, [r0, #4]
200005b4:	6801      	ldr	r1, [r0, #0]
200005b6:	2300      	movs	r3, #0
200005b8:	e8c1 3f8f 	stlb	r3, [r1]
200005bc:	f382 8810 	msr	PRIMASK, r2
200005c0:	bf40      	sev
200005c2:	bd08      	pop	{r3, pc}
200005c4:	4b02      	ldr	r3, [pc, #8]	; (200005d0 <mutex_exit+0x4c>)
200005c6:	4a03      	ldr	r2, [pc, #12]	; (200005d4 <mutex_exit+0x50>)
200005c8:	21d5      	movs	r1, #213	; 0xd5
200005ca:	4803      	ldr	r0, [pc, #12]	; (200005d8 <mutex_exit+0x54>)
200005cc:	f001 f8c0 	bl	20001750 <____assert_func_veneer>
200005d0:	10004b70 	.word	0x10004b70
200005d4:	10004ba8 	.word	0x10004ba8
200005d8:	10004b24 	.word	0x10004b24

200005dc <default_scanvideo_scanline_repeat_count_fn>:
200005dc:	2001      	movs	r0, #1
200005de:	4770      	bx	lr

200005e0 <isr_irq15>:
200005e0:	e92d 43f8 	stmdb	sp!, {r3, r4, r5, r6, r7, r8, r9, lr}
200005e4:	4b7b      	ldr	r3, [pc, #492]	; (200007d4 <isr_irq15+0x1f4>)
200005e6:	6b1a      	ldr	r2, [r3, #48]	; 0x30
200005e8:	07d4      	lsls	r4, r2, #31
200005ea:	f140 8126 	bpl.w	2000083a <isr_irq15+0x25a>
200005ee:	2101      	movs	r1, #1
200005f0:	4c79      	ldr	r4, [pc, #484]	; (200007d8 <isr_irq15+0x1f8>)
200005f2:	68e2      	ldr	r2, [r4, #12]
200005f4:	6319      	str	r1, [r3, #48]	; 0x30
200005f6:	f3ef 8010 	mrs	r0, PRIMASK
200005fa:	b672      	cpsid	i
200005fc:	e8d2 1fcf 	ldaexb	r1, [r2]
20000600:	2301      	movs	r3, #1
20000602:	2900      	cmp	r1, #0
20000604:	d1fa      	bne.n	200005fc <isr_irq15+0x1c>
20000606:	e8c2 3f41 	strexb	r1, r3, [r2]
2000060a:	2900      	cmp	r1, #0
2000060c:	d1f6      	bne.n	200005fc <isr_irq15+0x1c>
2000060e:	f3bf 8f5f 	dmb	sy
20000612:	6921      	ldr	r1, [r4, #16]
20000614:	2900      	cmp	r1, #0
20000616:	f000 8241 	beq.w	20000a9c <isr_irq15+0x4bc>
2000061a:	2500      	movs	r5, #0
2000061c:	2300      	movs	r3, #0
2000061e:	68e2      	ldr	r2, [r4, #12]
20000620:	e8c2 3f8f 	stlb	r3, [r2]
20000624:	f380 8810 	msr	PRIMASK, r0
20000628:	4b6c      	ldr	r3, [pc, #432]	; (200007dc <isr_irq15+0x1fc>)
2000062a:	6808      	ldr	r0, [r1, #0]
2000062c:	69a2      	ldr	r2, [r4, #24]
2000062e:	4290      	cmp	r0, r2
20000630:	bf18      	it	ne
20000632:	4619      	movne	r1, r3
20000634:	6b63      	ldr	r3, [r4, #52]	; 0x34
20000636:	f3ef 8710 	mrs	r7, PRIMASK
2000063a:	b672      	cpsid	i
2000063c:	e8d3 0fcf 	ldaexb	r0, [r3]
20000640:	2201      	movs	r2, #1
20000642:	2800      	cmp	r0, #0
20000644:	d1fa      	bne.n	2000063c <isr_irq15+0x5c>
20000646:	e8c3 2f40 	strexb	r0, r2, [r3]
2000064a:	2800      	cmp	r0, #0
2000064c:	d1f6      	bne.n	2000063c <isr_irq15+0x5c>
2000064e:	f3bf 8f5f 	dmb	sy
20000652:	f894 303d 	ldrb.w	r3, [r4, #61]	; 0x3d
20000656:	2b00      	cmp	r3, #0
20000658:	f040 8293 	bne.w	20000b82 <isr_irq15+0x5a2>
2000065c:	6ba3      	ldr	r3, [r4, #56]	; 0x38
2000065e:	2b00      	cmp	r3, #0
20000660:	f040 82ff 	bne.w	20000c62 <isr_irq15+0x682>
20000664:	f894 603c 	ldrb.w	r6, [r4, #60]	; 0x3c
20000668:	2e00      	cmp	r6, #0
2000066a:	f040 8301 	bne.w	20000c70 <isr_irq15+0x690>
2000066e:	6b62      	ldr	r2, [r4, #52]	; 0x34
20000670:	e8c2 6f8f 	stlb	r6, [r2]
20000674:	f387 8810 	msr	PRIMASK, r7
20000678:	4b56      	ldr	r3, [pc, #344]	; (200007d4 <isr_irq15+0x1f4>)
2000067a:	685a      	ldr	r2, [r3, #4]
2000067c:	01d2      	lsls	r2, r2, #7
2000067e:	d408      	bmi.n	20000692 <isr_irq15+0xb2>
20000680:	f04f 4000 	mov.w	r0, #2147483648	; 0x80000000
20000684:	f246 0760 	movw	r7, #24672	; 0x6060
20000688:	4a55      	ldr	r2, [pc, #340]	; (200007e0 <isr_irq15+0x200>)
2000068a:	6010      	str	r0, [r2, #0]
2000068c:	6010      	str	r0, [r2, #0]
2000068e:	f8c3 70d8 	str.w	r7, [r3, #216]	; 0xd8
20000692:	f242 02c4 	movw	r2, #8388	; 0x20c4
20000696:	4b4f      	ldr	r3, [pc, #316]	; (200007d4 <isr_irq15+0x1f4>)
20000698:	f8d3 00d8 	ldr.w	r0, [r3, #216]	; 0xd8
2000069c:	4290      	cmp	r0, r2
2000069e:	d00c      	beq.n	200006ba <isr_irq15+0xda>
200006a0:	f8c3 20d8 	str.w	r2, [r3, #216]	; 0xd8
200006a4:	f8d3 20cc 	ldr.w	r2, [r3, #204]	; 0xcc
200006a8:	2a00      	cmp	r2, #0
200006aa:	6c22      	ldr	r2, [r4, #64]	; 0x40
200006ac:	f2c0 82ab 	blt.w	20000c06 <isr_irq15+0x626>
200006b0:	3201      	adds	r2, #1
200006b2:	f002 021f 	and.w	r2, r2, #31
200006b6:	f8c3 20d8 	str.w	r2, [r3, #216]	; 0xd8
200006ba:	f04f 43a0 	mov.w	r3, #1342177280	; 0x50000000
200006be:	890a      	ldrh	r2, [r1, #8]
200006c0:	6848      	ldr	r0, [r1, #4]
200006c2:	6018      	str	r0, [r3, #0]
200006c4:	61da      	str	r2, [r3, #28]
200006c6:	68e3      	ldr	r3, [r4, #12]
200006c8:	f3ef 8710 	mrs	r7, PRIMASK
200006cc:	b672      	cpsid	i
200006ce:	e8d3 0fcf 	ldaexb	r0, [r3]
200006d2:	2201      	movs	r2, #1
200006d4:	2800      	cmp	r0, #0
200006d6:	d1fa      	bne.n	200006ce <isr_irq15+0xee>
200006d8:	e8c3 2f40 	strexb	r0, r2, [r3]
200006dc:	2800      	cmp	r0, #0
200006de:	d1f6      	bne.n	200006ce <isr_irq15+0xee>
200006e0:	f3bf 8f5f 	dmb	sy
200006e4:	f04f 0900 	mov.w	r9, #0
200006e8:	f8df 80fc 	ldr.w	r8, [pc, #252]	; 200007e8 <isr_irq15+0x208>
200006ec:	8ba3      	ldrh	r3, [r4, #28]
200006ee:	f8b8 0010 	ldrh.w	r0, [r8, #16]
200006f2:	f884 9020 	strb.w	r9, [r4, #32]
200006f6:	4403      	add	r3, r0
200006f8:	8be0      	ldrh	r0, [r4, #30]
200006fa:	b29b      	uxth	r3, r3
200006fc:	4283      	cmp	r3, r0
200006fe:	83a3      	strh	r3, [r4, #28]
20000700:	f0c0 8239 	bcc.w	20000b76 <isr_irq15+0x596>
20000704:	1a1b      	subs	r3, r3, r0
20000706:	4a35      	ldr	r2, [pc, #212]	; (200007dc <isr_irq15+0x1fc>)
20000708:	69a0      	ldr	r0, [r4, #24]
2000070a:	83a3      	strh	r3, [r4, #28]
2000070c:	f8b8 300a 	ldrh.w	r3, [r8, #10]
20000710:	ebb1 0902 	subs.w	r9, r1, r2
20000714:	f103 33ff 	add.w	r3, r3, #4294967295
20000718:	b282      	uxth	r2, r0
2000071a:	bf18      	it	ne
2000071c:	f04f 0901 	movne.w	r9, #1
20000720:	429a      	cmp	r2, r3
20000722:	bf28      	it	cs
20000724:	f500 3080 	addcs.w	r0, r0, #65536	; 0x10000
20000728:	4b2e      	ldr	r3, [pc, #184]	; (200007e4 <isr_irq15+0x204>)
2000072a:	bf34      	ite	cc
2000072c:	3001      	addcc	r0, #1
2000072e:	1a80      	subcs	r0, r0, r2
20000730:	681b      	ldr	r3, [r3, #0]
20000732:	61a0      	str	r0, [r4, #24]
20000734:	4798      	blx	r3
20000736:	f8b8 300e 	ldrh.w	r3, [r8, #14]
2000073a:	fb13 f000 	smulbb	r0, r3, r0
2000073e:	2300      	movs	r3, #0
20000740:	83e0      	strh	r0, [r4, #30]
20000742:	6123      	str	r3, [r4, #16]
20000744:	6b63      	ldr	r3, [r4, #52]	; 0x34
20000746:	e8d3 1fcf 	ldaexb	r1, [r3]
2000074a:	2201      	movs	r2, #1
2000074c:	2900      	cmp	r1, #0
2000074e:	d1fa      	bne.n	20000746 <isr_irq15+0x166>
20000750:	e8c3 2f41 	strexb	r1, r2, [r3]
20000754:	2900      	cmp	r1, #0
20000756:	d1f6      	bne.n	20000746 <isr_irq15+0x166>
20000758:	f3bf 8f5f 	dmb	sy
2000075c:	2301      	movs	r3, #1
2000075e:	f884 303d 	strb.w	r3, [r4, #61]	; 0x3d
20000762:	f1b9 0f00 	cmp.w	r9, #0
20000766:	d004      	beq.n	20000772 <isr_irq15+0x192>
20000768:	f894 303c 	ldrb.w	r3, [r4, #60]	; 0x3c
2000076c:	3301      	adds	r3, #1
2000076e:	f884 303c 	strb.w	r3, [r4, #60]	; 0x3c
20000772:	2300      	movs	r3, #0
20000774:	6b62      	ldr	r2, [r4, #52]	; 0x34
20000776:	e8c2 3f8f 	stlb	r3, [r2]
2000077a:	68e2      	ldr	r2, [r4, #12]
2000077c:	e8c2 3f8f 	stlb	r3, [r2]
20000780:	f387 8810 	msr	PRIMASK, r7
20000784:	2e00      	cmp	r6, #0
20000786:	f000 81f1 	beq.w	20000b6c <isr_irq15+0x58c>
2000078a:	6822      	ldr	r2, [r4, #0]
2000078c:	f3ef 8c10 	mrs	ip, PRIMASK
20000790:	b672      	cpsid	i
20000792:	e8d2 0fcf 	ldaexb	r0, [r2]
20000796:	2101      	movs	r1, #1
20000798:	2800      	cmp	r0, #0
2000079a:	d1fa      	bne.n	20000792 <isr_irq15+0x1b2>
2000079c:	e8c2 1f40 	strexb	r0, r1, [r2]
200007a0:	2800      	cmp	r0, #0
200007a2:	d1f6      	bne.n	20000792 <isr_irq15+0x1b2>
200007a4:	f3bf 8f5f 	dmb	sy
200007a8:	4618      	mov	r0, r3
200007aa:	e9d4 2701 	ldrd	r2, r7, [r4, #4]
200007ae:	1e73      	subs	r3, r6, #1
200007b0:	4606      	mov	r6, r0
200007b2:	b16a      	cbz	r2, 200007d0 <isr_irq15+0x1f0>
200007b4:	6951      	ldr	r1, [r2, #20]
200007b6:	2900      	cmp	r1, #0
200007b8:	f000 81c0 	beq.w	20000b3c <isr_irq15+0x55c>
200007bc:	2601      	movs	r6, #1
200007be:	3b01      	subs	r3, #1
200007c0:	f1b3 3fff 	cmp.w	r3, #4294967295
200007c4:	6155      	str	r5, [r2, #20]
200007c6:	4615      	mov	r5, r2
200007c8:	d010      	beq.n	200007ec <isr_irq15+0x20c>
200007ca:	460a      	mov	r2, r1
200007cc:	2a00      	cmp	r2, #0
200007ce:	d1f1      	bne.n	200007b4 <isr_irq15+0x1d4>
200007d0:	4611      	mov	r1, r2
200007d2:	e7f4      	b.n	200007be <isr_irq15+0x1de>
200007d4:	50200000 	.word	0x50200000
200007d8:	200129e4 	.word	0x200129e4
200007dc:	2001263c 	.word	0x2001263c
200007e0:	502010d0 	.word	0x502010d0
200007e4:	20012654 	.word	0x20012654
200007e8:	20012a78 	.word	0x20012a78
200007ec:	b106      	cbz	r6, 200007f0 <isr_irq15+0x210>
200007ee:	6061      	str	r1, [r4, #4]
200007f0:	b100      	cbz	r0, 200007f4 <isr_irq15+0x214>
200007f2:	60a7      	str	r7, [r4, #8]
200007f4:	2300      	movs	r3, #0
200007f6:	6821      	ldr	r1, [r4, #0]
200007f8:	e8c1 3f8f 	stlb	r3, [r1]
200007fc:	f38c 8810 	msr	PRIMASK, ip
20000800:	6ae3      	ldr	r3, [r4, #44]	; 0x2c
20000802:	f3ef 8010 	mrs	r0, PRIMASK
20000806:	b672      	cpsid	i
20000808:	e8d3 5fcf 	ldaexb	r5, [r3]
2000080c:	2101      	movs	r1, #1
2000080e:	2d00      	cmp	r5, #0
20000810:	d1fa      	bne.n	20000808 <isr_irq15+0x228>
20000812:	e8c3 1f45 	strexb	r5, r1, [r3]
20000816:	2d00      	cmp	r5, #0
20000818:	d1f6      	bne.n	20000808 <isr_irq15+0x228>
2000081a:	f3bf 8f5f 	dmb	sy
2000081e:	4613      	mov	r3, r2
20000820:	4619      	mov	r1, r3
20000822:	695b      	ldr	r3, [r3, #20]
20000824:	2b00      	cmp	r3, #0
20000826:	d1fb      	bne.n	20000820 <isr_irq15+0x240>
20000828:	6b25      	ldr	r5, [r4, #48]	; 0x30
2000082a:	614d      	str	r5, [r1, #20]
2000082c:	6ae1      	ldr	r1, [r4, #44]	; 0x2c
2000082e:	6322      	str	r2, [r4, #48]	; 0x30
20000830:	e8c1 3f8f 	stlb	r3, [r1]
20000834:	f380 8810 	msr	PRIMASK, r0
20000838:	bf40      	sev
2000083a:	4b7f      	ldr	r3, [pc, #508]	; (20000a38 <isr_irq15+0x458>)
2000083c:	6b1a      	ldr	r2, [r3, #48]	; 0x30
2000083e:	0792      	lsls	r2, r2, #30
20000840:	f140 80ed 	bpl.w	20000a1e <isr_irq15+0x43e>
20000844:	2103      	movs	r1, #3
20000846:	4c7d      	ldr	r4, [pc, #500]	; (20000a3c <isr_irq15+0x45c>)
20000848:	6b62      	ldr	r2, [r4, #52]	; 0x34
2000084a:	6319      	str	r1, [r3, #48]	; 0x30
2000084c:	f3ef 8010 	mrs	r0, PRIMASK
20000850:	b672      	cpsid	i
20000852:	e8d2 1fcf 	ldaexb	r1, [r2]
20000856:	2301      	movs	r3, #1
20000858:	2900      	cmp	r1, #0
2000085a:	d1fa      	bne.n	20000852 <isr_irq15+0x272>
2000085c:	e8c2 3f41 	strexb	r1, r3, [r2]
20000860:	2900      	cmp	r1, #0
20000862:	d1f6      	bne.n	20000852 <isr_irq15+0x272>
20000864:	f3bf 8f5f 	dmb	sy
20000868:	f894 303d 	ldrb.w	r3, [r4, #61]	; 0x3d
2000086c:	2b00      	cmp	r3, #0
2000086e:	f040 80e7 	bne.w	20000a40 <isr_irq15+0x460>
20000872:	6ba3      	ldr	r3, [r4, #56]	; 0x38
20000874:	2b00      	cmp	r3, #0
20000876:	f040 81f4 	bne.w	20000c62 <isr_irq15+0x682>
2000087a:	f894 503c 	ldrb.w	r5, [r4, #60]	; 0x3c
2000087e:	2d00      	cmp	r5, #0
20000880:	f040 81f6 	bne.w	20000c70 <isr_irq15+0x690>
20000884:	6b63      	ldr	r3, [r4, #52]	; 0x34
20000886:	e8c3 5f8f 	stlb	r5, [r3]
2000088a:	f380 8810 	msr	PRIMASK, r0
2000088e:	68e3      	ldr	r3, [r4, #12]
20000890:	f3ef 8810 	mrs	r8, PRIMASK
20000894:	b672      	cpsid	i
20000896:	e8d3 1fcf 	ldaexb	r1, [r3]
2000089a:	2201      	movs	r2, #1
2000089c:	2900      	cmp	r1, #0
2000089e:	d1fa      	bne.n	20000896 <isr_irq15+0x2b6>
200008a0:	e8c3 2f41 	strexb	r1, r2, [r3]
200008a4:	2900      	cmp	r1, #0
200008a6:	d1f6      	bne.n	20000896 <isr_irq15+0x2b6>
200008a8:	f3bf 8f5f 	dmb	sy
200008ac:	f894 3020 	ldrb.w	r3, [r4, #32]
200008b0:	2b00      	cmp	r3, #0
200008b2:	f040 80be 	bne.w	20000a32 <isr_irq15+0x452>
200008b6:	2701      	movs	r7, #1
200008b8:	69a0      	ldr	r0, [r4, #24]
200008ba:	83a3      	strh	r3, [r4, #28]
200008bc:	b282      	uxth	r2, r0
200008be:	f884 7020 	strb.w	r7, [r4, #32]
200008c2:	2a00      	cmp	r2, #0
200008c4:	f040 812e 	bne.w	20000b24 <isr_irq15+0x544>
200008c8:	6923      	ldr	r3, [r4, #16]
200008ca:	b143      	cbz	r3, 200008de <isr_irq15+0x2fe>
200008cc:	681a      	ldr	r2, [r3, #0]
200008ce:	69a3      	ldr	r3, [r4, #24]
200008d0:	1a9b      	subs	r3, r3, r2
200008d2:	2b00      	cmp	r3, #0
200008d4:	f04f 0300 	mov.w	r3, #0
200008d8:	dd47      	ble.n	2000096a <isr_irq15+0x38a>
200008da:	3501      	adds	r5, #1
200008dc:	6123      	str	r3, [r4, #16]
200008de:	6a63      	ldr	r3, [r4, #36]	; 0x24
200008e0:	2b00      	cmp	r3, #0
200008e2:	d042      	beq.n	2000096a <isr_irq15+0x38a>
200008e4:	69a6      	ldr	r6, [r4, #24]
200008e6:	681a      	ldr	r2, [r3, #0]
200008e8:	2000      	movs	r0, #0
200008ea:	1ab1      	subs	r1, r6, r2
200008ec:	2900      	cmp	r1, #0
200008ee:	dd0b      	ble.n	20000908 <isr_irq15+0x328>
200008f0:	695a      	ldr	r2, [r3, #20]
200008f2:	6262      	str	r2, [r4, #36]	; 0x24
200008f4:	2a00      	cmp	r2, #0
200008f6:	f000 811e 	beq.w	20000b36 <isr_irq15+0x556>
200008fa:	6158      	str	r0, [r3, #20]
200008fc:	4618      	mov	r0, r3
200008fe:	4613      	mov	r3, r2
20000900:	681a      	ldr	r2, [r3, #0]
20000902:	1ab1      	subs	r1, r6, r2
20000904:	2900      	cmp	r1, #0
20000906:	dcf3      	bgt.n	200008f0 <isr_irq15+0x310>
20000908:	4296      	cmp	r6, r2
2000090a:	f040 816f 	bne.w	20000bec <isr_irq15+0x60c>
2000090e:	695a      	ldr	r2, [r3, #20]
20000910:	6262      	str	r2, [r4, #36]	; 0x24
20000912:	2a00      	cmp	r2, #0
20000914:	f000 8196 	beq.w	20000c44 <isr_irq15+0x664>
20000918:	2200      	movs	r2, #0
2000091a:	615a      	str	r2, [r3, #20]
2000091c:	6822      	ldr	r2, [r4, #0]
2000091e:	e8d2 6fcf 	ldaexb	r6, [r2]
20000922:	2101      	movs	r1, #1
20000924:	2e00      	cmp	r6, #0
20000926:	d1fa      	bne.n	2000091e <isr_irq15+0x33e>
20000928:	e8c2 1f46 	strexb	r6, r1, [r2]
2000092c:	2e00      	cmp	r6, #0
2000092e:	d1f6      	bne.n	2000091e <isr_irq15+0x33e>
20000930:	f3bf 8f5f 	dmb	sy
20000934:	6862      	ldr	r2, [r4, #4]
20000936:	2a00      	cmp	r2, #0
20000938:	f000 8177 	beq.w	20000c2a <isr_irq15+0x64a>
2000093c:	681e      	ldr	r6, [r3, #0]
2000093e:	6811      	ldr	r1, [r2, #0]
20000940:	1a71      	subs	r1, r6, r1
20000942:	2900      	cmp	r1, #0
20000944:	f340 8172 	ble.w	20000c2c <isr_irq15+0x64c>
20000948:	f8d4 c008 	ldr.w	ip, [r4, #8]
2000094c:	f8dc 1000 	ldr.w	r1, [ip]
20000950:	1a71      	subs	r1, r6, r1
20000952:	2900      	cmp	r1, #0
20000954:	f340 8142 	ble.w	20000bdc <isr_irq15+0x5fc>
20000958:	f8cc 3014 	str.w	r3, [ip, #20]
2000095c:	60a3      	str	r3, [r4, #8]
2000095e:	2200      	movs	r2, #0
20000960:	6821      	ldr	r1, [r4, #0]
20000962:	e8c1 2f8f 	stlb	r2, [r1]
20000966:	6123      	str	r3, [r4, #16]
20000968:	4603      	mov	r3, r0
2000096a:	2600      	movs	r6, #0
2000096c:	68e2      	ldr	r2, [r4, #12]
2000096e:	e8c2 6f8f 	stlb	r6, [r2]
20000972:	f388 8810 	msr	PRIMASK, r8
20000976:	2d00      	cmp	r5, #0
20000978:	d057      	beq.n	20000a2a <isr_irq15+0x44a>
2000097a:	6822      	ldr	r2, [r4, #0]
2000097c:	f3ef 8e10 	mrs	lr, PRIMASK
20000980:	b672      	cpsid	i
20000982:	e8d2 0fcf 	ldaexb	r0, [r2]
20000986:	2101      	movs	r1, #1
20000988:	2800      	cmp	r0, #0
2000098a:	d1fa      	bne.n	20000982 <isr_irq15+0x3a2>
2000098c:	e8c2 1f40 	strexb	r0, r1, [r2]
20000990:	2800      	cmp	r0, #0
20000992:	d1f6      	bne.n	20000982 <isr_irq15+0x3a2>
20000994:	f3bf 8f5f 	dmb	sy
20000998:	1e69      	subs	r1, r5, #1
2000099a:	e9d4 2c01 	ldrd	r2, ip, [r4, #4]
2000099e:	4635      	mov	r5, r6
200009a0:	b162      	cbz	r2, 200009bc <isr_irq15+0x3dc>
200009a2:	6950      	ldr	r0, [r2, #20]
200009a4:	2800      	cmp	r0, #0
200009a6:	d03c      	beq.n	20000a22 <isr_irq15+0x442>
200009a8:	2501      	movs	r5, #1
200009aa:	3901      	subs	r1, #1
200009ac:	f1b1 3fff 	cmp.w	r1, #4294967295
200009b0:	6153      	str	r3, [r2, #20]
200009b2:	4613      	mov	r3, r2
200009b4:	d009      	beq.n	200009ca <isr_irq15+0x3ea>
200009b6:	4602      	mov	r2, r0
200009b8:	2a00      	cmp	r2, #0
200009ba:	d1f2      	bne.n	200009a2 <isr_irq15+0x3c2>
200009bc:	3901      	subs	r1, #1
200009be:	f1b1 3fff 	cmp.w	r1, #4294967295
200009c2:	6153      	str	r3, [r2, #20]
200009c4:	4610      	mov	r0, r2
200009c6:	4613      	mov	r3, r2
200009c8:	d1f5      	bne.n	200009b6 <isr_irq15+0x3d6>
200009ca:	b105      	cbz	r5, 200009ce <isr_irq15+0x3ee>
200009cc:	6060      	str	r0, [r4, #4]
200009ce:	b10e      	cbz	r6, 200009d4 <isr_irq15+0x3f4>
200009d0:	f8c4 c008 	str.w	ip, [r4, #8]
200009d4:	2300      	movs	r3, #0
200009d6:	6821      	ldr	r1, [r4, #0]
200009d8:	e8c1 3f8f 	stlb	r3, [r1]
200009dc:	f38e 8810 	msr	PRIMASK, lr
200009e0:	6ae3      	ldr	r3, [r4, #44]	; 0x2c
200009e2:	f3ef 8010 	mrs	r0, PRIMASK
200009e6:	b672      	cpsid	i
200009e8:	e8d3 5fcf 	ldaexb	r5, [r3]
200009ec:	2101      	movs	r1, #1
200009ee:	2d00      	cmp	r5, #0
200009f0:	d1fa      	bne.n	200009e8 <isr_irq15+0x408>
200009f2:	e8c3 1f45 	strexb	r5, r1, [r3]
200009f6:	2d00      	cmp	r5, #0
200009f8:	d1f6      	bne.n	200009e8 <isr_irq15+0x408>
200009fa:	f3bf 8f5f 	dmb	sy
200009fe:	4613      	mov	r3, r2
20000a00:	4619      	mov	r1, r3
20000a02:	695b      	ldr	r3, [r3, #20]
20000a04:	2b00      	cmp	r3, #0
20000a06:	d1fb      	bne.n	20000a00 <isr_irq15+0x420>
20000a08:	6b25      	ldr	r5, [r4, #48]	; 0x30
20000a0a:	614d      	str	r5, [r1, #20]
20000a0c:	6322      	str	r2, [r4, #48]	; 0x30
20000a0e:	6ae2      	ldr	r2, [r4, #44]	; 0x2c
20000a10:	e8c2 3f8f 	stlb	r3, [r2]
20000a14:	f380 8810 	msr	PRIMASK, r0
20000a18:	bf40      	sev
20000a1a:	2f00      	cmp	r7, #0
20000a1c:	d139      	bne.n	20000a92 <isr_irq15+0x4b2>
20000a1e:	e8bd 83f8 	ldmia.w	sp!, {r3, r4, r5, r6, r7, r8, r9, pc}
20000a22:	2601      	movs	r6, #1
20000a24:	4684      	mov	ip, r0
20000a26:	4635      	mov	r5, r6
20000a28:	e7bf      	b.n	200009aa <isr_irq15+0x3ca>
20000a2a:	2b00      	cmp	r3, #0
20000a2c:	d0f5      	beq.n	20000a1a <isr_irq15+0x43a>
20000a2e:	461a      	mov	r2, r3
20000a30:	e7d6      	b.n	200009e0 <isr_irq15+0x400>
20000a32:	2700      	movs	r7, #0
20000a34:	e748      	b.n	200008c8 <isr_irq15+0x2e8>
20000a36:	bf00      	nop
20000a38:	50200000 	.word	0x50200000
20000a3c:	200129e4 	.word	0x200129e4
20000a40:	f04f 43a0 	mov.w	r3, #1342177280	; 0x50000000
20000a44:	f8d3 140c 	ldr.w	r1, [r3, #1036]	; 0x40c
20000a48:	6ba2      	ldr	r2, [r4, #56]	; 0x38
20000a4a:	07cf      	lsls	r7, r1, #31
20000a4c:	d512      	bpl.n	20000a74 <isr_irq15+0x494>
20000a4e:	2101      	movs	r1, #1
20000a50:	ea42 0501 	orr.w	r5, r2, r1
20000a54:	f032 0201 	bics.w	r2, r2, #1
20000a58:	f8c3 140c 	str.w	r1, [r3, #1036]	; 0x40c
20000a5c:	d07b      	beq.n	20000b56 <isr_irq15+0x576>
20000a5e:	f8d3 240c 	ldr.w	r2, [r3, #1036]	; 0x40c
20000a62:	07d2      	lsls	r2, r2, #31
20000a64:	d505      	bpl.n	20000a72 <isr_irq15+0x492>
20000a66:	f8c3 140c 	str.w	r1, [r3, #1036]	; 0x40c
20000a6a:	f8d3 240c 	ldr.w	r2, [r3, #1036]	; 0x40c
20000a6e:	07d6      	lsls	r6, r2, #31
20000a70:	d4f9      	bmi.n	20000a66 <isr_irq15+0x486>
20000a72:	63a5      	str	r5, [r4, #56]	; 0x38
20000a74:	f894 503c 	ldrb.w	r5, [r4, #60]	; 0x3c
20000a78:	b115      	cbz	r5, 20000a80 <isr_irq15+0x4a0>
20000a7a:	2300      	movs	r3, #0
20000a7c:	63a3      	str	r3, [r4, #56]	; 0x38
20000a7e:	87a3      	strh	r3, [r4, #60]	; 0x3c
20000a80:	f000 fe56 	bl	20001730 <__abort_all_dma_channels_assuming_no_irq_preemption_veneer>
20000a84:	2300      	movs	r3, #0
20000a86:	6b62      	ldr	r2, [r4, #52]	; 0x34
20000a88:	e8c2 3f8f 	stlb	r3, [r2]
20000a8c:	f380 8810 	msr	PRIMASK, r0
20000a90:	e6fd      	b.n	2000088e <isr_irq15+0x2ae>
20000a92:	4878      	ldr	r0, [pc, #480]	; (20000c74 <isr_irq15+0x694>)
20000a94:	e8bd 43f8 	ldmia.w	sp!, {r3, r4, r5, r6, r7, r8, r9, lr}
20000a98:	f7ff bc98 	b.w	200003cc <sem_release>
20000a9c:	6a65      	ldr	r5, [r4, #36]	; 0x24
20000a9e:	2d00      	cmp	r5, #0
20000aa0:	f000 80d2 	beq.w	20000c48 <isr_irq15+0x668>
20000aa4:	69a6      	ldr	r6, [r4, #24]
20000aa6:	682b      	ldr	r3, [r5, #0]
20000aa8:	1af2      	subs	r2, r6, r3
20000aaa:	2a00      	cmp	r2, #0
20000aac:	dd0a      	ble.n	20000ac4 <isr_irq15+0x4e4>
20000aae:	696b      	ldr	r3, [r5, #20]
20000ab0:	6263      	str	r3, [r4, #36]	; 0x24
20000ab2:	2b00      	cmp	r3, #0
20000ab4:	d046      	beq.n	20000b44 <isr_irq15+0x564>
20000ab6:	6169      	str	r1, [r5, #20]
20000ab8:	4629      	mov	r1, r5
20000aba:	461d      	mov	r5, r3
20000abc:	682b      	ldr	r3, [r5, #0]
20000abe:	1af2      	subs	r2, r6, r3
20000ac0:	2a00      	cmp	r2, #0
20000ac2:	dcf4      	bgt.n	20000aae <isr_irq15+0x4ce>
20000ac4:	429e      	cmp	r6, r3
20000ac6:	f040 80b4 	bne.w	20000c32 <isr_irq15+0x652>
20000aca:	696b      	ldr	r3, [r5, #20]
20000acc:	6263      	str	r3, [r4, #36]	; 0x24
20000ace:	2b00      	cmp	r3, #0
20000ad0:	f000 80c5 	beq.w	20000c5e <isr_irq15+0x67e>
20000ad4:	2300      	movs	r3, #0
20000ad6:	616b      	str	r3, [r5, #20]
20000ad8:	6823      	ldr	r3, [r4, #0]
20000ada:	e8d3 6fcf 	ldaexb	r6, [r3]
20000ade:	2201      	movs	r2, #1
20000ae0:	2e00      	cmp	r6, #0
20000ae2:	d1fa      	bne.n	20000ada <isr_irq15+0x4fa>
20000ae4:	e8c3 2f46 	strexb	r6, r2, [r3]
20000ae8:	2e00      	cmp	r6, #0
20000aea:	d1f6      	bne.n	20000ada <isr_irq15+0x4fa>
20000aec:	f3bf 8f5f 	dmb	sy
20000af0:	6863      	ldr	r3, [r4, #4]
20000af2:	2b00      	cmp	r3, #0
20000af4:	f000 80af 	beq.w	20000c56 <isr_irq15+0x676>
20000af8:	682e      	ldr	r6, [r5, #0]
20000afa:	681a      	ldr	r2, [r3, #0]
20000afc:	1ab2      	subs	r2, r6, r2
20000afe:	2a00      	cmp	r2, #0
20000b00:	f340 80aa 	ble.w	20000c58 <isr_irq15+0x678>
20000b04:	68a7      	ldr	r7, [r4, #8]
20000b06:	683a      	ldr	r2, [r7, #0]
20000b08:	1ab2      	subs	r2, r6, r2
20000b0a:	2a00      	cmp	r2, #0
20000b0c:	dd74      	ble.n	20000bf8 <isr_irq15+0x618>
20000b0e:	617d      	str	r5, [r7, #20]
20000b10:	60a5      	str	r5, [r4, #8]
20000b12:	2300      	movs	r3, #0
20000b14:	6822      	ldr	r2, [r4, #0]
20000b16:	e8c2 3f8f 	stlb	r3, [r2]
20000b1a:	460b      	mov	r3, r1
20000b1c:	6125      	str	r5, [r4, #16]
20000b1e:	4629      	mov	r1, r5
20000b20:	461d      	mov	r5, r3
20000b22:	e57b      	b.n	2000061c <isr_irq15+0x3c>
20000b24:	0c00      	lsrs	r0, r0, #16
20000b26:	4b54      	ldr	r3, [pc, #336]	; (20000c78 <isr_irq15+0x698>)
20000b28:	4438      	add	r0, r7
20000b2a:	0400      	lsls	r0, r0, #16
20000b2c:	681b      	ldr	r3, [r3, #0]
20000b2e:	61a0      	str	r0, [r4, #24]
20000b30:	4798      	blx	r3
20000b32:	83e0      	strh	r0, [r4, #30]
20000b34:	e6c8      	b.n	200008c8 <isr_irq15+0x2e8>
20000b36:	62a2      	str	r2, [r4, #40]	; 0x28
20000b38:	6158      	str	r0, [r3, #20]
20000b3a:	e716      	b.n	2000096a <isr_irq15+0x38a>
20000b3c:	2001      	movs	r0, #1
20000b3e:	460f      	mov	r7, r1
20000b40:	4606      	mov	r6, r0
20000b42:	e63c      	b.n	200007be <isr_irq15+0x1de>
20000b44:	62a3      	str	r3, [r4, #40]	; 0x28
20000b46:	68e2      	ldr	r2, [r4, #12]
20000b48:	6169      	str	r1, [r5, #20]
20000b4a:	e8c2 3f8f 	stlb	r3, [r2]
20000b4e:	f380 8810 	msr	PRIMASK, r0
20000b52:	494a      	ldr	r1, [pc, #296]	; (20000c7c <isr_irq15+0x69c>)
20000b54:	e56e      	b.n	20000634 <isr_irq15+0x54>
20000b56:	2300      	movs	r3, #0
20000b58:	f894 503c 	ldrb.w	r5, [r4, #60]	; 0x3c
20000b5c:	6b62      	ldr	r2, [r4, #52]	; 0x34
20000b5e:	63a3      	str	r3, [r4, #56]	; 0x38
20000b60:	87a3      	strh	r3, [r4, #60]	; 0x3c
20000b62:	e8c2 3f8f 	stlb	r3, [r2]
20000b66:	f380 8810 	msr	PRIMASK, r0
20000b6a:	e690      	b.n	2000088e <isr_irq15+0x2ae>
20000b6c:	2d00      	cmp	r5, #0
20000b6e:	f43f ae64 	beq.w	2000083a <isr_irq15+0x25a>
20000b72:	462a      	mov	r2, r5
20000b74:	e644      	b.n	20000800 <isr_irq15+0x220>
20000b76:	4b41      	ldr	r3, [pc, #260]	; (20000c7c <isr_irq15+0x69c>)
20000b78:	4299      	cmp	r1, r3
20000b7a:	bf08      	it	eq
20000b7c:	f8c4 9010 	streq.w	r9, [r4, #16]
20000b80:	e5e0      	b.n	20000744 <isr_irq15+0x164>
20000b82:	f04f 43a0 	mov.w	r3, #1342177280	; 0x50000000
20000b86:	f8d3 040c 	ldr.w	r0, [r3, #1036]	; 0x40c
20000b8a:	6ba2      	ldr	r2, [r4, #56]	; 0x38
20000b8c:	07c0      	lsls	r0, r0, #31
20000b8e:	d512      	bpl.n	20000bb6 <isr_irq15+0x5d6>
20000b90:	2001      	movs	r0, #1
20000b92:	ea42 0600 	orr.w	r6, r2, r0
20000b96:	f032 0201 	bics.w	r2, r2, #1
20000b9a:	f8c3 040c 	str.w	r0, [r3, #1036]	; 0x40c
20000b9e:	d039      	beq.n	20000c14 <isr_irq15+0x634>
20000ba0:	f8d3 240c 	ldr.w	r2, [r3, #1036]	; 0x40c
20000ba4:	07d2      	lsls	r2, r2, #31
20000ba6:	d505      	bpl.n	20000bb4 <isr_irq15+0x5d4>
20000ba8:	f8c3 040c 	str.w	r0, [r3, #1036]	; 0x40c
20000bac:	f8d3 240c 	ldr.w	r2, [r3, #1036]	; 0x40c
20000bb0:	07d2      	lsls	r2, r2, #31
20000bb2:	d4f9      	bmi.n	20000ba8 <isr_irq15+0x5c8>
20000bb4:	63a6      	str	r6, [r4, #56]	; 0x38
20000bb6:	f894 603c 	ldrb.w	r6, [r4, #60]	; 0x3c
20000bba:	b116      	cbz	r6, 20000bc2 <isr_irq15+0x5e2>
20000bbc:	2300      	movs	r3, #0
20000bbe:	63a3      	str	r3, [r4, #56]	; 0x38
20000bc0:	87a3      	strh	r3, [r4, #60]	; 0x3c
20000bc2:	f000 fdb5 	bl	20001730 <__abort_all_dma_channels_assuming_no_irq_preemption_veneer>
20000bc6:	2300      	movs	r3, #0
20000bc8:	6b62      	ldr	r2, [r4, #52]	; 0x34
20000bca:	e8c2 3f8f 	stlb	r3, [r2]
20000bce:	f387 8810 	msr	PRIMASK, r7
20000bd2:	e551      	b.n	20000678 <isr_irq15+0x98>
20000bd4:	6811      	ldr	r1, [r2, #0]
20000bd6:	1a71      	subs	r1, r6, r1
20000bd8:	2900      	cmp	r1, #0
20000bda:	dd03      	ble.n	20000be4 <isr_irq15+0x604>
20000bdc:	4694      	mov	ip, r2
20000bde:	6952      	ldr	r2, [r2, #20]
20000be0:	2a00      	cmp	r2, #0
20000be2:	d1f7      	bne.n	20000bd4 <isr_irq15+0x5f4>
20000be4:	615a      	str	r2, [r3, #20]
20000be6:	f8cc 3014 	str.w	r3, [ip, #20]
20000bea:	e6b8      	b.n	2000095e <isr_irq15+0x37e>
20000bec:	4603      	mov	r3, r0
20000bee:	e6bc      	b.n	2000096a <isr_irq15+0x38a>
20000bf0:	681a      	ldr	r2, [r3, #0]
20000bf2:	1ab2      	subs	r2, r6, r2
20000bf4:	2a00      	cmp	r2, #0
20000bf6:	dd03      	ble.n	20000c00 <isr_irq15+0x620>
20000bf8:	461f      	mov	r7, r3
20000bfa:	695b      	ldr	r3, [r3, #20]
20000bfc:	2b00      	cmp	r3, #0
20000bfe:	d1f7      	bne.n	20000bf0 <isr_irq15+0x610>
20000c00:	616b      	str	r3, [r5, #20]
20000c02:	617d      	str	r5, [r7, #20]
20000c04:	e785      	b.n	20000b12 <isr_irq15+0x532>
20000c06:	f8d3 70d4 	ldr.w	r7, [r3, #212]	; 0xd4
20000c0a:	1c50      	adds	r0, r2, #1
20000c0c:	4287      	cmp	r7, r0
20000c0e:	f47f ad50 	bne.w	200006b2 <isr_irq15+0xd2>
20000c12:	e552      	b.n	200006ba <isr_irq15+0xda>
20000c14:	2300      	movs	r3, #0
20000c16:	f894 603c 	ldrb.w	r6, [r4, #60]	; 0x3c
20000c1a:	6b62      	ldr	r2, [r4, #52]	; 0x34
20000c1c:	63a3      	str	r3, [r4, #56]	; 0x38
20000c1e:	87a3      	strh	r3, [r4, #60]	; 0x3c
20000c20:	e8c2 3f8f 	stlb	r3, [r2]
20000c24:	f387 8810 	msr	PRIMASK, r7
20000c28:	e526      	b.n	20000678 <isr_irq15+0x98>
20000c2a:	60a3      	str	r3, [r4, #8]
20000c2c:	615a      	str	r2, [r3, #20]
20000c2e:	6063      	str	r3, [r4, #4]
20000c30:	e695      	b.n	2000095e <isr_irq15+0x37e>
20000c32:	2300      	movs	r3, #0
20000c34:	68e2      	ldr	r2, [r4, #12]
20000c36:	e8c2 3f8f 	stlb	r3, [r2]
20000c3a:	f380 8810 	msr	PRIMASK, r0
20000c3e:	460d      	mov	r5, r1
20000c40:	490e      	ldr	r1, [pc, #56]	; (20000c7c <isr_irq15+0x69c>)
20000c42:	e4f7      	b.n	20000634 <isr_irq15+0x54>
20000c44:	62a2      	str	r2, [r4, #40]	; 0x28
20000c46:	e669      	b.n	2000091c <isr_irq15+0x33c>
20000c48:	68e3      	ldr	r3, [r4, #12]
20000c4a:	e8c3 5f8f 	stlb	r5, [r3]
20000c4e:	f380 8810 	msr	PRIMASK, r0
20000c52:	490a      	ldr	r1, [pc, #40]	; (20000c7c <isr_irq15+0x69c>)
20000c54:	e4ee      	b.n	20000634 <isr_irq15+0x54>
20000c56:	60a5      	str	r5, [r4, #8]
20000c58:	616b      	str	r3, [r5, #20]
20000c5a:	6065      	str	r5, [r4, #4]
20000c5c:	e759      	b.n	20000b12 <isr_irq15+0x532>
20000c5e:	62a3      	str	r3, [r4, #40]	; 0x28
20000c60:	e73a      	b.n	20000ad8 <isr_irq15+0x4f8>
20000c62:	f240 2152 	movw	r1, #594	; 0x252
20000c66:	4b06      	ldr	r3, [pc, #24]	; (20000c80 <isr_irq15+0x6a0>)
20000c68:	4a06      	ldr	r2, [pc, #24]	; (20000c84 <isr_irq15+0x6a4>)
20000c6a:	4807      	ldr	r0, [pc, #28]	; (20000c88 <isr_irq15+0x6a8>)
20000c6c:	f000 fd70 	bl	20001750 <____assert_func_veneer>
20000c70:	f000 fd66 	bl	20001740 <__update_dma_transfer_state_irqs_enabled.part.0_veneer>
20000c74:	20012a70 	.word	0x20012a70
20000c78:	20012654 	.word	0x20012654
20000c7c:	2001263c 	.word	0x2001263c
20000c80:	10005304 	.word	0x10005304
20000c84:	100053f0 	.word	0x100053f0
20000c88:	1000529c 	.word	0x1000529c

20000c8c <isr_irq16>:
20000c8c:	e92d 4ff0 	stmdb	sp!, {r4, r5, r6, r7, r8, r9, sl, fp, lr}
20000c90:	2600      	movs	r6, #0
20000c92:	4b57      	ldr	r3, [pc, #348]	; (20000df0 <isr_irq16+0x164>)
20000c94:	b08b      	sub	sp, #44	; 0x2c
20000c96:	e9d3 2902 	ldrd	r2, r9, [r3, #8]
20000c9a:	9205      	str	r2, [sp, #20]
20000c9c:	695a      	ldr	r2, [r3, #20]
20000c9e:	46b2      	mov	sl, r6
20000ca0:	9208      	str	r2, [sp, #32]
20000ca2:	691a      	ldr	r2, [r3, #16]
20000ca4:	8e99      	ldrh	r1, [r3, #52]	; 0x34
20000ca6:	9209      	str	r2, [sp, #36]	; 0x24
20000ca8:	69da      	ldr	r2, [r3, #28]
20000caa:	6b1c      	ldr	r4, [r3, #48]	; 0x30
20000cac:	9206      	str	r2, [sp, #24]
20000cae:	e9d3 8208 	ldrd	r8, r2, [r3, #32]
20000cb2:	9202      	str	r2, [sp, #8]
20000cb4:	6ada      	ldr	r2, [r3, #44]	; 0x2c
20000cb6:	6b9d      	ldr	r5, [r3, #56]	; 0x38
20000cb8:	9207      	str	r2, [sp, #28]
20000cba:	699a      	ldr	r2, [r3, #24]
20000cbc:	681f      	ldr	r7, [r3, #0]
20000cbe:	9203      	str	r2, [sp, #12]
20000cc0:	6a9a      	ldr	r2, [r3, #40]	; 0x28
20000cc2:	f8d3 e004 	ldr.w	lr, [r3, #4]
20000cc6:	9204      	str	r2, [sp, #16]
20000cc8:	4a4a      	ldr	r2, [pc, #296]	; (20000df4 <isr_irq16+0x168>)
20000cca:	484b      	ldr	r0, [pc, #300]	; (20000df8 <isr_irq16+0x16c>)
20000ccc:	f8d2 c004 	ldr.w	ip, [r2, #4]
20000cd0:	9601      	str	r6, [sp, #4]
20000cd2:	f41c 2f00 	tst.w	ip, #524288	; 0x80000
20000cd6:	d158      	bne.n	20000d8a <isr_irq16+0xfe>
20000cd8:	f850 6021 	ldr.w	r6, [r0, r1, lsl #2]
20000cdc:	ea44 0c06 	orr.w	ip, r4, r6
20000ce0:	f8c2 c01c 	str.w	ip, [r2, #28]
20000ce4:	f101 0c01 	add.w	ip, r1, #1
20000ce8:	fa1f fc8c 	uxth.w	ip, ip
20000cec:	f1bc 0f03 	cmp.w	ip, #3
20000cf0:	d835      	bhi.n	20000d5e <isr_irq16+0xd2>
20000cf2:	f8d2 b004 	ldr.w	fp, [r2, #4]
20000cf6:	f41b 2f00 	tst.w	fp, #524288	; 0x80000
20000cfa:	d153      	bne.n	20000da4 <isr_irq16+0x118>
20000cfc:	f850 c02c 	ldr.w	ip, [r0, ip, lsl #2]
20000d00:	ea44 0c0c 	orr.w	ip, r4, ip
20000d04:	f8c2 c01c 	str.w	ip, [r2, #28]
20000d08:	f101 0c02 	add.w	ip, r1, #2
20000d0c:	fa1f fc8c 	uxth.w	ip, ip
20000d10:	f1bc 0f04 	cmp.w	ip, #4
20000d14:	d023      	beq.n	20000d5e <isr_irq16+0xd2>
20000d16:	f8d2 b004 	ldr.w	fp, [r2, #4]
20000d1a:	f41b 2f00 	tst.w	fp, #524288	; 0x80000
20000d1e:	d141      	bne.n	20000da4 <isr_irq16+0x118>
20000d20:	f850 c02c 	ldr.w	ip, [r0, ip, lsl #2]
20000d24:	ea44 0c0c 	orr.w	ip, r4, ip
20000d28:	f8c2 c01c 	str.w	ip, [r2, #28]
20000d2c:	f101 0c03 	add.w	ip, r1, #3
20000d30:	fa1f fc8c 	uxth.w	ip, ip
20000d34:	f1bc 0f04 	cmp.w	ip, #4
20000d38:	d011      	beq.n	20000d5e <isr_irq16+0xd2>
20000d3a:	f8d2 b004 	ldr.w	fp, [r2, #4]
20000d3e:	f41b 2f00 	tst.w	fp, #524288	; 0x80000
20000d42:	d12f      	bne.n	20000da4 <isr_irq16+0x118>
20000d44:	f850 c02c 	ldr.w	ip, [r0, ip, lsl #2]
20000d48:	ea44 0c0c 	orr.w	ip, r4, ip
20000d4c:	f8c2 c01c 	str.w	ip, [r2, #28]
20000d50:	b129      	cbz	r1, 20000d5e <isr_irq16+0xd2>
20000d52:	6851      	ldr	r1, [r2, #4]
20000d54:	0309      	lsls	r1, r1, #12
20000d56:	d439      	bmi.n	20000dcc <isr_irq16+0x140>
20000d58:	68c1      	ldr	r1, [r0, #12]
20000d5a:	4321      	orrs	r1, r4
20000d5c:	61d1      	str	r1, [r2, #28]
20000d5e:	3501      	adds	r5, #1
20000d60:	42bd      	cmp	r5, r7
20000d62:	db09      	blt.n	20000d78 <isr_irq16+0xec>
20000d64:	4575      	cmp	r5, lr
20000d66:	db21      	blt.n	20000dac <isr_irq16+0x120>
20000d68:	2500      	movs	r5, #0
20000d6a:	9903      	ldr	r1, [sp, #12]
20000d6c:	e9c0 1800 	strd	r1, r8, [r0]
20000d70:	9902      	ldr	r1, [sp, #8]
20000d72:	6081      	str	r1, [r0, #8]
20000d74:	9904      	ldr	r1, [sp, #16]
20000d76:	60c1      	str	r1, [r0, #12]
20000d78:	f8d2 c004 	ldr.w	ip, [r2, #4]
20000d7c:	f04f 0a01 	mov.w	sl, #1
20000d80:	f41c 2f00 	tst.w	ip, #524288	; 0x80000
20000d84:	f04f 0100 	mov.w	r1, #0
20000d88:	d0a6      	beq.n	20000cd8 <isr_irq16+0x4c>
20000d8a:	9e01      	ldr	r6, [sp, #4]
20000d8c:	f1ba 0f00 	cmp.w	sl, #0
20000d90:	d000      	beq.n	20000d94 <isr_irq16+0x108>
20000d92:	8699      	strh	r1, [r3, #52]	; 0x34
20000d94:	b9ee      	cbnz	r6, 20000dd2 <isr_irq16+0x146>
20000d96:	f1ba 0f00 	cmp.w	sl, #0
20000d9a:	d000      	beq.n	20000d9e <isr_irq16+0x112>
20000d9c:	639d      	str	r5, [r3, #56]	; 0x38
20000d9e:	b00b      	add	sp, #44	; 0x2c
20000da0:	e8bd 8ff0 	ldmia.w	sp!, {r4, r5, r6, r7, r8, r9, sl, fp, pc}
20000da4:	4661      	mov	r1, ip
20000da6:	9e01      	ldr	r6, [sp, #4]
20000da8:	8699      	strh	r1, [r3, #52]	; 0x34
20000daa:	e7f3      	b.n	20000d94 <isr_irq16+0x108>
20000dac:	454d      	cmp	r5, r9
20000dae:	dce3      	bgt.n	20000d78 <isr_irq16+0xec>
20000db0:	42bd      	cmp	r5, r7
20000db2:	d010      	beq.n	20000dd6 <isr_irq16+0x14a>
20000db4:	9905      	ldr	r1, [sp, #20]
20000db6:	428d      	cmp	r5, r1
20000db8:	d015      	beq.n	20000de6 <isr_irq16+0x15a>
20000dba:	9908      	ldr	r1, [sp, #32]
20000dbc:	454d      	cmp	r5, r9
20000dbe:	bf08      	it	eq
20000dc0:	460c      	moveq	r4, r1
20000dc2:	9901      	ldr	r1, [sp, #4]
20000dc4:	bf08      	it	eq
20000dc6:	2101      	moveq	r1, #1
20000dc8:	9101      	str	r1, [sp, #4]
20000dca:	e7d5      	b.n	20000d78 <isr_irq16+0xec>
20000dcc:	2103      	movs	r1, #3
20000dce:	9e01      	ldr	r6, [sp, #4]
20000dd0:	e7df      	b.n	20000d92 <isr_irq16+0x106>
20000dd2:	631c      	str	r4, [r3, #48]	; 0x30
20000dd4:	e7df      	b.n	20000d96 <isr_irq16+0x10a>
20000dd6:	9906      	ldr	r1, [sp, #24]
20000dd8:	e9c0 1800 	strd	r1, r8, [r0]
20000ddc:	9902      	ldr	r1, [sp, #8]
20000dde:	6081      	str	r1, [r0, #8]
20000de0:	9907      	ldr	r1, [sp, #28]
20000de2:	60c1      	str	r1, [r0, #12]
20000de4:	e7c8      	b.n	20000d78 <isr_irq16+0xec>
20000de6:	2101      	movs	r1, #1
20000de8:	9c09      	ldr	r4, [sp, #36]	; 0x24
20000dea:	9101      	str	r1, [sp, #4]
20000dec:	e7c4      	b.n	20000d78 <isr_irq16+0xec>
20000dee:	bf00      	nop
20000df0:	20012a2c 	.word	0x20012a2c
20000df4:	50200000 	.word	0x50200000
20000df8:	200128d8 	.word	0x200128d8

20000dfc <isr_irq10>:
20000dfc:	4981      	ldr	r1, [pc, #516]	; (20001004 <isr_irq10+0x208>)
20000dfe:	b5f8      	push	{r3, r4, r5, r6, r7, lr}
20000e00:	6b4b      	ldr	r3, [r1, #52]	; 0x34
20000e02:	f3ef 8410 	mrs	r4, PRIMASK
20000e06:	b672      	cpsid	i
20000e08:	e8d3 0fcf 	ldaexb	r0, [r3]
20000e0c:	2201      	movs	r2, #1
20000e0e:	2800      	cmp	r0, #0
20000e10:	d1fa      	bne.n	20000e08 <isr_irq10+0xc>
20000e12:	e8c3 2f40 	strexb	r0, r2, [r3]
20000e16:	2800      	cmp	r0, #0
20000e18:	d1f6      	bne.n	20000e08 <isr_irq10+0xc>
20000e1a:	f3bf 8f5f 	dmb	sy
20000e1e:	f891 303d 	ldrb.w	r3, [r1, #61]	; 0x3d
20000e22:	2b00      	cmp	r3, #0
20000e24:	d149      	bne.n	20000eba <isr_irq10+0xbe>
20000e26:	6b8b      	ldr	r3, [r1, #56]	; 0x38
20000e28:	2b00      	cmp	r3, #0
20000e2a:	f040 8101 	bne.w	20001030 <isr_irq10+0x234>
20000e2e:	f891 303c 	ldrb.w	r3, [r1, #60]	; 0x3c
20000e32:	2b00      	cmp	r3, #0
20000e34:	f040 8103 	bne.w	2000103e <isr_irq10+0x242>
20000e38:	6b4a      	ldr	r2, [r1, #52]	; 0x34
20000e3a:	e8c2 3f8f 	stlb	r3, [r2]
20000e3e:	f384 8810 	msr	PRIMASK, r4
20000e42:	68ca      	ldr	r2, [r1, #12]
20000e44:	f3ef 8710 	mrs	r7, PRIMASK
20000e48:	b672      	cpsid	i
20000e4a:	e8d2 4fcf 	ldaexb	r4, [r2]
20000e4e:	2001      	movs	r0, #1
20000e50:	2c00      	cmp	r4, #0
20000e52:	d1fa      	bne.n	20000e4a <isr_irq10+0x4e>
20000e54:	e8c2 0f44 	strexb	r4, r0, [r2]
20000e58:	2c00      	cmp	r4, #0
20000e5a:	d1f6      	bne.n	20000e4a <isr_irq10+0x4e>
20000e5c:	f3bf 8f5f 	dmb	sy
20000e60:	6908      	ldr	r0, [r1, #16]
20000e62:	2800      	cmp	r0, #0
20000e64:	f000 808b 	beq.w	20000f7e <isr_irq10+0x182>
20000e68:	2600      	movs	r6, #0
20000e6a:	2400      	movs	r4, #0
20000e6c:	68ca      	ldr	r2, [r1, #12]
20000e6e:	e8c2 4f8f 	stlb	r4, [r2]
20000e72:	f387 8810 	msr	PRIMASK, r7
20000e76:	2b00      	cmp	r3, #0
20000e78:	d140      	bne.n	20000efc <isr_irq10+0x100>
20000e7a:	b1ee      	cbz	r6, 20000eb8 <isr_irq10+0xbc>
20000e7c:	4632      	mov	r2, r6
20000e7e:	6acb      	ldr	r3, [r1, #44]	; 0x2c
20000e80:	f3ef 8410 	mrs	r4, PRIMASK
20000e84:	b672      	cpsid	i
20000e86:	e8d3 5fcf 	ldaexb	r5, [r3]
20000e8a:	2001      	movs	r0, #1
20000e8c:	2d00      	cmp	r5, #0
20000e8e:	d1fa      	bne.n	20000e86 <isr_irq10+0x8a>
20000e90:	e8c3 0f45 	strexb	r5, r0, [r3]
20000e94:	2d00      	cmp	r5, #0
20000e96:	d1f6      	bne.n	20000e86 <isr_irq10+0x8a>
20000e98:	f3bf 8f5f 	dmb	sy
20000e9c:	4613      	mov	r3, r2
20000e9e:	4618      	mov	r0, r3
20000ea0:	695b      	ldr	r3, [r3, #20]
20000ea2:	2b00      	cmp	r3, #0
20000ea4:	d1fb      	bne.n	20000e9e <isr_irq10+0xa2>
20000ea6:	6b0d      	ldr	r5, [r1, #48]	; 0x30
20000ea8:	6145      	str	r5, [r0, #20]
20000eaa:	6ac8      	ldr	r0, [r1, #44]	; 0x2c
20000eac:	630a      	str	r2, [r1, #48]	; 0x30
20000eae:	e8c0 3f8f 	stlb	r3, [r0]
20000eb2:	f384 8810 	msr	PRIMASK, r4
20000eb6:	bf40      	sev
20000eb8:	bdf8      	pop	{r3, r4, r5, r6, r7, pc}
20000eba:	f04f 43a0 	mov.w	r3, #1342177280	; 0x50000000
20000ebe:	f8d3 040c 	ldr.w	r0, [r3, #1036]	; 0x40c
20000ec2:	6b8a      	ldr	r2, [r1, #56]	; 0x38
20000ec4:	07c7      	lsls	r7, r0, #31
20000ec6:	d512      	bpl.n	20000eee <isr_irq10+0xf2>
20000ec8:	2001      	movs	r0, #1
20000eca:	ea42 0500 	orr.w	r5, r2, r0
20000ece:	f032 0201 	bics.w	r2, r2, #1
20000ed2:	f8c3 040c 	str.w	r0, [r3, #1036]	; 0x40c
20000ed6:	d047      	beq.n	20000f68 <isr_irq10+0x16c>
20000ed8:	f8d3 240c 	ldr.w	r2, [r3, #1036]	; 0x40c
20000edc:	07d2      	lsls	r2, r2, #31
20000ede:	d505      	bpl.n	20000eec <isr_irq10+0xf0>
20000ee0:	f8c3 040c 	str.w	r0, [r3, #1036]	; 0x40c
20000ee4:	f8d3 240c 	ldr.w	r2, [r3, #1036]	; 0x40c
20000ee8:	07d6      	lsls	r6, r2, #31
20000eea:	d4f9      	bmi.n	20000ee0 <isr_irq10+0xe4>
20000eec:	638d      	str	r5, [r1, #56]	; 0x38
20000eee:	2300      	movs	r3, #0
20000ef0:	6b4a      	ldr	r2, [r1, #52]	; 0x34
20000ef2:	e8c2 3f8f 	stlb	r3, [r2]
20000ef6:	f384 8810 	msr	PRIMASK, r4
20000efa:	bdf8      	pop	{r3, r4, r5, r6, r7, pc}
20000efc:	680a      	ldr	r2, [r1, #0]
20000efe:	f3ef 8c10 	mrs	ip, PRIMASK
20000f02:	b672      	cpsid	i
20000f04:	e8d2 5fcf 	ldaexb	r5, [r2]
20000f08:	2001      	movs	r0, #1
20000f0a:	2d00      	cmp	r5, #0
20000f0c:	d1fa      	bne.n	20000f04 <isr_irq10+0x108>
20000f0e:	e8c2 0f45 	strexb	r5, r0, [r2]
20000f12:	2d00      	cmp	r5, #0
20000f14:	d1f6      	bne.n	20000f04 <isr_irq10+0x108>
20000f16:	f3bf 8f5f 	dmb	sy
20000f1a:	4625      	mov	r5, r4
20000f1c:	e9d1 2701 	ldrd	r2, r7, [r1, #4]
20000f20:	3b01      	subs	r3, #1
20000f22:	b15a      	cbz	r2, 20000f3c <isr_irq10+0x140>
20000f24:	6950      	ldr	r0, [r2, #20]
20000f26:	b1d8      	cbz	r0, 20000f60 <isr_irq10+0x164>
20000f28:	2501      	movs	r5, #1
20000f2a:	3b01      	subs	r3, #1
20000f2c:	f1b3 3fff 	cmp.w	r3, #4294967295
20000f30:	6156      	str	r6, [r2, #20]
20000f32:	4616      	mov	r6, r2
20000f34:	d009      	beq.n	20000f4a <isr_irq10+0x14e>
20000f36:	4602      	mov	r2, r0
20000f38:	2a00      	cmp	r2, #0
20000f3a:	d1f3      	bne.n	20000f24 <isr_irq10+0x128>
20000f3c:	3b01      	subs	r3, #1
20000f3e:	f1b3 3fff 	cmp.w	r3, #4294967295
20000f42:	6156      	str	r6, [r2, #20]
20000f44:	4610      	mov	r0, r2
20000f46:	4616      	mov	r6, r2
20000f48:	d1f5      	bne.n	20000f36 <isr_irq10+0x13a>
20000f4a:	b105      	cbz	r5, 20000f4e <isr_irq10+0x152>
20000f4c:	6048      	str	r0, [r1, #4]
20000f4e:	b104      	cbz	r4, 20000f52 <isr_irq10+0x156>
20000f50:	608f      	str	r7, [r1, #8]
20000f52:	2300      	movs	r3, #0
20000f54:	6808      	ldr	r0, [r1, #0]
20000f56:	e8c0 3f8f 	stlb	r3, [r0]
20000f5a:	f38c 8810 	msr	PRIMASK, ip
20000f5e:	e78e      	b.n	20000e7e <isr_irq10+0x82>
20000f60:	2401      	movs	r4, #1
20000f62:	4607      	mov	r7, r0
20000f64:	4625      	mov	r5, r4
20000f66:	e7e0      	b.n	20000f2a <isr_irq10+0x12e>
20000f68:	2200      	movs	r2, #0
20000f6a:	f891 303c 	ldrb.w	r3, [r1, #60]	; 0x3c
20000f6e:	6b48      	ldr	r0, [r1, #52]	; 0x34
20000f70:	638a      	str	r2, [r1, #56]	; 0x38
20000f72:	878a      	strh	r2, [r1, #60]	; 0x3c
20000f74:	e8c0 2f8f 	stlb	r2, [r0]
20000f78:	f384 8810 	msr	PRIMASK, r4
20000f7c:	e761      	b.n	20000e42 <isr_irq10+0x46>
20000f7e:	6a4e      	ldr	r6, [r1, #36]	; 0x24
20000f80:	2e00      	cmp	r6, #0
20000f82:	f43f af72 	beq.w	20000e6a <isr_irq10+0x6e>
20000f86:	698d      	ldr	r5, [r1, #24]
20000f88:	6832      	ldr	r2, [r6, #0]
20000f8a:	1aac      	subs	r4, r5, r2
20000f8c:	2c00      	cmp	r4, #0
20000f8e:	dd0a      	ble.n	20000fa6 <isr_irq10+0x1aa>
20000f90:	6972      	ldr	r2, [r6, #20]
20000f92:	624a      	str	r2, [r1, #36]	; 0x24
20000f94:	2a00      	cmp	r2, #0
20000f96:	d032      	beq.n	20000ffe <isr_irq10+0x202>
20000f98:	6170      	str	r0, [r6, #20]
20000f9a:	4630      	mov	r0, r6
20000f9c:	4616      	mov	r6, r2
20000f9e:	6832      	ldr	r2, [r6, #0]
20000fa0:	1aac      	subs	r4, r5, r2
20000fa2:	2c00      	cmp	r4, #0
20000fa4:	dcf4      	bgt.n	20000f90 <isr_irq10+0x194>
20000fa6:	4295      	cmp	r5, r2
20000fa8:	d13a      	bne.n	20001020 <isr_irq10+0x224>
20000faa:	6972      	ldr	r2, [r6, #20]
20000fac:	624a      	str	r2, [r1, #36]	; 0x24
20000fae:	2a00      	cmp	r2, #0
20000fb0:	d03c      	beq.n	2000102c <isr_irq10+0x230>
20000fb2:	2200      	movs	r2, #0
20000fb4:	6172      	str	r2, [r6, #20]
20000fb6:	680a      	ldr	r2, [r1, #0]
20000fb8:	e8d2 5fcf 	ldaexb	r5, [r2]
20000fbc:	2401      	movs	r4, #1
20000fbe:	2d00      	cmp	r5, #0
20000fc0:	d1fa      	bne.n	20000fb8 <isr_irq10+0x1bc>
20000fc2:	e8c2 4f45 	strexb	r5, r4, [r2]
20000fc6:	2d00      	cmp	r5, #0
20000fc8:	d1f6      	bne.n	20000fb8 <isr_irq10+0x1bc>
20000fca:	f3bf 8f5f 	dmb	sy
20000fce:	684a      	ldr	r2, [r1, #4]
20000fd0:	b342      	cbz	r2, 20001024 <isr_irq10+0x228>
20000fd2:	6835      	ldr	r5, [r6, #0]
20000fd4:	6814      	ldr	r4, [r2, #0]
20000fd6:	1b2c      	subs	r4, r5, r4
20000fd8:	2c00      	cmp	r4, #0
20000fda:	dd24      	ble.n	20001026 <isr_irq10+0x22a>
20000fdc:	f8d1 c008 	ldr.w	ip, [r1, #8]
20000fe0:	f8dc 4000 	ldr.w	r4, [ip]
20000fe4:	1b2c      	subs	r4, r5, r4
20000fe6:	2c00      	cmp	r4, #0
20000fe8:	dd12      	ble.n	20001010 <isr_irq10+0x214>
20000fea:	f8cc 6014 	str.w	r6, [ip, #20]
20000fee:	608e      	str	r6, [r1, #8]
20000ff0:	2200      	movs	r2, #0
20000ff2:	680c      	ldr	r4, [r1, #0]
20000ff4:	e8c4 2f8f 	stlb	r2, [r4]
20000ff8:	610e      	str	r6, [r1, #16]
20000ffa:	4606      	mov	r6, r0
20000ffc:	e735      	b.n	20000e6a <isr_irq10+0x6e>
20000ffe:	628a      	str	r2, [r1, #40]	; 0x28
20001000:	6170      	str	r0, [r6, #20]
20001002:	e732      	b.n	20000e6a <isr_irq10+0x6e>
20001004:	200129e4 	.word	0x200129e4
20001008:	6814      	ldr	r4, [r2, #0]
2000100a:	1b2c      	subs	r4, r5, r4
2000100c:	2c00      	cmp	r4, #0
2000100e:	dd03      	ble.n	20001018 <isr_irq10+0x21c>
20001010:	4694      	mov	ip, r2
20001012:	6952      	ldr	r2, [r2, #20]
20001014:	2a00      	cmp	r2, #0
20001016:	d1f7      	bne.n	20001008 <isr_irq10+0x20c>
20001018:	6172      	str	r2, [r6, #20]
2000101a:	f8cc 6014 	str.w	r6, [ip, #20]
2000101e:	e7e7      	b.n	20000ff0 <isr_irq10+0x1f4>
20001020:	4606      	mov	r6, r0
20001022:	e722      	b.n	20000e6a <isr_irq10+0x6e>
20001024:	608e      	str	r6, [r1, #8]
20001026:	6172      	str	r2, [r6, #20]
20001028:	604e      	str	r6, [r1, #4]
2000102a:	e7e1      	b.n	20000ff0 <isr_irq10+0x1f4>
2000102c:	628a      	str	r2, [r1, #40]	; 0x28
2000102e:	e7c2      	b.n	20000fb6 <isr_irq10+0x1ba>
20001030:	f240 2152 	movw	r1, #594	; 0x252
20001034:	4b03      	ldr	r3, [pc, #12]	; (20001044 <isr_irq10+0x248>)
20001036:	4a04      	ldr	r2, [pc, #16]	; (20001048 <isr_irq10+0x24c>)
20001038:	4804      	ldr	r0, [pc, #16]	; (2000104c <isr_irq10+0x250>)
2000103a:	f000 fb89 	bl	20001750 <____assert_func_veneer>
2000103e:	f000 fb7f 	bl	20001740 <__update_dma_transfer_state_irqs_enabled.part.0_veneer>
20001042:	bf00      	nop
20001044:	10005304 	.word	0x10005304
20001048:	100053f0 	.word	0x100053f0
2000104c:	1000529c 	.word	0x1000529c

20001050 <scanvideo_begin_scanline_generation>:
20001050:	b430      	push	{r4, r5}
20001052:	2800      	cmp	r0, #0
20001054:	d03d      	beq.n	200010d2 <scanvideo_begin_scanline_generation+0x82>
20001056:	4b3a      	ldr	r3, [pc, #232]	; (20001140 <scanvideo_begin_scanline_generation+0xf0>)
20001058:	6ada      	ldr	r2, [r3, #44]	; 0x2c
2000105a:	f3ef 8110 	mrs	r1, PRIMASK
2000105e:	b672      	cpsid	i
20001060:	e8d2 4fcf 	ldaexb	r4, [r2]
20001064:	2001      	movs	r0, #1
20001066:	2c00      	cmp	r4, #0
20001068:	d1fa      	bne.n	20001060 <scanvideo_begin_scanline_generation+0x10>
2000106a:	e8c2 0f44 	strexb	r4, r0, [r2]
2000106e:	2c00      	cmp	r4, #0
20001070:	d1f6      	bne.n	20001060 <scanvideo_begin_scanline_generation+0x10>
20001072:	f3bf 8f5f 	dmb	sy
20001076:	6b18      	ldr	r0, [r3, #48]	; 0x30
20001078:	2800      	cmp	r0, #0
2000107a:	d04c      	beq.n	20001116 <scanvideo_begin_scanline_generation+0xc6>
2000107c:	2200      	movs	r2, #0
2000107e:	6945      	ldr	r5, [r0, #20]
20001080:	6adc      	ldr	r4, [r3, #44]	; 0x2c
20001082:	631d      	str	r5, [r3, #48]	; 0x30
20001084:	6142      	str	r2, [r0, #20]
20001086:	e8c4 2f8f 	stlb	r2, [r4]
2000108a:	f381 8810 	msr	PRIMASK, r1
2000108e:	68da      	ldr	r2, [r3, #12]
20001090:	f3ef 8410 	mrs	r4, PRIMASK
20001094:	b672      	cpsid	i
20001096:	e8d2 cfcf 	ldaexb	ip, [r2]
2000109a:	2101      	movs	r1, #1
2000109c:	f1bc 0f00 	cmp.w	ip, #0
200010a0:	d1f9      	bne.n	20001096 <scanvideo_begin_scanline_generation+0x46>
200010a2:	e8c2 1f4c 	strexb	ip, r1, [r2]
200010a6:	f1bc 0f00 	cmp.w	ip, #0
200010aa:	d1f4      	bne.n	20001096 <scanvideo_begin_scanline_generation+0x46>
200010ac:	f3bf 8f5f 	dmb	sy
200010b0:	e9d3 1205 	ldrd	r1, r2, [r3, #20]
200010b4:	eba2 0c01 	sub.w	ip, r2, r1
200010b8:	f1bc 0f00 	cmp.w	ip, #0
200010bc:	dd32      	ble.n	20001124 <scanvideo_begin_scanline_generation+0xd4>
200010be:	615a      	str	r2, [r3, #20]
200010c0:	2100      	movs	r1, #0
200010c2:	68db      	ldr	r3, [r3, #12]
200010c4:	6002      	str	r2, [r0, #0]
200010c6:	e8c3 1f8f 	stlb	r1, [r3]
200010ca:	f384 8810 	msr	PRIMASK, r4
200010ce:	bc30      	pop	{r4, r5}
200010d0:	4770      	bx	lr
200010d2:	4b1b      	ldr	r3, [pc, #108]	; (20001140 <scanvideo_begin_scanline_generation+0xf0>)
200010d4:	4604      	mov	r4, r0
200010d6:	6ada      	ldr	r2, [r3, #44]	; 0x2c
200010d8:	f3ef 8110 	mrs	r1, PRIMASK
200010dc:	b672      	cpsid	i
200010de:	e8d2 cfcf 	ldaexb	ip, [r2]
200010e2:	2001      	movs	r0, #1
200010e4:	f1bc 0f00 	cmp.w	ip, #0
200010e8:	d1f9      	bne.n	200010de <scanvideo_begin_scanline_generation+0x8e>
200010ea:	e8c2 0f4c 	strexb	ip, r0, [r2]
200010ee:	f1bc 0f00 	cmp.w	ip, #0
200010f2:	d1f4      	bne.n	200010de <scanvideo_begin_scanline_generation+0x8e>
200010f4:	f3bf 8f5f 	dmb	sy
200010f8:	6b18      	ldr	r0, [r3, #48]	; 0x30
200010fa:	b110      	cbz	r0, 20001102 <scanvideo_begin_scanline_generation+0xb2>
200010fc:	6942      	ldr	r2, [r0, #20]
200010fe:	631a      	str	r2, [r3, #48]	; 0x30
20001100:	6144      	str	r4, [r0, #20]
20001102:	2200      	movs	r2, #0
20001104:	6adc      	ldr	r4, [r3, #44]	; 0x2c
20001106:	e8c4 2f8f 	stlb	r2, [r4]
2000110a:	f381 8810 	msr	PRIMASK, r1
2000110e:	2800      	cmp	r0, #0
20001110:	d1bd      	bne.n	2000108e <scanvideo_begin_scanline_generation+0x3e>
20001112:	bc30      	pop	{r4, r5}
20001114:	4770      	bx	lr
20001116:	6ada      	ldr	r2, [r3, #44]	; 0x2c
20001118:	e8c2 0f8f 	stlb	r0, [r2]
2000111c:	f381 8810 	msr	PRIMASK, r1
20001120:	bf20      	wfe
20001122:	e799      	b.n	20001058 <scanvideo_begin_scanline_generation+0x8>
20001124:	4d07      	ldr	r5, [pc, #28]	; (20001144 <scanvideo_begin_scanline_generation+0xf4>)
20001126:	b28a      	uxth	r2, r1
20001128:	f8b5 c00a 	ldrh.w	ip, [r5, #10]
2000112c:	f10c 3cff 	add.w	ip, ip, #4294967295
20001130:	4562      	cmp	r2, ip
20001132:	bf2a      	itet	cs
20001134:	f501 3180 	addcs.w	r1, r1, #65536	; 0x10000
20001138:	1c4a      	addcc	r2, r1, #1
2000113a:	1a8a      	subcs	r2, r1, r2
2000113c:	e7bf      	b.n	200010be <scanvideo_begin_scanline_generation+0x6e>
2000113e:	bf00      	nop
20001140:	200129e4 	.word	0x200129e4
20001144:	20012a78 	.word	0x20012a78

20001148 <scanvideo_end_scanline_generation>:
20001148:	b530      	push	{r4, r5, lr}
2000114a:	4c1a      	ldr	r4, [pc, #104]	; (200011b4 <scanvideo_end_scanline_generation+0x6c>)
2000114c:	68e3      	ldr	r3, [r4, #12]
2000114e:	f3ef 8c10 	mrs	ip, PRIMASK
20001152:	b672      	cpsid	i
20001154:	e8d3 1fcf 	ldaexb	r1, [r3]
20001158:	2201      	movs	r2, #1
2000115a:	2900      	cmp	r1, #0
2000115c:	d1fa      	bne.n	20001154 <scanvideo_end_scanline_generation+0xc>
2000115e:	e8c3 2f41 	strexb	r1, r2, [r3]
20001162:	2900      	cmp	r1, #0
20001164:	d1f6      	bne.n	20001154 <scanvideo_end_scanline_generation+0xc>
20001166:	f3bf 8f5f 	dmb	sy
2000116a:	6a63      	ldr	r3, [r4, #36]	; 0x24
2000116c:	b163      	cbz	r3, 20001188 <scanvideo_end_scanline_generation+0x40>
2000116e:	6801      	ldr	r1, [r0, #0]
20001170:	681a      	ldr	r2, [r3, #0]
20001172:	1a8a      	subs	r2, r1, r2
20001174:	2a00      	cmp	r2, #0
20001176:	dd08      	ble.n	2000118a <scanvideo_end_scanline_generation+0x42>
20001178:	6aa5      	ldr	r5, [r4, #40]	; 0x28
2000117a:	682a      	ldr	r2, [r5, #0]
2000117c:	1a8a      	subs	r2, r1, r2
2000117e:	2a00      	cmp	r2, #0
20001180:	dd10      	ble.n	200011a4 <scanvideo_end_scanline_generation+0x5c>
20001182:	6168      	str	r0, [r5, #20]
20001184:	62a0      	str	r0, [r4, #40]	; 0x28
20001186:	e002      	b.n	2000118e <scanvideo_end_scanline_generation+0x46>
20001188:	62a0      	str	r0, [r4, #40]	; 0x28
2000118a:	6143      	str	r3, [r0, #20]
2000118c:	6260      	str	r0, [r4, #36]	; 0x24
2000118e:	2300      	movs	r3, #0
20001190:	68e2      	ldr	r2, [r4, #12]
20001192:	e8c2 3f8f 	stlb	r3, [r2]
20001196:	f38c 8810 	msr	PRIMASK, ip
2000119a:	bd30      	pop	{r4, r5, pc}
2000119c:	681a      	ldr	r2, [r3, #0]
2000119e:	1a8a      	subs	r2, r1, r2
200011a0:	2a00      	cmp	r2, #0
200011a2:	dd03      	ble.n	200011ac <scanvideo_end_scanline_generation+0x64>
200011a4:	469e      	mov	lr, r3
200011a6:	695b      	ldr	r3, [r3, #20]
200011a8:	2b00      	cmp	r3, #0
200011aa:	d1f7      	bne.n	2000119c <scanvideo_end_scanline_generation+0x54>
200011ac:	6143      	str	r3, [r0, #20]
200011ae:	f8ce 0014 	str.w	r0, [lr, #20]
200011b2:	e7ec      	b.n	2000118e <scanvideo_end_scanline_generation+0x46>
200011b4:	200129e4 	.word	0x200129e4

200011b8 <sprite_fill16>:
200011b8:	2a0f      	cmp	r2, #15
200011ba:	d816      	bhi.n	200011ea <sprite_fill16+0x32>
200011bc:	a30a      	add	r3, pc, #40	; (adr r3, 200011e8 <sprite_fill16+0x30>)
200011be:	0052      	lsls	r2, r2, #1
200011c0:	1a9b      	subs	r3, r3, r2
200011c2:	3301      	adds	r3, #1
200011c4:	4718      	bx	r3
200011c6:	46c0      	nop			; (mov r8, r8)
200011c8:	83c1      	strh	r1, [r0, #30]
200011ca:	8381      	strh	r1, [r0, #28]
200011cc:	8341      	strh	r1, [r0, #26]
200011ce:	8301      	strh	r1, [r0, #24]
200011d0:	82c1      	strh	r1, [r0, #22]
200011d2:	8281      	strh	r1, [r0, #20]
200011d4:	8241      	strh	r1, [r0, #18]
200011d6:	8201      	strh	r1, [r0, #16]
200011d8:	81c1      	strh	r1, [r0, #14]
200011da:	8181      	strh	r1, [r0, #12]
200011dc:	8141      	strh	r1, [r0, #10]
200011de:	8101      	strh	r1, [r0, #8]
200011e0:	80c1      	strh	r1, [r0, #6]
200011e2:	8081      	strh	r1, [r0, #4]
200011e4:	8041      	strh	r1, [r0, #2]
200011e6:	8001      	strh	r1, [r0, #0]
200011e8:	4770      	bx	lr
200011ea:	b5f0      	push	{r4, r5, r6, r7, lr}
200011ec:	0893      	lsrs	r3, r2, #2
200011ee:	d302      	bcc.n	200011f6 <sprite_fill16+0x3e>
200011f0:	8001      	strh	r1, [r0, #0]
200011f2:	3002      	adds	r0, #2
200011f4:	3a01      	subs	r2, #1
200011f6:	0052      	lsls	r2, r2, #1
200011f8:	1812      	adds	r2, r2, r0
200011fa:	3a1a      	subs	r2, #26
200011fc:	4694      	mov	ip, r2
200011fe:	040a      	lsls	r2, r1, #16
20001200:	4311      	orrs	r1, r2
20001202:	460a      	mov	r2, r1
20001204:	460b      	mov	r3, r1
20001206:	460c      	mov	r4, r1
20001208:	460d      	mov	r5, r1
2000120a:	460e      	mov	r6, r1
2000120c:	460f      	mov	r7, r1
2000120e:	c0fe      	stmia	r0!, {r1, r2, r3, r4, r5, r6, r7}
20001210:	4560      	cmp	r0, ip
20001212:	d3fc      	bcc.n	2000120e <sprite_fill16+0x56>
20001214:	221a      	movs	r2, #26
20001216:	4462      	add	r2, ip
20001218:	1a12      	subs	r2, r2, r0
2000121a:	0712      	lsls	r2, r2, #28
2000121c:	d300      	bcc.n	20001220 <sprite_fill16+0x68>
2000121e:	c0f0      	stmia	r0!, {r4, r5, r6, r7}
20001220:	0052      	lsls	r2, r2, #1
20001222:	d300      	bcc.n	20001226 <sprite_fill16+0x6e>
20001224:	c030      	stmia	r0!, {r4, r5}
20001226:	0052      	lsls	r2, r2, #1
20001228:	d300      	bcc.n	2000122c <sprite_fill16+0x74>
2000122a:	c010      	stmia	r0!, {r4}
2000122c:	0052      	lsls	r2, r2, #1
2000122e:	d300      	bcc.n	20001232 <sprite_fill16+0x7a>
20001230:	8004      	strh	r4, [r0, #0]
20001232:	bdf0      	pop	{r4, r5, r6, r7, pc}

20001234 <sprite_blit16>:
20001234:	4684      	mov	ip, r0
20001236:	08d3      	lsrs	r3, r2, #3
20001238:	00db      	lsls	r3, r3, #3
2000123a:	405a      	eors	r2, r3
2000123c:	005b      	lsls	r3, r3, #1
2000123e:	4418      	add	r0, r3
20001240:	4419      	add	r1, r3
20001242:	a30b      	add	r3, pc, #44	; (adr r3, 20001270 <sprite_blit16+0x3c>)
20001244:	0092      	lsls	r2, r2, #2
20001246:	1a9b      	subs	r3, r3, r2
20001248:	3301      	adds	r3, #1
2000124a:	4718      	bx	r3
2000124c:	3810      	subs	r0, #16
2000124e:	3910      	subs	r1, #16
20001250:	89cb      	ldrh	r3, [r1, #14]
20001252:	81c3      	strh	r3, [r0, #14]
20001254:	898b      	ldrh	r3, [r1, #12]
20001256:	8183      	strh	r3, [r0, #12]
20001258:	894b      	ldrh	r3, [r1, #10]
2000125a:	8143      	strh	r3, [r0, #10]
2000125c:	890b      	ldrh	r3, [r1, #8]
2000125e:	8103      	strh	r3, [r0, #8]
20001260:	88cb      	ldrh	r3, [r1, #6]
20001262:	80c3      	strh	r3, [r0, #6]
20001264:	888b      	ldrh	r3, [r1, #4]
20001266:	8083      	strh	r3, [r0, #4]
20001268:	884b      	ldrh	r3, [r1, #2]
2000126a:	8043      	strh	r3, [r0, #2]
2000126c:	880b      	ldrh	r3, [r1, #0]
2000126e:	8003      	strh	r3, [r0, #0]
20001270:	4560      	cmp	r0, ip
20001272:	d8eb      	bhi.n	2000124c <sprite_blit16+0x18>
20001274:	4770      	bx	lr
20001276:	46c0      	nop			; (mov r8, r8)

20001278 <sprite_blit16_alpha>:
20001278:	4684      	mov	ip, r0
2000127a:	08d3      	lsrs	r3, r2, #3
2000127c:	00db      	lsls	r3, r3, #3
2000127e:	405a      	eors	r2, r3
20001280:	005b      	lsls	r3, r3, #1
20001282:	4418      	add	r0, r3
20001284:	4419      	add	r1, r3
20001286:	a313      	add	r3, pc, #76	; (adr r3, 200012d4 <sprite_blit16_alpha+0x5c>)
20001288:	00d2      	lsls	r2, r2, #3
2000128a:	1a9b      	subs	r3, r3, r2
2000128c:	3301      	adds	r3, #1
2000128e:	4718      	bx	r3
20001290:	3810      	subs	r0, #16
20001292:	3910      	subs	r1, #16
20001294:	89cb      	ldrh	r3, [r1, #14]
20001296:	099a      	lsrs	r2, r3, #6
20001298:	d300      	bcc.n	2000129c <sprite_blit16_alpha+0x24>
2000129a:	81c3      	strh	r3, [r0, #14]
2000129c:	898b      	ldrh	r3, [r1, #12]
2000129e:	099a      	lsrs	r2, r3, #6
200012a0:	d300      	bcc.n	200012a4 <sprite_blit16_alpha+0x2c>
200012a2:	8183      	strh	r3, [r0, #12]
200012a4:	894b      	ldrh	r3, [r1, #10]
200012a6:	099a      	lsrs	r2, r3, #6
200012a8:	d300      	bcc.n	200012ac <sprite_blit16_alpha+0x34>
200012aa:	8143      	strh	r3, [r0, #10]
200012ac:	890b      	ldrh	r3, [r1, #8]
200012ae:	099a      	lsrs	r2, r3, #6
200012b0:	d300      	bcc.n	200012b4 <sprite_blit16_alpha+0x3c>
200012b2:	8103      	strh	r3, [r0, #8]
200012b4:	88cb      	ldrh	r3, [r1, #6]
200012b6:	099a      	lsrs	r2, r3, #6
200012b8:	d300      	bcc.n	200012bc <sprite_blit16_alpha+0x44>
200012ba:	80c3      	strh	r3, [r0, #6]
200012bc:	888b      	ldrh	r3, [r1, #4]
200012be:	099a      	lsrs	r2, r3, #6
200012c0:	d300      	bcc.n	200012c4 <sprite_blit16_alpha+0x4c>
200012c2:	8083      	strh	r3, [r0, #4]
200012c4:	884b      	ldrh	r3, [r1, #2]
200012c6:	099a      	lsrs	r2, r3, #6
200012c8:	d300      	bcc.n	200012cc <sprite_blit16_alpha+0x54>
200012ca:	8043      	strh	r3, [r0, #2]
200012cc:	880b      	ldrh	r3, [r1, #0]
200012ce:	099a      	lsrs	r2, r3, #6
200012d0:	d300      	bcc.n	200012d4 <sprite_blit16_alpha+0x5c>
200012d2:	8003      	strh	r3, [r0, #0]
200012d4:	4560      	cmp	r0, ip
200012d6:	d8db      	bhi.n	20001290 <sprite_blit16_alpha+0x18>
200012d8:	4770      	bx	lr
200012da:	46c0      	nop			; (mov r8, r8)

200012dc <sprite_sprite16>:
200012dc:	e92d 4ff0 	stmdb	sp!, {r4, r5, r6, r7, r8, r9, sl, fp, lr}
200012e0:	b087      	sub	sp, #28
200012e2:	4604      	mov	r4, r0
200012e4:	468c      	mov	ip, r1
200012e6:	7a0d      	ldrb	r5, [r1, #8]
200012e8:	f04f 0e01 	mov.w	lr, #1
200012ec:	fa0e fe05 	lsl.w	lr, lr, r5
200012f0:	2100      	movs	r1, #0
200012f2:	9100      	str	r1, [sp, #0]
200012f4:	9101      	str	r1, [sp, #4]
200012f6:	9102      	str	r1, [sp, #8]
200012f8:	f9bc 1002 	ldrsh.w	r1, [ip, #2]
200012fc:	1a52      	subs	r2, r2, r1
200012fe:	9201      	str	r2, [sp, #4]
20001300:	f1ce 0100 	rsb	r1, lr, #0
20001304:	4211      	tst	r1, r2
20001306:	d157      	bne.n	200013b8 <sprite_sprite16+0xdc>
20001308:	f9bc 2000 	ldrsh.w	r2, [ip]
2000130c:	ea22 71e2 	bic.w	r1, r2, r2, asr #31
20001310:	1a88      	subs	r0, r1, r2
20001312:	9000      	str	r0, [sp, #0]
20001314:	4472      	add	r2, lr
20001316:	429a      	cmp	r2, r3
20001318:	bfd4      	ite	le
2000131a:	ebc1 0102 	rsble	r1, r1, r2
2000131e:	ebc1 0103 	rsbgt	r1, r1, r3
20001322:	9102      	str	r1, [sp, #8]
20001324:	466b      	mov	r3, sp
20001326:	e893 0007 	ldmia.w	r3, {r0, r1, r2}
2000132a:	ab06      	add	r3, sp, #24
2000132c:	e903 0007 	stmdb	r3, {r0, r1, r2}
20001330:	9b05      	ldr	r3, [sp, #20]
20001332:	2b00      	cmp	r3, #0
20001334:	dd64      	ble.n	20001400 <sprite_sprite16+0x124>
20001336:	f8dc 9004 	ldr.w	r9, [ip, #4]
2000133a:	f89c 2009 	ldrb.w	r2, [ip, #9]
2000133e:	2a00      	cmp	r2, #0
20001340:	d04e      	beq.n	200013e0 <sprite_sprite16+0x104>
20001342:	fa0e fe05 	lsl.w	lr, lr, r5
20001346:	f8dd 8010 	ldr.w	r8, [sp, #16]
2000134a:	ea4f 0288 	mov.w	r2, r8, lsl #2
2000134e:	eb02 0e4e 	add.w	lr, r2, lr, lsl #1
20001352:	f859 a00e 	ldr.w	sl, [r9, lr]
20001356:	466e      	mov	r6, sp
20001358:	f10d 0e0c 	add.w	lr, sp, #12
2000135c:	e89e 0007 	ldmia.w	lr, {r0, r1, r2}
20001360:	e886 0007 	stmia.w	r6, {r0, r1, r2}
20001364:	fa1f f08a 	uxth.w	r0, sl
20001368:	f3ca 470e 	ubfx	r7, sl, #16, #15
2000136c:	9a00      	ldr	r2, [sp, #0]
2000136e:	4297      	cmp	r7, r2
20001370:	bfb8      	it	lt
20001372:	4617      	movlt	r7, r2
20001374:	4413      	add	r3, r2
20001376:	9700      	str	r7, [sp, #0]
20001378:	4298      	cmp	r0, r3
2000137a:	bfd4      	ite	le
2000137c:	ebc7 0b00 	rsble	fp, r7, r0
20001380:	ebc7 0b03 	rsbgt	fp, r7, r3
20001384:	f8cd b008 	str.w	fp, [sp, #8]
20001388:	e896 0007 	ldmia.w	r6, {r0, r1, r2}
2000138c:	e88e 0007 	stmia.w	lr, {r0, r1, r2}
20001390:	f1bb 0f00 	cmp.w	fp, #0
20001394:	dd34      	ble.n	20001400 <sprite_sprite16+0x124>
20001396:	f1ba 0f00 	cmp.w	sl, #0
2000139a:	db14      	blt.n	200013c6 <sprite_sprite16+0xea>
2000139c:	f9bc 0000 	ldrsh.w	r0, [ip]
200013a0:	4438      	add	r0, r7
200013a2:	fa08 f105 	lsl.w	r1, r8, r5
200013a6:	4439      	add	r1, r7
200013a8:	465a      	mov	r2, fp
200013aa:	eb09 0141 	add.w	r1, r9, r1, lsl #1
200013ae:	eb04 0040 	add.w	r0, r4, r0, lsl #1
200013b2:	f7ff ff61 	bl	20001278 <sprite_blit16_alpha>
200013b6:	e023      	b.n	20001400 <sprite_sprite16+0x124>
200013b8:	466b      	mov	r3, sp
200013ba:	e893 0007 	ldmia.w	r3, {r0, r1, r2}
200013be:	ab06      	add	r3, sp, #24
200013c0:	e903 0007 	stmdb	r3, {r0, r1, r2}
200013c4:	e7b4      	b.n	20001330 <sprite_sprite16+0x54>
200013c6:	f9bc 0000 	ldrsh.w	r0, [ip]
200013ca:	4438      	add	r0, r7
200013cc:	fa08 f105 	lsl.w	r1, r8, r5
200013d0:	4439      	add	r1, r7
200013d2:	eb09 0141 	add.w	r1, r9, r1, lsl #1
200013d6:	eb04 0040 	add.w	r0, r4, r0, lsl #1
200013da:	f7ff ff2b 	bl	20001234 <sprite_blit16>
200013de:	e00f      	b.n	20001400 <sprite_sprite16+0x124>
200013e0:	f9bc 0000 	ldrsh.w	r0, [ip]
200013e4:	2800      	cmp	r0, #0
200013e6:	db0e      	blt.n	20001406 <sprite_sprite16+0x12a>
200013e8:	0040      	lsls	r0, r0, #1
200013ea:	9904      	ldr	r1, [sp, #16]
200013ec:	fa01 f505 	lsl.w	r5, r1, r5
200013f0:	9903      	ldr	r1, [sp, #12]
200013f2:	4429      	add	r1, r5
200013f4:	461a      	mov	r2, r3
200013f6:	eb09 0141 	add.w	r1, r9, r1, lsl #1
200013fa:	4420      	add	r0, r4
200013fc:	f7ff ff3c 	bl	20001278 <sprite_blit16_alpha>
20001400:	b007      	add	sp, #28
20001402:	e8bd 8ff0 	ldmia.w	sp!, {r4, r5, r6, r7, r8, r9, sl, fp, pc}
20001406:	2000      	movs	r0, #0
20001408:	e7ef      	b.n	200013ea <sprite_sprite16+0x10e>
	...

2000140c <__aeabi_uldivmod>:
2000140c:	b953      	cbnz	r3, 20001424 <__aeabi_uldivmod+0x18>
2000140e:	b94a      	cbnz	r2, 20001424 <__aeabi_uldivmod+0x18>
20001410:	2900      	cmp	r1, #0
20001412:	bf08      	it	eq
20001414:	2800      	cmpeq	r0, #0
20001416:	bf1c      	itt	ne
20001418:	f04f 31ff 	movne.w	r1, #4294967295
2000141c:	f04f 30ff 	movne.w	r0, #4294967295
20001420:	f000 b982 	b.w	20001728 <__aeabi_idiv0>
20001424:	f1ad 0c08 	sub.w	ip, sp, #8
20001428:	e96d ce04 	strd	ip, lr, [sp, #-16]!
2000142c:	f000 f806 	bl	2000143c <__udivmoddi4>
20001430:	f8dd e004 	ldr.w	lr, [sp, #4]
20001434:	e9dd 2302 	ldrd	r2, r3, [sp, #8]
20001438:	b004      	add	sp, #16
2000143a:	4770      	bx	lr

2000143c <__udivmoddi4>:
2000143c:	e92d 4ff0 	stmdb	sp!, {r4, r5, r6, r7, r8, r9, sl, fp, lr}
20001440:	9d09      	ldr	r5, [sp, #36]	; 0x24
20001442:	4604      	mov	r4, r0
20001444:	460f      	mov	r7, r1
20001446:	2b00      	cmp	r3, #0
20001448:	d148      	bne.n	200014dc <__udivmoddi4+0xa0>
2000144a:	428a      	cmp	r2, r1
2000144c:	4694      	mov	ip, r2
2000144e:	d961      	bls.n	20001514 <__udivmoddi4+0xd8>
20001450:	fab2 f382 	clz	r3, r2
20001454:	b143      	cbz	r3, 20001468 <__udivmoddi4+0x2c>
20001456:	f1c3 0120 	rsb	r1, r3, #32
2000145a:	409f      	lsls	r7, r3
2000145c:	fa02 fc03 	lsl.w	ip, r2, r3
20001460:	409c      	lsls	r4, r3
20001462:	fa20 f101 	lsr.w	r1, r0, r1
20001466:	430f      	orrs	r7, r1
20001468:	ea4f 411c 	mov.w	r1, ip, lsr #16
2000146c:	fa1f fe8c 	uxth.w	lr, ip
20001470:	0c22      	lsrs	r2, r4, #16
20001472:	fbb7 f6f1 	udiv	r6, r7, r1
20001476:	fb01 7716 	mls	r7, r1, r6, r7
2000147a:	fb06 f00e 	mul.w	r0, r6, lr
2000147e:	ea42 4207 	orr.w	r2, r2, r7, lsl #16
20001482:	4290      	cmp	r0, r2
20001484:	d908      	bls.n	20001498 <__udivmoddi4+0x5c>
20001486:	eb1c 0202 	adds.w	r2, ip, r2
2000148a:	f106 37ff 	add.w	r7, r6, #4294967295
2000148e:	d202      	bcs.n	20001496 <__udivmoddi4+0x5a>
20001490:	4290      	cmp	r0, r2
20001492:	f200 8137 	bhi.w	20001704 <__udivmoddi4+0x2c8>
20001496:	463e      	mov	r6, r7
20001498:	1a12      	subs	r2, r2, r0
2000149a:	b2a4      	uxth	r4, r4
2000149c:	fbb2 f0f1 	udiv	r0, r2, r1
200014a0:	fb01 2210 	mls	r2, r1, r0, r2
200014a4:	fb00 fe0e 	mul.w	lr, r0, lr
200014a8:	ea44 4402 	orr.w	r4, r4, r2, lsl #16
200014ac:	45a6      	cmp	lr, r4
200014ae:	d908      	bls.n	200014c2 <__udivmoddi4+0x86>
200014b0:	eb1c 0404 	adds.w	r4, ip, r4
200014b4:	f100 32ff 	add.w	r2, r0, #4294967295
200014b8:	d202      	bcs.n	200014c0 <__udivmoddi4+0x84>
200014ba:	45a6      	cmp	lr, r4
200014bc:	f200 811c 	bhi.w	200016f8 <__udivmoddi4+0x2bc>
200014c0:	4610      	mov	r0, r2
200014c2:	ea40 4006 	orr.w	r0, r0, r6, lsl #16
200014c6:	eba4 040e 	sub.w	r4, r4, lr
200014ca:	2600      	movs	r6, #0
200014cc:	b11d      	cbz	r5, 200014d6 <__udivmoddi4+0x9a>
200014ce:	40dc      	lsrs	r4, r3
200014d0:	2300      	movs	r3, #0
200014d2:	e9c5 4300 	strd	r4, r3, [r5]
200014d6:	4631      	mov	r1, r6
200014d8:	e8bd 8ff0 	ldmia.w	sp!, {r4, r5, r6, r7, r8, r9, sl, fp, pc}
200014dc:	428b      	cmp	r3, r1
200014de:	d909      	bls.n	200014f4 <__udivmoddi4+0xb8>
200014e0:	2d00      	cmp	r5, #0
200014e2:	f000 80fd 	beq.w	200016e0 <__udivmoddi4+0x2a4>
200014e6:	2600      	movs	r6, #0
200014e8:	e9c5 0100 	strd	r0, r1, [r5]
200014ec:	4630      	mov	r0, r6
200014ee:	4631      	mov	r1, r6
200014f0:	e8bd 8ff0 	ldmia.w	sp!, {r4, r5, r6, r7, r8, r9, sl, fp, pc}
200014f4:	fab3 f683 	clz	r6, r3
200014f8:	2e00      	cmp	r6, #0
200014fa:	d14b      	bne.n	20001594 <__udivmoddi4+0x158>
200014fc:	428b      	cmp	r3, r1
200014fe:	f0c0 80f2 	bcc.w	200016e6 <__udivmoddi4+0x2aa>
20001502:	4282      	cmp	r2, r0
20001504:	f240 80ef 	bls.w	200016e6 <__udivmoddi4+0x2aa>
20001508:	4630      	mov	r0, r6
2000150a:	2d00      	cmp	r5, #0
2000150c:	d0e3      	beq.n	200014d6 <__udivmoddi4+0x9a>
2000150e:	e9c5 4700 	strd	r4, r7, [r5]
20001512:	e7e0      	b.n	200014d6 <__udivmoddi4+0x9a>
20001514:	b902      	cbnz	r2, 20001518 <__udivmoddi4+0xdc>
20001516:	deff      	udf	#255	; 0xff
20001518:	fab2 f382 	clz	r3, r2
2000151c:	2b00      	cmp	r3, #0
2000151e:	f040 809d 	bne.w	2000165c <__udivmoddi4+0x220>
20001522:	1a89      	subs	r1, r1, r2
20001524:	ea4f 4e12 	mov.w	lr, r2, lsr #16
20001528:	b297      	uxth	r7, r2
2000152a:	2601      	movs	r6, #1
2000152c:	0c20      	lsrs	r0, r4, #16
2000152e:	fbb1 f2fe 	udiv	r2, r1, lr
20001532:	fb0e 1112 	mls	r1, lr, r2, r1
20001536:	ea40 4101 	orr.w	r1, r0, r1, lsl #16
2000153a:	fb07 f002 	mul.w	r0, r7, r2
2000153e:	4288      	cmp	r0, r1
20001540:	d90f      	bls.n	20001562 <__udivmoddi4+0x126>
20001542:	eb1c 0101 	adds.w	r1, ip, r1
20001546:	f102 38ff 	add.w	r8, r2, #4294967295
2000154a:	bf2c      	ite	cs
2000154c:	f04f 0901 	movcs.w	r9, #1
20001550:	f04f 0900 	movcc.w	r9, #0
20001554:	4288      	cmp	r0, r1
20001556:	d903      	bls.n	20001560 <__udivmoddi4+0x124>
20001558:	f1b9 0f00 	cmp.w	r9, #0
2000155c:	f000 80cf 	beq.w	200016fe <__udivmoddi4+0x2c2>
20001560:	4642      	mov	r2, r8
20001562:	1a09      	subs	r1, r1, r0
20001564:	b2a4      	uxth	r4, r4
20001566:	fbb1 f0fe 	udiv	r0, r1, lr
2000156a:	fb0e 1110 	mls	r1, lr, r0, r1
2000156e:	fb00 f707 	mul.w	r7, r0, r7
20001572:	ea44 4401 	orr.w	r4, r4, r1, lsl #16
20001576:	42a7      	cmp	r7, r4
20001578:	d908      	bls.n	2000158c <__udivmoddi4+0x150>
2000157a:	eb1c 0404 	adds.w	r4, ip, r4
2000157e:	f100 31ff 	add.w	r1, r0, #4294967295
20001582:	d202      	bcs.n	2000158a <__udivmoddi4+0x14e>
20001584:	42a7      	cmp	r7, r4
20001586:	f200 80b4 	bhi.w	200016f2 <__udivmoddi4+0x2b6>
2000158a:	4608      	mov	r0, r1
2000158c:	1be4      	subs	r4, r4, r7
2000158e:	ea40 4002 	orr.w	r0, r0, r2, lsl #16
20001592:	e79b      	b.n	200014cc <__udivmoddi4+0x90>
20001594:	f1c6 0720 	rsb	r7, r6, #32
20001598:	40b3      	lsls	r3, r6
2000159a:	fa01 f406 	lsl.w	r4, r1, r6
2000159e:	fa22 fc07 	lsr.w	ip, r2, r7
200015a2:	40f9      	lsrs	r1, r7
200015a4:	40b2      	lsls	r2, r6
200015a6:	ea4c 0c03 	orr.w	ip, ip, r3
200015aa:	fa20 f307 	lsr.w	r3, r0, r7
200015ae:	ea4f 491c 	mov.w	r9, ip, lsr #16
200015b2:	431c      	orrs	r4, r3
200015b4:	fa1f fe8c 	uxth.w	lr, ip
200015b8:	fa00 f306 	lsl.w	r3, r0, r6
200015bc:	0c20      	lsrs	r0, r4, #16
200015be:	fbb1 f8f9 	udiv	r8, r1, r9
200015c2:	fb09 1118 	mls	r1, r9, r8, r1
200015c6:	ea40 4101 	orr.w	r1, r0, r1, lsl #16
200015ca:	fb08 f00e 	mul.w	r0, r8, lr
200015ce:	4288      	cmp	r0, r1
200015d0:	d90f      	bls.n	200015f2 <__udivmoddi4+0x1b6>
200015d2:	eb1c 0101 	adds.w	r1, ip, r1
200015d6:	f108 3aff 	add.w	sl, r8, #4294967295
200015da:	bf2c      	ite	cs
200015dc:	f04f 0b01 	movcs.w	fp, #1
200015e0:	f04f 0b00 	movcc.w	fp, #0
200015e4:	4288      	cmp	r0, r1
200015e6:	d903      	bls.n	200015f0 <__udivmoddi4+0x1b4>
200015e8:	f1bb 0f00 	cmp.w	fp, #0
200015ec:	f000 808d 	beq.w	2000170a <__udivmoddi4+0x2ce>
200015f0:	46d0      	mov	r8, sl
200015f2:	1a09      	subs	r1, r1, r0
200015f4:	b2a4      	uxth	r4, r4
200015f6:	fbb1 f0f9 	udiv	r0, r1, r9
200015fa:	fb09 1110 	mls	r1, r9, r0, r1
200015fe:	fb00 fe0e 	mul.w	lr, r0, lr
20001602:	ea44 4101 	orr.w	r1, r4, r1, lsl #16
20001606:	458e      	cmp	lr, r1
20001608:	d907      	bls.n	2000161a <__udivmoddi4+0x1de>
2000160a:	eb1c 0101 	adds.w	r1, ip, r1
2000160e:	f100 34ff 	add.w	r4, r0, #4294967295
20001612:	d201      	bcs.n	20001618 <__udivmoddi4+0x1dc>
20001614:	458e      	cmp	lr, r1
20001616:	d87f      	bhi.n	20001718 <__udivmoddi4+0x2dc>
20001618:	4620      	mov	r0, r4
2000161a:	ea40 4008 	orr.w	r0, r0, r8, lsl #16
2000161e:	eba1 010e 	sub.w	r1, r1, lr
20001622:	fba0 9802 	umull	r9, r8, r0, r2
20001626:	4541      	cmp	r1, r8
20001628:	464c      	mov	r4, r9
2000162a:	46c6      	mov	lr, r8
2000162c:	d302      	bcc.n	20001634 <__udivmoddi4+0x1f8>
2000162e:	d106      	bne.n	2000163e <__udivmoddi4+0x202>
20001630:	454b      	cmp	r3, r9
20001632:	d204      	bcs.n	2000163e <__udivmoddi4+0x202>
20001634:	3801      	subs	r0, #1
20001636:	ebb9 0402 	subs.w	r4, r9, r2
2000163a:	eb68 0e0c 	sbc.w	lr, r8, ip
2000163e:	2d00      	cmp	r5, #0
20001640:	d070      	beq.n	20001724 <__udivmoddi4+0x2e8>
20001642:	1b1a      	subs	r2, r3, r4
20001644:	eb61 010e 	sbc.w	r1, r1, lr
20001648:	fa22 f306 	lsr.w	r3, r2, r6
2000164c:	fa01 f707 	lsl.w	r7, r1, r7
20001650:	40f1      	lsrs	r1, r6
20001652:	2600      	movs	r6, #0
20001654:	431f      	orrs	r7, r3
20001656:	e9c5 7100 	strd	r7, r1, [r5]
2000165a:	e73c      	b.n	200014d6 <__udivmoddi4+0x9a>
2000165c:	fa02 fc03 	lsl.w	ip, r2, r3
20001660:	f1c3 0020 	rsb	r0, r3, #32
20001664:	fa01 f203 	lsl.w	r2, r1, r3
20001668:	fa21 f600 	lsr.w	r6, r1, r0
2000166c:	ea4f 4e1c 	mov.w	lr, ip, lsr #16
20001670:	fa24 f100 	lsr.w	r1, r4, r0
20001674:	fa1f f78c 	uxth.w	r7, ip
20001678:	409c      	lsls	r4, r3
2000167a:	4311      	orrs	r1, r2
2000167c:	fbb6 f0fe 	udiv	r0, r6, lr
20001680:	0c0a      	lsrs	r2, r1, #16
20001682:	fb0e 6610 	mls	r6, lr, r0, r6
20001686:	ea42 4206 	orr.w	r2, r2, r6, lsl #16
2000168a:	fb00 f607 	mul.w	r6, r0, r7
2000168e:	4296      	cmp	r6, r2
20001690:	d90e      	bls.n	200016b0 <__udivmoddi4+0x274>
20001692:	eb1c 0202 	adds.w	r2, ip, r2
20001696:	f100 38ff 	add.w	r8, r0, #4294967295
2000169a:	bf2c      	ite	cs
2000169c:	f04f 0901 	movcs.w	r9, #1
200016a0:	f04f 0900 	movcc.w	r9, #0
200016a4:	4296      	cmp	r6, r2
200016a6:	d902      	bls.n	200016ae <__udivmoddi4+0x272>
200016a8:	f1b9 0f00 	cmp.w	r9, #0
200016ac:	d031      	beq.n	20001712 <__udivmoddi4+0x2d6>
200016ae:	4640      	mov	r0, r8
200016b0:	1b92      	subs	r2, r2, r6
200016b2:	b289      	uxth	r1, r1
200016b4:	fbb2 f6fe 	udiv	r6, r2, lr
200016b8:	fb0e 2216 	mls	r2, lr, r6, r2
200016bc:	ea41 4102 	orr.w	r1, r1, r2, lsl #16
200016c0:	fb06 f207 	mul.w	r2, r6, r7
200016c4:	428a      	cmp	r2, r1
200016c6:	d907      	bls.n	200016d8 <__udivmoddi4+0x29c>
200016c8:	eb1c 0101 	adds.w	r1, ip, r1
200016cc:	f106 38ff 	add.w	r8, r6, #4294967295
200016d0:	d201      	bcs.n	200016d6 <__udivmoddi4+0x29a>
200016d2:	428a      	cmp	r2, r1
200016d4:	d823      	bhi.n	2000171e <__udivmoddi4+0x2e2>
200016d6:	4646      	mov	r6, r8
200016d8:	1a89      	subs	r1, r1, r2
200016da:	ea46 4600 	orr.w	r6, r6, r0, lsl #16
200016de:	e725      	b.n	2000152c <__udivmoddi4+0xf0>
200016e0:	462e      	mov	r6, r5
200016e2:	4628      	mov	r0, r5
200016e4:	e6f7      	b.n	200014d6 <__udivmoddi4+0x9a>
200016e6:	1a84      	subs	r4, r0, r2
200016e8:	eb61 0303 	sbc.w	r3, r1, r3
200016ec:	2001      	movs	r0, #1
200016ee:	461f      	mov	r7, r3
200016f0:	e70b      	b.n	2000150a <__udivmoddi4+0xce>
200016f2:	4464      	add	r4, ip
200016f4:	3802      	subs	r0, #2
200016f6:	e749      	b.n	2000158c <__udivmoddi4+0x150>
200016f8:	4464      	add	r4, ip
200016fa:	3802      	subs	r0, #2
200016fc:	e6e1      	b.n	200014c2 <__udivmoddi4+0x86>
200016fe:	3a02      	subs	r2, #2
20001700:	4461      	add	r1, ip
20001702:	e72e      	b.n	20001562 <__udivmoddi4+0x126>
20001704:	3e02      	subs	r6, #2
20001706:	4462      	add	r2, ip
20001708:	e6c6      	b.n	20001498 <__udivmoddi4+0x5c>
2000170a:	f1a8 0802 	sub.w	r8, r8, #2
2000170e:	4461      	add	r1, ip
20001710:	e76f      	b.n	200015f2 <__udivmoddi4+0x1b6>
20001712:	3802      	subs	r0, #2
20001714:	4462      	add	r2, ip
20001716:	e7cb      	b.n	200016b0 <__udivmoddi4+0x274>
20001718:	3802      	subs	r0, #2
2000171a:	4461      	add	r1, ip
2000171c:	e77d      	b.n	2000161a <__udivmoddi4+0x1de>
2000171e:	3e02      	subs	r6, #2
20001720:	4461      	add	r1, ip
20001722:	e7d9      	b.n	200016d8 <__udivmoddi4+0x29c>
20001724:	462e      	mov	r6, r5
20001726:	e6d6      	b.n	200014d6 <__udivmoddi4+0x9a>

20001728 <__aeabi_idiv0>:
20001728:	4770      	bx	lr
2000172a:	bf00      	nop
2000172c:	0000      	movs	r0, r0
	...

20001730 <__abort_all_dma_channels_assuming_no_irq_preemption_veneer>:
20001730:	b401      	push	{r0}
20001732:	4802      	ldr	r0, [pc, #8]	; (2000173c <__abort_all_dma_channels_assuming_no_irq_preemption_veneer+0xc>)
20001734:	4684      	mov	ip, r0
20001736:	bc01      	pop	{r0}
20001738:	4760      	bx	ip
2000173a:	bf00      	nop
2000173c:	100033e5 	.word	0x100033e5

20001740 <__update_dma_transfer_state_irqs_enabled.part.0_veneer>:
20001740:	b401      	push	{r0}
20001742:	4802      	ldr	r0, [pc, #8]	; (2000174c <__update_dma_transfer_state_irqs_enabled.part.0_veneer+0xc>)
20001744:	4684      	mov	ip, r0
20001746:	bc01      	pop	{r0}
20001748:	4760      	bx	ip
2000174a:	bf00      	nop
2000174c:	10003489 	.word	0x10003489

20001750 <____assert_func_veneer>:
20001750:	b401      	push	{r0}
20001752:	4802      	ldr	r0, [pc, #8]	; (2000175c <____assert_func_veneer+0xc>)
20001754:	4684      	mov	ip, r0
20001756:	bc01      	pop	{r0}
20001758:	4760      	bx	ip
2000175a:	bf00      	nop
2000175c:	10002ec5 	.word	0x10002ec5

20001760 <____wrap_printf_veneer>:
20001760:	b401      	push	{r0}
20001762:	4802      	ldr	r0, [pc, #8]	; (2000176c <____wrap_printf_veneer+0xc>)
20001764:	4684      	mov	ip, r0
20001766:	bc01      	pop	{r0}
20001768:	4760      	bx	ip
2000176a:	bf00      	nop
2000176c:	10003181 	.word	0x10003181

20001770 <__rand_veneer>:
20001770:	b401      	push	{r0}
20001772:	4802      	ldr	r0, [pc, #8]	; (2000177c <__rand_veneer+0xc>)
20001774:	4684      	mov	ip, r0
20001776:	bc01      	pop	{r0}
20001778:	4760      	bx	ip
2000177a:	bf00      	nop
2000177c:	10004505 	.word	0x10004505

20001780 <__best_effort_wfe_or_timeout_veneer>:
20001780:	b401      	push	{r0}
20001782:	4802      	ldr	r0, [pc, #8]	; (2000178c <__best_effort_wfe_or_timeout_veneer+0xc>)
20001784:	4684      	mov	ip, r0
20001786:	bc01      	pop	{r0}
20001788:	4760      	bx	ip
2000178a:	bf00      	nop
2000178c:	10000b41 	.word	0x10000b41

20001790 <raspberry_128x128>:
	...
20001800:	dedbffdf bdf7bdd7 a534ad75 a534a534     ........u.4.4.4.
20001810:	94f294b2 a53494f2 ad76a535 b5f7b5b7     ......4.5.v.....
20001820:	ceb8ad95 0000ef5b 00000000 00000000     ....[...........
	...
200018f8:	f79cffdf be18e73c 8471a575 73ae7bf0     ....<...u.q..{.s
20001908:	6b6f73af 73f173f1 6b6f6b70 84327bf1     .sok.s.spkok.{2.
20001918:	84318432 84318cb3 a5758cb1 bdd6b5f6     2.1...1...u.....
20001928:	ffdfe699 00000000 00000000 00000000     ................
	...
200019f4:	de9affdf a4f3bdd7 6bb08432 5aed5aed     ........2..k.Z.Z
20001a04:	6b6f5aed 8c337bf1 94748c74 8c748c74     .Zok.{3.t.t.t.t.
20001a14:	a4f69cf6 94b48c73 843294b4 8cb48432     ....s.....2.2...
20001a24:	94b38472 b5b7a575 ef5cc618 00000000     r...u.....\.....
	...
20001aec:	ffdf0000 ffdfffff 7befb5f6 6b6e73af     ...........{.snk
20001afc:	6b706b6f 84337bf2 94b58c74 ad77ad77     okpk.{3.t...w.w.
20001b0c:	b578b578 b578b5b8 bdb9c5fa b5b9b5b8     x.x...x.........
20001b1c:	ad77b5b9 9cf6ad37 94b49cf6 94b394b4     ..w.7...........
20001b2c:	b5b6a535 0000e6fb 00000000 00000000     5...............
	...
20001be8:	ffdf0000 adb6ef5c 7bf08471 632d6b6e     ....\...q..{nk-c
20001bf8:	8432632e a4f68c73 ad77a536 a537a4f6     .c2.s...6.w...7.
20001c08:	bdb9b5b9 bdb9ad78 bdb9b5b9 bdfac5fa     ....x...........
20001c18:	bdf9b5b9 c63bbdb9 bdf9bdb9 a537bdb9     ......;.......7.
20001c28:	9cf59cb5 a5359cf4 c618a535 d698f7dc     ......5.5.......
20001c38:	0000ffdf 00000000 00000000 00000000     ................
	...
20001ce4:	ffdfffdf b5d6deda 73af9cf3 5b2d5b2d     ...........s-[-[
20001cf4:	8c737bf1 a5379d36 b578b578 b5b9bdb9     .{s.6.7.x.x.....
20001d04:	a537b578 b5b9bdfa ad38ad78 ad78b579     x.7.....x.8.y.x.
20001d14:	b579bdfa b5b9b5b9 bdfab5b9 c63ac63a     ..y.........:.:.
20001d24:	b578c63a ad78b578 94b4a536 9cf59cb5     :.x.x.x.6.......
20001d34:	ce99c638 0000ce58 00000000 00000000     8...X...........
	...
20001de0:	defbd699 b5b6ce59 7bf09cf3 6b6e52ec     ....Y......{.Rnk
20001df0:	94b473f1 ad789cf6 b578ad77 bdb9b5b8     .s....x.w.x.....
20001e00:	b5babdb9 9d38a538 a538a538 9cf79cf7     ....8.8.8.8.....
20001e10:	9cf89cf7 a5799cf7 adbaa579 b5b9ad79     ......y.y...y...
20001e20:	c63abdfa b5b9bdb9 b5b9ad78 a537ad78     ..:.....x...x.7.
20001e30:	8c7494b5 adb79cf4 d6d9bdd8 00000000     ..t.............
	...
20001ee0:	b5b6ef7c 73af8471 632e636e 9cf573f1     |...q..snc.c.s..
20001ef0:	ad37b578 b578b578 bdb9bdb9 b579bdb9     x.7.x.x.......y.
20001f00:	a539b5ba 9cf89d38 94f99cf9 8cb89539     ..9.8.......9...
20001f10:	8cb89d3a 95398cb8 9d3aa57a ad7aa57a     :.....9.z.:.z.z.
20001f20:	bdfabdfb bdb9bdba bdfabdfa b5b9bdfa     ................
20001f30:	9cf6a578 94f594f5 bdf8ad76 e6d7c636     x.......v...6...
20001f40:	0000ffdd 00000000 00000000 00000000     ................
	...
20001fdc:	e6daffdf 8431bdb6 632e5aec 8cb473b0     ......1..Z.c.s..
20001fec:	ad78a537 b577ad37 bdb8b578 bdb8b5b8     7.x.7.w.x.......
20001ffc:	a538ad38 94f89cf8 94f994f8 953a8cf9     8.8...........:.
2000200c:	8cf98477 8cb88cf9 94fa84b8 9d3a8cf9     w.............:.
2000201c:	a57a9d3a ad7aa579 bdfaad79 bdfabdb9     :.z.y.z.y.......
2000202c:	b5fab5b9 a578b5b9 a53794f6 ad76a536     ......x...7.6.v.
2000203c:	ce78b5b6 dedace58 0000ffdf 00000000     ..x.X...........
	...
200020d8:	ffdfffdf 7c30b5b6 632e73af 94b47bf1     ......0|.s.c.{..
200020e8:	ad379cf6 ad37b578 b5b8b5b8 ad79b5b9     ..7.x.7.......y.
200020f8:	a539ad7a 94f89cf9 94f99d39 84f8953a     z.9.....9...:...
20002108:	8cfa8d39 84b984b9 8cb98cf9 8cfa953b     9...........;...
20002118:	9d7b953a 9d7ba5bc 9d7aa57b b5baadbb     :.{...{.{.z.....
20002128:	b5b9bdfb b5b9b5ba b5b8bdfa b5b9bdb9     ................
20002138:	ad37b5b9 b5b8b5b7 c637bdf8 ce57ce37     ..7.......7.7.W.
	...
200021d4:	ce980000 9cf39d13 52ec6bae 8c735b2e     .........k.R.[s.
200021e4:	ad37a536 ad37ad37 b578ad37 ad78ad78     6.7.7.7.7.x.x.x.
200021f4:	a539a538 94f99cf9 94f994b8 953a94f9     8.9...........:.
20002204:	8cf98cf9 8cfa84f9 8cfa84b9 953b8cfa     ..............;.
20002214:	953b8cfa 9d7b8d3a a5bc9d7b 9d7b9d7b     ..;.:.{.{...{.{.
20002224:	adbb9d7a ad7aad7a b5baad79 b5b9b5b9     z...z.z.y.......
20002234:	c5fabdba b5b9bdb9 ad78ad78 bdb7ad77     ........x.x.w...
20002244:	bdf6b5b5 ffdfd699 00000000 00000000     ................
	...
200022d4:	94b2ffdf 52ec6b6e 636f5aed a53694b5     ....nk.R.Zoc..6.
200022e4:	ad77ad77 ad37b578 ad78b578 9cf8ad79     w.w.x.7.x.x.y...
200022f4:	94f89cf8 94f99cf9 94f994fa 8cf994f9     ................
20002304:	8cf99539 8cfa953a 8cfa8d3b 8cfa953b     9...:...;...;...
20002314:	953b953b 9d7b9d7b 9d7b9dbb a5bca5bc     ;.;.{.{...{.....
20002324:	a53aa5bc a57aad7b ad7aadbb ad79adba     ..:.{.z...z...y.
20002334:	b5bab5ba b5bab5ba ad78bdfa ad77adb8     ..........x...w.
20002344:	b5b6b5b7 dedac638 0000ffdf 00000000     ....8...........
	...
200023d0:	ffdf0000 632e9494 4a6c422a 94b573b1     .......c*BlJ.s..
200023e0:	ad369cf6 b578ad37 ad78a537 a538a537     ..6.7.x.7.x.7.8.
200023f0:	94f894f8 94f994b8 8cf98cb8 8cf98cf9     ................
20002400:	94fa8cb9 8d3a8cf9 8d3a8d3a 953b8cfa     ......:.:.:...;.
20002410:	8cfa8cfa 953b8cfa 957b8d3a 9dbb957b     ......;.:.{.{...
20002420:	a5bb9d7b 9d3a9d7b a57b9d3b adbba57b     {...{.:.;.{.{...
20002430:	a579a539 b5bbad7a b5baad79 b5bab5ba     9.y.z...y.......
20002440:	ad79ad79 b5b8a578 c5f7b5b7 ffdfd699     y.y.x...........
	...
200024cc:	ffdf0000 73efceb9 39ea52ed 7bf24aad     .......s.R.9.J.{
200024dc:	94b694b6 a537a4f7 a538ad78 a538ad78     ......7.x.8.x.8.
200024ec:	94f7a538 94f894f8 8cb88cf8 84f98cf9     8...............
200024fc:	8cf98cfa 8cfa8cfa 953a953b 8d3a953a     ........;.:.:.:.
2000250c:	8d3b953b 8d3b953b 8d3b953b 957b957b     ;.;.;.;.;.;.{.{.
2000251c:	9d7b9dbb 957a9d7b 9d7c9d7b a57ba5bd     ..{.{.z.{.|...{.
2000252c:	a57ba5bc 9d7aa57b a57aadbb adbaad7a     ..{.{.z...z.z...
2000253c:	b5bab5fb adb9b5ba ad78adb9 b5b7b5b8     ..........x.....
2000254c:	d69ac5f8 0000ffdf 00000000 00000000     ................
	...
200025cc:	defaffdf 39e86bad 426c29a8 94b573f2     .....k.9.)lB.s..
200025dc:	a4f79475 a538a4f7 a538a4f8 94f89cf8     u.....8...8.....
200025ec:	8cf88cb7 94f98cb7 8cf984b8 84f984f8     ................
200025fc:	8cfa84b9 8d3a8cfa 953a8cfa 8d3b8cfa     ......:...:...;.
2000260c:	8d3b8cfa 957c8d3b 957b8d3b 957b8d3a     ..;.;.|.;.{.:.{.
2000261c:	9dbb957b 9d7b953a a5bd9d7b a5bca5bc     {...:.{.{.......
2000262c:	a57b9d7b a5bb9d7a a57a9d7a adbba57a     {.{.z...z.z.z...
2000263c:	b5bbb57a b5fab5ba ad79ad79 ad78a538     z.......y.y.8.x.
2000264c:	a575a536 ef5cc617 00000000 00000000     6.u...\.........
	...
200026c8:	ffdf0000 8471defa 21664a6a 73f2426c     ......q.jJf!lB.s
200026d8:	8c758cb5 9cb69cf6 94b79cf7 94f89cf8     ..u.............
200026e8:	8cb794f8 8cb88cb8 8cf88cf8 84f88cf8     ................
200026f8:	84f88d39 8cfa84f9 8cfa8d3a 8cfa953b     9.......:...;...
20002708:	8d3b953b 8d3b8d3b 8d3b957b 957b957c     ;.;.;.;.{.;.|.{.
20002718:	957b957b 957b9dbc a5fca5bc a5bdadfd     {.{...{.........
20002728:	a5bca5fd 9d7ba5bc 9d7ba5bb 9d7aa57b     ......{...{.{.z.
20002738:	a57aa57a ad7bb5bb b5babdfb ad7ab5ba     z.z...{.......z.
20002748:	a538ad79 9cf4adb9 ceb99cf3 0000ffdf     y.8.............
	...
200027c8:	e73cb555 3a298c72 3a2a29a7 8cb56b70     U.<.r.):.)*:pk..
200027d8:	8c758434 94b68c75 8cb68c75 8cb78cb7     4.u.u...u.......
200027e8:	8cb78cb7 8cb88cb7 84b87cb8 8cf984b8     .........|......
200027f8:	8cf984b8 8cfa84f9 8cfa84f9 8d3b8d3a     ............:.;.
20002808:	8d3b8d3a 953b8d3a 953b8d3a 957b8d3b     :.;.:.;.:.;.;.{.
20002818:	9d7c953b a5bc9d7b adfda5bc adfdadfc     ;.|.{...........
20002828:	adbca5bc a5bba5bb a57b9d7a a57b9d7a     ........z.{.z.{.
20002838:	a57aa57a adbba57a b5baad7a b5baadba     z.z.z...z.......
20002848:	ad79ad79 adb8a579 94b394b3 ef5cc637     y.y.y.......7.\.
	...
200028c4:	ffdf0000 9cf3d6ba 21675aec 52ee29e9     .........Zg!.).R
200028d4:	7c338474 8c758434 94b694b6 8cb794b7     t.3|4.u.........
200028e4:	8cb794f7 8cb78cb8 8cb88cf8 84b884b9     ................
200028f4:	8cf98cf9 8cf98cf9 84fa8d3a 84fa8d3a     ........:...:...
20002904:	8d3a8d3b 8d3a953b 8d3b953b 953b957b     ;.:.;.:.;.;.{.;.
20002914:	957b957c 957b9d7c a5bc9d7c adfdadfd     |.{.|.{.|.......
20002924:	adfdb63e adbcb5fd a5bcadfd a5bba5bc     >...............
20002934:	a57ba5bb 9d7ba5bc a57ba5bb ad7aa5bb     ..{...{...{...z.
20002944:	adbab5bb a579adba b5b9adb9 7bf0adb8     ......y........{
20002954:	c6788471 0000ffdf 00000000 00000000     q.x.............
	...
200029c4:	ef3cffdf 5aab94b2 29a82166 6bb14aac     ..<....Zf!.).J.k
200029d4:	84748433 8c758434 94b68c75 94b794b6     3.t.4.u.u.......
200029e4:	8cb78cb7 8cb88cb7 8cf88cb7 8cb984b8     ................
200029f4:	8cb984b8 8cf984b9 8d3a84f9 8d3a8cfa     ..........:...:.
20002a04:	8d3b8d3a 957b8d3a 957b8d3a 957c957b     :.;.:.{.:.{.{.|.
20002a14:	957c957b 9d7c9d7b a5bc9d7b b63dadfd     {.|.{.|.{.....=.
20002a24:	b5fdadfd adfcadfd adfca5bc a5bca5bb     ................
20002a34:	a5bca5bc 9d7b9d7b 9d7b953a ad7a9d3a     ....{.{.:.{.:.z.
20002a44:	ad7aa57a adbaa57a ad79a579 a537b5ba     z.z.z...y.y...7.
20002a54:	9cf36b6e e719ef5c 00000000 00000000     nk..\...........
	...
20002ac0:	ffdf0000 8c71defa 29664a6a 3a2a2967     ......q.jJf)g)*:
20002ad0:	6bb16b70 84747c33 8c758c75 94b694b6     pk.k3|t.u.u.....
20002ae0:	8cb794f7 94f794f8 8cb78cf8 8cb88cf8     ................
20002af0:	8cb88cf9 84b984b8 8cfa8cfa 8d3a8d3b     ............;.:.
20002b00:	8cfa8d3b 953b8d3b 957b957c 957b957b     ;...;.;.|.{.{.{.
20002b10:	957b9dbc 9dbc9dbc 9d7c9dbc a5bca5bc     ..{.......|.....
20002b20:	b63dadfd b63dbe3e b5fdbe3e b5fcb5fd     ..=.>.=.>.......
20002b30:	adbcb5fd a5bcadfc 9d7ba5bc 9d7ba5bb     ..........{...{.
20002b40:	ad7ba5bb a57aad7b adbbadbb a579adbb     ..{.{.z.......y.
20002b50:	b5faadba 6bae94f5 ffdfb5f6 0000be14     .......k........
	...
20002bc0:	ef3be71b 3a288c70 21661925 4aad31a8     ..;.p.(:%.f!.1.J
20002bd0:	73f26370 84748433 8c757c33 94b68c75     pc.s3.t.3|u.u...
20002be0:	94b794b6 94f88cb7 94f88cb7 8cf88cf8     ................
20002bf0:	94f98cb8 8d3a8cf8 8cfa84f9 8d3b8cfa     ......:.......;.
20002c00:	8d3b8cfa 957b8d3a 957b953b 9d7b957b     ..;.:.{.;.{.{.{.
20002c10:	9dbb957b 9dbc957b a5bc9d7b a5bc9dbb     {...{...{.......
20002c20:	b63dadfc be7eb63d be3ebe3d be3dbe3d     ..=.=.~.=.>.=.=.
20002c30:	b5fcadbc adfca5fc adfca5bc adfca5bb     ................
20002c40:	adbba57b adbba57b adbba57a a57aa57a     {...{...z...z.z.
20002c50:	adbaa579 8432b5b9 c67873ef 0000ef9d     y.....2..sx.....
	...
20002cc0:	9cf2ef7c 21655aa9 31a82166 52ad426b     |....Ze!f!.1kB.R
20002cd0:	84346b71 7c338cb5 8c758434 94b694b6     qk4...3|4.u.....
20002ce0:	94b794f7 94b794f7 8cf894f8 94f89539     ............9...
20002cf0:	95389d38 8d399539 84f98d3a 8d3b8d3b     8.8.9.9.:...;.;.
20002d00:	8d3b957b 957c957b 957b957c 957b9dbb     {.;.{.|.|.{...{.
20002d10:	9dbb9dbc 9dbc9dbc 9dbca5bc a5fca5fc     ................
20002d20:	adfcadfd c67ebe7d c67ecebe be3dc67e     ....}.~...~.~.=.
20002d30:	b5fcb5fc b5fcbe3d b5fcb63c b5fcb63d     ....=...<...=...
20002d40:	adbbb5fc adbbadfc a5baadbb a5b9a5ba     ................
20002d50:	a5b9adfa adb9b5fa 73af6baf ffdece79     .........k.sy...
	...
20002dc0:	73adce58 212531a5 426b29a7 52ee4aac     X..s.1%!.)kB.J.R
20002dd0:	8c756b71 84348c75 8c758434 94b68c75     qku.u.4.4.u.u...
20002de0:	94f894b7 8cb78cb7 94f88cb7 953994f8     ..............9.
20002df0:	9d799d38 957a9539 8d398d39 8d3a84f9     8.y.9.z.9.9...:.
20002e00:	957b953b 9d7c953b 9dbc957b 9dbb957b     ;.{.;.|.{...{...
20002e10:	9dbc957b 9dbc9dbb a5bc9dbc adfda5bc     {...............
20002e20:	adfcadfc be7eadfc c67ec67e be3dbe3d     ......~.~.~.=.=.
20002e30:	be3db5fc be3cb63c be3cb63c be3cb5fb     ..=.<.<.<.<...<.
20002e40:	b5fcb5fc adbbadbb a5baa5ba adbaa579     ............y...
20002e50:	adbaa5b9 b5faa579 632e94b5 f75d9cf3     ....y......c..].
	...
20002ebc:	df1b0000 2965636c 21661925 426a3a29     ....lce)%.f!):jB
20002ecc:	52ee4aac 84747bf2 84348474 8c768c75     .J.R.{t.t.4.u.v.
20002edc:	94768c76 94f794f8 94f894f8 94f894f8     v.v.............
20002eec:	95399d39 9d399d79 9d7a9d7a 9579a5bb     9.9.y.9.z.z...y.
20002efc:	8d3a957a 957b957b 957b957b 9d7b9dbc     z.:.{.{.{.{...{.
20002f0c:	9dbc9dbc 9dbc9dbc 9dbc9dbc adfdadfd     ................
20002f1c:	a5bcadfd adfcadfd b63db63d be3dbe7e     ........=.=.~.=.
20002f2c:	be3dc67e bdfcbe3c be3dbe3d be3cc67d     ~.=.<...=.=.}.<.
20002f3c:	b5fcb5fc b5fcbe3d adbbb5fc a57aadbb     ....=.........z.
20002f4c:	adbaadbb a57aadba adb9adba 73b0b5fa     ......z........s
20002f5c:	ce79736e 0000ffff 00000000 00000000     nsy.............
	...
20002fbc:	8cb1ffdf 18e329a5 29a71925 426b31e8     .....)..%..).1kB
20002fcc:	5b2f4aac 7c337bf2 7c3473f3 84357bf4     .J/[.{3|.s4|.{5.
20002fdc:	94b78435 8cb794b7 9d3994f7 9d3994f8     5.........9...9.
20002fec:	9d799d39 9d799538 a5bb9d7a 9dba9dba     9.y.8.y.z.......
20002ffc:	957b957a 957b957a 9dbc957b 957b957b     z.{.z.{.{...{.{.
2000300c:	9d7b957b 9dbc957b 9dbc957b adfda5bc     {.{.{...{.......
2000301c:	adfda5bc adfdadfc be7eadfc be3db63d     ..........~.=.=.
2000302c:	c67ebe3d c63dbe3c c67dbe3d be3dbe3c     =.~.<.=.=.}.<.=.
2000303c:	be3dbe3d b5fcb63c adbbadbb adbbadbb     =.=.<...........
2000304c:	ad7aa57a adbaadba adbaa579 94b5b5fa     z.z.....y.......
2000305c:	a4f45aec 0000ffdf 00000000 00000000     .Z..............
	...
200030bc:	4268bdf6 10e31923 29a72966 4a6b3a2a     ..hB#...f).)*:kJ
200030cc:	632f52ad 7c337c33 73f37c34 7bf47c34     .R/c3|3|4|.s4|.{
200030dc:	84768435 8cb794b8 95389d38 9d399d39     5.v.....8.8.9.9.
200030ec:	95389d79 9d799d39 9d7a9dba a5bba5fb     y.8.9.y...z.....
200030fc:	957ba5fc 957b9dbb 957b9dbb 953a957c     ..{...{...{.|.:.
2000310c:	9dbc957b 9dbc9dbc 9dbc9dbc a5bca5bc     {...............
2000311c:	adfdadfd b63db63d be3ebe7e c67ec6bf     ....=.=.~.>...~.
2000312c:	c67ec67e be3dc67d c67ec67e be3dc67e     ~.~.}.=.~.~.~.=.
2000313c:	be3dc67d b5fcbe3d adbbb5fc adbbadbb     }.=.=...........
2000314c:	adbaadbb a5baadba a5baadba b5b8b5fa     ................
2000315c:	6b6d6b6f ffdfdefb 00000000 00000000     okmk............
	...
200031b8:	ffdf0000 29a5842f 192410a2 29672126     ..../..)..$.&!g)
200031c8:	52ad31e9 632f4aad 7c3373b2 73f46bb2     .1.R.J/c.s3|.k.s
200031d8:	73f473f4 7c3573b3 94f78477 9d3994f8     .s.s.s5|w.....9.
200031e8:	a5799d38 95389538 9d799539 9dba9d79     8.y.8.8.9.y.y...
200031f8:	a5fca5bb 9dbb9dbb 957b957a 957b8d3a     ........z.{.:.{.
20003208:	957b957b 9dbc957b 9dbc9dbc 9dbc9d7b     {.{.{.......{...
20003218:	adfd9dbc a5fca5bc b63dadfd b63dae3d     ..........=.=.=.
20003228:	c67ec67e be7dbe3d be3cb5fb be3db5fc     ~.~.=.}...<...=.
20003238:	be3cbe3c b5fcb5fb b5fcb5fb adbbadba     <.<.............
20003248:	adbbadbb adbba57a a5bbadba a5baa57a     ....z.......z...
20003258:	bdfaadb9 5b2d8c73 ffdfb5b6 00000000     ....s.-[........
	...
200032b8:	8c71ffff 10e239e7 192518e3 29672967     ..q..9....%.g)g)
200032c8:	52ad3a2a 5b2f5aee 73f37bf3 6bf373f3     *:.R.Z/[.{.s.s.k
200032d8:	6bf473f4 6bb46bb4 84768476 9d399538     .s.k.k.kv.v.8.9.
200032e8:	9d39a579 9d39a57a 9d799d7a 9d7a9dba     y.9.z.9.z.y...z.
200032f8:	9dbba5bb 957b9dba 8d3a957b 957b9d7b     ......{.{.:.{.{.
20003308:	957b957b 957b957b 9d7b9dbc 957b9d7b     {.{.{.{...{.{.{.
20003318:	adbca5bc a5bbadfd adfdadfd adfcb63d     ............=...
20003328:	b63dbe3d b5fcb63c c63dc67d be3cc67d     =.=.<...}.=.}.<.
20003338:	be3dc67d be3cbe7d b5fcb5fc adbbb5fc     }.=.}.<.........
20003348:	adbbb5fc adbaadbb a5baadbb a57aa5bb     ..............z.
20003358:	b5faadba 636eadb8 f75d7bf0 00000000     ......nc.{].....
	...
200033b8:	5aeaef1c 10a218e3 192510a3 31a82126     ...Z......%.&!.1
200033c8:	4a6c39ea 63704aad 73b373b2 6bf46bb3     .9lJ.Jpc.s.s.k.k
200033d8:	6bf463b3 6bb463b3 84766bf4 9d398cb7     .c.k.c.k.kv...9.
200033e8:	9d799d39 a57a9d39 9d7a9d39 95399d7a     9.y.9.z.9.z.z.9.
200033f8:	95799539 957a8d39 957b957a 957b957a     9.y.9.z.z.{.z.{.
20003408:	957b957b 957b8d3a 957b8d3a 9dbc957b     {.{.:.{.:.{.{...
20003418:	a5bc9d7b adfca5bc adfca5fc be3eadfc     {.............>.
20003428:	c67eb63d be3dbe3d be3dbe3c c67dbe3c     =.~.=.=.<.=.<.}.
20003438:	be3dbe3d c67db5fc b5fcb5fc b5fcb5fb     =.=...}.........
20003448:	adbbadbb adbbadba a5bba57a a5baa5bb     ........z.......
20003458:	b5faa579 7c32b5f9 c6385aec 0000ffdf     y.....2|.Z8.....
	...
200034b8:	4228ce79 08a218e3 18e418e4 31a82126     y.(B........&!.1
200034c8:	3a2a422a 5b304aad 6bb36bb2 63b36bf3     *B*:.J0[.k.k.k.c
200034d8:	63b36bb3 63b46bf4 743573f5 8cb88476     .k.c.k.c.s5tv...
200034e8:	9d799d39 9d7a9d79 9579a5ba 9d7a9dba     9.y.y.z...y...z.
200034f8:	95799dba 8d3a957a 957a8d3a 8d3a957b     ..y.z.:.:.z.{.:.
20003508:	8d3a953b 957b957b 957b9d7b 9dbc9dbc     ;.:.{.{.{.{.....
20003518:	a5bca5bc adfdadfd adfdb63d b63db63d     ........=...=.=.
20003528:	be3dbe3d be3dc67e b63cbe3d be3dbe3d     =.=.~.=.=.<.=.=.
20003538:	b5fcbe3d b5fcb5fc adfbb63d adfbb5fc     =.......=.......
20003548:	adbbb5fc adbbadbb 9d7aadbb a5baa5bb     ..........z.....
20003558:	adb9adba 9d36b63b 8cb25b2d 0000ffff     ....;.6.-[......
	...
200035b4:	ffdf0000 21658c71 10a20061 18e418e3     ....q.e!a.......
200035c4:	29a72125 426b31e9 5b2f3a6b 6bf363b2     %!.).1kBk:/[.c.k
200035d4:	6bf36bb3 6bf46bb3 63b46373 73f56bf5     .k.k.k.ksc.c.k.s
200035e4:	7cb77436 957984f8 95798d38 9d7a957a     6t.|..y.8.y.z.z.
200035f4:	9dbb957a 957a957a 8d3a8d3a 957a8d3a     z...z.z.:.:.:.z.
20003604:	8d398d3a 957b8d39 957b8d3a 957b957b     :.9.9.{.:.{.{.{.
20003614:	9dbc957b a5fd9dbc a5bca5bc adfda5bc     {...............
20003624:	be3dadfc be7db63c be3dbe3d be3db63c     ..=.<.}.=.=.<.=.
20003634:	adfcadbc b5fdadfc a5bcadbc b5fcadbb     ................
20003644:	adbbadbb a5bba5bb a5bba57a a57aa5ba     ........z.....z.
20003654:	a5ba9d79 adbaa57a adb9adba 5b2d636f     y...z.......oc-[
20003664:	0000ffdf 00000000 00000000 00000000     ................
	...
200036b4:	ffdeef5b 10a2632c 10a208a2 212518e4     [...,c........%!
200036c4:	21662125 426b3a29 5b304aad 6bf36bb2     %!f!):kB.J0[.k.k
200036d4:	6bf373f4 6bf46bf4 63b36bf4 73f56bf5     .s.k.k.k.k.c.k.s
200036e4:	7c767436 8cf884f8 8d398d39 9d7a9d7a     6tv|....9.9.z.z.
200036f4:	957a9dbb 9dbb9dbb 8d3a957b 957a957b     ..z.....{.:.{.z.
20003704:	957b957a 957b957b 957b9dbc 957b9d7b     z.{.{.{...{.{.{.
20003714:	957b9dbc a5bca5fc a5bca5fd adfdadfd     ..{.............
20003724:	be3db63d be3dbe7d b63dbe7d b5fcbe3d     =.=.}.=.}.=.=...
20003734:	adfcadfd adfcb63d adbcadfd adbbadfc     ....=...........
20003744:	adbbadfc a5bbadbb a5bbadbb a5bbadbb     ................
20003754:	a5baadbb a5baadba adb9adba 426a8473     ............s.jB
20003764:	0000ffdf 00000000 00000000 00000000     ................
	...
200037b4:	ce78ffdf 08614228 10a30861 20e518e4     ..x.(Ba.a...... 
200037c4:	29672125 3a2b31e9 5b704aad 63b25b71     %!g).1+:.Jp[q[.c
200037d4:	73f46bb3 73f46bb3 6bf46bf4 73f56bf4     .k.s.k.s.k.k.k.s
200037e4:	7c7673f5 84f87c76 95398d39 957a8cf8     .sv|v|..9.9...z.
200037f4:	957a9539 957a8d39 957b957a 957b8d3a     9.z.9.z.z.{.:.{.
20003804:	957b957a 957b957a 957b957b 9d7b957b     z.{.z.{.{.{.{.{.
20003814:	9dbc957b a5fc9dbc adfda5fc b63eadfd     {.............>.
20003824:	c67eb5fd c67ebe7d b63db63d b63db5fc     ..~.}.~.=.=...=.
20003834:	b63db63e adfdadfc adfcadbc adfcadbb     >.=.............
20003844:	adfcadbb adbba5bb adbbadbb adbba57a     ............z...
20003854:	adbaa5ba a5baa579 b63ba5b9 52ab8cb4     ....y.....;....R
20003864:	ffdfad55 00000000 00000000 00000000     U...............
	...
200038b4:	ce78ffdf 00614a68 10a210a2 18a418e4     ..x.hJa.........
200038c4:	29a72125 3a2a3a2a 5b304aee 63b263b2     %!.)*:*:.J0[.c.c
200038d4:	6bf36bf3 6bf46bf4 6bf47435 74357435     .k.k.k.k5t.k5t5t
200038e4:	74357435 7c777c76 957a8d39 95399d7a     5t5tv|w|9.z.z.9.
200038f4:	957a957a 8d398d7a 9dbb9dbb 957a9dbc     z.z.z.9.......z.
20003904:	957b9dbb 957b9dbb 957b9d7c 957b9dbc     ..{...{.|.{...{.
20003914:	9dbc9dbc adfcadfd adfdae3d a5bcadfd     ........=.......
20003924:	be7ebe3e b63dbe3e adfcbe3e adfcadfc     >.~.>.=.>.......
20003934:	adfdb63d adfcb5fd adbcb5fd adbbadfc     =...............
20003944:	adbbb5fc adbbadbb a5bbadbb adbbadbb     ................
20003954:	a5baadfb a5baadba b5faadfa 52eca577     ............w..R
20003964:	ffdf8471 00000000 00000000 00000000     q...............
	...
200039b4:	c5f6ffdf 086139e7 10a20861 18e410a3     .....9a.a.......
200039c4:	31a72125 3a2a31e9 5b704aad 63b25b71     %!.1.1*:.Jp[q[.c
200039d4:	63b26372 6bf463b3 6bf463b3 7c766bf4     rc.c.c.k.c.k.kv|
200039e4:	74357435 7c777435 953a84b8 953a953a     5t5t5tw|..:.:.:.
200039f4:	953a9539 957b8d39 957b957b 957b957a     9.:.9.{.{.{.z.{.
20003a04:	9dbb957b 9dbb957b 9dbc957b 9dbc957b     {...{...{...{...
20003a14:	9dbc957b ae3da5fc adfca5fc a5bca5fc     {.....=.........
20003a24:	adfcadfd adfca5bb adfca5bc adfdadfc     ................
20003a34:	adfcadfc adfdadfc adfdadfc b5fcadfc     ................
20003a44:	adbbadbb adbbadbb adbba57a adbbadbb     ........z.......
20003a54:	a5baa5ba adbaa5ba b5faa5b9 5b2da578     ............x.-[
20003a64:	ffde632d 00000000 00000000 00000000     -c..............
	...
20003ab4:	8c2fffdf 08622965 10a210a2 10a318e4     ../.e)b.........
20003ac4:	29672125 31ea31e9 532f4aad 63b26371     %!g).1.1.J/Sqc.c
20003ad4:	63726bb3 6bb463b3 6bf46bf4 74357435     .krc.c.k.k.k5t5t
20003ae4:	7c767c76 74767476 8cf984b8 953a953a     v|v|vtvt....:.:.
20003af4:	8d3a953a 957a953a 8d3a957a 957b9dbb     :.:.:.z.z.:...{.
20003b04:	9dbb9dbc 957b9dbc 957b9dbc 9dbc9dbc     ......{...{.....
20003b14:	9dbca5bc ae3dadfd a5bcae3d b63dae3d     ......=.=...=.=.
20003b24:	adfcbe3e adfdadfd adfcadfd adfdb63d     >...........=...
20003b34:	b5fdb5fd b63db63e b5fdb63d b5fcb63d     ....>.=.=...=...
20003b44:	b5fcb5fc adbbb5fc adbbadbb a5baadfb     ................
20003b54:	adbaadbb adbaadfb adbaadba 632eb5f9     ...............c
20003b64:	ef5c632d 0000ff9b 00000000 00000000     -c\.............
	...
20003bb4:	8c70ffdf 08622124 10a20862 18a310a3     ..p.$!b.b.......
20003bc4:	296618e4 29a929a7 4aee3a2b 6371532f     ..f).).)+:.J/Sqc
20003bd4:	63b26372 63b35b72 73f563b3 6bf56bf4     rc.cr[.c.c.s.k.k
20003be4:	7c767435 74367435 8cf97c77 8d398cf9     5tv|5t6tw|....9.
20003bf4:	8d3a84f9 8d3a8d39 957b8d3a 957b957a     ..:.9.:.:.{.z.{.
20003c04:	9dbb8d3a 957b957b 9dbc957b 9dbc9dbc     :...{.{.{.......
20003c14:	9dbc9dbb adfd9dbc ae3dadfc b63cadfb     ..........=...<.
20003c24:	b67db63c b63dae3c b63db63d b63dadfd     <.}.<.=.=.=...=.
20003c34:	c6bebe3c c67ebe7d be3dc67e be3dbe3d     <...}.~.~.=.=.=.
20003c44:	be3db5fc b5fcb5fc adfbadbb adbba57a     ..=.........z...
20003c54:	adfbadba adbbadbb b5faadb9 6bafb5f9     ...............k
20003c64:	bdf74269 0000ffdf 00000000 00000000     iB..............
	...
20003cb4:	8c30ffdf 08612965 10a210a3 18e418e4     ..0.e)a.........
20003cc4:	212618e4 296729a8 426c3a2a 5b3052ee     ..&!.)g)*:lB.R0[
20003cd4:	63726371 63b26bb3 6bb36bb3 6bf46bf4     qcrc.k.c.k.k.k.k
20003ce4:	7c777436 74367c76 8cf984b7 84f884f9     6tw|v|6t........
20003cf4:	8d3a8d39 8d3a957b 957a9dbb 957a957b     9.:.{.:...z.{.z.
20003d04:	9dbb9d7b 9dbb9dbc 9dbc9dbc 9dbc9dbc     {...............
20003d14:	9dbb9dbc a5fda5fd ae3dae3d b67cb67d     ........=.=.}.|.
20003d24:	be7dbebd be7dbe7d be7dc6fe be3db63d     ..}.}.}...}.=.=.
20003d34:	cebecebe c67dcebe c63dcebe b5fcbe3d     ......}...=.=...
20003d44:	b5fcbe3d b5fcb5fc adbbbdfc adbbadbb     =...............
20003d54:	adbbadbb adbbb5fb b5f9b5fa 7431be3a     ............:.1t
20003d64:	8cb23a28 0000ffdf 00000000 00000000     (:..............
	...
20003db4:	8c71ffdf 10a22965 10a310a2 18e410a3     ..q.e)..........
20003dc4:	192518e4 29a72166 3a6b29a9 52ef4aad     ..%.f!.).)k:.J.R
20003dd4:	63725b30 63b36372 5b725b72 63b463b3     0[rcrc.cr[r[.c.c
20003de4:	743663b4 7c767436 84f87436 84f984b8     .c6t6tv|6t......
20003df4:	957a84f9 957b957a 8d7a953a 957b957a     ..z.z.{.:.z.z.{.
20003e04:	9dbc957a 9dbb9d7b 9dbb957b 9dbc957b     z...{...{...{...
20003e14:	957b957b a5fd9dbc a5fc9dbc b63dadfc     {.{...........=.
20003e24:	c6beb63c c67dbe3d c6bec67d be3dbe7e     <...=.}.}...~.=.
20003e34:	c67dbe7d c67ebe3d c67ec63d be3dbdfd     }.}.=.~.=.~...=.
20003e44:	b5fcb5fc bdfdb5fc b5fbb5bc adfbadbb     ................
20003e54:	adbbadba adbbadbb b5f9adb9 8cb4b5fa     ................
20003e64:	84704269 0000ffdf 00000000 00000000     iBp.............
	...
20003eb4:	73aeffdf 08a22965 10a310a2 18e418e4     ...se)..........
20003ec4:	19252125 21672167 3a2b31e9 42ad42ad     %!%.g!g!.1+:.B.B
20003ed4:	63715b30 63b26bb3 5b7263b2 63b463b3     0[qc.k.c.cr[.c.c
20003ee4:	6bf563b4 74367436 7cb77c77 8cf98d39     .c.k6t6tw|.|9...
20003ef4:	8d398cf9 957a957b 957a9dbb 957b9dbb     ..9.{.z...z...{.
20003f04:	8d3a957b 953a957b 957b957b 957b957b     {.:.{.:.{.{.{.{.
20003f14:	8d3a957b 957b957b 957b9d7c a5fca5bc     {.:.{.{.|.{.....
20003f24:	c67eb63d c67dc6be c67dc6be c67ecebf     =.~...}...}...~.
20003f34:	be3dbe7e be3dbe3d b5fcbe3d b5fcbe3d     ~.=.=.=.=...=...
20003f44:	adbbb5fc b5fcb5fc adbbb5fc adbbb5fc     ................
20003f54:	adbbadfb adbbadbb b5f9b5fa 9536b63a     ............:.6.
20003f64:	73ef52ec 0000ffff 00000000 00000000     .R.s............
	...
20003fb4:	5aebffdf 10a210a2 10a310a2 18e410a3     ...Z............
20003fc4:	19252125 29a81926 3a2b31e9 426d3a2b     %!%.&..).1+:+:mB
20003fd4:	5b714aef 63b26372 63b35b72 6bb463b3     .Jq[rc.cr[.c.c.k
20003fe4:	6bf563b4 74366bf5 84b87c77 8d3984b8     .c.k.k6tw|....9.
20003ff4:	8d398cf9 9d7b8d39 a5fc9dbb 957a957b     ..9.9.{.....{.z.
20004004:	8d3a8d3a 8d3a84f9 953b8d3a 8d3a8d3a     :.:...:.:.;.:.:.
20004014:	8d3a8cfa 84fa84fa 8d3b8cfa 9d7b8d3a     ..:.......;.:.{.
20004024:	b63da5bc be7dbe3d be3dbe7d adfcadfc     ..=.=.}.}.=.....
20004034:	b5fdadbc adfca5bb adbca5bb adbba5bb     ................
20004044:	adbba5bb adbba57a b5fcadbb adbbadbb     ....z...........
20004054:	adbbadba adbbadba b5faadba 9d77b5fa     ..............w.
20004064:	6b6d4aab 0000ffdf 00000000 00000000     .Jmk............
	...
200040b4:	73adffdf 08a22124 10a310e3 18e418e3     ...s$!..........
200040c4:	19252125 216729a7 31ea31e9 426d3a6b     %!%..)g!.1.1k:mB
200040d4:	53304aef 63726372 63b363b3 63b36bb4     .J0Srcrc.c.c.k.c
200040e4:	6bf46bf4 6bf56bf5 84b884b7 8cf98cf9     .k.k.k.k........
200040f4:	953a953a 9d7a953a 95bb9dbb 957a95bb     :.:.:.z.......z.
20004104:	957a957b 84f9957b 84fa8d3b 8cfa8d3a     {.z.{...;...:...
20004114:	8d3a8d3b 7cb984fa 84b984fa 84fa84fa     ;.:....|........
20004124:	a5bc953b a5bbadbc adfcb63d 9d7aa5bb     ;.......=.....z.
20004134:	9d7b9d7b 95399d7b a5bb9d7b a5bba5bb     {.{.{.9.{.......
20004144:	a57aadfc adbbadbb adbbadbb adbaadbb     ..z.............
20004154:	adbaadbb adbbadbb b5bab5fb a578b5fa     ..............x.
20004164:	5aec5b2d 0000ffdf 00000000 00000000     -[.Z............
	...
200041b4:	73adffdf 10a218e3 10a310a2 212510a3     ...s..........%!
200041c4:	216618e4 216721a7 31ea29a8 426d322a     ..f!.!g!.).1*2mB
200041d4:	5b3042ae 63b35b71 63735b72 63b45b72     .B0[q[.cr[scr[.c
200041e4:	6bf563b4 74356bf5 7c766bf4 8cf984b8     .c.k.k5t.kv|....
200041f4:	953a9539 9d7b9539 957a957a 957a957a     9.:.9.{.z.z.z.z.
20004204:	957b953a 8d3b953a 8d3a84fa 8d3a84f9     :.{.:.;...:...:.
20004214:	84fa8cfa 7cba7cb9 7cba7cb9 84ba84ba     .....|.|.|.|....
20004224:	94fb7c79 953a953b adfd9d7b 953a957b     y|..;.:.{...{.:.
20004234:	94fa8cb9 9d7b953a a5bb9d7a adfca5bb     ....:.{.z.......
20004244:	a5bba57a a5bba5bb a57a9539 a57aa579     z.......9.z.y.z.
20004254:	adbaa57a adbba57a b5faadba adb9b5ba     z...z...........
20004264:	5b2c5b2e 0000ef5c 00000000 00000000     .[,[\...........
	...
200042b4:	632cffff 10a218e3 10a310a3 18e418e4     ..,c............
200042c4:	21662166 29a82167 29a929a9 426d3a6c     f!f!g!.).).)l:mB
200042d4:	52ef4aef 63b36372 5bb263b3 63b463b3     .J.Rrc.c.c.[.c.c
200042e4:	6bf56bf5 74367436 7c7673f5 953994f9     .k.k6t6t.sv|..9.
200042f4:	953a953a 9d7a9d7b 9d7aa5bc 957a9dbb     :.:.{.z...z...z.
20004304:	84f9953a 953a8cfa 8d3a957a 8d3a8d3a     :.....:.z.:.:.:.
20004314:	84f98d3a 84b984fa 7cb984f9 84b984ba     :..........|....
20004324:	7c797cb9 953b84fa 9d7ba5bc 8cf9953a     .|y|..;...{.:...
20004334:	9d3a953a a5bba57b a5bba5bb a5bba5fb     :.:.{...........
20004344:	adbbadfc 94f99d7a 84778cf8 8cb794f8     ....z.....w.....
20004354:	9d7994f7 a5baa5ba adb9b5fa adb9b5fa     ..y.............
20004364:	6b6f73b0 0000f7bd 00000000 00000000     .sok............
	...
200043b4:	73adffdf 10a210a2 10e410a3 192510e3     ...s..........%.
200043c4:	21661925 29a81926 29a92167 4aad3a6b     %.f!&..)g!.)k:.J
200043d4:	5b304aef 63b25b71 63b35bb2 63b35b72     .J0[q[.c.[.cr[.c
200043e4:	6bf563b4 74356bf5 84b87436 95398cf8     .c.k.k5t6t....9.
200043f4:	9d3a9539 9dbb957a 95389d7a 84b784b7     9.:.z...z.8.....
20004404:	7cb87cb8 84b87478 8d3984f8 8d3a84f9     .|.|xt....9...:.
20004414:	84f984f9 84f984f9 7c787cb8 7c787c78     .........|x|x|x|
20004424:	7cb97c78 8d3b7cb9 94fa8d3b 8cf98cf9     x|.|.|;.;.......
20004434:	953a84b8 9d3a9d3a 9dbb953a 9d7a957a     ..:.:.:.:...z.z.
20004444:	8cf89539 74767c76 6bf56bf5 63b35b73     9...v|vt.k.ks[.c
20004454:	7c766bf3 adfa9578 adfaa5ba adf9adf9     .kv|x...........
20004464:	632d73b1 0000ce58 00000000 00000000     .s-cX...........
	...
200044b4:	632cffdf 10a31924 10e418e4 192510e4     ..,c$.........%.
200044c4:	19262166 29a82167 29a929a8 426d426c     f!&.g!.).).)lBmB
200044d4:	5b3152ef 63b263b2 63b363b3 5b7363b3     .R1[.c.c.c.c.cs[
200044e4:	6bf46bf5 74356bf5 84b77c77 8cf88cf8     .k.k.k5tw|......
200044f4:	95399539 84f89d7a 5bb36c35 53735bb3     9.9.z...5l.[.[sS
20004504:	5bb463f5 5bf55bb4 63f563f5 6c366c36     .c.[.[.[.c.c6l6l
20004514:	74777477 74b87cb9 747874b9 6c387478     wtwt.|.t.txtxt8l
20004524:	74797479 7cb97cba 8cfa8cfa 84b88cf9     ytyt.|.|........
20004534:	7cb87cb8 84b88cfa 74777cb8 74767cb7     .|.|.....|wt.|vt
20004544:	63f57476 53725bb4 5bb35bb4 42f04b32     vt.c.[rS.[.[2K.B
20004554:	53315372 a57a7434 adb9adfb adf9b5f9     rS1S4tz.........
20004564:	5aec73b1 0000d6b9 00000000 00000000     .s.Z............
	...
200045b4:	5aeaffdf 10e41924 18e410a3 192510e4     ...Z$.........%.
200045c4:	19251926 31a82166 3a2b29a8 426c3a2b     &.%.f!.1.)+:+:lB
200045d4:	5b714aae 63b363b2 63b363b2 63b45b72     .Jq[.c.c.c.cr[.c
200045e4:	6bf463b4 74356bf4 84b76bf5 8cf884b7     .c.k.k5t.k......
200045f4:	8d398d39 4b316bf4 433042f0 4b313aef     9.9..k1K.B0C.:1K
20004604:	43314331 3af03ab0 53733af0 4b324b32     1C1C.:.:.:sS2K2K
20004614:	53334b32 63f65bb4 643763f6 643763f7     2K3S.[.c.c7d.c7d
20004624:	6c3863f7 7cb97478 953a84f9 74778cf9     .c8lxt.|..:...wt
20004634:	6c776436 6bf57437 3ab042f1 42f042f1     6dwl7t.k.B.:.B.B
20004644:	42f13ab0 3ab03ab0 4b323ab0 4b314b32     .:.B.:.:.:2K2K1K
20004654:	4aef42f0 7c354aef adb9adba b63aa5b8     .B.J.J5|......:.
20004664:	5aed6b70 0000ef5c 00000000 00000000     pk.Z\...........
	...
200046b4:	73adffdf 10a32965 10e418e4 19261925     ...se)......%.&.
200046c4:	10e52166 21672167 322a31e9 3a6c322b     f!..g!g!.1*2+2l:
200046d4:	63b252ef 63b26bf3 5bb263b3 63b363b3     .R.c.k.c.c.[.c.c
200046e4:	6bf46bf4 74357435 84b77476 84f88cf8     .k.k5t5tvt......
200046f4:	6c3584b7 3aaf5b73 32ae3aaf 3aaf3aef     ..5ls[.:.:.2.:.:
20004704:	2a6e326e 2a2d326e 3a6e326e 29ed3a6f     n2n*n2-*n2n:o:.)
20004714:	2a2e29ed 32702a2e 4b334b32 53b553b5     .).*.*p22K3K.S.S
20004724:	5bf653b6 7cb97479 953b8d3b 6c368cf9     .S.[yt.|;.;...6l
20004734:	5bb55bf6 4af15bb4 21ac322e 116b21ec     .[.[.[.J.2.!.!k.
20004744:	21ec19ac 326e326e 3aef3aaf 3aaf4331     ...!n2n2.:.:1C.:
20004754:	53303a6e 42af4af0 95377c35 b63aadf9     n:0S.J.B5|7...:.
20004764:	52ac73f2 0000e6fa 00000000 00000000     .s.R............
	...
200047b4:	842fffdf 18e42125 18e518e4 216710e5     ../.%!........g!
200047c4:	21662126 19262166 3a2b29a8 426c31ea     &!f!f!&..)+:.1lB
200047d4:	5b714aae 6bf363b2 63f363b3 63b35bb2     .Jq[.c.k.c.c.[.c
200047e4:	6bf463b3 74356bf4 8cf87cb6 7c7684b7     .c.k.k5t.|....v|
200047f4:	4af15372 326f3aaf 222c222d 19ab19ec     rS.J.:o2-","....
20004804:	21ec116a 196919ab 196a1169 08e810e8     j..!..i.i.j.....
20004814:	112900a7 116b08e9 326f21ac 433232b0     ..)...k..!o2.22C
20004824:	53b64333 7cb96437 957b84fa 6c368cf9     3C.S7d.|..{...6l
20004834:	4b324b73 3a6f42b0 216b29ac 11291129     sK2K.Bo:.)k!).).
20004844:	196a1129 29eb19aa 2a2c29eb 21eb21aa     ).j....).),*.!.!
20004854:	322c21aa 322d3a6d 6bb242ae b5f984b4     .!,2m:-2.B.k....
20004864:	4a6b8433 0000c617 00000000 00000000     3.kJ............
	...
200048b4:	7beeffff 18e42125 19252125 19262167     ...{%!..%!%.g!&.
200048c4:	29a72167 21262167 322a31e9 4aad426c     g!.)g!&!.1*2lB.J
200048d4:	5b715330 63b26bf3 63f36bf4 63b363f3     0Sq[.k.c.k.c.c.c
200048e4:	74346bf4 6c347435 7c7684b6 4af06bf4     .k4t5t4l..v|.k.J
200048f4:	326e3aaf 19ab2a2d 21ec21ec 112921ec     .:n2-*...!.!.!).
20004904:	19aa1169 10e71969 08a610e7 00a608a6     i...i...........
20004914:	08a708e7 112910e9 19ac196b 326f2a2e     ......).k....*o2
20004924:	53b54332 7cb96437 9dbc957c 74769d7b     2C.S7d.||...{.vt
20004934:	4b325bb4 29ec42b0 196a29ab 08a71929     .[2K.B.).)j.)...
20004944:	006508a6 10e608e6 08e610e7 21a91968     ..e.........h..!
20004954:	11281969 29eb29eb 5b704aae 94f67432     i.(..).).Jp[2t..
20004964:	6b6e8cb4 0000c637 00000000 00000000     ..nk7...........
	...
200049b4:	8c71ffdf 10e42965 212610e4 21672167     ..q.e)....&!g!g!
200049c4:	29a72167 29a81925 31ea29a8 52ee3a2b     g!.)%..).).1+:.R
200049d4:	5b7152ef 6bf36372 6bf463b3 6bf36bb3     .Rq[rc.k.c.k.k.k
200049e4:	74346bf3 74346bf4 533163b2 3aaf42f0     .k4t.k4t.c1S.B.:
200049f4:	21ec2a2c 19aa21ab 19291129 11271128     ,*.!.!..).).(.'.
20004a04:	08a608a6 10a60866 08a60864 18e808a7     ....f...d.......
20004a14:	192918e8 112a08e9 112a08e9 21ee196b     ..)...*...*.k..!
20004a24:	4bb42a2f 7cf96c77 ae3d9dbc 8d38a5fb     /*.Kwl.|..=...8.
20004a34:	5b726c34 21ab326d 10a61128 00640024     4lr[m2.!(...$.d.
20004a44:	08640023 08630863 08a50864 192610e5     #.d.c.c.d.....&.
20004a54:	21aa1927 426e31ec 5b704aaf 7c745bb0     '..!.1nB.Jp[.[t|
20004a64:	7c318cb5 000094d2 00000000 00000000     ..1|............
	...
20004ab4:	9cb2ffff 10e431e7 19261925 296729a8     .....1..%.&..)g)
20004ac4:	216631a9 29a82166 31ea31e9 52ee426c     .1f!f!.).1.1lB.R
20004ad4:	5b315330 73f46bf3 6bf47435 6bf47435     0S1[.k.s5t.k5t.k
20004ae4:	6bf473f4 6bb36bf4 42ae5b71 326e3a6e     .s.k.k.kq[.Bn:n2
20004af4:	19aa2a2d 1969196a 10e81969 10e61927     -*..j.i.i...'...
20004b04:	08a510e5 10e610e6 08a610e6 10a710a7     ................
20004b14:	18e81929 10e91929 10e91129 19ad196b     )...)...)...k...
20004b24:	5bf52a30 8d7b853a b67ea5fd adfbbe7d     0*.[:.{...~.}...
20004b34:	63b39d79 112829ec 00230865 08640864     y..c.)(.e.#.d.d.
20004b44:	086310a4 08631063 00630863 10e610e5     ..c.c.c.c.c.....
20004b54:	21692168 52f03a2d 63b26372 743363b1     h!i!-:.Rrc.c.c3t
20004b64:	8cb3a578 0000846f 00000000 00000000     x...o...........
	...
20004bb4:	9cf3ffdf 18e531e7 192518e5 29682126     .....1....%.&!h)
20004bc4:	216729a8 29671925 322a31e9 4aae322b     .)g!%.g).1*2+2.J
20004bd4:	63714aef 74346bf3 74357434 6bf46bf4     .Jqc.k4t4t5t.k.k
20004be4:	6bf46bf3 5b726bf3 42af42af 2a2e326e     .k.k.kr[.B.Bn2.*
20004bf4:	29ec21ed 29ab21ab 19272169 10e510e6     .!.).!.)i!'.....
20004c04:	10a508a4 112710a5 10e710e7 006608a7     ......'.......f.
20004c14:	18e80066 18e818e8 192918e8 21ed112a     f.........).*..!
20004c24:	74b842f2 957b853a c6bfadfd b5fcbe3d     .B.t:.{.....=...
20004c34:	73f4adbb 0067196a 08650024 08a50865     ...sj.g.$.e.e...
20004c44:	08620863 00210821 08a30020 10a508a3     c.b.!.!. .......
20004c54:	31eb29a9 4ab021ab 73f36b73 94f673f2     .).1.!.Jsk.s.s..
20004c64:	9d35b5b9 00009491 00000000 00000000     ..5.............
	...
20004cb4:	9cf3ffdf 10e53a29 21661926 29672967     ....):..&.f!g)g)
20004cc4:	216731e9 29a82166 3a2b31e9 426d426c     .1g!f!.).1+:lBmB
20004cd4:	6bb25b30 73f473f4 74357c75 6bf47435     0[.k.s.su|5t5t.k
20004ce4:	63b36bf4 533163b3 3a6e4af0 21ed322e     .k.c.c1S.Jn:.2.!
20004cf4:	29ec29ed 212a29ec 10e52128 086310a5     .).).)*!(!....c.
20004d04:	086308a3 112710a4 08a61127 31ac29ab     ..c...'.'....).1
20004d14:	08a71929 20e818e8 19292129 222e196a     )...... )!).j.."
20004d24:	7cf95bf5 957b8d3b be3dae3d b63cbe7d     .[.|;.{.=.=.}.<.
20004d34:	73f5b5fc 0067196b 18e910e9 08a508a6     ...sk.g.........
20004d44:	00210863 18e30820 086231a6 212739e9     c.!. ....1b..9'!
20004d54:	3a2c10e6 31ed3a2d 7bf36332 94f68cb5     ..,:-:.12c.{....
20004d64:	ad76bdfa 0000b5b6 00000000 00000000     ..v.............
	...
20004db4:	bdf6ffdf 19254269 29a81926 29a829a8     ....iB%.&..).).)
20004dc4:	29a829a8 29a82166 42ac29a8 426d3a6b     .).)f!.).).Bk:mB
20004dd4:	6bb352f0 743573f4 7c367435 6bf47435     .R.k.s5t5t6|5t.k
20004de4:	5b725bb3 42f04af0 3a6e42af 29ed29ed     .[r[.J.B.Bn:.).)
20004df4:	21ab21ec 10e71128 08a410a5 086208a3     .!.!(.........b.
20004e04:	10a30021 19260863 3a2c426c 31ee08e8     !...c.&.lB,:...1
20004e14:	31ee4af1 18e810a8 192910e8 326f1129     .J.1......).).o2
20004e24:	7cf95bf5 9dbc8d7b b63da5bc b5fcb5fc     .[.|{.....=.....
20004e34:	7c36adbb 3a6f3a6f 18e93a2f 21691929     ..6|o:o:/:..).i!
20004e44:	08620063 18e30021 08612965 73b052ec     c.b.!...e)a..R.s
20004e54:	10e72128 29ed21ab 7bf452b0 94f68474     (!...!.).R.{t...
20004e64:	b5b8ad78 0000be17 00000000 00000000     x...............
	...
20004eb4:	ce78ffdf 18e552eb 31a829a7 296731e9     ..x..R...).1.1g)
20004ec4:	31e831a8 21672167 426c3a2a 4aae42ac     .1.1g!g!*:lB.B.J
20004ed4:	6bb25b30 73f47c35 7c767c75 6bf48477     0[.k5|.su|v|w..k
20004ee4:	4b315bb3 3a6f4af1 322e3a6e 29ed322e     .[1K.Jo:n:.2.2.)
20004ef4:	092821ec 10a610e7 086210a4 08611924     .!(.......b.$.a.
20004f04:	18e40061 08622965 a5788473 08ea42af     a...e)b.s.x..B..
20004f14:	5bb52a30 10e842b0 10e908e8 3ab121ab     0*.[.B.......!.:
20004f24:	74b85bb5 9dbc8d7c a5fca5fc adfcb63d     .[.t|.......=...
20004f34:	7cb8a5bb 74786c37 112b322f 322c52f1     ...|7lxt/2+..R,2
20004f44:	086308e6 00200862 08620020 8472632d     ..c.b. . .b.-cr.
20004f54:	10e75b2f 21ad29ac 7c344ab0 94f784b5     /[...).!.J4|....
20004f64:	b5b8adb9 ffdfc638 00000000 00000000     ....8...........
	...
20004fb4:	e73cffdf 192552eb 39e929a7 29a829a8     ..<..R%..).9.).)
20004fc4:	29a829a8 29a82167 3a2b31e9 4aee3a6b     .).)g!.).1+:k:.J
20004fd4:	6bb35330 743573f4 84777435 6bf57436     0S.k.s5t5tw.6t.k
20004fe4:	4af15372 3a6f3aaf 322e322e 29ed29ed     rS.J.:o:.2.2.).)
20004ff4:	00a71129 086408a5 192518e6 08610862     ).....d...%.b.a.
20005004:	08610020 086210a3 b5fa73af 322f7c76      .a...b..s..v|/2
20005014:	22300069 42b063f6 196b08e9 4b333a70     i.0".c.B..k.p:3K
20005024:	6c775375 95bc7cf9 a5fc95bb adfca5fb     uSwl.|..........
20005034:	84f89d7a 84f97cb8 3a714af3 42ef4b32     z....|...Jq:2K.B
20005044:	00641128 00210021 21650020 9d368c72     (.d.!.!. .e!r.6.
20005054:	426e6bb2 42b1322e 7c3552f1 953784b5     .knB.2.B.R5|..7.
20005064:	b5f99d78 ffdabe18 00000000 00000000     x...............
	...
200050b4:	ffdf0000 19265b2d 29e929e9 216829a8     ....-[&..).).)h!
200050c4:	216831e9 31a929a9 3a2b39ea 4aae426c     .1h!.).1.9+:lB.J
200050d4:	6bf35b71 74357435 74767c77 6bf57435     q[.k5t5tw|vt5t.k
200050e4:	4b3263b4 326f42f1 322e322e 21ac322f     .c2K.Bo2.2.2/2.!
200050f4:	08a810e9 216910e8 29684aae 08a208a3     ......i!.Jh)....
20005104:	086110a2 21250862 adfb8cb4 5b749579     ..a.b.%!....y.t[
20005114:	08eb216d 63f74334 326f3270 4b755bb5     m!..4C.cp2o2.[uK
20005124:	63f653b6 95bc853a 957b95bc 9dbc957c     .S.c:.....{.|...
20005134:	8d38a5bb 8cf98d38 6c3784b8 5b745374     ..8.8.....7ltSt[
20005144:	29aa5332 19271968 5b301927 8cb694f7     2S.)h.'.'.0[....
20005154:	637373f4 63745b33 7c3673f5 9d3894f8     .ssc3[tc.s6|..8.
20005164:	adf9a5b9 de99be3a ffdeffdf ef5df7bd     ....:.........].
20005174:	0000ffdd 00000000 00000000 00000000     ................
	...
200051b4:	ffdf0000 29a7636d 29e921a7 29a829a9     ....mc.).!.).).)
200051c4:	216829a8 39ea29a8 3a2b31e9 4aee426c     .)h!.).9.1+:lB.J
200051d4:	73f45330 7c3673f4 7c767436 74367435     0S.s.s6|6tv|5t6t
200051e4:	537363b4 3ab042f1 3a6f322e 29ee322f     .csS.B.:.2o:/2.)
200051f4:	21ac196c 63b3426f 52af5b72 00631928     l..!oB.cr[.R(.c.
20005204:	00630062 63300864 8cf79d38 5bb47476     b.c.d.0c8...vt.[
20005214:	53744af2 64375375 5bb55374 53b663f6     .JtSuS7dtS.[.c.S
20005224:	6c3753b6 95bc7cf9 84fa8d3b 957c8d3b     .S7l.|..;...;.|.
20005234:	8d39953a 95398cf8 953a94f9 5b766bf6     :.9...9...:..kv[
20005244:	74365b74 6bb46bf4 6bb46332 63737434     t[6t.k.k2c.k4tsc
20005254:	73f55b32 7bf67c36 84b773f5 a5799538     2[.s6|.{.s..8.y.
20005264:	adf9a579 ef3eb5f9 bdf8d65a ce3bbdf9     y.....>.Z.....;.
20005274:	ffdcd69b 00000000 00000000 00000000     ................
	...
200052b4:	ffdf0000 39e783ef 31e931a7 29a83a2a     .......9.1.1*:.)
200052c4:	21682168 29a839ea 426b39e9 4aee4aad     h!h!.9.).9kB.J.J
200052d4:	73f46371 7c367c35 7c767c76 74367c76     qc.s5|6|v|v|v|6t
200052e4:	63f56c36 4b325bb4 42b14af1 322f3ab1     6l.c.[2K.J.B.:/2
200052f4:	42b1322f 63b45b73 63745b74 426e63b3     /2.Bs[.ct[tc.cnB
20005304:	31eb322c 84775b31 743684b7 74776c36     ,2.11[w...6t6lwt
20005314:	7cf984fa 74b97cfa 6c377478 5bf76c37     ...|.|.txt7l7l.[
20005324:	6c376437 957c84f9 8d3b957c 953b9dbc     7d7l..|.|.;...;.
20005334:	8cf9953b 95399539 8cb794f8 5b757c37     ;...9.9.....7|u[
20005344:	63b55b75 63756bb6 5af25af3 6bb36bb3     u[.c.kuc.Z.Z.k.k
20005354:	8cb77c35 94f89d39 8cf88cb7 a5baa5ba     5|..9...........
20005364:	adfaadfa ad79b5fa 9d3894f7 a53aad7b     ......y...8.{.:.
20005374:	e71dbdfb 00000000 00000000 00000000     ................
	...
200053b4:	ffdf0000 39e78c30 31e92166 29a929a9     ....0..9f!.1.).)
200053c4:	21682168 29a829a8 3a2b29a8 52ef42ad     h!h!.).).)+:.B.R
200053d4:	74356372 743573f4 84b77436 7c777cb7     rc5t.s5t6t...|w|
200053e4:	74777477 64356435 53735bb4 3ab13ab1     wtwt5d5d.[sS.:.:
200053f4:	63f65374 53334b32 4af342b2 63b563b5     tS.c2K3S.B.J.c.c
20005404:	5b3352f2 637463b5 8cfa6bf6 747884b9     .R3[.ctc.k....xt
20005414:	74b87cb9 7cf96c77 747874b8 6c3763f7     .|.twl.|.txt.c7l
20005424:	74376c37 953b7cb8 9dbc8d3b 957c957c     7l7t.|;.;...|.|.
20005434:	8cfa8cfa 9d398cf9 9cf89d39 7c778cb7     ......9.9.....w|
20005444:	6bb56bf6 73f66bb5 7c376bf6 8c777c36     .k.k.k.s.k7|6|w.
20005454:	9d398cb8 adbaa57a 9d7a9d79 adfba5ba     ..9.z...y.z.....
20005464:	b63badba 8477adfa 9d3b8cb8 4a725b35     ..;...w...;.5[rJ
20005474:	cebd7bf6 00000000 00000000 00000000     .{..............
	...
200054b0:	ffdf0000 ffdfffda 31a894b3 21a91926     ...........1&..!
200054c0:	216829a9 29a931ea 31e929a9 31e931a9     .)h!.1.).).1.1.1
200054d0:	533052ee 74346bf3 73f573f5 84b77c76     .R0S.k4t.s.sv|..
200054e0:	84b88d39 7cb87cf8 74b87cf8 63f57477     9....|.|.|.twt.c
200054f0:	747763f5 7cb884f9 63f57c77 53345bb5     .cwt...|w|.c.[4S
20005500:	3a714af3 53344af2 74376375 8cfa8cf9     .Jq:.J4Suc7t....
20005510:	7c778cf9 74777cb8 84f97cb8 6c7884fa     ..w|.|wt.|....xl
20005520:	6c376c37 74377437 953b84b9 8d3b957c     7l7l7t7t..;.|.;.
20005530:	957c957b 8cb99d3c 95399539 ad7aa57a     {.|.<...9.9.z.z.
20005540:	9579a5ba 8cb79538 8cf884b7 94f99539     ..y.8.......9...
20005550:	9cf99d39 a57aa57a adbaadba a5baa5fb     9...z.z.........
20005560:	adfbadfb adfaadfb 94f9adfa 73f7adbd     ...............s
20005570:	10ad10ee 9d193a31 00000000 00000000     ....1:..........
	...
200055ac:	ffdee68f ce7adeda c67cbdfa 4aad94f6     ......z...|....J
200055bc:	21691927 21a91968 322a31ea 29a82968     '.i!h..!.1*2h).)
200055cc:	31e929a8 63b14aad 73f463b2 7c3673f4     .).1.J.c.c.s.s6|
200055dc:	84b77c76 8d398cf8 7cf87cf8 85397cf9     v|....9..|.|.|9.
200055ec:	7cb87477 84f984f8 8d3a84f9 8cf98cf9     wt.|......:.....
200055fc:	6c377c78 6bf663b5 84ba7c78 8cfa84b9     x|7l.c.kx|......
2000560c:	8cb88cf9 94f98cb8 84f984b8 8d3a8cf9     ..............:.
2000561c:	74797cb9 74376437 74376c36 8d3b7c78     .|yt7d7t6l7tx|;.
2000562c:	8d3b8cfa 9d7c953b 8cf9953b 95798cf8     ..;.;.|.;.....y.
2000563c:	9dbb9539 adbaa5ba a57aa57a a57a9d3a     9.......z.z.:.z.
2000564c:	a5ba9d79 a57aa57a a5ba9d39 adbaa57a     y...z.z.9...z...
2000565c:	a5ba9dba adfba5fa adfaa5ba a57aa5b9     ..............z.
2000566c:	5b349d3a 10af18ef 7437196f 0000ffdf     :.4[....o.7t....
	...
200056ac:	ce3bf77d 8cb7a539 73f78478 8cf88478     }.;.9...x..sx...
200056bc:	4af17c77 29aa21ab 31eb426c 216729a9     w|.J.!.)lB.1.)g!
200056cc:	21a82968 6371426c 6bf46bf3 74367435     h).!lBqc.k.k5t6t
200056dc:	84b87c77 8d399539 7cf98d3a 853a8d7a     w|..9.9.:..|z.:.
200056ec:	8d398539 8d39957a 8d398d3a 953a953a     9.9.z.9.:.9.:.:.
200056fc:	853a953a 8d3a953b 953a953b 953a9d7b     :.:.;.:.;.:.{.:.
2000570c:	9cf99d7a 9d3a9d3a 953a953a 8d3a957a     z...:.:.:.:.z.:.
2000571c:	747984fa 6c367478 74777477 84b97cb9     ..ytxt6lwtwt.|..
2000572c:	8cfa84b9 a5bc9dbd 9d7ba5bc 95399539     ..........{.9.9.
2000573c:	957a9d7a adbba5bb ad7bb5fc adbbad7b     z.z.......{.{...
2000574c:	a5bab5fb a57aa57a a57aadbb a5bbadbb     ....z.z...z.....
2000575c:	a5baa5bb a5baadfb adfaadfb a539adfb     ..............9.
2000576c:	6b768c77 08f03a34 6bf71971 ffdfef7d     w.vk4:..q..k}...
	...
200057ac:	8c76d69b 3a725b34 192e196e 3a71192e     ..v.4[r:n.....q:
200057bc:	7cba63f7 21ac42b1 31ed29ad 19272169     .c.|.B.!.).1i!'.
200057cc:	21671926 63713a6b 6bf46bf4 6bf56bb4     &.g!k:qc.k.k.k.k
200057dc:	7cb76bf5 8d3a84f9 8d3a84f9 957b8d3a     .k.|..:...:.:.{.
200057ec:	8d3a8d3a 8d7a8d39 95bb8d3a 957a8d3a     :.:.9.z.:...:.z.
200057fc:	957b8d3a 957a8d3a 9d7a8d3a 9d7a9d7a     :.{.:.z.:.z.z.z.
2000580c:	adbba57b 9d3b9d3a 957b8d3a 8d3a8cf9     {...:.;.:.{...:.
2000581c:	84b984b9 74377c78 74776c36 74786c37     ....x|7t6lwt7lxt
2000582c:	8d3a7c78 a5fd9d7c 9dbb9dbc 9d398cf8     x|:.|.........9.
2000583c:	9d7a9d7a 9d7b9539 b5fca5bb adbaa57a     z.z.9.{.....z...
2000584c:	a5bba57a a5bb9d7a a5bba57a adbba57b     z...z...z...{...
2000585c:	a5fba5bb a5baa5bb adfba5ba ad7aadba     ..............z.
2000586c:	7bf79477 19b44ab5 63b81132 ffdfdedc     w..{.J..2..c....
	...
200058a8:	ffdf0000 4a7194b6 006b192d 086a08ab     ......qJ-.k...j.
200058b8:	0069086a 42b208aa 216d63b6 322e216d     j.i....B.cm!m!.2
200058c8:	29a9426e 21682168 63714aad 6bf473f4     nB.)h!h!.Jqc.s.k
200058d8:	63b46bf5 74366bf5 8d398d39 8d7a8d3a     .k.c.k6t9.9.:.z.
200058e8:	8d7a8d3a 957a957b 957a95ba 9dbb95bb     :.z.{.z...z.....
200058f8:	957b957b 957b9dbc 957a957b 957a9d7b     {.{...{.{.z.{.z.
20005908:	9d3a957a a5bba57b 953ba5bc 8d3a957b     z.:.{.....;.{.:.
20005918:	84f98d3a 84ba8cfa 63f57c79 6c3663f6     :.......y|.c.c6l
20005928:	74777437 8d3a7cb8 9d7c9d7c 9d7b9dbc     7twt.|:.|.|...{.
20005938:	95399d7a 9d7a9d79 9d7b9d7b adbba5bb     z.9.y.z.{.{.....
20005948:	adbbb5bc a5bbadbb a57ba5bb a57badbc     ..........{...{.
20005958:	a5bba5bb a5fba5fb a57aa5bb adbbadbb     ..........z.....
20005968:	a579adfa 8438a4f8 2a365337 63b719b3     ..y...8.7S6*...c
20005978:	ffdfdefc 00000000 00000000 00000000     ................
	...
200059a8:	ad79ffdf 192e4af2 08aa006b 08a900a9     ..y..J..k.......
200059b8:	18eb0869 192c10aa 31ef3a30 3a2f196d     i.....,.0:.1m./:
200059c8:	4aae5331 29a82167 6371426c 63f463b2     1S.Jg!.)lBqc.c.c
200059d8:	6bf563b4 6c3563b4 8d397cb7 957a8d39     .c.k.c5l.|9.9.z.
200059e8:	957a8d39 9dbb957a 9dbb95bb 957b957b     9.z.z.......{.{.
200059f8:	9d7c957b 957c957b 9d7b957b 9d7b953a     {.|.{.|.{.{.:.{.
20005a08:	9d7b957b 9d7b957b 8d3b8d3b 853b853b     {.{.{.{.;.;.;.;.
20005a18:	8d3b8d3a 84fa84fa 53746bf7 63f55374     :.;......ktStS.c
20005a28:	74786c36 84f97437 9d7c957b a5bc957b     6lxt7t..{.|.{...
20005a38:	9d399d7a 9d7a8cf8 957b9d7b a57b953a     z.9...z.{.{.:.{.
20005a48:	adbca57b adfcadbc adfdadbc a5bba5bb     {...............
20005a58:	a5bba5bb a5fba5bb a5bba5bb adfaa5ba     ................
20005a68:	a579a5b9 8c798c76 3a775b38 73f821b4     ..y.v.y.8[w:.!.s
20005a78:	ffdfd69b 00000000 00000000 00000000     ................
	...
20005aa4:	1b080000 8476f77d 08ad3a72 08aa08ac     ....}.v.r:......
20005ab4:	08a908a9 31ae216c 18eb31ae 29ae10ec     ....l!.1.1.....)
20005ac4:	29ef29af 53305331 216729aa 5b70426d     .).)1S0S.)g!mBp[
20005ad4:	63b363b2 63b46bf4 6c3563b4 84f87cb7     .c.c.k.c.c5l.|..
20005ae4:	8d39957a 9dba957a 9dbb9dbb 9dbb9dbc     z.9.z...........
20005af4:	9d7b9dbc 957b9d7c 8d3b957c 957c9dbc     ..{.|.{.|.;...|.
20005b04:	9d7c9d7c 9d7ca5bc 8d7b957b 853b8d7c     |.|...|.{.{.|.;.
20005b14:	853b853b 853b8d3b 6bf784fa 53345bb6     ;.;.;.;....k.[4S
20005b24:	63f55bb5 74377437 7cb97437 9dbc9dbc     .[.c7t7t7t.|....
20005b34:	b5fcadbc 9d39b5fc 94f994f9 957c9d7c     ......9.....|.|.
20005b44:	9d7b9d7b a57badbc a5bba5bb adfcadfd     {.{...{.........
20005b54:	a5bbadfd adfcadbc a5bbadfc adbbadfc     ................
20005b64:	adbaadbb 9d38b5fa 8c798435 32376379     ......8.5.y.yc72
20005b74:	7c3a3236 ffdfdebb 00000000 00000000     62:|............
	...
20005ba4:	ffdf0000 6bf5c597 112f3274 10aa086c     .......kt2/.l...
20005bb4:	196d00a9 3a303a30 192c31ae 192c0069     ..m.0:0:.1,.i.,.
20005bc4:	2a2f29ef 5b313a70 19273a2c 5b3039eb     .)/*p:1[,:'..90[
20005bd4:	63b35b71 5b745b73 6bf55b73 7cb76c35     q[.cs[t[s[.k5l.|
20005be4:	8d3984f8 957a8d39 9dbb953a 9dbb957b     ..9.9.z.:...{...
20005bf4:	957b957b 957b8d3a 957c8d3b 957c8d3b     {.{.:.{.;.|.;.|.
20005c04:	9dbd957c 957b9d7c 8d7c8d3b 8d3c8d3b     |...|.{.;.|.;.<.
20005c14:	8d3c84fb 7cfa7cfa 53756c38 5b755334     ..<..|.|8luS4Su[
20005c24:	6c365bb5 6c366c36 7c786bf6 9dbc957b     .[6l6l6l.kx|{...
20005c34:	cebfb5fd b5fccebe 8cb88cf8 9d7c8cfa     ..............|.
20005c44:	a57c9d7b a5bca57c 9d7b9d3a a5bc9d7b     {.|.|...:.{.{...
20005c54:	a5bca5bc a5bc9d7b a5fca5bc a5bb9d7b     ....{.......{...
20005c64:	adfaa5ba 9537a5f9 94bb7c35 32365b39     ......7.5|..9[62
20005c74:	8cbb3235 0000ef5c 00000000 00000000     52..\...........
	...
20005ca4:	ffdf0000 6bb5c5b8 217142f6 10aa10ec     .......k.Bq!....
20005cb4:	29f1112b 327142f4 18eb29af 00a908aa     +..).Bq2.)......
20005cc4:	327029ee 5331322f 192752ef 426d31aa     .)p2/21S.R'..1mB
20005cd4:	63b363b2 5b7363b4 63b45b74 74366c36     .c.c.cs[t[.c6l6t
20005ce4:	84f984b8 8cf9953a 957b953a 957b9dbc     ....:...:.{...{.
20005cf4:	957c9dbc 9d7c957c 8d3c957c 957c8d7c     ..|.|.|.|.<.|.|.
20005d04:	957c9dbd 8d3b9d7c 8d7c957c 8d3b8d3c     ..|.|.;.|.|.<.;.
20005d14:	8d3c8d3c 6c79853b 42f45bb7 63b65335     <.<.;.yl.[.B5S.c
20005d24:	6c366bf7 6c367477 7c787437 953b957b     .k6lwt6l7tx|{.;.
20005d34:	d6bfc67e b5fcc67e 8cf9a57b 953b7cb8     ~...~...{....|;.
20005d44:	a57dadfe 9d7cadbd a5bca5bc 9dbca5bc     ..}...|.........
20005d54:	a5bca5bc a5bca5bc a5bba5bc 9d7aa5bc     ..............z.
20005d64:	adfaadfb 9537adf9 94bb8cb7 31f66b7b     ......7.....{k.1
20005d74:	949c42b7 00000000 00000000 00000000     .B..............
	...
20005da4:	ffdf0000 6bf6ad57 21b13ab5 08ab08ac     ....W..k.:.!....
20005db4:	3a74196e 32713273 192c21ae 08ea08aa     n.t:s2q2.!,.....
20005dc4:	3a7129ee 4af121ee 21694af0 426d29aa     .)q:.!.J.Ji!.)mB
20005dd4:	5b724af0 5b735b73 5bb35332 743663b4     .Jr[s[s[2S.[.c6t
20005de4:	7c787436 8cf984b8 8d3a84b9 957b953a     6tx|......:.:.{.
20005df4:	957c8d3b 953c8cfb 853c84fb 957d8d7c     ;.|...<...<.|.}.
20005e04:	8d3c8d3b 957c953c 957c8d3c 8d3b8d3b     ;.<.<.|.<.|.;.;.
20005e14:	8cfb84fb 6c79853c 4b344b34 73f85b75     ....<.yl4K4Ku[.s
20005e24:	7c7873f7 74367437 84b96c36 8cfa84fa     .sx|7t6t6l......
20005e34:	a5bca57b 953994fa 9d3a9539 7c797c78     {.....9.9.:.x|y|
20005e44:	a5bd953b adfdadfd adfca5bb a5bca5bc     ;...............
20005e54:	9d7c9d7c a5bc9d7b a5bba5bb a5bba5bb     |.|.{...........
20005e64:	adfaa5ba 9d78a5b9 9d3c94f9 42b873fb     ......x...<..s.B
20005e74:	ad9c52f7 00000000 00000000 00000000     .R..............
	...
20005ea4:	ffdf0000 6bf6a577 32335377 006d112f     ....w..kwS32/.m.
20005eb4:	42b429b1 3a714af4 196d29ef 196c196d     .).B.Jq:.)m.m.l.
20005ec4:	3ab24af2 323021ef 29ab5331 3a6c29ea     .J.:.!021S.).)l:
20005ed4:	53714aef 533263b3 53735b74 6bf55bb4     .JqS.c2St[sS.[.k
20005ee4:	74367436 7c787c78 7cb97cb9 8d3a8d3a     6t6tx|x|.|.|:.:.
20005ef4:	84fa8d3b 84bb8cfb 8d3c8d3c 8d3c8d7d     ;.......<.<.}.<.
20005f04:	8d7d8d7c 953d957d 8d3c957d 8d3b957c     |.}.}.=.}.<.|.;.
20005f14:	8d3c957d 5bf78d3c 5b7442f2 73f87437     }.<.<..[.Bt[7t.s
20005f24:	7cb87c79 7c7784b8 6c377437 74796c39     y|.|..w|7t7l9lyt
20005f34:	7c7a84fa 74377439 9d398cb7 74379cfa     ..z|9t7t..9...7t
20005f44:	957c84b9 adfda63d a5bbb5fc a5bdadfd     ..|.=...........
20005f54:	9d7ba5bd a5bc9d7b a5bbadbc adbbadbb     ..{.{...........
20005f64:	a5b9adbb 9d79adba a53ca53b 5b3984bb     ......y.;.<...9[
20005f74:	e75b7c3b 00000000 00000000 00000000     ;|[.............
	...
20005fa4:	ffdf0000 7437a516 4af85bb9 00ae1972     ......7t.[.Jr...
20005fb4:	42b421b1 42b24af4 29ef29ef 3a3029ef     .!.B.J.B.).).)0:
20005fc4:	42b352f3 29ee21ae 426e4af1 29a929aa     .R.B.!.).JnB.).)
20005fd4:	53713a6d 5b735372 5b735b73 6bf55b73     m:qSrSs[s[s[s[.k
20005fe4:	74366bf5 7c787436 7cb97cb8 7cf974b8     .k6t6tx|.|.|.t.|
20005ff4:	7cba7cb9 7cbb7cba 853c84fb 853b84fb     .|.|.|.|..<...;.
20006004:	957d853b 957d8d3c 9dbd957d 957c957c     ;.}.<.}.}...|.|.
20006014:	8d3d8d3c 4b35747a 6bf73271 84797438     <.=.zt5Kq2.k8ty.
20006024:	7cba847a 6c367478 53335b74 53754af3     z..|xt6lt[3S.JuS
20006034:	73f86bf7 6bf56375 94f873f4 84b994fa     .k.suc.k.s......
20006044:	84fb7438 adfd957b adfcb5fc adfda5bc     8t..{...........
20006054:	a57ca57c 9d7b9d7b a5bb9d7b a5bba5bb     |.|.{.{.{.......
20006064:	adbaa5ba 9538a5b9 a57c94fa 63ba7c7a     ......8...|.z|.c
20006074:	f7dd847b 00000000 00000000 00000000     {...............
	...
200060a4:	ffdf0000 73f6bdf8 5b795bb9 00ef3276     .......s.[y[v2..
200060b4:	42f429f2 3a724af4 31f03230 42714272     .).B.Jr:02.1rBqB
200060c4:	32304271 31ee3230 426e5b32 29a929aa     qB0202.12[nB.).)
200060d4:	533042ae 53325b72 5b735b73 63b363b3     .B0Sr[2Ss[s[.c.c
200060e4:	74366bf5 74777477 7cb884b9 747874b8     .k6twtwt...|.txt
200060f4:	6c7874b9 74ba74ba 84fb84fb 84fb84fb     .txl.t.t........
20006104:	8d3c8d3c 8d3c957c 957d957d 957d957d     <.<.|.<.}.}.}.}.
20006114:	84fc957d 3ab3747a 73f83a73 7c397c79     }...zt.:s:.sy|9|
20006124:	5bb67438 4af25374 3a2f4270 3a30322f     8t.[tS.JpB/:/20:
20006134:	4ab34af2 6bb35b33 73f46bf3 8cfa8cb9     .J.J3[.k.k.s....
20006144:	74787438 9dbc8d3c b5fdadfd 9d7cae3d     8txt<.......=.|.
20006154:	a5bca5bd 9d7b9d7c a5bba5bc a5baa5bb     ....|.{.........
20006164:	a5b9adba 84b7a5b9 a57c94fb 6bfa84ba     ..........|....k
20006174:	f79b9cfc 00000000 00000000 00000000     ................
	...
200061a4:	d71a0000 7c36dedb 63ba5336 09313ab7     ......6|6S.c.:1.
200061b4:	4af519b1 42b35335 29af21af 3a3031f0     ...J5S.B.!.).10:
200061c4:	10eb192d 4ab1322f 4aaf6373 426d29aa     -.../2.Jsc.J.)mB
200061d4:	533042ae 533152f0 5b735332 63b45b73     .B0S.R1S2Ss[s[.c
200061e4:	6bf563b4 74376bf5 6c376c36 74786c37     .c.k.k7t6l7l7lxt
200061f4:	6c786c37 7cba7479 84fb7cba 8d3c8cfb     7lxlyt.|.|....<.
20006204:	957d8d3c 8d3c953c 957d8d3c 8d3c8d3b     <.}.<.<.<.}.;.<.
20006214:	84bb8cfc 19af5b77 6bb84273 63356bb7     ....w[..sB.k.k5c
20006224:	32704ab2 21ab21ad 29ac216b 216c216b     .Jp2.!.!k!.)k!l!
20006234:	29ad196b 5b3052b0 3a6e3a2c 84b96373     k..).R0[,:n:sc..
20006244:	5bb76bf7 953c7cba adfc9d7b a5bca5bc     .k.[.|<.{.......
20006254:	9d7c9d3b 9d7b953a a5ba9d7a adbaa5ba     ;.|.:.{.z.......
20006264:	adfaa5b9 6c369d78 a5bd847a 847b7cb9     ....x.6lz....|{.
20006274:	ffdba53c 00000000 00000000 00000000     <...............
	...
200062a8:	9cf7ffff 63b85b75 09315339 52f51971     ....u[.c9S1.q..R
200062b8:	3a725b76 192d21af 192c216d 006908eb     v[r:.!-.m!,...i.
200062c8:	5b3329ad 5b317c36 4aef5b30 532f42ad     .)3[6|1[0[.J.B/S
200062d8:	52f15331 5b725b73 63b363b3 63b463b4     1S.Rs[r[.c.c.c.c
200062e8:	6bf66bf5 6c366c36 74786c78 747874b9     .k.k6l6lxlxt.txt
200062f8:	7cfa7cb9 8cfb8d3b 8d3c8d3c 953c953c     .|.|;...<.<.<.<.
20006308:	8d3b957d 957d953c 8d3c9dbd 743a84bc     }.;.<.}...<...:t
20006318:	08ec3a73 533552f5 3a2f52f3 08a721ac     s:...R5S.R/:.!..
20006328:	00640865 08a608a5 216a2129 296b196a     e.d.....)!j!j.k)
20006338:	106531ab 00680024 637431ef 537763b7     .1e.$.h..1tc.cwS
20006348:	84fb747a a5bc9d7c a5bcadfc 9d3ba57c     zt..|.......|.;.
20006358:	9d7a9d7b a5ba9d7a adbaadfb adf9adba     {.z.z...........
20006368:	63b69538 9d7c847b 84ba8d3a ffdbb5bd     8..c{.|.:.......
	...
200063a8:	ce7cff9b 5b366373 08f05338 52f610f0     ..|.sc6[8S.....R
200063b8:	29f052f5 112d112d 10eb08ab 08a908ab     .R.)-.-.........
200063c8:	637310aa 6bb37c36 4aae5b30 4aef4aad     ..sc6|.k0[.J.J.J
200063d8:	5b314aef 5b725331 5b735332 63b45b73     .J1[1Sr[2Ss[s[.c
200063e8:	63b563b5 6bf65bb5 747963f7 74787478     .c.c.[.k.cytxtxt
200063f8:	7cb97478 8d3c84fa 8d3b8cfb 84fb84ba     xt.|..<...;.....
20006408:	8d3b8cfb 957c84fb 8d3c957c 6bf97c7a     ..;...|.|.<.z|.k
20006418:	08ac116e 42724ab3 10ea216d 00220025     n....JrBm!..%.".
20006428:	08630021 08640823 196910a6 216a2169     !.c.#.d...i.i!j!
20006438:	086410a6 00680024 427010eb 53375335     ..d.$.h...pB5S7S
20006448:	743a5b78 9d7b84fa 9d7b9d7a 9d7c9d3b     x[:t..{.z.{.;.|.
20006458:	a5bb9d3b a5bb9d7a a5baa5ba adf9a5b9     ;...z...........
20006468:	5bb68cf6 9d7d7c3b 8cfa84f9 0000bddd     ...[;|}.........
	...
200064a8:	ffdf5100 5b739d36 113163b9 42b410ef     .Q..6.s[.c1....B
200064b8:	21af5335 08eb112d 10eb10ec 086910ec     5S.!-.........i.
200064c8:	5b3210a9 6bf47c76 4aae5330 42ae4aee     ..2[v|.k0S.J.J.B
200064d8:	52f04aef 53315b31 5b736373 5b7363b4     .J.R1[1Sscs[.cs[
200064e8:	63b463b5 63f563f5 74386c37 7c787478     .c.c.c.c7l8txtx|
200064f8:	6c377cb9 74796c37 7cba84fb 7cba84fb     .|7l7lyt...|...|
20006508:	84fc84fc 853b8d3c 7cba8d3b 5bb67cba     ....<.;.;..|.|.[
20006518:	006a112d 31ef31f0 002718eb 00230025     -.j..1.1..'.%.#.
20006528:	08640864 00240864 08a60865 3a2c2169     d.d.d.$.e...i!,:
20006538:	52af6b72 006918e9 6bf6216d 537684ba     rk.R..i.m!.k..vS
20006548:	63f85377 8d3b7cbb 9d3b957b a57ca57c     wS.c.|;.{.;.|.|.
20006558:	9d7b9d7b a5bba5bb a5b9a5ba adfaadfa     {.{.............
20006568:	533684b6 9d7c7c7a 9cfa94fa 0000e73e     ..6Sz||.....>...
	...
200065a8:	ffda0000 7c34defa 3a756377 3a73006d     ......4|wcu:m.s:
200065b8:	29ef52f4 08eb08eb 10eb08ab 086908aa     .R.)..........i.
200065c8:	5b7310ea 6bf47436 52ef5330 426d4aad     ..s[6t.k0S.R.JmB
200065d8:	52f0426d 533152f1 63735b32 5b735b32     mB.R.R1S2[sc2[s[
200065e8:	6bf563b4 63f563f5 74376bf6 74786c37     .c.k.c.c.k7t7lxt
200065f8:	74387478 5bb65375 7cbb7479 7cbb7cba     xt8tuS.[yt.|.|.|
20006608:	84fc747a 853c7cfb 84fb84fb 5bb57cb9     zt...|<......|.[
20006618:	08eb112c 216d216d 082710a9 08a50025     ,...m!m!..'.%...
20006628:	29eb2169 08a71929 29aa0065 8cb75b30     i!.))...e..)0[..
20006638:	7c368cb7 212b39ee a5bc5b74 7c78953b     ..6|.9+!t[..;.x|
20006648:	63f85bb6 7cba6439 9d3b8d3b a57b953a     .[.c9d.|;.;.:.{.
20006658:	9d7b9d7b a5ba9d3a a579a57a adbaa579     {.{.:...z.y.y...
20006668:	5b3773f5 a5bc7cb9 ad3b94bb 0000ffdb     .s7[.|....;.....
	...
200066a8:	f7520000 adb9f7fd 4af66bb5 29f108ad     ..R......k.J...)
200066b8:	29ef5335 08ab112c 08ab10eb 08aa08ab     5S.),...........
200066c8:	63b54271 6bf47436 52ef63b2 426d52ef     qB.c6t.k.c.R.RmB
200066d8:	52ef4aaf 53315330 5b326373 63b36373     .J.R0S1Ssc2[sc.c
200066e8:	5bb463b4 63f57437 6bf663f6 74386c37     .c.[7t.c.c.k7l8t
200066f8:	74787cb9 64376c38 74796c38 7cba74ba     .|xt8l7d8lyt.t.|
20006708:	84fc84fc 84fb7cfb 7cba8d3c 747884fa     .....|..<..|..xt
20006718:	21ef3271 29ae3a31 08a8192b 29aa10e8     q2.!1:.)+......)
20006728:	533152f0 63735331 84766bf4 847794f9     .R1S1Ssc.kv...w.
20006738:	7c368477 6b7373f5 8cfa8cb8 953b9d7b     w.6|.ssk....{.;.
20006748:	63f77cba 7c796c38 8cfa8cfb 9d3a953a     .|.c8ly|....:.:.
20006758:	9d7aa5bb a57aa57b 9d38a5ba a579adfa     ..z.{.z...8...y.
20006768:	73f98476 9d7c8d3a ad7ba53c 0000ffdc     v..s:.|.<.{.....
	...
200067ac:	e77effdd 52f38476 21b010ed 323042b4     ..~.v..R...!.B02
200067bc:	08eb112c 10ab08ab 31ef08aa 53335334     ,..........14S3S
200067cc:	6bb45333 52ef6372 52ef4aad 4aaf42ae     3S.krc.R.J.R.B.J
200067dc:	533152ef 52f05330 63b35331 63b45b73     .R1S0S.R1S.cs[.c
200067ec:	6c366c37 63f563b5 7c786bf6 7c797c78     7l6l.c.c.kx|x|y|
200067fc:	74b97479 6c796c38 7cba6c39 7cfb7cbb     yt.t8lyl9l.|.|.|
2000680c:	74ba74ba 84fa74ba 957c84fb 5bb66c38     .t.t.t....|.8l.[
2000681c:	5bb563b6 53325332 5b724af0 53735bb3     .c.[2S2S.Jr[.[sS
2000682c:	953b5bb4 953a953a 74368477 73f57c76     .[;.:.:.w.6tv|.s
2000683c:	84757c35 8cb98477 953b84b9 8cfa953b     5|u.w.....;.;...
2000684c:	7c787c78 8cfa7c78 9d7b8cfa 9d7a9539     x|x|x|....{.9.z.
2000685c:	a5baa57a a5b99d79 9d38adba 94fb8c77     z...y.....8.w...
2000686c:	9d7b9d7b bdfc94fa 0000ffda 00000000     {.{.............
	...
200068ac:	ffdf0000 6331c67b 196f31ef 42b242b3     ....{.1c.1o..B.B
200068bc:	08ab21ae 08ab10eb 5b75192d 32305b75     .!......-.u[u[02
200068cc:	5b743a71 5af073f4 52ef52ef 42ae52ef     q:t[.s.Z.R.R.R.B
200068dc:	4aef532f 4aef5330 5b725b71 5b7363b3     /S.J0S.Jq[r[.cs[
200068ec:	6c3663f6 6c366c36 74377477 74787c78     .c6l6l6lwt7tx|xt
200068fc:	74b97cb9 74b97cba 747974ba 6c797cba     .|.t.|.t.tyt.|yl
2000690c:	6c79747a 74b97479 84fb8d3c 747884ba     ztylyt.t<.....xt
2000691c:	6c367478 74367436 5b736bf5 53746c36     xt6l6t6t.ks[6ltS
2000692c:	743863f6 743784b9 6bf56bf5 73f47c76     .c8t..7t.k.kv|.s
2000693c:	6bb373f4 7c367c35 84777c77 94fa94fa     .s.k5|6|w|w.....
2000694c:	8cf9a57c 7c7984b9 8cfa84ba 9d799d7b     |.....y|....{.y.
2000695c:	9d7aa57a a5baa5ba 9537b5fb a57c94f8     z.z.......7...|.
2000696c:	8cb9adbb c63b9d3a 0000ffda 00000000     ....:.;.........
	...
200069ac:	ffdf0000 a536ffde 21af4ab0 533429f0     ......6..J.!.)4S
200069bc:	10ec3a31 08ab006a 63b6216d 21ef4b34     1:..j...m!.c4K.!
200069cc:	4af2196e 63316bb4 532f4aae 4aee4aee     n..J.k1c.J/S.J.J
200069dc:	4aee42ad 53304aef 5b725330 53325b72     .B.J.J0S0Sr[r[2S
200069ec:	63f64b32 6c3663f5 74776c36 7c787437     2K.c.c6l6lwt7tx|
200069fc:	74b97478 74b96c78 74b96c79 6c796c79     xt.txl.tyl.tylyl
20006a0c:	74796c38 7cba74b9 74387478 7c787438     8lyt.t.|xt8t8tx|
20006a1c:	63b46c36 6bf55bb3 53325b73 5bb55b73     6l.c.[.ks[2Ss[.[
20006a2c:	63f65bb5 5b335b74 63b34b31 74356bf4     .[.ct[3[1K.c.k5t
20006a3c:	73f373f4 73f56bb3 7c3673f4 84768477     .s.s.k.s.s6|w.v.
20006a4c:	9d7b8cb8 84b98cf9 84b97478 9d3a94fa     ..{.....xt....:.
20006a5c:	a5ba9d39 adbaa5ba 94f7adb9 be3ea579     9...........y.>.
20006a6c:	94faa57a c67ba53b 0000ffd9 00000000     z...;.{.........
	...
20006ab0:	d6bbffff 29ef73f4 427221ae 21ae5334     .....s.).!rB4S.!
20006ac0:	006a08ab 323010ec 29f03ab2 31ef196e     ..j...02.:.)n..1
20006ad0:	63716bb4 4aae52ef 4aae52ef 42ae4aee     .kqc.R.J.R.J.J.B
20006ae0:	5330532f 53315b71 53325372 5b745373     /S0Sq[1SrS2SsSt[
20006af0:	6c366435 6c376c36 74377cb8 6c787478     5d6l6l7l.|7txtxl
20006b00:	64376c78 6c786c78 6c397479 74797479     xl7dxlxlyt9lytyt
20006b10:	7cba7cfb 6bf77479 74377438 5b736bf5     .|.|yt.k8t7t.ks[
20006b20:	5b735b73 5b7263b4 4af24af1 6bf65b75     s[s[.cr[.J.Ju[.k
20006b30:	52f16374 537242f0 7c357c76 7bf57c35     tc.R.BrSv|5|5|.{
20006b40:	73f57c35 73f573f5 73f48476 8cb77c35     5|.s.s.sv..s5|..
20006b50:	84f98d38 7c7984ba 9d3a8cba a5bbadbb     8.....y|..:.....
20006b60:	a5baadbb 94f7adba adbcadba ad7cadbc     ..............|.
20006b70:	c67ab5bc 0000ffdb 00000000 00000000     ..z.............
	...
20006bb0:	f7be0000 4ab19d37 29af29af 42b24273     ....7..J.).)sB.B
20006bc0:	31ee29ad 427139ef 29f03270 42b121ae     .).1.9qBp2.).!.B
20006bd0:	637263b4 4aae52ef 52ef4aae 4aee42ad     .crc.R.J.J.R.B.J
20006be0:	52ef4aae 533052ef 63b35331 63b45b73     .J.R.R0S1S.cs[.c
20006bf0:	6c3663f4 74376c36 6c376c36 74786c37     .c6l6l7t6l7l7lxt
20006c00:	63f663f6 64385bf6 6c386438 7cba6c79     .c.c.[8d8d8lyl.|
20006c10:	74377478 6bf57437 6bf56374 63b363b4     xt7t7t.ktc.k.c.c
20006c20:	5b735373 5bb45b73 4af24b32 63755334     sSs[s[.[2K.J4Suc
20006c30:	5b345af4 4af24af2 7c3773f6 7c3673f5     .Z4[.J.J.s7|.s6|
20006c40:	84368437 7bf57bf5 7bf473b3 7c357bf5     7.6..{.{.s.{.{5|
20006c50:	8cf87c75 84b98cf9 8cfa84b8 a5ba9539     u|..........9...
20006c60:	9d789d79 94f7a579 a5bb9d39 b5fda57c     y.x.y...9...|...
20006c70:	d69ab5bb 0000ffde 00000000 00000000     ................
	...
20006cb0:	ff9d0000 73f3ce7b 29b04ab1 3a7229b1     ....{..s.J.).)r:
20006cc0:	52f242b1 63756b75 32705333 4b323ab1     .B.Rukuc3Sp2.:2K
20006cd0:	53325bb4 52ef5b31 52ef52ef 52ef52ef     .[2S1[.R.R.R.R.R
20006ce0:	4aee52ef 52f052ef 5b725b31 73f56bf4     .R.J.R.R1[r[.k.s
20006cf0:	6c367436 6c367437 74377437 6c377478     6t6l7t6l7t7txt7l
20006d00:	63f66c37 63f763f7 63f763f7 747874b9     7l.c.c.c.c.c.txt
20006d10:	6bf56c36 63b37436 63b45b73 5b7363b4     6l.k6t.cs[.c.cs[
20006d20:	5b736bf5 53745b74 4af35374 84786bf7     .ks[t[tStS.J.kx.
20006d30:	7c3773f6 5b736bf5 84b88cf9 74357435     .s7|.ks[....5t5t
20006d40:	84368477 73f37c35 73f473f4 73f48436     w.6.5|.s.s.s6..s
20006d50:	84b67c34 84f89539 7cb884f8 9d7994f9     4|..9......|..y.
20006d60:	95389d79 94f7a579 a5fdadba ad7badbd     y.8.y.........{.
20006d70:	ffddc63b 00000000 00000000 00000000     ;...............
	...
20006db4:	9d37ffdf 427252f1 216f2170 53323230     ..7..RrBp!o!022S
20006dc4:	6bb66374 42b24af2 42f23ab1 5b734b32     tc.k.J.B.:.B2Ks[
20006dd4:	52ef52f0 533052ef 532f52ef 532f4aee     .R.R.R0S.R/S.J/S
20006de4:	5b3052ef 5b725330 6bb46373 6c3563f4     .R0[0Sr[sc.k.c5l
20006df4:	6c366c36 6c366bf6 6c376c36 6c3763f6     6l6l.k6l6l7l.c7l
20006e04:	63f763f6 63f65bb6 63f66436 5bb45bb5     .c.c.[.c6d.c.[.[
20006e14:	5b735b73 5b735b72 5b734b32 53735bb4     s[s[r[s[2Ks[.[sS
20006e24:	53744b33 53735374 9dba7477 95789578     3KtStSsSwt..x.x.
20006e34:	84f87cb7 9dbaa5bb 7c7584b6 84768476     .|........u|v.v.
20006e44:	743473f3 7c347c34 84757c75 7c3573f3     .s4t4|4|u|u..s5|
20006e54:	8cf88cb7 7c777c77 94f88cf8 a57994f7     ....w|w|......y.
20006e64:	8cb694f7 b63eadba ad7badbd 0000bd9a     ......>...{.....
	...
20006eb4:	d6fbefbc 4ab27c34 31f14ab4 4af1322f     ....4|.J.J.1/2.J
20006ec4:	5b756bb6 29ef3a71 3ab13a71 53323ab1     .ku[q:.)q:.:.:2S
20006ed4:	4aaf5b71 53306371 532f5b30 532f532f     q[.Jqc0S0[/S/S/S
20006ee4:	53305b30 53315331 5b725b72 5bb363b3     0[0S1S1Sr[r[.c.[
20006ef4:	6bf56bf5 6c366c36 6c376c36 63f66c37     .k.k6l6l6l7l7l.c
20006f04:	63f663f6 63f66437 53745bb5 5bb45bb4     .c.c7d.c.[tS.[.[
20006f14:	5bb35bb3 533263b4 4b324b32 4af24b33     .[.[.c2S2K2K3K.J
20006f24:	5bb45bb4 64366436 8d3a7cb9 9dbc9dbc     .[.[6d6d.|:.....
20006f34:	a5bda5bc 953aadbd 95399d3a 7c3694f9     ......:.:.9...6|
20006f44:	7c347c34 74337c34 84757c74 7c348435     4|4|4|3tt|u.5.4|
20006f54:	7c768cb7 8cb884b7 84b78cf8 94f784b6     ..v|............
20006f64:	8cb59d38 adfda57a ad7aadbd 0000c63a     8...z.....z.:...
	...
20006fb4:	fffea54d 6371adb8 5b3552f3 5b744af2     M.....qc.R5[.Jt[
20006fc4:	637563b5 32313a71 3ab13ab2 5b733a70     .cucq:12.:.:p:s[
20006fd4:	52ef5330 5b305330 532f52ef 5b305b30     0S.R0S0[.R/S0[0[
20006fe4:	53305b30 53314af0 5b725331 5b735b72     0[0S.J1S1Sr[r[s[
20006ff4:	63f55bb4 6c3663f5 63f663f5 5bb55bb5     .[.c.c6l.c.c.[.[
20007004:	64365bf6 5bb453b5 5b735333 63b45b73     .[6d.S.[3Ss[s[.c
20007014:	5bb35bb4 4af15332 4b3242f1 53344af3     .[.[2S.J.B2K.J4S
20007024:	64365374 74797478 42b45336 63b84af6     tS6dxtyt6S.B.J.c
20007034:	73f873f9 52f45b35 7c385b35 84778479     .s.s5[.R5[8|y.w.
20007044:	7c358476 73f36371 73f47434 84b67c34     v.5|qc.s4t.s4|..
20007054:	7c758476 8cf784b6 8cf784b7 8cf784b6     v.u|............
20007064:	8cf694f7 adbb9d38 ad7aa53a 0000ce5b     ....8...:.z.[...
	...
200070b4:	f75c0000 9d36f7bd 63346332 637573f6     ..\...6.2c4c.suc
200070c4:	52f45b74 42b34ab3 3ab24b34 5b734af3     t[.R.J.B4K.:.Js[
200070d4:	53306372 5b305b30 5b305b70 532f5b2f     rc0S0[0[p[0[/[/S
200070e4:	5b715b71 53315b31 53315b72 5bb35b72     q[q[1[1Sr[1Sr[.[
200070f4:	63b463f4 63f563f5 63f663f6 5bb563f6     .c.c.c.c.c.c.c.[
20007104:	53b453b4 4b324bb3 5bb35b73 53325b73     .S.S.K2Ks[.[s[2S
20007114:	42f15b73 42b042f0 42f242f1 4b345374     s[.B.B.B.B.BtS4K
20007124:	5b755375 3a325334 10ef29b2 193010ef     uSu[4S2:.)....0.
20007134:	31b139f3 29702971 31b131b1 63344a73     .9.1q)p).1.1sJ4c
20007144:	7c367c37 63726bb4 63b36bb4 7c767435     7|6|.krc.k.c5tv|
20007154:	7c7584b7 84b784b7 84b78cb7 8cb68cb6     ..u|............
20007164:	8cf79537 9d399d38 b5ba9cf8 0000ffdf     7...8.9.........
	...
200071b8:	ef7dffdc 63338c55 63756b74 42724ab2     ..}.U.3ctkuc.JrB
200071c8:	4af342b2 42b23ab2 53324af2 5b315b31     .B.J.:.B.J2S1[1[
200071d8:	5b30532f 5b70532f 5b305b30 6372532f     /S0[/Sp[0[0[/Src
200071e8:	5b315b71 53315331 53315331 63f45372     q[1[1S1S1S1SrS.c
200071f8:	5bb453b3 6bf75bb4 63f66c37 53b453b4     .S.[.[.k7l.c.S.S
20007208:	53724b73 53325332 5bb45332 42b05332     sKrS2S2S2S.[2S.B
20007218:	3aaf326e 4b333ab0 42f35334 216f2a30     n2.:.:3K4S.B0*o!
20007228:	086c10ac 10ed10ae 08ad006b 31f22170     ..l.....k...p!.1
20007238:	10ae212f 10ad106c 212d10ac 4ab131af     /!..l.....-!.1.J
20007248:	4ab04ab1 5b7252f1 6c345bb2 7cb67cb6     .J.J.Rr[.[4l.|.|
20007258:	8cf77cb6 84b684b7 84b67c75 8cb68cf6     .|......u|......
20007268:	8cb68475 defda538 0000ffdf 00000000     u...8...........
	...
200072b8:	ffdf0000 9495ffdf 53336bb3 3a733272     .........k3Sr2s:
200072c8:	42724af4 3ab242b2 3ab042f2 53314b31     .JrB.B.:.B.:1K1S
200072d8:	63706370 5b306370 5b305b31 5b316371     pcpcpc0[1[0[qc1[
200072e8:	5b715b72 4af05b31 53315331 5bb45373     r[q[1[.J1S1SsS.[
200072f8:	4b735bb4 53b553b4 64366c37 53b46436     .[sK.S.S7l6d6d.S
20007308:	4b314b73 4b315331 53325b73 3a6f4b32     sK1K1S1Ks[2S2Ko:
20007318:	196b29ed 29ae29ed 08ab216e 002a086b     .)k..).)n!..k.*.
20007328:	10ad10ac 10ad18ed 086c18ad 213010af     ..........l...0!
20007338:	39f32971 42334234 296f4233 10eb18ec     q).94B3B3Bo)....
20007348:	18ea212b 2a2d216b 5bb24330 7c767cb6     +!..k!-*0C.[.|v|
20007358:	94f88cf7 74758cb8 8cb68475 8cb594f7     ......utu.......
20007368:	ad768cf4 ffdfef7e 00000000 00000000     ..v.~...........
	...
200073c0:	5331d657 42b33230 3a313a72 32713230     W.1S02.Br:1:02q2
200073d0:	21ee2a30 5b7229ee 63705b70 63715b30     0*.!.)r[p[pc0[qc
200073e0:	53305b30 63725b71 53315330 53315330     0[0Sq[rc0S1S0S1S
200073f0:	5b735331 53735b73 53b45373 5bb553b4     1Ss[s[sSsS.S.S.[
20007400:	643663f5 5bf563f5 4b3153b3 3ab042b0     .c6d.c.[.S1K.B.:
20007410:	3ab03a6f 196c29ee 08a808e9 08a90068     o:.:.)l.....h...
20007420:	18ec0869 4232216e 633752b4 6b786336     i...n!2B.R7c6cxk
20007430:	5af66337 63385af7 6b785af7 737873b8     7c.Z.Z8c.Zxk.sxs
20007440:	6b766b36 73b66b75 53326bf5 326f322d     6kvkuk.s.k2S-2o2
20007450:	63f342f0 8cf77475 9d389538 7c758477     .B.cut..8.8.w.u|
20007460:	94f78475 94f68c76 ffdfbe19 00000000     u...v...........
	...
200074c0:	ffdf0000 3a2f7c33 29ae29ae 29ef29ef     ....3|/:.).).).)
200074d0:	112d29ef 5b3229ad 532f6372 63715b2f     .)-..)2[rc/S/[qc
200074e0:	52ef5b31 5b315b30 4af05b71 53315b71     1[.R0[1[q[.Jq[1S
200074f0:	53325b72 42f15332 53b34b32 5bb55bf5     r[2S2S.B2K.S.[.[
20007500:	6c366c36 5bf47477 4b7253b3 322f4af2     6l6lwt.[.SrK.J/2
20007510:	29ee2a2e 112b19ac 3a2e29ac 4af242b0     .*.)..+..).:.B.J
20007520:	6bb65b35 743973f8 847a847a 8cbb8cbb     5[.k.s9tz.z.....
20007530:	847a8cbb 9cfd94fd 847a94bc 84798cba     ..z.......z...y.
20007540:	94ba8c79 9d3b9cfb 957a9d7b 6c358cf9     y.....;.{.z...5l
20007550:	6bf45bb3 8cf77cb6 8cb79538 84b68cf8     .[.k.|..8.......
20007560:	847584b5 8cb58c76 0000c679 00000000     ..u.v...y.......
	...
200075c4:	8475f79d 192a322d 216c10ea 10eb192c     ..u.-2*...l!,...
200075d4:	52b0192b 53306331 637152ef 5b305b30     +..R1c0S.Rqc0[0[
200075e4:	5b715b30 53305330 5b715330 5b725331     0[q[0S0S0Sq[1Sr[
200075f4:	4b315332 5bb45372 5bb553b4 6c365bb4     2S1KrS.[.S.[.[6l
20007604:	5bf46c36 53734b72 3ab142f1 3ab13270     6l.[rKsS.B.:p2.:
20007614:	5b743ab1 84b86c36 84b97c78 8cfb8cfa     .:t[6l..x|......
20007624:	8cfb84ba 8cfb8cfb 7cba84ba 74387479     ...........|yt8t
20007634:	7c3863b6 7c788479 8cb98478 9d3a8cb8     .c8|y.x|x.....:.
20007644:	9d3a94fa 95399539 8d399539 74357435     ..:.9.9.9.9.5t5t
20007654:	7c766c34 8cf78cf7 8cb684b6 84757c74     4lv|........t|u.
20007664:	94b58c75 0000b5d7 00000000 00000000     u...............
	...
200076c4:	f79fffde 6330a578 31ec422d 29ab39ed     ....x.0c-B.1.9.)
200076d4:	52af31ab 5b306bb3 52ef5b71 5b305b30     .1.R.k0[q[.R0[0[
200076e4:	532f6371 53305b71 53305b71 5b715b31     qc/Sq[0Sq[0S1[q[
200076f4:	4b315b72 53735372 63f55bf4 6c3563f5     r[1KrSsS.[.c.c5l
20007704:	6c356c35 64356c35 4b3263f5 53334b32     5l5l5l5d.c2K2K3S
20007714:	747763f6 84f984b9 84b984f9 8cfb953b     .cwt........;...
20007724:	84ba8cfb 74377cb9 63f67437 5b7463f5     .....|7t7t.c.ct[
20007734:	53335333 6bf563b4 7c377c77 84778477     3S3S.c.kw|7|w.w.
20007744:	84b78cb8 953994f9 8cf89539 84b78cf9     ......9.9.......
20007754:	74757c76 8cf88cf7 84b694f8 8c758474     v|ut........t.u.
20007764:	94b594f7 0000adb6 00000000 00000000     ................
	...
200077c4:	ce570000 ffdfffdf b5b8d69b 6b70b5b9     ..W...........pk
200077d4:	4aad39ea 5b716bb1 5b305330 637052ef     .9.J.kq[0S0[.Rpc
200077e4:	5b305b30 4b3052ef 52f05330 53314af0     0[0[.R0K0S.R.J1S
200077f4:	53315331 537242f0 63f55bb3 6c355bb4     1S1S.BrS.[.c.[5l
20007804:	6c356c35 43315bb3 53734331 6c365373     5l5l.[1C1CsSsS6l
20007814:	7cb87478 84b87cb8 7cb87477 7c787c78     xt.|.|..wt.|x|x|
20007824:	74787437 6bf66c37 63b56bf6 5b745373     7txt7l.k.k.csSt[
20007834:	53335333 5b3352f2 73f56373 73f573f5     3S3S.R3[sc.s.s.s
20007844:	743573f5 8cf97c36 8cf88d39 84b784b7     .s5t6|..9.......
20007854:	74757475 7cb67475 8cb68cb7 84757c33     ututut.|....3|u.
20007864:	8c748c75 0000a515 00000000 00000000     u.t.............
	...
200078cc:	ffdf0000 9cf3ffff 422b52ac 5b706370     .........R+Bpcp[
200078dc:	5b30532f 5b706371 5b705b70 42ee532f     /S0[qcp[p[p[/S.B
200078ec:	52f05330 4aef4aef 4b304af0 42f04b31     0S.R.J.J.J0K1K.B
200078fc:	53725373 63f45bb3 5bf47476 2a2d4b31     sSrS.[.cvt.[1K-*
2000790c:	4b7232af 74b86c36 74b87cf9 74777cb8     .2rK6l.t.|.t.|wt
2000791c:	63f56c37 537363f6 63755b74 5b746bb6     7l.c.csSt[uc.kt[
2000792c:	53335b74 4af25333 4ab252f3 4ab24af2     t[3S3S.J.R.J.J.J
2000793c:	6b745b33 73f573f5 73f573f5 84b88477     3[tk.s.s.s.sw...
2000794c:	8cf894f9 84b78cf8 743584b6 74757475     ..........5tutut
2000795c:	84758cb7 84748cb4 8cb48c75 0000adb6     ..u...t.u.......
	...
200079d0:	b5f7ffdd 4aae6bb1 6bb152af 5b705b6f     .....k.J.R.ko[p[
200079e0:	532f5330 5b3052ef 4aef4aae 52f04aef     0S/S.R0[.J.J.J.R
200079f0:	4af052f0 4af042af 4af04af0 4b314b31     .R.J.B.J.J.J1K1K
20007a00:	5bb44b31 5bb45bb4 42f14b32 5bb442f0     1K.[.[.[2K.B.B.[
20007a10:	6c776c76 74786c37 74787477 5b746bf6     vlwl7lxtwtxt.kt[
20007a20:	4b334b33 4af342b2 4af35333 42b142b1     3K3K.B.J3S.J.B.B
20007a30:	42713a70 4ab14271 4ab14271 5af252f2     p:qBqB.JqB.J.R.Z
20007a40:	73f55b33 7c366bf5 84b784b7 84b77c76     3[.s.k6|....v|..
20007a50:	84767c77 74347c35 7c767435 7c747c76     w|v.5|4t5tv|v|t|
20007a60:	84748474 8c748474 0000add7 00000000     t.t.t.t.........
	...
20007ad0:	ce79ffff 63728474 6b716331 5b6f63b0     ..y.t.rc1cqk.co[
20007ae0:	5b305330 52ef5b30 52ef52ef 52f04b2f     0S0[0[.R.R.R/K.R
20007af0:	4af05b32 4af04af0 42f042f0 53725372     2[.J.J.J.B.BrSrS
20007b00:	4b325373 4b734b32 4b314b73 63f45372     sS2K2KsKsK1KrS.c
20007b10:	63f57476 6c376c36 74377477 5bb57437     vt.c6l7lwt7t7t.[
20007b20:	4af35334 3a7242f2 323042b2 42713a71     4S.J.Br:.B02q:qB
20007b30:	31ef4270 42714271 42714ab2 4ab14af2     pB.1qBqB.JqB.J.J
20007b40:	63b452f2 7c367436 7c7684b7 747584b7     .R.c6t6|..v|..ut
20007b50:	7c767c76 73f37c75 74767435 7c747c75     v|v|u|.s5tvtu|t|
20007b60:	7c337c73 84738cb5 0000be38 00000000     s|3|..s.8.......
	...
20007bd0:	e75c0000 73f38473 6bb26b72 532f5b6f     ..\.s..srk.ko[/S
20007be0:	5b304aef 5b305b30 533052ef 4aef4aef     .J0[0[0[.R0S.J.J
20007bf0:	4aaf4aef 4b304aef 42af3aae 4b3142ef     .J.J.J0K.:.B.B1K
20007c00:	4b724b32 53b44b32 42f04331 63f45372     2KrK2K.S1C.BrS.c
20007c10:	63f55bb4 63f65bb4 6c366bf6 63b563f6     .[.c.[.c.k6l.c.c
20007c20:	4b335333 427242b2 31ef31f0 3a3031ef     3S3K.BrB.1.1.10:
20007c30:	3a303a30 4271322f 427042b1 4af242b1     0:0:/2qB.BpB.B.J
20007c40:	533342b1 743663b5 7c767436 7c767cb6     .B3S.c6t6tv|.|v|
20007c50:	73f46c34 7c3573f3 743573f4 7c747435     4l.s.s5|.s5t5tt|
20007c60:	7c336bf2 84337c33 0000ad96 00000000     .k3|3|3.........
	...
20007cd0:	ffdf0000 73f394f5 6bb273f4 52ee532f     .......s.s.k/S.R
20007ce0:	52ef532f 5b705b70 4aef532f 4aaf5330     /S.Rp[p[/S.J0S.J
20007cf0:	4aaf4aaf 42af42ef 3aae4af0 3aaf3aae     .J.J.B.B.J.:.:.:
20007d00:	4b3142f0 433153b3 42f042f1 5bb25bb2     .B1K.S1C.B.B.[.[
20007d10:	5bb45bb3 63f563f5 6c366c36 5b7463b5     .[.[.c.c6l6l.ct[
20007d20:	42f25374 42724b33 29ef3230 3a2f322f     tS.B3KrB02.)/2/:
20007d30:	42704271 3a703a70 42b04af2 4af14af1     qBpBp:p:.J.B.J.J
20007d40:	5b745332 6bf563b5 6c357436 74357435     2St[.c.k6t5l5t5t
20007d50:	6bb27435 74336bf2 6bf37c75 74337c35     5t.k.k3tu|.k5|3t
20007d60:	73f384b4 7c327bf3 0000a575 00000000     ...s.{2|u.......
	...
20007dd0:	ffdf0000 73f2a577 6bb36bb3 4aee4aee     ....w..s.k.k.J.J
20007de0:	5b305b30 5b704aee 5b305b30 4aef4aef     0[0[.Jp[0[0[.J.J
20007df0:	4aef4aaf 42ef3a6d 3a6e42af 326e326d     .J.Jm:.B.Bn:m2n2
20007e00:	42f03aaf 3af042f0 4af032af 5b724b30     .:.B.B.:.2.J0Kr[
20007e10:	53324b31 5b735332 6bf663f5 53735373     1K2S2Ss[.c.ksSsS
20007e20:	4b335333 3a7142b1 322f3a70 3a7029ad     3S3K.Bq:p:/2.)p:
20007e30:	42704270 3a6f3a2f 4af03a6f 6bf45b72     pBpB/:o:o:.Jr[.k
20007e40:	6bf56bf4 74366bf5 74356c35 63f363f3     .k.k.k6t5l5t.c.c
20007e50:	74336bf3 73f37433 74347c34 6bf36bf4     .k3t3t.s4|4t.k.k
20007e60:	7c337433 7c327bf3 00009d55 00000000     3t3|.{2|U.......
	...
20007ed0:	ffdf0000 73f3be39 6bf373f4 4aee63b1     ....9..s.s.k.c.J
20007ee0:	5b305b30 52ef5b30 53305b30 4aee532f     0[0[0[.R0[0S/S.J
20007ef0:	42ae4aef 326d42ae 326d3a6d 326d3aae     .J.B.Bm2m:m2.:m2
20007f00:	42ef3aef 3af03aef 42af4331 4b3042ef     .:.B.:.:1C.B.B0K
20007f10:	4b315372 4b325332 5bb45bb3 53335bb4     rS1K2S2K.[.[.[3S
20007f20:	53335374 4af24af2 5b735bb4 53325b73     tS3S.J.J.[s[s[2S
20007f30:	5b725b73 53315b31 74346bb3 8cf794f8     s[r[1[1S.k4t....
20007f40:	7c7684b7 7c7684b7 74347c76 63b26bf3     ..v|..v|v|4t.k.c
20007f50:	7c337434 74328474 7c757c34 6bf27c75     4t3|t.2t4|u|u|.k
20007f60:	73f36bf1 7bf27c33 0000adb6 00000000     .k.s3|.{........
	...
20007fd4:	8474c619 63b36bb3 5b2f63b2 5b2f52ee     ..t..k.c.c/[.R/[
20007fe4:	532f52ef 4aee4aef 42ae4aae 3a6d322c     .R/S.J.J.J.B,2m:
20007ff4:	42af3aae 3a6e3a6e 32ae326e 32ae326d     .:.Bn:n:n2.2m2.2
20008004:	433032ae 42ef3af0 4af042ef 4af142ef     .20C.:.B.B.J.B.J
20008014:	4af15332 4b323aaf 63b45bb3 5b745bb4     2S.J.:2K.[.c.[t[
20008024:	6c365373 7c777477 84b77c77 95398477     sS6lwtw|w|..w.9.
20008034:	84767c35 8cb68cb7 95379538 8cb88cb6     5|v.....8.7.....
20008044:	847684b7 74347434 73f36bf2 743373f3     ..v.4t4t.k.s.s3t
20008054:	7c3373f2 74337433 74337c75 73f263b1     .s3|3t3tu|3t.c.s
20008064:	847373f2 0000b5d7 00000000 00000000     .ss.............
	...
200080d4:	94b5d6fb 5b736bb3 5b7063b3 52ee5b6f     .....ks[.cp[o[.R
200080e4:	5b70532f 4aee5b70 4aae52ef 3a6d3a6d     /Sp[p[.J.R.Jm:m:
200080f4:	3a6e42ae 3a6e42ae 3aaf42ef 32af3aaf     .Bn:.Bn:.B.:.:.2
20008104:	42f03aaf 53314b31 42f05330 4b315371     .:.B1K1S0S.BqS1K
20008114:	4b305371 53724b31 63f463f4 63f563f5     qS0K1KrS.c.c.c.c
20008124:	6c356bf5 74367477 84b87c77 8cb78477     .k5lwt6tw|..w...
20008134:	9d398cb7 8cf79538 84b68cf7 8cf89539     ..9.8.......9...
20008144:	84b78cf8 6bf38476 743473f3 6bb27434     ....v..k.s4t4t.k
20008154:	74337c34 6bf27c74 6bb27c33 7c336bf2     4|3tt|.k3|.k.k3|
20008164:	84b37c33 0000df1d 00000000 00000000     3|..............
	...
200081d4:	9d36ffdf 63b36372 63705b72 532f5b2e     ..6.rc.cr[pc.[/S
200081e4:	532f4aee 52ee532f 4aae4aae 322c322c     .J/S/S.R.J.J,2,2
200081f4:	3a6e322c 42af3aae 32ae326e 42f0326e     ,2n:.:.Bn2.2n2.B
20008204:	3aaf3aef 533142f0 4af042af 53715b72     .:.:.B1S.B.Jr[qS
20008214:	5b725331 5bb35bb2 63f45bb3 6c3563f4     1Sr[.[.[.[.c.c5l
20008224:	6c3563f5 74776c36 84b87436 8cb78cb7     .c5l6lwt6t......
20008234:	94f88cb8 9d7a8cf8 8cf79538 7c778cb7     ......z.8.....w|
20008244:	7c766bf4 7c347c75 6bb26bf2 73f36bf3     .kv|u|4|.k.k.k.s
20008254:	73f273f3 6bf26bf2 5b7063b1 73f263b1     .s.s.k.k.cp[.c.s
20008264:	8cd46bb1 00000000 00000000 00000000     .k..............
	...
200082d4:	a576ffdf 63b373f2 5b7163b3 52ef5b70     ..v..s.c.cq[p[.R
200082e4:	52ef52ef 4aee5b30 42ad4aee 322c426d     .R.R0[.J.J.BmB,2
200082f4:	322d322c 3a6e3a6e 32ae3aaf 3aaf42ef     ,2-2n:n:.:.2.B.:
20008304:	3aaf4330 4b3042ef 42af42ef 4b305371     0C.:.B0K.B.BqS0K
20008314:	4af04b30 5bb35372 6bf463f3 6bf57cb7     0K.JrS.[.c.k.|.k
20008324:	6c356bf5 74367477 7c767436 95389539     .k5lwt6t6tv|9.8.
20008334:	7c358cb7 94f894f8 8cf89d39 84b784b7     ..5|....9.......
20008344:	6bb37435 7c357c35 6bb27c34 84758475     5t.k5|5|4|.ku.u.
20008354:	6bf26bf2 6bb17433 637163b1 6bb27433     .k.k3t.k.cqc3t.k
20008364:	c65a73b1 00000000 00000000 00000000     .sZ.............
	...
200083d4:	b5f8ffdf 63b373f3 5b725b72 532f52ef     .....s.cr[r[.R/S
200083e4:	532f52ef 4aee4aee 4aae42ad 3a6c42ad     .R/S.J.J.B.J.Bl:
200083f4:	3aae322c 3a6e326d 42ef3aae 42f042af     ,2.:m2n:.:.B.B.B
20008404:	42ef42f0 4b3042ef 533042ef 53305371     .B.B.B0K.B0SqS0S
20008414:	53715330 53314b30 53725331 6bf56bf4     0SqS0K1S1SrS.k.k
20008424:	7c776bf5 74367c77 7c766bf5 953984b7     .kw|w|6t.kv|..9.
20008434:	8cf894f8 8cf88477 84b784b7 84b87c36     ....w.......6|..
20008444:	63b38477 7c356bf3 6bb27434 8cb67c34     w..c.k5|4t.k4|..
20008454:	6bf273f2 637063b1 63b15b6f 6bb26bb2     .s.k.cpco[.c.k.k
20008464:	ffdf7391 00000000 00000000 00000000     .s..............
	...
200084d4:	d69a0000 63b28474 5b3263b3 5b305b31     ....t..c.c2[1[0[
200084e4:	4aee532f 4aae532f 42ad4aae 3a6c42ad     /S.J/S.J.J.B.Bl:
200084f4:	322c3a6c 3a6d326d 3aae42af 3aae3a6e     l:,2m2m:.B.:n:.:
20008504:	42ae42ef 4aef42ef 53305330 53715330     .B.B.B.J0S0S0SqS
20008514:	5b7163b2 4aef5330 53314b30 6bf46bf4     .cq[0S.J0K1S.k.k
20008524:	74366bf5 74377c77 7c777437 8cf88cf8     .k6tw|7t7tw|....
20008534:	84b78cf8 8cf87c76 8cb89d7a 7c7784b8     ....v|..z.....w|
20008544:	73f47c77 84757c75 6bb28475 74336bb2     w|.su|u.u..k.k3t
20008554:	6bf27433 5b6f63b0 5b706bb1 6bb16370     3t.k.co[.kp[pc.k
20008564:	00008cb5 00000000 00000000 00000000     ................
	...
200085d8:	63d28494 53325b93 637152f1 4aae52ee     ...c.[2S.Rqc.R.J
200085e8:	4aee4aae 4aae426d 42ad3a6c 322b3a6c     .J.JmB.Jl:.Bl:+2
200085f8:	326c2a2c 326d322c 326d322c 42ef322c     ,*l2,2m2,2m2,2.B
20008608:	42ef42af 4b303aae 53304b30 5b714b30     .B.B.:0K0K0S0Kq[
20008618:	53715330 6bf45b71 6bf47435 6bf55b32     0SqSq[.k5t.k2[.k
20008628:	7c376bf6 74377c37 84b87436 84f77cb6     .k7|7|7t6t...|..
20008638:	8cf88cf8 84b88cf8 7c367c77 7c357435     ........w|6|5t5|
20008648:	7c757434 63b17c34 63b15b30 6bb163b1     4tu|4|.c0[.c.c.k
20008658:	63b06370 5b706370 73f26370 00008c95     pc.cpcp[pc.s....
	...
200086dc:	53140000 5b305b72 4aad5b30 52ee4aae     ...Sr[0[0[.J.J.R
200086ec:	4aad4aae 3a6c4aee 322b426d 322c326c     .J.J.Jl:mB+2l2,2
200086fc:	322c326c 3a6d322c 42ae3aae 3a6d42ae     l2,2,2m:.:.B.Bm:
2000870c:	42ae3aad 4aef4aef 5bb25bb1 5b7163b2     .:.B.J.J.[.[.cq[
2000871c:	53315331 6bf463b3 63b46bf4 63756374     1S1S.c.k.k.ctcuc
2000872c:	6bf66bf6 7c777c77 7c767c76 7c7784b8     .k.kw|w|v|v|..w|
2000873c:	6bb57c77 7c366bb4 6bb37435 7c347434     w|.k.k6|5t.k4t4|
2000874c:	63707c33 637063b1 5b6f63b1 5b7063b1     3|pc.cpc.co[.cp[
2000875c:	5b6f6370 6bf26370 0000c61c 00000000     pco[pc.k........
	...
200087e0:	5b315b51 532f5b30 4aad42ad 4aad4aac     Q[1[0[/S.B.J.J.J
200087f0:	3a6c426d 322b322b 322b322b 322c322c     mBl:+2+2+2+2,2,2
20008800:	322c21aa 322c322c 322c29eb 42ae326c     .!,2,2,2.),2l2.B
20008810:	42ae3a6d 5b704b2f 53305330 5b724af0     m:.B/Kp[0S0S.Jr[
20008820:	5bb25b72 4b315372 6bf65332 5b745b75     r[.[rS1K2S.ku[t[
20008830:	6bf563b4 74367435 5b735b32 637463b4     .c.k5t6t2[s[.ctc
20008840:	6bb35b33 63715b31 74336bf2 63706371     3[.k1[qc.k3tqcpc
20008850:	6bb16370 532f5b70 536f532f 636f5b2e     pc.kp[/S/SoS.[oc
20008860:	7c5463af 00000000 00000000 00000000     .cT|............
	...
200088e0:	5b110000 5b305b30 426c52ef 42ac4aad     ...[0[0[.RlB.J.B
200088f0:	426c426c 3a6c426c 29ea3a6c 322c322b     lBlBlBl:l:.)+2,2
20008900:	29eb31eb 21aa322c 29eb29eb 42ad3a6c     .1.),2.!.).)l:.B
20008910:	322c3a6d 4aee42ae 4b304b2f 4b305330     m:,2.B.J/K0K0S0K
20008920:	42ef4b30 4b314b30 5bb45bb3 53745bb5     0K.B0K1K.[.[.[tS
20008930:	53735373 63b463b3 533263b3 53335b73     sSsS.c.c.c2Ss[3S
20008940:	5b725b32 63b25b31 6bf27c35 5b3063b2     2[r[1[.c5|.k.c0[
20008950:	6bb16370 5b706370 532f5b70 5b6f5b2f     pc.kpcp[p[/S/[o[
20008960:	be9c6bf0 00000000 00000000 00000000     .k..............
	...
200089e0:	53100000 5b7152d0 4aee52ef 426c426c     ...S.Rq[.R.JlBlB
200089f0:	3a6c3a6c 3a6c3a2c 29ea322b 29aa1969     l:l:,:l:+2.)i..)
20008a00:	29eb29ea 21aa29aa 31eb29ea 322b29ea     .).).).!.).1.)+2
20008a10:	3a6c322b 42ad322c 4aef3aae 3aae42ee     +2l:,2.B.:.J.B.:
20008a20:	4b3142ef 4b3142ef 4b3242f0 537342f2     .B1K.B1K.B2K.BsS
20008a30:	53735bb4 53325331 5b725331 5b735b32     .[sS1S2S1Sr[2[s[
20008a40:	5b734af1 63b35b72 6bf36bf3 5b305b70     .Js[r[.c.k.kp[0[
20008a50:	63706370 5b6f532f 5b70532f 636f5b2f     pcpc/So[/Sp[/[oc
20008a60:	00007412 00000000 00000000 00000000     .t..............
	...
20008ae4:	52f05b72 4aee5b30 426c42ad 322b426d     r[.R0[.J.BlBmB+2
20008af4:	3a6c3a2c 29ea322c 216929aa 21a929aa     ,:l:,2.).)i!.).!
20008b04:	21a929aa 31ea29ea 29a931ea 322a322b     .).!.).1.1.)+2*2
20008b14:	322b322b 3aae3a6d 3aae42ae 32ae3aae     +2+2m:.:.B.:.:.2
20008b24:	32ae3aae 42f042f0 42b04b31 3aaf42f0     .:.2.B.B1K.B.B.:
20008b34:	426f4af1 4af04af0 4af04af0 4af04af0     .JoB.J.J.J.J.J.J
20008b44:	4af05331 5b715b71 4aad5330 52ee5b2e     1S.Jq[q[0S.J.[.R
20008b54:	532e532e 5b6f5b6f 63b16370 0000a5f7     .S.So[o[pc.c....
	...
20008be4:	53100000 4aef52ef 4aad42ad 3a2c426d     ...S.R.J.B.JmB,:
20008bf4:	322c31eb 322b322b 29a929ea 21a921a9     .1,2+2+2.).).!.!
20008c04:	29a921a9 29ea2169 21a929a9 29e921a9     .!.)i!.).).!.!.)
20008c14:	31ea29e9 326c29ea 3aad322b 29eb2a2c     .).1.)l2+2.:,*.)
20008c24:	322c21eb 3a6f326d 322d3a6f 42af29ec     .!,2m2o:o:-2.).B
20008c34:	322e426f 3a6f322d 3a6e3a6e 3a6e322d     oB.2-2o:n:n:-2n:
20008c44:	4aef42af 4aee42ae 4aad4aad 4aac4aac     .B.J.B.J.J.J.J.J
20008c54:	532e4aad 532e532e 7c145b30 00000000     .J.S.S.S0[.|....
	...
20008ce8:	4aae5b71 4aae4aee 3a2c4aae 322b3a2c     q[.J.J.J.J,:,:+2
20008cf8:	29ea322b 29a931eb 216829a9 21a829a9     +2.).1.).)h!.).!
20008d08:	21a921a8 216829a9 216829a9 29a929e9     .!.!.)h!.)h!.).)
20008d18:	21a929aa 31eb29ea 29eb29eb 29eb29eb     .).!.).1.).).).)
20008d28:	29ab322c 29ec29ec 3a6e3a6e 3a6f426f     ,2.).).)n:n:oBo:
20008d38:	29ec322d 29ec322d 322c29ec 3a2c426d     -2.)-2.).),2mB,:
20008d48:	3a2b3a2b 426b3a6b 52ad4aac 5b2e5b2e     +:+:k:kB.J.R.[.[
20008d58:	532e532e 9d1963b1 00000000 00000000     .S.S.c..........
	...
20008de8:	530f0000 42ad42ae 42ad42ad 322b322b     ...S.B.B.B.B+2+2
20008df8:	29ea29ea 31ea21a9 29a921a9 29a92169     .).).!.1.!.)i!.)
20008e08:	29a92168 21682168 21682168 29a929a8     h!.)h!h!h!h!.).)
20008e18:	21682168 29a92168 29a92168 21a82169     h!h!h!.)h!.)i!.!
20008e28:	21681968 216a2169 3a2c29aa 31ec322c     h.h!i!j!.),:,2.1
20008e38:	29ea21aa 21aa21aa 31ea21a9 31e929a9     .!.).!.!.!.1.).1
20008e48:	3a2a29a9 3a2a31e9 5aee4aac 52ee52ed     .)*:.1*:.J.Z.R.R
20008e58:	5b2f4aed 000073d3 00000000 00000000     .J/[.s..........
	...
20008eec:	42ad5b30 42ad4aed 322b3a6c 29ea322b     0[.B.J.Bl:+2+2.)
20008efc:	31eb29eb 29aa31eb 29aa31aa 216929aa     .).1.1.).1.).)i!
20008f0c:	19672168 296829a8 29a829a9 216729a8     h!g..)h).).).)g!
20008f1c:	21272167 18e61927 19252127 19261926     g!'!'...'!%.&.&.
20008f2c:	19272167 29682128 216831ea 216821a8     g!'.(!h).1h!.!h!
20008f3c:	21a821a8 216729a9 29a829a8 31e931e9     .!.!.)g!.).).1.1
20008f4c:	426b3a2a 52ad52ed 4aad52ed 6b9252ef     *:kB.R.R.R.J.R.k
20008f5c:	0000c69f 00000000 00000000 00000000     ................
	...
20008fec:	4ace4acf 3a4c428d 3a6c3a4c 322b320b     .J.J.BL:L:l:.2+2
20008ffc:	322b29ea 29aa29ea 31ea29aa 29a929a9     .)+2.).).).1.).)
2000900c:	21682168 29682168 21672167 21672127     h!h!h!h)g!g!'!g!
2000901c:	19272127 192618e6 18e510e5 192510e4     '!'...&.......%.
2000902c:	18e618e5 212718e6 21671926 21671926     ......'!&.g!&.g!
2000903c:	21672167 29681926 29a829a8 31e929a8     g!g!&.h).).).).1
2000904c:	4a6b3a2a 4aac4a6b 4aee4aad a5995b51     *:kJkJ.J.J.JQ[..
	...
200090f8:	424d0000 322b3a6d 29ea31eb 29ea31eb     ..MBm:+2.1.).1.)
20009108:	29a929ea 29a929ea 216729a9 19262167     .).).).).)g!g!&.
20009118:	19261926 19262167 19261926 21252167     &.&.g!&.&.&.g!%!
20009128:	21252125 21252166 29672966 296729a8     %!%!f!%!f)g).)g)
20009138:	296729a7 29672967 21672967 31e929a8     .)g)g)g)g)g!.).1
20009148:	422b426b 4aab426b 4aac52ac 5b7152ef     kB+BkB.J.R.J.Rq[
20009158:	00009d9b 00000000 00000000 00000000     ................
	...
200091fc:	42ce0000 322c320c 29ea29aa 29aa29aa     ...B.2,2.).).).)
2000920c:	29a929a9 29a829a9 21671927 19261926     .).).).)'.g!&.&.
2000921c:	192618e5 10e510e5 212518e5 21661925     ..&.......%!%.f!
2000922c:	29662126 29a72166 29a72966 29672967     &!f)f!.)f).)g)g)
2000923c:	21662126 29a82167 3a2a31a9 426b3a2a     &!f!g!.).1*:*:kB
2000924c:	4aac426b 4aee52ac a5dd5310 00000000     kB.J.R.J.S......
	...
20009300:	3a8d0000 29ca322b 31ca29ea 216829a9     ...:+2.).).1.)h!
20009310:	216729a9 21672168 21662167 19252167     .)g!h!g!g!f!g!%.
20009320:	10e51925 19251926 19252126 19252166     %...&.%.&!%.f!%.
20009330:	21262166 21262126 21672967 296729a8     f!&!&!&!g)g!.)g)
20009340:	3a2a39e9 3a2a3a2a 4aac426b 52ad52ad     .9*:*:*:kB.J.R.R
20009350:	4aef4aad 00007476 00000000 00000000     .J.Jvt..........
	...
2000940c:	3a0b320b 21682989 21672167 19261926     .2.:.)h!g!g!&.&.
2000941c:	19661926 192510e5 192610e5 19261926     &.f...%...&.&.&.
2000942c:	21661926 19661925 29681926 31e929a8     &.f!%.f.&.h).).1
2000943c:	31e931e9 3a2a31e9 426b3a2a 4aac426b     .1.1.1*:*:kBkB.J
2000944c:	4aad4aac 6bd43a6d 00000000 00000000     .J.Jm:.k........
	...
20009510:	3a0b5b0f 214731ca 19262167 19262167     .[.:.1G!g!&.g!&.
20009520:	19262167 21272167 19262167 21a721a7     g!&.g!'!g!&..!.!
20009530:	29a729a8 31e931e8 31e9322a 322a3a2a     .).).1.1*2.1*:*2
20009540:	426b426b 426c4aac 4aad4aad 3a4c426b     kBkB.JlB.J.JkBL:
20009550:	a5db6c14 00000000 00000000 00000000     .l..............
	...
20009614:	31d00000 21882989 19072147 21481907     ...1.).!G!....H!
20009624:	21672147 29a82147 31e92148 39ea31e9     G!g!G!.)H!.1.1.9
20009634:	31e931e9 3a2a31e9 426c322a 4aac42ac     .1.1.1*:*2lB.B.J
20009644:	42ad426b 298b424d 00000046 00000000     kB.BMB.)F.......
	...
2000972c:	4a8e0000 3a2a426b 322a3a2a 3a6b426b     ...JkB*:*:*2kBk:
2000973c:	42ad42ac 42ac42ad 320c4aae 00000000     .B.B.B.B.J.2....
	...
20009790:	803b0044 80390049 8035004b 8033004e     D.;.I.9.K.5.N.3.
200097a0:	80300050 802f0051 802c0053 80290054     P.0.Q./.S.,.T.).
200097b0:	80280056 80270059 8025005b 8024005c     V.(.Y.'.[.%.\.$.
200097c0:	8023005d 8022005e 8020005f 801f0060     ].#.^."._. .`...
200097d0:	801e0061 801d0062 801c0063 801b0064     a...b...c...d...
200097e0:	801a0065 80190065 80190066 80190066     e...e...f...f...
200097f0:	80180067 80170067 80160068 80160068     g...g...h...h...
20009800:	80150068 80150068 80150068 80140068     h...h...h...h...
20009810:	80140069 8014006a 8014006a 8014006a     i...j...j...j...
20009820:	8014006a 8014006a 8014006a 8014006a     j...j...j...j...
20009830:	8014006a 8014006b 8014006b 8013006b     j...k...k...k...
20009840:	8013006b 8014006b 8014006b 8014006b     k...k...k...k...
20009850:	8013006b 8013006b 8013006b 8013006b     k...k...k...k...
20009860:	8013006b 8014006b 8014006b 8014006b     k...k...k...k...
20009870:	8014006b 8014006c 00140070 80140072     k...l...p...r...
20009880:	80140072 80140072 80130072 80100073     r...r...r...s...
20009890:	800f0073 800f0073 800e0073 800d0073     s...s...s...s...
200098a0:	800d0073 800d0072 800d0072 800d0072     s...r...r...r...
200098b0:	800d0072 800d0072 800d0072 800d0071     r...r...r...q...
200098c0:	800e0071 800e0071 800e0070 800f0070     q...q...p...p...
200098d0:	80100070 80100070 80110070 80110070     p...p...p...p...
200098e0:	80120070 8013006f 8013006f 8013006f     p...o...o...o...
200098f0:	8014006f 8015006f 8017006e 8019006d     o...o...n...m...
20009900:	801a006b 801b006b 801b006b 801c006b     k...k...k...k...
20009910:	8020006b 8021006b 8021006b 8022006b     k. .k.!.k.!.k.".
20009920:	8022006b 8022006b 8023006b 8023006b     k.".k.".k.#.k.#.
20009930:	8023006b 8023006a 8023006a 80240069     k.#.j.#.j.#.i.$.
20009940:	80240069 80250069 80280069 80290068     i.$.i.%.i.(.h.).
20009950:	802a0068 802a0067 802b0067 802c0066     h.*.g.*.g.+.f.,.
20009960:	802c0066 802d0065 802e0065 80300064     f.,.e.-.e...d.0.
20009970:	80350063 80380062 803a0061 803f0061     c.5.b.8.a.:.a.?.
20009980:	80430060 8045005d 8050005b 8055005a     `.C.].E.[.P.Z.U.

20009990 <raspberry_128x128_flip>:
	...
200099f8:	ef9c0000 b5b6c658 b5b7b596 ad76ad76     ....X.......v.v.
20009a08:	94f39cf3 94f294b2 a5749d33 ad759d33     ........3.t.3.u.
20009a18:	c638b5b6 ffdfdeda 00000000 00000000     ..8.............
	...
20009af4:	e698ffdf adb6c5f6 8471adb5 8c728471     ..........q.q.r.
20009b04:	84328472 73f18473 6b6f73b0 73b07bf1     r.2.s..s.sok.{.s
20009b14:	73af73af 73af73af a5358c72 df1bc639     .s.s.s.sr.5.9...
20009b24:	ffdff7bd 00000000 00000000 00000000     ................
	...
20009bf0:	ce79ef1b ad76b596 8c7394b3 84728c73     ..y...v...s.s.r.
20009c00:	94f57bf1 8c7494b4 a4f69cf6 94748c33     .{....t.....3.t.
20009c10:	94758c74 7c318432 5b2e6b6f 5b2e52ed     t.u.2.1|ok.[.R.[
20009c20:	8c726bb0 bdf79cb3 ffdfd69a 00000000     .kr.............
	...
20009cec:	deda0000 a534bdb7 94b39cf4 9cf59cf5     ......4.........
20009cfc:	a536a536 b5b8b578 b578bdf9 c5fabdf9     6.6.x.....x.....
20009d0c:	b578b578 ad77b5b8 a536b578 8c749cf5     x.x...w.x.6...t.
20009d1c:	73f18c73 632e6bb0 6b6e736e b5968430     s..s.k.cnsnk0...
20009d2c:	ffdfffdf 0000ffdf 00000000 00000000     ................
	...
20009de4:	ffdf0000 f7dcce58 ad76bdd8 9cf59cf4     ....X.....v.....
20009df4:	9cf69cf5 bdf9a536 bdf9bdb9 bdf9c5fa     ....6...........
20009e04:	bdb9bdb9 c63abdb9 bdb9b5b9 b578b578     ......:.....x.x.
20009e14:	bdf9b5b9 a536a536 ad77a537 8c749cf5     ....6.6.7.w...t.
20009e24:	6b6f83f1 6bae5aec 8c727bf0 f79dad55     ..ok.Z.k.{r.U...
20009e34:	0000ffdf 00000000 00000000 00000000     ................
	...
20009ee4:	ce580000 be38d6ba 94b4a536 9cf69cb5     ..X...8.6.......
20009ef4:	ad78b578 bdf9b579 c63ace3b b579c5fa     x.x.y...;.:...y.
20009f04:	ad79b5b9 b5b9b5b9 ad78b579 a537ad78     ..y.....y.x.x.7.
20009f14:	b5babdba ad78ad78 b5b8bdb9 ad77b5b8     ....x.x.......w.
20009f24:	9cf6ad77 73b08cb4 5aed632e 94b273af     w......s.c.Z.s..
20009f34:	d69abdf7 ffdfffdf 00000000 00000000     ................
	...
20009fe4:	be38d699 9d35adb6 94b58c73 b579a4f7     ..8...5.s.....y.
20009ff4:	b578b578 bdfab579 bdfabdfa adb9ad79     x.x.y.......y...
2000a004:	a579ad79 9d38a538 9d3894f7 9d3894f7     y.y.8.8...8...8.
2000a014:	a5799cf8 ad789cf7 bdbab5b9 bdb9bdb9     ..y...x.........
2000a024:	ad78ad78 a536ad77 7bf18c74 5aec632e     x.x.w.6.t..{.c.Z
2000a034:	9cf473ef d6baadb6 de9adeda 00000000     .s..............
	...
2000a0dc:	ffdc0000 c5d6e737 a576be38 94b59cf6     ....7...8.v.....
2000a0ec:	a5379cf7 b5bab5fa b5b9bdfa b5b9bdba     ..7.............
2000a0fc:	b5babdfb a539b5ba 9d3aa57a 84b79d3a     ......9.z.:.:...
2000a10c:	953994f8 94f994f8 94f89d39 9cf89d39     ..9.....9...9...
2000a11c:	b579ad79 bdb9b5b9 b5b8bdf9 ad77b5b8     y.y...........w.
2000a12c:	ad37ad77 73b19cf6 632e632e 84317bf0     w.7....s.c.c.{1.
2000a13c:	ef1cb5f7 00000000 00000000 00000000     ................
	...
2000a1d8:	ffdf0000 d6b9deda b5b6ce18 ad77ad76     ............v.w.
2000a1e8:	9cf79cf6 b5faa578 bdfab5b9 bdfabdfa     ....x...........
2000a1f8:	b5bab5b9 ad7aad7a 9d7a9d3a 94f9953a     ....z.z.:.z.:...
2000a208:	84b88cf9 94f984b8 84b884b8 94f98cf9     ................
2000a218:	9cf98cb8 a53994b7 ad78a4f8 bdb9b5b8     ......9...x.....
2000a228:	bdb8b578 b537ad37 a538ad37 73b18c74     x...7.7.7.8.t..s
2000a238:	5aec5b2d bdf77bf0 ffdfdeda 00000000     -[.Z.{..........
	...
2000a2d8:	c637ce77 bdf8ce38 ad77bdf8 b5b9ad77     w.7.8.....w.w...
2000a2e8:	b579bdba bdf9b5b9 b5b9bdfa b5fab5fa     ..y.............
2000a2f8:	a57ab5fb 9d7ba57b 9d7ba57b 8cf99d7b     ..z.{.{.{.{.{...
2000a308:	8cfa953a 84b98cfa 7c788cf9 8cf9953a     :.........x|:...
2000a318:	94f98cf9 9cf99d3a 9cf89cf9 ad79a579     ....:.......y.y.
2000a328:	ad78ad79 b578bdb9 ad38ad78 9cf6ad78     y.x...x.x.8.x...
2000a338:	73b094b4 6baf6b6f ad967c30 ffdfffff     ...sok.k0|......
	...
2000a3d4:	d699ffdf b5b6bdf6 b5b8b5b6 b578ad78     ............x.x.
2000a3e4:	bdfaad78 bdfabdfa b5bab5b9 adbab5b9     x...............
2000a3f4:	adbaa579 a57badba a5bc9d7b a5bc9d7b     y.....{.{...{...
2000a404:	953a957a 953b8cfa 8cfa8cfa 84b984b9     z.:...;.........
2000a414:	8cf984f9 8cf984f9 94f994f9 94f994b8     ................
2000a424:	9d3994f9 a5389d38 b5b8ad38 ad37ad78     ..9.8.8.8...x.7.
2000a434:	ad37ad37 a536a536 632e8c32 73af52ac     7.7.6.6.2..c.R.s
2000a444:	a53494b3 0000ce98 00000000 00000000     ..4.............
	...
2000a4d0:	ffdf0000 be37defa adb7b5f7 ad78adb8     ......7.......x.
2000a4e0:	b5bab5b9 ad79bdfa b5babdfa ad79adba     ......y.......y.
2000a4f0:	ad7ab5ba a57aad7a a57ba57b 9d7ba5bc     ..z.z.z.{.{...{.
2000a500:	9d7b9dbc 957b9dbb 8cfa957b 8cfa953b     ..{...{.{...;...
2000a510:	8cfa953b 8d3a8d3a 8cf98d3a 8cb994f9     ;...:.:.:.......
2000a520:	94f994f9 94f994f9 9cf89d39 a538a538     ........9...8.8.
2000a530:	ad77b578 ad37ad37 ad36b578 9474ad36     x.w.7.7.x.6.6.t.
2000a540:	52ed6b70 6b6d5aec ffdf94f3 00000000     pk.R.Zmk........
	...
2000a5d0:	de9affdf b5b7bdf7 ad78ad77 b5b9a578     ........w.x.x...
2000a5e0:	b5bab5b9 adbab5ba adbaadba a57aa539     ............9.z.
2000a5f0:	a57ba57a a57c9d3a 9d7b94fa a5bc9d7b     z.{.:.|...{.{...
2000a600:	9d7b9d7b 957b957b 953b8d3a 953b8cfa     {.{.{.{.:.;...;.
2000a610:	8d3b8cfa 953a8cfa 953a8cf9 94f98cf9     ..;...:...:.....
2000a620:	94f98cb9 8cf98cb9 94f88cb8 9cf894b7     ................
2000a630:	ad389cf7 ad37ad37 ad37ad37 a537a4f6     ..8.7.7.7.7...7.
2000a640:	73b18c75 4a6b4a6b 94f45aed 0000ffdf     u..skJkJ.Z......
	...
2000a6cc:	ffde0000 bdf8d6ba ad78b5b8 ad79ad79     ..........x.y.y.
2000a6dc:	b5baadba b5babdfb a57ab5bb a57aad7a     ..........z.z.z.
2000a6ec:	a57aa57a a57ba5bb a57ca5bc 953aa57c     z.z...{...|.|.:.
2000a6fc:	957b9d7b 957b9dbc 957b9dbb 8d3b957b     {.{...{...{.{.;.
2000a70c:	8d3b953b 8d3b953b 8d3a953b 8cfa953b     ;.;.;.;.;.:.;...
2000a71c:	8cf9953a 84f98cf9 8cf98cf9 8cb88cf9     :...............
2000a72c:	94f894f9 9cf79cf8 a538ad78 ad37ad38     ........x.8.8.7.
2000a73c:	9cf6ad37 94b59cb6 4a6c7c33 4aac3a2a     7.......3|lJ*:.J
2000a74c:	ce597bef 0000ffdf 00000000 00000000     .{Y.............
	...
2000a7cc:	ce37ef1c a577a535 ad79a578 b5baa579     ..7.5.w.x.y.y...
2000a7dc:	b5bab5b9 b5bbb5ba a57aad7a a57b9d7a     ........z.z.z.{.
2000a7ec:	a57b9d7a a5bc9d7a a5bd9d7c a5bca5bd     z.{.z...|.......
2000a7fc:	957a957b 957b957b 957b8d7a 957b8d3b     {.z.{.{.z.{.;.{.
2000a80c:	953b8d3b 8d3b8d3b 953a8cfa 953a8cfa     ;.;.;.;...:...:.
2000a81c:	8cfa8cf9 84f98cfa 84f97cb8 8cf884b8     .........|......
2000a82c:	8cb88cf8 94f88cb7 9cf88cb7 a538a538     ............8.8.
2000a83c:	a4f7a4f7 94b69cf6 7bf28c75 31e9422b     ........u..{+B.1
2000a84c:	6bae31e7 ffdfd6da 00000000 00000000     .1.k............
	...
2000a8c8:	ffdf0000 9cf2d6ba a5789d35 a539a578     ........5.x.x.9.
2000a8d8:	b5bab5ba b5babdfa ad7bb5bb a53aad7a     ..........{.z.:.
2000a8e8:	9d7ba57b 9d7aa5bb a5bca5bb a5bda5fd     {.{...z.........
2000a8f8:	a5bca5fd 9dbcadfd 9d7b9dbc 957b957b     ..........{.{.{.
2000a908:	8d3b957c 8d3b957b 8d3b953b 8cfa953b     |.;.{.;.;.;.;...
2000a918:	8cfa953b 8cfa8d3a 84f98d3a 84f884f8     ;...:...:.......
2000a928:	8cf88cf9 8cb88cf8 84b88cf9 94b88cb8     ................
2000a938:	9cb89cf8 9cb69cf7 94b69cf6 84748cb5     ..............t.
2000a948:	426b7bf2 426929a7 de9a8c71 0000ffdf     .{kB.)iBq.......
	...
2000a9c8:	c638ef1b 94f494b2 adb9ad78 adbaa578     ..8.....x...x...
2000a9d8:	b5baadb9 adbbadba a57ba57b a5bba57a     ........{.{.z...
2000a9e8:	a57a9d7a a57b9d7a a5bc9d7b adfda5bc     z.z.z.{.{.......
2000a9f8:	adfdadbc adfdadfd 9d7c9d7c 9d7c953b     ........|.|.;.|.
2000aa08:	953b8d3b 953b8d3b 8d3b8d3a 953b8d3a     ;.;.;.;.:.;.:.;.
2000aa18:	8d3a8cfa 8cfa84fa 8cf984f9 8cf98cf8     ..:.............
2000aa28:	8cf984f8 84b884b8 8cb884b8 8cb88cb7     ................
2000aa38:	94b78cb7 8cb68c76 94b68c75 84748c75     ....v...u...u.t.
2000aa48:	6bb18c74 29a8322a 94b239e9 bd96e71c     t..k*2.).9......
	...
2000aac4:	ffdf0000 8430ce78 ad787c31 a579b5ba     ....x.0.1|x...y.
2000aad4:	adbaadba adbab5bb a57aadba 9d7ba5bc     ..........z...{.
2000aae4:	a57ba5bb a57ba5bb a5bbadbc adbcadbc     ..{...{.........
2000aaf4:	adfdadfd b5fdb5fd adfdb63e 9d7ba5bd     ........>.....{.
2000ab04:	957b9d7c 957b957b 953b957b 8d3a957b     |.{.{.{.{.;.{.:.
2000ab14:	8d3a953b 8d3a8d3b 84fa8d3a 8cf98d3a     ;.:.;.:.:...:...
2000ab24:	8cf9953a 84b88cf9 84b88cf9 8cb88cf8     :...............
2000ab34:	8cb78cf8 8cb78cb7 94b694f7 8c7594b6     ..............u.
2000ab44:	843494b6 7c338433 29a85b2e 52ab2967     ..4.3.3|.[.)g).R
2000ab54:	d659a4f4 0000ffdf 00000000 00000000     ..Y.............
	...
2000abc4:	efbce6d8 73af94f2 b5ba9d36 ad7aa579     .......s6...y.z.
2000abd4:	adbaa57a adbba57a 9d7aa57a 9d7b9d7b     z...z...z.z.{.{.
2000abe4:	a5bc9d7b a5bca5bc adbca57b adfcadbc     {.......{.......
2000abf4:	b5fda5bc b63dadfd adfdadfd 9d7ca5bc     ......=.......|.
2000ac04:	9d7c9d7b 9dbc957b 957b957b 957b957b     {.|.{...{.{.{.{.
2000ac14:	953b8d3a 8d3b8d3a 8d3a84fa 8cfa8cfa     :.;.:.;...:.....
2000ac24:	8cf984b9 8cb984b9 8cb984b8 8cf88cb8     ................
2000ac34:	8cb78cb7 94b78cb7 94b78cb6 94b694b6     ................
2000ac44:	84748474 84748434 4aad6bb1 29672967     t.t.4.t..k.Jg)g)
2000ac54:	9cb352ab ffdfe6db 00000000 00000000     .R..............
	...
2000acc0:	b5d40000 b5b5ffff 94b473af ad79bdfa     .........s....y.
2000acd0:	a57aa57a a57aadbb a57bad7b a57bad7b     z.z...z.{.{.{.{.
2000ace0:	9d7ba5bc a5bca5bc a5bca5fc adfcadfc     ..{.............
2000acf0:	b5fcb63d be3db63d b63dbe3e adfdb63e     =...=.=.>.=.>...
2000ad00:	9d7ba5bc 9d7ca5bc 9dbc9dbc 957b9dbc     ..{...|.......{.
2000ad10:	957b957b 957b957b 8d3a957b 8d3a8d3a     {.{.{.{.{.:.:.:.
2000ad20:	8cfa953b 84f98cfa 84b88cf9 84b88cf9     ;...............
2000ad30:	8cb88cf9 8cb78cb8 8cb794f8 94b694b7     ................
2000ad40:	8cb694f7 84748c75 7c338cb5 637073b2     ....u.t...3|.spc
2000ad50:	2166426b 4a692966 ded994b2 0000ffdf     kBf!f)iJ........
	...
2000adc0:	f79d0000 7bf0c638 b5b97c31 adbaadb9     ....8..{1|......
2000add0:	a57aa579 adbbadba adbba57a adbca57b     y.z.....z...{...
2000ade0:	adfca5bb adfca5bc adfca5bb b5fcadfc     ................
2000adf0:	be3db5fc c67ebe3d b63dbe3d adfdadfd     ..=.=.~.=.=.....
2000ae00:	a5bca5bb a5bc9dbc 9dbb957b 9dbc957b     ........{...{...
2000ae10:	957b957b 957b957b 8d3b953b 8d3b8d3a     {.{.{.{.;.;.:.;.
2000ae20:	8d3a8cfa 8cfa84fa 8cf98cf9 94f88cf8     ..:.............
2000ae30:	94f98cb8 8cb88cb8 94b78cb7 94b78cb7     ................
2000ae40:	8cb58cb6 84348474 84348433 6b7173b2     ....t.4.3.4..sqk
2000ae50:	31a94a6c 21662126 947039e7 ef5be71b     lJ.1&!f!.9p...[.
	...
2000aec0:	ce78ffde 6b6f73ef adbab5b9 adbaadba     ..x..sok........
2000aed0:	a57aadba adbbadbb adbbadbb adfcb5fc     ..z.............
2000aee0:	b5fcb63c b5fcb63d b63cb63c b5fcbe3d     <...=...<.<.=...
2000aef0:	be3dbe3d c67ec67e b63dc67e adfcb63d     =.=.~.~.~.=.=...
2000af00:	a5bcadfc 9dbca5bc 9dbb9dbc 9dbb9dbc     ................
2000af10:	957b9dbb 957b957b 953b9d7c 953b957b     ..{.{.{.|.;.{.;.
2000af20:	8d3a953b 8cf9853a 9539953a 95389d39     ;.:.:...:.9.9.8.
2000af30:	94f99539 8cf894f9 8cb794f8 94b794f8     9...............
2000af40:	8c7594b6 7c338c75 8c758433 63708474     ..u.u.3|3.u.t.pc
2000af50:	422b52ae 212631e9 52a92965 ef5ca4f2     .R+B.1&!e).R..\.
	...
2000afc0:	9d34f75d 94b55b2d adbab5fa adbaa579     ].4.-[......y...
2000afd0:	a5baa5b9 adbba57a adfbadbb b5fcadbb     ....z...........
2000afe0:	b63cb5fc be3cb5fc be3dbe3c be3db63c     ..<...<.<.=.<.=.
2000aff0:	c67ebe3d c67ebe3d b63dbe3d adfca5fc     =.~.=.~.=.=.....
2000b000:	adfdadfc a5bca5bc 9dbc9dbb 9dbb957b     ............{...
2000b010:	9dbb957b 957b957b 957b957b 957b8d3a     {...{.{.{.{.:.{.
2000b020:	8d3a8d3a 953a84f9 9d7a9539 9d799d39     :.:...:.9.z.9.y.
2000b030:	953994f8 8cb88cb8 8cb78cb7 94f78cb7     ..9.............
2000b040:	8c768c76 84348c75 8cb57c33 6bb18475     v.v.u.4.3|..u..k
2000b050:	4aad52ae 29a83a2a 31a62125 ce78736d     .R.J*:.)%!.1msx.
	...
2000b0bc:	ffdf0000 6b6ed679 adb973f1 a5baadba     ....y.nk.s......
2000b0cc:	adbaadba adbaadbb adbaadba adbbb5fc     ................
2000b0dc:	b5fcb5fc b5fcbe3c be3dbe3d be3cc67d     ....<...=.=.}.<.
2000b0ec:	b5fcbe3c c67dc67d be3dbe7e adfcbe7e     <...}.}.~.=.~...
2000b0fc:	adfcadfd a5bcadfd a5bcadfd 9dbca5fd     ................
2000b10c:	957b9dbc 9dbc9dbc 957b9dbc 957b9dbc     ..{.......{...{.
2000b11c:	957a95bb 9579957a 9dba957a 9d7a9dba     ..z.z.y.z.....z.
2000b12c:	95399d79 9d389d39 94f794f8 94f89538     y.9.9.8.....8...
2000b13c:	94b794f8 8c7694b7 84758c76 84348475     ......v.v.u.u.4.
2000b14c:	73f28474 4aac5b2f 31e8426b 18e42967     t..s/[.JkB.1g)..
2000b15c:	632c29a6 0000e77b 00000000 00000000     .),c{...........
	...
2000b1bc:	ffdf0000 5aec9cf3 b5fa94b4 a5baa579     .......Z....y...
2000b1cc:	adbaa5ba a57aa579 adbbadbb b5fbadbb     ....y.z.........
2000b1dc:	be3db5fc be3dbe3c be3dbe3c c67dbe3d     ..=.<.=.<.=.=.}.
2000b1ec:	c67dbe3c be7dbe7d be3ebe3d b63db63d     <.}.}.}.=.>.=.=.
2000b1fc:	adfdadfc a5bca5bc a5bcadbc 9dbc9dbc     ................
2000b20c:	9dbc957b 957b957b 9d7c953b 957b957b     {...{.{.;.|.{.{.
2000b21c:	957b957b 9dba957a a5bb9dba 9d7a9dba     {.{.z.........z.
2000b22c:	9d399539 9d399d39 9d399d38 94f894f8     9.9.9.9.8.9.....
2000b23c:	94b88cb7 8c768c76 84348435 7bf37bf3     ....v.v.5.4..{.{
2000b24c:	7c337c33 4aac5aee 39e9426b 21252966     3|3|.Z.JkB.9f)%!
2000b25c:	31a610e3 ffdf8450 00000000 00000000     ...1P...........
	...
2000b2bc:	defaffdf 636e6b6e b5bab5f9 a5baadba     ....nknc........
2000b2cc:	adbaadbb a57aadbb adbbadfb adbbadbb     ......z.........
2000b2dc:	b63cb63c be3dbe3d c67ec67e c67dc67e     <.<.=.=.~.~.~.}.
2000b2ec:	c67dc67d c67ecebe c67ec6be b63dbe7e     }.}...~...~.~.=.
2000b2fc:	ae3db63e a5bcb63d a5bcadfd 9d7b9dbc     >.=.=.........{.
2000b30c:	9dbca5bc 957b9dbc 957b957b 957b957b     ......{.{.{.{.{.
2000b31c:	957b957b 9dbb9dbb a5bba5fb 9d7a9dba     {.{...........z.
2000b32c:	9539a57a 9d399d39 9d38a579 94f89d39     z.9.9.9.y.8.9...
2000b33c:	8cb794f8 7bf48c76 7bf47c34 73f373f3     ....v..{4|.{.s.s
2000b34c:	7c338474 4aac636f 39e94aac 212631a8     t.3|oc.J.J.9.1&!
2000b35c:	10e31924 b5954a69 00000000 00000000     $...iJ..........
	...
2000b3bc:	b5b6ffdf 8cb45aec adb9b5f9 a5baa579     .....Z......y...
2000b3cc:	adbaa57a adbbadba adbba5ba adbbadbb     z...............
2000b3dc:	b5fcadfb b5fcb5fb be3db5fc be3dbe3c     ..........=.<.=.
2000b3ec:	be3cb5fc be7dbe3d c6bfbe3d b63db63d     ..<.=.}.=...=.=.
2000b3fc:	b63dae3d adfda5bc a5bca5bc 9dbc9dbc     =.=.............
2000b40c:	9dbc9dbc 957b9d7b 957b953b 957b8d3a     ....{.{.;.{.:.{.
2000b41c:	957b8d3a a5fc95bb a5fba5bb 9d7a9d7a     :.{.........z.z.
2000b42c:	9d399539 9d3994f8 9d399d39 9d399d39     9.9...9.9.9.9.9.
2000b43c:	8cb78cb7 73f47bf5 743473f3 73f36bf3     .....{.s.s4t.k.s
2000b44c:	73f273f3 52ed5b2f 39e94aac 29672967     .s.s/[.R.J.9g)g)
2000b45c:	10a218e4 84702965 0000ffdf 00000000     ....e)p.........
	...
2000b4bc:	7beff7be adb86b6f a5b9b5fa a5bba5ba     ...{ok..........
2000b4cc:	a5baa5bb adbbadbb adbbadbb b5fcb5fc     ................
2000b4dc:	b5fcb63c be3dbe3d be3dbe3d be3dbe3d     <...=.=.=.=.=.=.
2000b4ec:	be3cc67d b5fcbe3d b5fdbe3d adfdb5fd     }.<.=...=.......
2000b4fc:	adfcb63d adfda5bc 9d7badfd 957b9dbc     =.........{...{.
2000b50c:	9d7b9dbc 957b9d7b 957b957b 957b957b     ..{.{.{.{.{.{.{.
2000b51c:	8d3a957b 957a9dbb 9d7aa5fb 9d7a9dba     {.:...z...z...z.
2000b52c:	9d399d7a 9d399d79 9d39a57a 94f8a57a     z.9.y.9.z.9.z...
2000b53c:	7c358cb7 6bb373f5 6bf473f4 6bb373f4     ..5|.s.k.s.k.s.k
2000b54c:	73f273f3 52ee6330 39e952ed 296729a8     .s.s0c.R.R.9.)g)
2000b55c:	10e32125 39e618e3 ffdf8c71 00000000     %!.....9q.......
	...
2000b5b8:	ffdf0000 5b2cc618 b5fa73f1 adbaadb9     ......,[.s......
2000b5c8:	a5bba57a a5bb9d7a adbba5ba adfbadbb     z...z...........
2000b5d8:	b5fcadbb be3cadfb be3cbe3c c67dbe3c     ......<.<.<.<.}.
2000b5e8:	be3dbe3c c67dbe3c c67ebe3c be3ebe7d     <.=.<.}.<.~.}.>.
2000b5f8:	b63db63d adfdadfc adfda5bc 9dbca5bc     =.=.............
2000b608:	957b957b 957b957b 957b8d3a 957c8d3a     {.{.{.{.:.{.:.|.
2000b618:	957b8d3a 957b957b 95398d3a 95799579     :.{.{.{.:.9.y.y.
2000b628:	9d7a9538 a57a9d7a a57a9d79 9d399d39     8.z.z.z.y.z.9.9.
2000b638:	8cb79d38 73f57c35 6bb463b3 6bf46bb3     8...5|.s.c.k.k.k
2000b648:	6bf363b3 73f36bb2 52ad5b2f 422a426b     .c.k.k.s/[.RkB*B
2000b658:	21262968 18e318e4 212308a2 ef5d52aa     h)&!......#!.R].
	...
2000b6b8:	ffdf0000 52ed94b3 b5fa9d37 a5baadba     .......R7.......
2000b6c8:	a57aa5ba a5bba5ba a5baadbb adfbadfb     ..z.............
2000b6d8:	adbbb5fc b5fcb5fc b5fcb63d b63dbe3d     ........=...=.=.
2000b6e8:	b5fcbe3d be3cbe3d be3dbe7d be3dc67e     =...=.<.}.=.~.=.
2000b6f8:	adfdbe3d adfdb63e a5bcadfd 9dbcadfd     =...>...........
2000b708:	957b9dbc 957b9dbc 8d3a957b 8d3a957b     ..{...{.{.:.{.:.
2000b718:	8d3a8d3a 8d39957b 957a957a 9d7a957a     :.:.{.9.z.z.z.z.
2000b728:	9d7a9dba 9d7a9d7a 95399d7a 95399d7a     ..z.z.z.z.9.z.9.
2000b738:	7c368cf8 6bf47c36 63b363b4 63b36bf4     ..6|6|.k.c.c.k.c
2000b748:	63b36bb3 6bb273f3 426c6370 3a2a422b     .k.c.s.kpclB+B*:
2000b758:	212531e9 10e32125 10a210a2 ce184228     .1%!%!......(B..
	...
2000b7b8:	ffdf0000 63705acd adfaa5b9 a5baa579     .....Zpc....y...
2000b7c8:	a57aa5ba adbb9d39 adbba57a adbba57a     ..z.9...z...z...
2000b7d8:	adfcadbb adbcadbb adfca5bb b5fdadfc     ................
2000b7e8:	adfdadbc be3db5fc be7db63c be3dbe3d     ......=.<.}.=.=.
2000b7f8:	b5fdb63c adbca5bc a5bca5bc a5bca5bc     <...............
2000b808:	957b957b 957b957b 957b8d3a 8d3a8d3a     {.{.{.{.:.{.:.:.
2000b818:	8d3a84f9 8d3a8d3a 957a8d39 9dba957a     ..:.:.:.9.z.z...
2000b828:	9dba9dbb 9d7a9539 95799539 8cf88d39     ....9.z.9.y.9...
2000b838:	74367c77 6bf56bf5 63b363b3 6bf363b3     w|6t.k.k.c.c.c.k
2000b848:	6bf36bb3 6bb26bf3 426c532f 3a2a3a2a     .k.k.k.k/SlB*:*:
2000b858:	292629a7 18e418e4 08610862 8c712124     .)&)....b.a.$!q.
2000b868:	0000ffdf 00000000 00000000 00000000     ................
	...
2000b8b8:	ffdf0000 7c324a6b adbab5fa a5baadba     ....kJ2|........
2000b8c8:	a5baadbb a57aadbb adbbadbb a5bbadbb     ......z.........
2000b8d8:	adbbadfc adbcb5fc adfcadfc adfcb5fd     ................
2000b8e8:	adfcb5fd b63cb63d be3dbe7d be3dbe7d     ....=.<.}.=.}.=.
2000b8f8:	b5fdbe7e a5bcadfd a5bcadfd 9dbca5fc     ~...............
2000b908:	957b9dbc 957b957b 957b9dbc 957b957b     ..{.{.{...{.{.{.
2000b918:	8d3a957b 957a957b 957a957a 957a9dbb     {.:.{.z.z.z...z.
2000b928:	9d7a9d7a 95399dba 8d399579 84b78d39     z.z...9.y.9.9...
2000b938:	74367c77 6bf47435 63b46bf4 6bb36bf4     w|6t5t.k.k.c.k.k
2000b948:	73f473f4 63716bf3 4aad5b70 31e9426b     .s.s.kqcp[.JkB.1
2000b958:	21252967 18e42125 086110e3 5aeb10a2     g)%!%!....a....Z
2000b968:	ef5bfffe 00000000 00000000 00000000     ..[.............
	...
2000b9b8:	ad76ffdf 94f54aab adbab5fa a5baa5ba     ..v..J..........
2000b9c8:	adbba57a adbba5ba adbba57a adbbadbb     z.......z.......
2000b9d8:	adfcadbb adfcadbb adfca5bc b5fdadfc     ................
2000b9e8:	be7eb5fd b63db5fd be3db5fc c67ebe7e     ..~...=...=.~.~.
2000b9f8:	b63dbe7e adfdb5fd adfdadfc a5bca5bc     ~.=.............
2000ba08:	9dbc957b 957b957b 957b957b 957b957b     {...{.{.{.{.{.{.
2000ba18:	957b957a 957b957a 957b953a 957a957a     z.{.z.{.:.{.z.z.
2000ba28:	957a957a 95399539 8d398d39 7cb784b7     z.z.9.9.9.9....|
2000ba38:	74357436 6bf56bf5 6bf463b3 6bf46bf4     6t5t.k.k.c.k.k.k
2000ba48:	6bf36bb3 63b263b2 4aad5b2f 3a293a2a     .k.k.c.c/[.J*:):
2000ba58:	21252166 18e418e4 08a210a2 4a680861     f!%!........a.hJ
2000ba68:	ffdfc617 00000000 00000000 00000000     ................
	...
2000bab8:	8430ffff a5375b2d adbab63b a5baadfb     ..0.-[7.;.......
2000bac8:	a5baadba adbbadfb a57aadbb a5bbadbb     ..........z.....
2000bad8:	adbbadbb adfcb5fc adfcadfc adfcb5fd     ................
2000bae8:	adfdb5fd adfcb63d b63dadfc b63dbe7e     ....=.....=.~.=.
2000baf8:	b63dc67f adfdadfc adfcadfd a5fcae3d     ..=.........=...
2000bb08:	957b9dbc 9d7b9dbc 957b9dbc 957b9dbc     ..{...{...{...{.
2000bb18:	957b957b 9dbb957b 957a9dbc 8d39957a     {.{.{.....z.z.9.
2000bb28:	9539957a 953a953a 8cf99d7b 74767cb7     z.9.:.:.{....|vt
2000bb38:	74357436 6bf57c76 6bf46bf5 6bb373f5     6t5tv|.k.k.k.s.k
2000bb48:	6bb36bf4 63716bf3 4aad5b70 3a2a426b     .k.k.kqcp[.JkB*:
2000bb58:	212531a7 18e318e4 086110a3 42280861     .1%!......a.a.(B
2000bb68:	ffdfd678 00000000 00000000 00000000     x...............
	...
2000bbb8:	6b6df79e adb85aec adbaadfa a5baa5ba     ..mk.Z..........
2000bbc8:	adbba5ba adbba5ba adbbadbb adbba5bb     ................
2000bbd8:	adfcadbb adfcadbb b5fdadfc adfcadbc     ................
2000bbe8:	b5fdadfc adfdadfc adfcadfc a5bba5bb     ................
2000bbf8:	b63dadfc adfca5bb adfda5fc a5fca5fc     ..=.............
2000bc08:	9dbc9dbc 9dbc957b 9dbc9d7b 9dbb957b     ....{...{...{...
2000bc18:	9dbc957b 957b957a 9dbb957b 8d3a953a     {...z.{.{...:.:.
2000bc28:	953a8d3a 953a8cf9 84f98d39 74367476     :.:...:.9...vt6t
2000bc38:	74357435 6bf47435 6bf463b4 6bb363b3     5t5t5t.k.c.k.c.k
2000bc48:	6bb36372 5b7163b2 4aad5b30 31e931e9     rc.k.cq[0[.J.1.1
2000bc58:	212529a7 18e310a3 08a208a2 39e70021     .)%!........!..9
2000bc68:	ffdfbdd6 00000000 00000000 00000000     ................
	...
2000bcb4:	ff5a0000 632cef7d adb8636e adbab5fa     ..Z.}.,cnc......
2000bcc4:	adbaadfa adbbadfb adbbadbb adbbb5fc     ................
2000bcd4:	b5fcadfc b5fcb63d b5fcb63d b63db63d     ....=...=...=.=.
2000bce4:	b5fdbe3e adfcb63e adfdb5fd adfcadfd     >...>...........
2000bcf4:	a5fcae3d b63db63d adfcb63d adfcadfc     =...=.=.=.......
2000bd04:	a5fcae3d 9dbca5fd 9dbca5bc 9d7b9dbc     =.............{.
2000bd14:	957b9dbb 9dbc9dbc 957b9dbc 8d3a957a     ..{.......{.z.:.
2000bd24:	8d39957b 953a957a 95399d7a 7cb88d39     {.9.z.:.z.9.9..|
2000bd34:	74357c77 74757c76 6bf47435 6bf46bf5     w|5tv|ut5t.k.k.k
2000bd44:	63726bf4 63b363b3 5b3063b2 4aad5b30     .krc.c.c.c0[0[.J
2000bd54:	29a83a2a 20e529a7 10a318e4 08a210a3     *:.).). ........
2000bd64:	292410a2 ffdf8c70 00000000 00000000     ..$)p...........
	...
2000bdb4:	ffdf0000 4269b5d6 b5fa636f adfaadb9     ......iBoc......
2000bdc4:	adfbadba adbbadba adbba5ba b5bbadbb     ................
2000bdd4:	b5fcb5bb be3db5fc c63ebdfc c67ebe3d     ......=...>.=.~.
2000bde4:	c67ec67e be3dc67e b63db63d be7dae3d     ~.~.~.=.=.=.=.}.
2000bdf4:	b63dae3c b63db63d adfcae3c ae3dadfc     <.=.=.=.<.....=.
2000be04:	a5fda5fc 9dbc9dbb 9dbc9dbc 9dbb957b     ............{...
2000be14:	9dbc957b 957a957b 9dbb957a 957a957a     {...{.z.z...z.z.
2000be24:	953a8d39 8d398d39 953a8cf9 7c7784f8     9.:.9.9...:...w|
2000be34:	74366c35 74367436 6bf56bf4 6bf46bf4     5l6t6t6t.k.k.k.k
2000be44:	637263b3 63b26372 5b306371 426b4aad     .crcrc.cqc0[.JkB
2000be54:	29a829a8 18e42166 10a310a3 10a20862     .).)f!......b...
2000be64:	29650861 ffdf8c10 00000000 00000000     a.e)............
	...
2000beb4:	ffdf0000 31e894b2 be3a7c32 adb9b5f9     .......12|:.....
2000bec4:	adbbb5fb adbaadbb adbbb5fc b5fcb5fb     ................
2000bed4:	b5fcbe3d bdfcbdfc be3dbe3d c67ec67e     =.......=.=.~.~.
2000bee4:	cebecebe cebdcebe b63dbe3d c6bebe7e     ........=.=.~...
2000bef4:	b63cbebd b67dbe7d b63dbe7d a5fcae3d     ..<.}.}.}.=.=...
2000bf04:	a5fdadfd 95bb9dbc 9dbca5fd 9dbb9dfc     ................
2000bf14:	9dbc9dbc 957b9dbc 957a957b 957a9dbb     ......{.{.z...z.
2000bf24:	957a957b 84f9957a 84f984f9 7c778d39     {.z.z.......9.w|
2000bf34:	74367c76 74367c77 6bf46bf5 63b36bf4     v|6tw|6t.k.k.k.c
2000bf44:	6bb26bb3 5b7163b2 52ee6370 3a2a42ac     .k.k.cq[pc.R.B*:
2000bf54:	29a729a8 18e42166 18e418e4 10a210a3     .).)f!..........
2000bf64:	216408a2 ffdf8c70 00000000 00000000     ..d!p...........
	...
2000bfb4:	ffdf0000 426a8430 be3a8473 b5fab5f9     ....0.jBs.:.....
2000bfc4:	adbbadba adbbadbb b5fbadbb b5fcadbb     ................
2000bfd4:	b5fcb5fc bdfcb5fc be3dbdfc c67ebe3d     ..........=.=.~.
2000bfe4:	c67dc63d c67dc67d c67eb63d c6bec67d     =.}.}.}.=.~.}...
2000bff4:	be7dbe7c b67dc67e ae3dae3c a5fca5fc     |.}.~.}.<.=.....
2000c004:	9dbc9dbc 957b957b 9dbb957b 9dbb957b     ....{.{.{...{...
2000c014:	9dbc957b 9d7b9d7b 957a957a 957a8d39     {...{.{.z.z.9.z.
2000c024:	957b957a 8d398d3a 84f884b8 7c7784b8     z.{.:.9.......w|
2000c034:	74367436 6bf57436 63b36373 63b35b72     6t6t6t.ksc.cr[.c
2000c044:	63b26372 5b316371 4aad52ee 31e93a2b     rc.cqc1[.R.J+:.1
2000c054:	21672167 18e41925 18e318a4 10e310a3     g!g!%...........
2000c064:	29650861 ffdf8c70 00000000 00000000     a.e)p...........
	...
2000c0b4:	ffdf0000 4aab7bef b5f99d36 b5fab5fa     .....{.J6.......
2000c0c4:	adbaadfb adbbb5fb adbbadbb b5fcb5fc     ................
2000c0d4:	adbbb5fc adbbadfc b5fcb5fc be3dbe3d     ............=.=.
2000c0e4:	b5fcbe3d be3dc67e c67ec67e c67dc67e     =...~.=.~.~.~.}.
2000c0f4:	c67dc67d adfdcebf 9dbba5fd 957b9dbc     }.}...........{.
2000c104:	8d3a957b 957b957b 953b957b 957b957b     {.:.{.{.{.;.{.{.
2000c114:	8d3a957b 957a957b 9dbb9dbb 957b9dbb     {.:.{.z.......{.
2000c124:	953a957b 84f9953a 84f98d39 7c7684b8     {.:.:...9.....v|
2000c134:	74357c76 63b47436 5b7363b4 5b7263b3     v|5t6t.c.cs[.cr[
2000c144:	637263b3 5b3063b2 426c4aad 31e9426c     .crc.c0[.JlBlB.1
2000c154:	19262167 18e42126 18e318e4 10a218e3     g!&.&!..........
2000c164:	212410a2 ffdf7bee 00000000 00000000     ..$!.{..........
	...
2000c1b4:	ffdf0000 52ac634d b5fa9d36 b5faadb9     ....Mc.R6.......
2000c1c4:	adbbadbb adbbadba b5fbadbb adfcadbb     ................
2000c1d4:	adbbadbb adbba5bb adbba57a adfca5bb     ........z.......
2000c1e4:	adfcadbc adfcadfc b63cadbb be7db63c     ..........<.<.}.
2000c1f4:	be7ebe7d a5bdb5fd 953b957b 8d3a8cfa     }.~.....{.;...:.
2000c204:	8d3a84fa 8d3a84fa 8d3a8d3a 953b8d3a     ..:...:.:.:.:.;.
2000c214:	8d3a84fa 957a8d39 9dbb957a a5bc9dbb     ..:.9.z.z.......
2000c224:	953a9d7b 8cf98cf9 8cf98cf9 7c7784b7     {.:...........w|
2000c234:	6bf57436 63b463b4 63b463b4 63725b72     6t.k.c.c.c.cr[rc
2000c244:	63b26372 52ef5b30 426c426c 31e931ea     rc.c0[.RlBlB.1.1
2000c254:	21672967 212518e5 18e418a4 10a210a2     g)g!..%!........
2000c264:	18e30862 ffdf5a8a 00000000 00000000     b....Z..........
	...
2000c2b4:	ffdf0000 52ec5b2c b5faadb8 b5bab5fa     ....,[.R........
2000c2c4:	adbaadfb adbaadbb adbbadbb a57aadfb     ..............z.
2000c2d4:	a5bbadfc adbba5bb a5bbadbb 9d7aa5bb     ..............z.
2000c2e4:	9d7b953a 9d3ba57b a5bb9d7b adfcadfc     :.{.{.;.{.......
2000c2f4:	a5bcadfc 953badbd 84b98cfa 84b984fa     ......;.........
2000c304:	84f984fa 8d3a8d3a 84fa8d3a 8d3a8d3a     ....:.:.:...:.:.
2000c314:	8d3a8d3a 957a957b 957a957b 9d7b9dbb     :.:.{.z.{.z...{.
2000c324:	95399d7b 8cf9953a 8cf9953a 7c778cf8     {.9.:...:.....w|
2000c334:	6bf56bf5 63b46bf5 63b363b4 637263b3     .k.k.k.c.c.c.crc
2000c344:	5b7163b3 4aae5b30 3a2b4aad 29a931ea     .cq[0[.J.J+:.1.)
2000c354:	21672167 20e52166 10a32125 10a210a3     g!g!f!. %!......
2000c364:	192410a2 ffdf73ad 00000000 00000000     ..$..s..........
	...
2000c3b4:	ef5d0000 636e5b2c b5faa5b8 b5fab5b9     ..].,[nc........
2000c3c4:	adbaa5ba a5baa5ba a57aa579 9d7a9d79     ........y.z.y.z.
2000c3d4:	adbba57a adbba57a adfcadbb 9d7ba5bb     z...z.........{.
2000c3e4:	953b957a 8cfa8cf9 9d7b8cfa a5bca5fc     z.;.......{.....
2000c3f4:	953b8d3a 84ba8cfb 84ba7c79 7cba7cb9     :.;.....y|...|.|
2000c404:	7cf97cb9 8d3a84f9 84fa84f9 8d3a84fa     .|.|..:.......:.
2000c414:	957b8d3a 957b957b 957a957a 9dbb957a     :.{.{.{.z.z.z...
2000c424:	953a953a 953a953a 84b88cf8 6bf57436     :.:.:.:.....6t.k
2000c434:	6bf56bf5 6bf56bf5 63735b73 63b35b72     .k.k.k.ks[scr[.c
2000c444:	63726372 4aae5330 3a2b3a6c 29a929e9     rcrc0S.Jl:+:.).)
2000c454:	29a82167 21252166 18e318e4 10a310a3     g!.)f!%!........
2000c464:	18e310a2 ffdf736d 00000000 00000000     ....ms..........
	...
2000c4b4:	ef5c0000 6bb073af adf9adf9 adbab5fa     ..\..s.k........
2000c4c4:	a5baadfa 8cf79d79 8cb794f8 8cb88cb8     ....y...........
2000c4d4:	9d3a9539 adfbadfc a5bbadfb a5bba5fc     9.:.............
2000c4e4:	9d7badbc 8cf99d7b 953a94fa 9d7ca5bc     ..{.{.....:...|.
2000c4f4:	7cb9953b 7c797cba 7cb984b9 7cb984b9     ;..|.|y|...|...|
2000c504:	84f984f9 8cfa8cfa 8d3a8d3a 8d3a957b     ........:.:.{.:.
2000c514:	84f9957b 8d3a8d3a 9d7a957a a5bba5bb     {...:.:.z.z.....
2000c524:	9d7a9d7b 95399d7a 8cf89539 6bf58477     {.z.z.9.9...w..k
2000c534:	73f57c36 6bf57435 5b7363b4 63b363b3     6|.s5t.k.cs[.c.c
2000c544:	5b716bf3 4aae5330 3a2b4aad 29a829e9     .kq[0S.J.J+:.).)
2000c554:	216629a8 216629a7 10e31925 10a210e3     .)f!.)f!%.......
2000c564:	10a210a3 ffdf6b6c 00000000 00000000     ....lk..........
	...
2000c5b4:	d6990000 73b15aed adf9adb9 adbaa5b9     .....Z.s........
2000c5c4:	9d79a5fa 6bf47c75 63b363b3 6bf56bb4     ..y.u|.k.c.c.k.k
2000c5d4:	7cb77436 957984f8 9dbb9579 9d7a957a     6t.|..y.y...z.z.
2000c5e4:	9d7b9539 84b88cf9 94f98cf9 953b8cf9     9.{...........;.
2000c5f4:	84ba8cfa 7c797479 7cb97c78 7cb87478     ....yty|x|.|xt.|
2000c604:	84fa7cb9 84fa7cb9 8d3a84f9 84f884f9     .|...|....:.....
2000c614:	7cb87cb8 84b87c78 84f87cb7 9d7a8cf8     .|.|x|...|....z.
2000c624:	9d7a9d7b 95399539 94f994f9 7c768477     {.z.9.9.....w.v|
2000c634:	74356bf5 6bb46bf5 63b35b73 63b35bb2     .k5t.k.ks[.c.[.c
2000c644:	63b263b2 52ef5330 426c42ad 29a821a8     .c.c0S.R.BlB.!.)
2000c654:	216729a8 21661925 10e41925 10e310a3     .)g!%.f!%.......
2000c664:	18e308a2 ffdf6b6d 00000000 00000000     ....mk..........
	...
2000c6b4:	d6590000 6bb05aec adf9b5fa adbaadba     ..Y..Z.k........
2000c6c4:	7434a5ba 53315371 4b314b31 53735bb4     ..4tqS1S1K1K.[sS
2000c6d4:	5bb35373 6c356c35 7cb77476 7c777cb7     sS.[5l5lvt.|.|w|
2000c6e4:	8cf98cf9 747884b9 8cf984b8 84b98d3a     ......xt....:...
2000c6f4:	7cb984fa 74787cba 74787478 74787478     ...|.|xtxtxtxtxt
2000c704:	7cb97cb9 6c377478 6c366c77 5bf46436     .|.|xt7lwl6l6d.[
2000c714:	5bb463f5 63f45bf5 5bb35bb3 6c3463f3     .c.[.[.c.[.[.c4l
2000c724:	953a8cf9 94f9953a 8cb88cf9 743684b8     ..:.:.........6t
2000c734:	6bf47436 63b46bf5 5b7263b4 63b263b3     6t.k.k.c.cr[.c.c
2000c744:	63b263b2 4aae5b71 3a6c4aad 216729e9     .c.cq[.J.Jl:.)g!
2000c754:	216631e8 19262166 10e41926 10e318e4     .1f!f!&.&.......
2000c764:	18e318e3 ffdf6b6c 00000000 00000000     ....lk..........
	...
2000c7b4:	ef5c0000 6bb05aec a5b8b5f9 adbba5b9     ..\..Z.k........
2000c7c4:	4af07434 4af042af 4b7242f0 3af04331     4t.J.B.J.BrK1C.:
2000c7d4:	3ab032af 42f042f1 43313af0 4af13ab0     .2.:.B.B.:1C.:.J
2000c7e4:	743763b5 6c376c37 8cf97436 8cfa8d3a     .c7t7l7l6t..:...
2000c7f4:	74797c78 64376c38 64375bf7 64376437     x|yt8l7d.[7d7d7d
2000c804:	5bb55bf6 4b324b33 4b3242f1 42f15373     .[.[3K2K.B2KsS.B
2000c814:	3af03ab0 4b7242f1 42f04330 4b313af0     .:.:.BrK0C.B.:1K
2000c824:	6bf542f0 953a8cf9 84b784b8 74358477     .B.k..:.....w.5t
2000c834:	6bf56bf5 6bf463b4 5bb263b3 63b35bb2     .k.k.c.k.c.[.[.c
2000c844:	6bf363b2 4aef5b71 3a2b3a2c 31e9322a     .c.kq[.J,:+:*2.1
2000c854:	216629a8 21661125 10e410e4 10e410e4     .)f!%.f!........
2000c864:	212410a3 ffdf5aaa 00000000 00000000     ..$!.Z..........
	...
2000c8b4:	deda0000 73f15aec a5b8be3b 7c349d37     .....Z.s;...7.4|
2000c8c4:	4aef4aaf 326e5331 42f03aef 3aaf42f0     .J.J1Sn2.:.B.B.:
2000c8d4:	2a2d3aaf 19ab2a2d 19ac19ab 2a2e21ed     .:-*-*.......!.*
2000c8e4:	5b734af1 5bf55bf5 84b86c36 8d3a957b     .Js[.[.[6l..{.:.
2000c8f4:	6c387cb9 53b563f7 4b7453b5 42f24b74     .|8l.c.S.StKtK.B
2000c904:	29ee3a70 21ed322e 326e2a2e 326e3aaf     p:.).2.!.*n2.:n2
2000c914:	2a2e2a2e 2a6e326e 32af3aef 32af3aaf     .*.*n2n*.:.2.:.2
2000c924:	53723ab0 7cb77436 84b88cf8 743584b7     .:rS6t.|......5t
2000c934:	6c357435 6bf46bf4 5bb36bf4 63b363b3     5t5l.k.k.k.[.c.c
2000c944:	63b263b3 4aef63b2 31ea426c 29a93a2b     .c.c.c.JlB.1+:.)
2000c954:	19262167 19261925 10e42166 10e418e5     g!&.%.&.f!......
2000c964:	212510e4 ffdf73ae 00000000 00000000     ..%!.s..........
	...
2000c9b4:	ce180000 84334a6a 8cb4adf9 4aae63b1     ....jJ3......c.J
2000c9c4:	3aae322c 21eb29eb 21eb21ea 2a2c29eb     ,2.:.).!.!.!.),*
2000c9d4:	21ab21eb 11291129 11291129 29ed196a     .!.!).).).).j..)
2000c9e4:	4af13a2e 537342f1 8d3a6bf5 8d3a953b     .:.J.BsS.k:.;.:.
2000c9f4:	6c387cb9 433353b5 3ab13af2 21ed2a2f     .|8l.S3C.:.:/*.!
2000ca04:	112a112a 00a810e9 112900a7 19691129     *.*.......).).i.
2000ca14:	21eb1129 116a19ab 222c11aa 2a2d19ec     )..!..j...,"..-*
2000ca24:	42f0326e 5b7242f0 84f87436 84b784b7     n2.B.Br[6t......
2000ca34:	74357435 63f36bf4 63b35bb3 63b363b3     5t5t.k.c.[.c.c.c
2000ca44:	63b263b2 4aef5b30 3a2b3a2c 29a9322a     .c.c0[.J,:+:*2.)
2000ca54:	21671926 21671926 18e52126 18e510e4     &.g!&.g!&!......
2000ca64:	296510e4 ffdf7bee 00000000 00000000     ..e).{..........
	...
2000cab4:	c6170000 8c746b6e 6bf19d37 42ae6370     ....nkt.7..kpc.B
2000cac4:	29eb29eb 19681968 196829ea 08e610e7     .).)h.h..)h.....
2000cad4:	08a61127 00660866 10e808a7 216a216a     '...f.f.....j!j!
2000cae4:	42af31ed 53735372 957b7477 957b9dbc     .1.BrSsSwt{...{.
2000caf4:	64377cfa 3af253b6 222e32b0 112a21ac     .|7d.S.:.2.".!*.
2000cb04:	08e8112a 08a708e8 00a608a7 10e608a7     *...............
2000cb14:	19291928 112821aa 21ec1169 19ab21ec     (.)..!(.i..!.!..
2000cb24:	21ed21ec 326e326e 63b44b31 7c7684b7     .!.!n2n21K.c..v|
2000cb34:	74347435 63f37435 63b363b3 63f36bf4     5t4t5t.c.c.c.k.c
2000cb44:	6bf36bf3 52ef5b71 426c4aee 29a93a2b     .k.kq[.R.JlB+:.)
2000cb54:	21672167 212629a8 21262167 18e52126     g!g!.)&!g!&!&!..
2000cb64:	21252125 ffdf7bee 00000000 00000000     %!%!.{..........
	...
2000cbb4:	9d120000 94f573f0 63b07c73 52f05b30     .....s..s|.c0[.R
2000cbc4:	322c3a2d 21682169 10e610e6 08a408a4     -:,2i!h!........
2000cbd4:	08630063 08640863 08640023 192808a5     c.c.c.d.#.d...(.
2000cbe4:	3a6e21aa 74355371 a5fc8cf8 9dfca5fd     .!n:qS5t........
2000cbf4:	6c787cf9 2a704b74 19ac21ad 112a112a     .|xltKp*.!..*.*.
2000cc04:	112908e9 18e918e8 10a710a8 08a50865     ..).........e...
2000cc14:	08a608a5 10e608a6 192908e7 11291929     ..........).).).
2000cc24:	21eb1169 2a2d21ec 4af03aae 6bb35330     i..!.!-*.:.J0S.k
2000cc34:	73f46bf4 73f46bf4 6bf463b3 6bf463b3     .k.s.k.s.c.k.c.k
2000cc44:	63b263b3 53305b31 426c4aae 29e931ea     .c.c1[0S.JlB.1.)
2000cc54:	19262167 29a82167 29672127 19251926     g!&.g!.)'!g)&.%.
2000cc64:	296610a4 ffff8c70 00000000 00000000     ..f)p...........
	...
2000ccb4:	7c0f0000 a5788cb4 63b07c73 63726bf2     ...|..x.s|.c.krc
2000ccc4:	31ec52f1 192821aa 08a418e6 08630863     .R.1.!(.....c.c.
2000ccd4:	086210a3 08631063 00230864 00650024     ..b.c.c.d.#.$.e.
2000cce4:	21eb1128 9d796bf3 b63dadfb a5fcbe7e     (..!.ky...=.~...
2000ccf4:	7cfa957b 2a2f5bf6 196b21ad 10e9192a     {..|.[/*.!k.*...
2000cd04:	10e910e9 18e82129 086710a8 10a610a6     ....)!....g.....
2000cd14:	10a510e6 08a510a6 10e710e6 19291928     ............(.).
2000cd24:	1169196a 2a2d19ab 326e3a6e 5b3142af     j.i...-*n:n2.B1[
2000cd34:	6bf36bf4 6bf47434 6bf473f4 6bf47435     .k.k4t.k.s.k5t.k
2000cd44:	6bb37434 52ef6371 3a2b52ee 29a931ea     4t.kqc.R.R+:.1.)
2000cd54:	192629a8 31a82167 216729a8 19252166     .)&.g!.1.)g!f!%.
2000cd64:	31a718e5 ffdf9cf3 00000000 00000000     ...1............
	...
2000cdb4:	9cf20000 b5fa9cf4 74338cb5 6bb36bb2     ..........3t.k.k
2000cdc4:	29ab42af 29a929ab 08a408a4 00200862     .B.).).)....b. .
2000cdd4:	08610020 08630021 10a60864 00250065      .a.!.c.d...e.%.
2000cde4:	196b0066 adfb6bf4 be7db5fb ae3dbe7e     f.k..k....}.~.=.
2000cdf4:	8d3b957b 43326c78 196b21ad 18e810e8     {.;.xl2C.!k.....
2000ce04:	18e918e8 086610e8 10a80026 112808a7     ......f.&.....(.
2000ce14:	18e610e7 10a508a4 10e608e5 216910e7     ..............i!
2000ce24:	21ab21ab 2a2d21ec 3a6f2a2d 42af3a6e     .!.!.!-*-*o:n:.B
2000ce34:	6bf45b72 6bf46bf4 6bf46bf4 74356bf4     r[.k.k.k.k.k.k5t
2000ce44:	73f473f4 52ef5b31 3a2b4aad 31e931ea     .s.s1[.R.J+:.1.1
2000ce54:	19262167 29a82166 21672967 192510e5     g!&.f!.)g)g!..%.
2000ce64:	39e810e4 ffdf9cf2 00000000 00000000     ...9............
	...
2000ceb4:	b5950000 b5b9ad77 8c749cf7 5af17bf4     ....w.....t..{.Z
2000cec4:	322d322e 08a63a2c 39e92167 296510a3     .2-2,:..g!.9..e)
2000ced4:	002020e3 08630021 08a610e5 10a81929     .  .!.c.....)...
2000cee4:	192a0067 b5fc73f5 be3dbe3d adfdbe7e     g.*..s..=.=.~...
2000cef4:	8d3b9dbc 5bb584fa 196a2a2e 18e81929     ..;....[.*j.)...
2000cf04:	18e82129 10e908a7 216b31ed 10e708a7     )!.......1k!....
2000cf14:	08a41927 086210a3 08a408a4 192810e6     '.....b.......(.
2000cf24:	29ac216a 21ec29ed 29ee29ee 42af3a6f     j!.).).!.).)o:.B
2000cf34:	63b35b72 63b36bf4 73f57435 74357435     r[.c.k.c5t.s5t5t
2000cf44:	73f47435 52ef6bb3 3a6b4aad 29a93a6b     5t.s.k.R.Jk:k:.)
2000cf54:	192631e9 31a829a7 216729a8 19252167     .1&..).1.)g!g!%.
2000cf64:	3a281925 ffdfa533 00000000 00000000     %.(:3...........
	...
2000cfb4:	c6380000 adb9b5b8 84b58cb5 52f173f3     ..8..........s.R
2000cfc4:	29ac21ac 216808e7 5aec6bb0 31a60021     .!.)..h!.k.Z!..1
2000cfd4:	082118a2 08640022 19292168 426f10e9     ..!.".d.h!)...oB
2000cfe4:	42703a2f adfc7c36 b63cadfb adfdadfc     /:pB6|....<.....
2000cff4:	957b9d7b 63f67cb9 112a2a2f 18e810e8     {.{..|.c/**.....
2000d004:	10e810a7 4af229ed 10e929ed 4aad3a2c     .....).J.)..,:.J
2000d014:	10a318e5 00610862 08a30021 10e60863     ....b.a.!...c...
2000d024:	192910a7 29ed21ab 29ee21ad 42af322e     ..)..!.).!.).2.B
2000d034:	4af042af 63b35b72 743563b4 7c357435     .B.Jr[.c.c5t5t5|
2000d044:	73f473f4 5b306bb2 426c426c 31e9426c     .s.s.k0[lBlBlB.1
2000d054:	21672967 31a929a8 31a82967 216629a7     g)g!.).1g).1.)f!
2000d064:	4a6a10e4 ffdfb5b6 00000000 00000000     ..jJ............
	...
2000d0b4:	be37ffdf ad79b5f9 84759537 4ab08475     ..7...y.7.u.u..J
2000d0c4:	21ab29ed 5aee10e8 5aec8c73 002010a2     .).!...Zs..Z.. .
2000d0d4:	08610021 08a510a4 4af03a6c 322f192b     !.a.....l:.J+./2
2000d0e4:	6bf67c78 a5bb84b8 b63cb63c a5fcadfc     x|.k....<.<.....
2000d0f4:	8d7b9dfc 5bb574b9 196b42b1 08a81929     ..{..t.[.Bk.)...
2000d104:	427010e8 2a2f5bf6 426f08ea 8432a579     ..pB.[/*..oBy.2.
2000d114:	212508a3 00202124 18e308a2 08a408a3     ..%!$! .........
2000d124:	08a618e7 21ec1129 29ee2a2e 326e3a6f     ....)..!.*.)o:n2
2000d134:	42f03aaf 5b725332 7c766c35 743584b7     .:.B2Sr[5lv|..5t
2000d144:	73f47434 5b306bf3 426c4aee 31ea42ac     4t.s.k0[.JlB.B.1
2000d154:	216629a8 29a831e9 31a82968 296731e9     .)f!.1.)h).1.1g)
2000d164:	52ab1925 ffded6b9 00000000 00000000     %..R............
	...
2000d1b4:	be38ffd9 a579adb8 8cf68cf7 52f173f4     ..8...y......s.R
2000d1c4:	3a2e42b0 73f23a2d 8cb39cf6 00212125     .B.:-:.s....%!!.
2000d1d4:	00210021 19680063 533342af 4b333270     !.!.c.h..B3Sp23K
2000d1e4:	7cb97cb9 9d7b7cb8 adfca5fb 9dbc9dbb     .|.|.|{.........
2000d1f4:	853a95bc 53756437 42b04af3 08e9196b     ..:.7duS.J.Bk...
2000d204:	6c3742b0 006921ef 84772a2f 73b0adba     .B7l.!i./*w....s
2000d214:	18e30861 00600020 10a20861 212618e4     a... .`.a.....&!
2000d224:	08a60024 112900a6 2a2e21ed 322e29ed     $.....)..!.*.).2
2000d234:	42b0326e 5b7242b0 7c766bf4 7c767c76     n2.B.Br[.kv|v|v|
2000d244:	743573f4 5b306bb2 426c4aae 31ea3a2a     .s5t.k0[.JlB*:.1
2000d254:	29a729a8 31a829a7 29a82967 29a831e9     .).).).1g).).1.)
2000d264:	5aec1925 ffdfe71b 00000000 00000000     %..Z............
	...
2000d2a8:	ffdd0000 ef5df77d ffdfffde b639e6fa     ....}.].......9.
2000d2b8:	a578adf9 8cf79d79 6bb58476 5b326b74     ..x.y...v..ktk2[
2000d2c8:	73f46373 94f78cb6 19276330 19271968     sc.s....0c'.h.'.
2000d2d8:	4b3129eb 533363b5 7cb87437 8cf88d39     .)1K.c3S7t.|9...
2000d2e8:	9d7a9539 957c9dbc 957b957c 84fa9dbd     9.z...|.|.{.....
2000d2f8:	4b756437 5bb55376 2a2f3a70 43336437     7duKvS.[p:/*7d3C
2000d308:	196c08eb 95395bb4 8cb4b63b 08622126     ..l..[9.;...&!b.
2000d318:	08a10862 08a310e3 4a6d29a9 08e729aa     b........)mJ.)..
2000d328:	08e908e8 322f29ed 2a2d322e 3ab03a6f     .....)/2.2-*o:.:
2000d338:	5bb44b32 6c357435 7c367c76 73f47c36     2K.[5t5lv|6|6|.s
2000d348:	53306bf4 3a6c4aee 31e9426b 29a831e9     .k0S.Jl:kB.1.1.)
2000d358:	29a82968 21a829a8 29a831ea 5b2c2166     h).).).!.1.)f!,[
2000d368:	0000ffff 00000000 00000000 00000000     ................
	...
2000d3a8:	defcffdc bdf9c63b d6bab5f8 b5fae6dd     ....;...........
2000d3b8:	adb9adb9 9d39a579 7c358476 843673f5     ....y.9.v.5|.s6.
2000d3c8:	637273f5 7c356372 63736bb4 6bf56bb3     .srcrc5|.ksc.k.k
2000d3d8:	63b56bf5 6bf65b75 953a94fa 8cf88cf8     .k.cu[.k..:.....
2000d3e8:	9d7b8cf9 8d3b953b 957c84fa 84fa957c     ..{.;.;...|.|...
2000d3f8:	53b663f6 64375375 53b45bb4 53b55bf6     .c.SuS7d.[.S.[.S
2000d408:	4b335334 74765373 a57884f7 08a55b2f     4S3KsSvt..x./[..
2000d418:	00630022 21680022 63734aaf 42af6373     ".c.".h!.Jscsc.B
2000d428:	21ac216b 322f29ee 3a6f3a6f 4b32326f     k!.!.)/2o:o:o22K
2000d438:	63f55373 74366bf5 7c767435 73f57435     sS.c.k6t5tv|5t.s
2000d448:	5b716bf4 426c4aae 3a2a3a2a 29a931e9     .kq[.JlB*:*:.1.)
2000d458:	29a82167 29e92168 29a829a9 6b6d29a6     g!.)h!.).).).)mk
2000d468:	0000ffdf 00000000 00000000 00000000     ................
	...
2000d4a8:	bdbaef7d a57aad7a 94f6a538 adfaad79     }...z.z.8...y...
2000d4b8:	adbab63b 9d79a5ba 84b794f8 9d399539     ;.....y.....9.9.
2000d4c8:	73f58cb7 63736bb4 52f35b33 63b56375     ...s.ksc3[.Ruc.c
2000d4d8:	53346bf6 73f65b76 8cb894b8 8cf99d39     .k4Sv[.s....9...
2000d4e8:	953a953a 957c957b 953b957c 7cb99d7c     :.:.{.|.|.;.|..|
2000d4f8:	63f76c37 643763f7 74787478 74b974b9     7l.c.c7dxtxt.t.t
2000d508:	84fa84fa 6bf57478 84777436 52f18cb7     ....xt.k6tw....R
2000d518:	31ec31ec 637342af 5b736bb5 533363b4     .1.1.Bsc.ks[.c3S
2000d528:	2a2f4af1 3a703230 42f142f1 53b34b32     .J/*02p:.B.B2K.S
2000d538:	6c3663f5 74767436 7c767c76 74357c76     .c6l6tvtv|v|v|5t
2000d548:	5b717434 42ad4aee 31e9426c 31e931a9     4tq[.J.BlB.1.1.1
2000d558:	216729a8 31ea29a9 29a73a2a 7bae39e7     .)g!.).1*:.).9.{
2000d568:	0000ffff 00000000 00000000 00000000     ................
	...
2000d5a8:	7bf6ce5c 63754a72 8cb894fa b5fa8476     \..{rJuc....v...
2000d5b8:	adfaadfa a5baadba 9d799d79 adbaa5ba     ........y.y.....
2000d5c8:	94f89d38 84368477 73f67bf6 6bf673f6     8...w.6..{.s.s.k
2000d5d8:	6c3663b4 8cf87477 a5799cf8 95399d39     .c6lwt....y.9.9.
2000d5e8:	8cfb8cf9 9d7c953b 953b957c 84b98d3b     ....;.|.|.;.;...
2000d5f8:	6c376c37 6c376437 7cb96c78 74787cb9     7l7l7d7lxl.|.|xt
2000d608:	84f96c77 8cf97477 73f68cb9 6bb56374     wl..wt.....stc.k
2000d618:	53325333 63b663b5 4af24af3 53734b32     3S2S.c.c.J.J2KsS
2000d628:	5b7463f5 42f23ab1 63f44b32 6c3663f5     .ct[.:.B2K.c.c6l
2000d638:	74776c76 84b77477 7c767c76 743573f5     vlwtwt..v|v|.s5t
2000d648:	63b273f4 4aad4aee 31a83a2a 31e929a8     .s.c.J.J*:.1.).1
2000d658:	21682168 29e921a8 296629a8 947139e7     h!h!.!.).)f).9q.
2000d668:	0000ffdf 00000000 00000000 00000000     ................
	...
2000d6a8:	39f19d3a 10ed18ee a5bc73f7 adfa9d39     :..9.....s..9...
2000d6b8:	adfaadfb a5fbb63b a5baa5fb a5baadfb     ....;...........
2000d6c8:	9d39a57a 9cf99d39 94f89539 84b79539     z.9.9...9...9...
2000d6d8:	8cf88cf8 a57a9d79 9d79adbb 8cf99d79     ....y.z...y.y...
2000d6e8:	953b8cf9 953b9d7c 953b953b 7cb9957c     ..;.|.;.;.;.|..|
2000d6f8:	6c377477 6c377478 7cb97478 7cb88d3a     wt7lxt7lxt.|:..|
2000d708:	747774b7 8cb97c78 84b994fa 5b757c38     .twtx|......8|u[
2000d718:	42b25b34 42f242b2 53745374 74776bf6     4[.B.B.BtStS.kwt
2000d728:	84b97cb8 5bf57478 74766c36 74b87cf8     .|..xt.[6lvt.|.t
2000d738:	7cb87cf9 8cf884f9 743684b8 73f47436     .|.|......6t6t.s
2000d748:	63b27c35 4aee5b70 29a831ea 29a839ea     5|.cp[.J.1.).9.)
2000d758:	29a929e9 21a921a9 18e629a9 94b331e8     .).).!.!.)...1..
2000d768:	ffdaffff 0000ffdf 00000000 00000000     ................
	...
2000d7a4:	ffdf0000 21707436 18ef08af a53a52f4     ....6tp!.....R:.
2000d7b4:	adbaa539 adfba5fa a5fba5fa a5ba9dba     9...............
2000d7c4:	a57aa57a a57aa57a adbb9d39 a579a579     z.z.z.z.9...y.y.
2000d7d4:	9d3a9d39 a57aa57a a5bba57a 957a9d7a     9.:.z.z.z...z.z.
2000d7e4:	8cf99539 9d7c8cf9 957c953b 8cfa8cfa     9.....|.;.|.....
2000d7f4:	7cb98cfa 74377437 6c376c37 84fa6c78     ...|7t7t7l7lxl..
2000d804:	8d3984f9 84b884b8 8cb88cf9 953a8cb8     ..9...........:.
2000d814:	8cba84f9 7cb984b9 63f663b6 84b86c36     .......|.c.c6l..
2000d824:	8cf984b8 8d3a8cf9 84f984f8 7cb87cb8     ......:......|.|
2000d834:	7d397cf9 84f974b8 8d3984f9 7c7784b7     .|9}.t....9...w|
2000d844:	73f57435 6bf373f4 4aad5b70 31e931e9     5t.s.s.kp[.J.1.1
2000d854:	29a82968 3a2a31ea 21692168 19681969     h).).1*:h!i!i.h.
2000d864:	9cf6426c c63abe3b e6fac619 eed0ffde     lB..;.:.........
	...
2000d8a4:	e71dffdf 197173f8 39f410f1 8c7773b6     .....sq....9.sw.
2000d8b4:	adbaad79 adfbadfb a5fba5fb a5baa5fb     y...............
2000d8c4:	a57aadbb a5baadbb 9d79a57a adfbadba     ..z.....z.y.....
2000d8d4:	a57aadfb adbcb5bc a57badbc 957a9d7b     ..z.......{.{.z.
2000d8e4:	8cf99579 a5bc9dbb 9d7ca5bd 84b9953b     y.........|.;...
2000d8f4:	7c7884b9 74777c78 6c787437 7cf97cb9     ..x|x|wt7txl.|.|
2000d904:	953a953a 953a9d7b 94f99d3a 9d3a9d3a     :.:.{.:.:...:.:.
2000d914:	9d7b9d3a 8d3a9d7b 8d3a953b 8d3a8d3a     :.{.{.:.;.:.:.:.
2000d924:	953a953a 8d39953a 8d3a8d3a 84f98d3a     :.:.:.9.:.:.:...
2000d934:	853a8d3a 853a8539 8cf98d3a 7c768cf8     :.:.9.:.:.....v|
2000d944:	73f57c36 6bf37434 3a6c63b1 216729a8     6|.s4t.k.cl:.)g!
2000d954:	21682168 3a2c3a2b 196a29eb 7c774b31     h!h!+:,:.)j.1Kw|
2000d964:	7c378cf9 84777c37 9d388cb7 ef1cce7b     ..7|7|w...8.{...
	...
2000d9a4:	defcffdf 11726377 4af61973 94777bf6     ....wcr.s..J.{w.
2000d9b4:	adfba579 a5bba5ba a5fb9d7a a5fba5ba     y.......z.......
2000d9c4:	adbba5bb a5bba57a a57aa57b a5baa57a     ....z...{.z.z...
2000d9d4:	adbba57a adbcadbc 957a9d7a a57a9539     z.......z.z.9.z.
2000d9e4:	95399539 a5fd9d7b 9dbca5bd 7cb88cfa     9.9.{..........|
2000d9f4:	74777477 6c367437 7cb96c36 84b97c79     wtwt7t6l6l.|y|..
2000da04:	8d3a8cf9 953a8d3a 9d7b953a ad7ba57b     ..:.:.:.:.{.{.{.
2000da14:	9dbb9d3a 953a953a 957b953a 957a8d3a     :...:.:.:.{.:.z.
2000da24:	957b8d3a 957a957a 8d798d39 8d7a8539     :.{.z.z.9.y.9.z.
2000da34:	957b8d3a 8d3a8d3a 8d3984f9 74367c77     :.{.:.:...9.w|6t
2000da44:	6bf56bf5 73f463f4 426c5b71 19261967     .k.k.c.sq[lBg.&.
2000da54:	21aa1927 31ee29ec 42f2196c 6bf77c79     '..!.).1l..By|.k
2000da64:	216e3231 216f18ee 5b353232 debb8436     12n!..o!225[6...
	...
2000daa4:	debcffdf 19736bb8 52f73236 9cb88c38     .....ks.62.R8...
2000dab4:	adbaad7a a5baadfb a5bba5bb a5bbadfb     z...............
2000dac4:	a57badbc a5bba5bb a57badbb a5bba5bb     ..{.......{.....
2000dad4:	adbbadfc 9d7badbc 9d7b9dbb 9d399d7a     ......{...{.z.9.
2000dae4:	9d3a9d79 9dbc9d7b 957c9dbc 7c788d3a     y.:.{.....|.:.x|
2000daf4:	6c377c78 63f56c37 7c786c36 84b984fa     x|7l7l.c6lx|....
2000db04:	84f98cfa 8d3b8d3a 9dbc957b 9d7ba5bc     ....:.;.{.....{.
2000db14:	953a9d7a 957b9d7a 957a957b 957b957b     z.:.z.{.{.z.{.{.
2000db24:	957b957b 957a9dbc 957a95bb 957a957a     {.{...z...z.z.z.
2000db34:	8d3a957b 8d39957a 84f88d3a 63f57476     {.:.z.9.:...vt.c
2000db44:	63b46bf5 6bf36bf4 4aad63b1 216729a8     .k.c.k.k.c.J.)g!
2000db54:	426e31ea 216c3a2e 63b521ae 00aa42b2     .1nB.:l!.!.c.B..
2000db64:	086a006a 006a08ab 112d00ab 8cb54ab1     j.j...j...-..J..
2000db74:	0000ffff 00000000 00000000 00000000     ................
	...
2000dba4:	d6bbffdf 29f473f8 5b383236 94b78c39     .....s.)628[9...
2000dbb4:	adfaa538 adbba5ba adfca57a a5bba5bb     8.......z.......
2000dbc4:	a5bb9d7b adfca5bb adfcadfc adfcadfc     {...............
2000dbd4:	adbba5bb 9d7b9d7b 9dbb953a 95399d3a     ....{.{.:...:.9.
2000dbe4:	a57a9539 9d7ba5bb 9d7c957b 747784f9     9.z...{.{.|...wt
2000dbf4:	6c367437 5bb463f5 6bf75333 8cfb84ba     7t6l.c.[3S.k....
2000dc04:	8d3b8cfa 8d7b84fa 957b853a 9d7b957b     ..;...{.:.{.{.{.
2000dc14:	9d7b957a 957b957b 957c957b 957c957b     z.{.{.{.{.|.{.|.
2000dc24:	957b957b 9dbb957b 9dbb957a 9dbb95bb     {.{.{...z.......
2000dc34:	957a957a 957a8d39 7cb78539 6bf56bf5     z.z.9.z.9..|.k.k
2000dc44:	6bf563b4 63b363b3 426d5b30 21682168     .c.k.c.c0[mBh!h!
2000dc54:	5b7242ae 216d322f 3a7129ef 18eb10eb     .Br[/2m!.)q:....
2000dc64:	10aa10ea 08aa0869 006b006a 52f2192d     ....i...j.k.-..R
2000dc74:	ffdfa558 00000000 00000000 00000000     X...............
	...
2000dca4:	d69bffdf 3235847a 63393a77 843594ba     ....z.52w:9c..5.
2000dcb4:	adfa9d78 a5baadfb a5bbadfc adfca5fc     x...............
2000dcc4:	a5bbadfd adfca5bc adfcadfd 9d7ba5bc     ..............{.
2000dcd4:	a57ba5bc 9d7ba57b 957b9d7c 8cf8953a     ..{.{.{.|.{.:...
2000dce4:	adbba57a a5bcb63d 957ca5bc 6c3784f9     z...=.....|...7l
2000dcf4:	6c367477 5b746c36 5b755374 7cba6c38     wt6l6lt[tSu[8l.|
2000dd04:	853b8d3b 853b8d7c 8d3b853b 957b957c     ;.;.|.;.;.;.|.{.
2000dd14:	9dbc9dbc 957b9dbc 957c957c 957b957c     ......{.|.|.|.{.
2000dd24:	957b957c 9dbb9dbc 9dbb9dbc 9dbba5fc     |.{.............
2000dd34:	957a9dbb 957a957a 7c778d38 63b47436     ..z.z.z.8.w|6t.c
2000dd44:	63b46bf5 5b7263b4 426c6371 29a92168     .k.c.cr[qclBh!.)
2000dd54:	4af15b31 21ae322f 10eb29af 31ae192c     1[.J/2.!.)..,..1
2000dd64:	212c31ae 08a910aa 006b08aa 323210ee     .1,!......k...22
2000dd74:	f71c8477 00002309 00000000 00000000     w....#..........
	...
2000dda4:	f75c0000 3a76847a 637a29f6 8435947a     ..\.z.v:.)zcz.5.
2000ddb4:	adfa94f7 adbba5ba a5bba57a a5fca5bb     ........z.......
2000ddc4:	a5bba5bc a5bc9d7b a5bc9d7b 9d7b9d7b     ....{...{...{.{.
2000ddd4:	a5bca57c 9d7c9d3b 8d3a957c 94f984b8     |...;.|.|.:.....
2000dde4:	cebfadbb b63dcebf 9d7c9d7c 6c367477     ......=.|.|.wt6l
2000ddf4:	74376c36 63b563f6 53355b75 6c384b34     6l7t.c.cu[5S4K8l
2000de04:	853b74ba 853b853b 8d7c8d3b 8d7c8d3b     .t;.;.;.;.|.;.|.
2000de14:	9dbd8d3b 9dbc9d7c 8d3c957c 957c8d3c     ;...|...|.<.<.|.
2000de24:	957b957b 9d7b957b 9dbb957b 957a957a     {.{.{.{.{...z.z.
2000de34:	957a953a 8cf98cf9 74767c77 63b463f5     :.z.....w|vt.c.c
2000de44:	63b45b73 5b7263b3 3a2c5b30 3a6c10e7     s[.c.cr[0[,:..l:
2000de54:	3ab05331 29ef29ef 08aa112b 31ef10eb     1S.:.).)+......1
2000de64:	3a713a30 08a9192c 10ac08aa 327410ee     0:q:,.........t2
2000de74:	c5f86bb5 0000ffdf 00000000 00000000     .k..............
	...
2000dea8:	3a7694fc 6b7b3a37 847694fc a5f99d78     ..v:7:{k..v.x...
2000deb8:	a5baadfa a5bba57b a5bba5bc 9dbca5bc     ....{...........
2000dec8:	9dbca5bc 9dbca5bc 9d7ba5bc a57ca5bc     ..........{...|.
2000ded8:	a5bda5bd 7c78957c 9d7a8cf9 c67dbe3d     ....|.x|..z.=.}.
2000dee8:	c67ed6ff 953b9d7b 6c367cb8 74376c37     ..~.{.;..|6l7l7t
2000def8:	63b67437 533563b7 53b642f4 7cfb6c79     7t.c.c5S.B.Syl.|
2000df08:	84fb8d3c 8d3c953c 8d7c957c 957c957c     <...<.<.|.|.|.|.
2000df18:	957c9d7c 8d3c9dbd 8d3c8d3c 957b9dbc     |.|...<.<.<...{.
2000df28:	957b9dbc 957b9dbc 8cf99d7b 8cf98d3a     ..{...{.{...:...
2000df38:	7c778cf9 6c357c77 5b7363f4 5b7363b4     ..w|w|5l.cs[.cs[
2000df48:	5b7263b3 29aa4aae 4aef1927 2a2f5b72     .cr[.J.)'..Jr[/*
2000df58:	29ee3271 08a908ea 21ae192c 42b43a72     q2.)....,..!r:.B
2000df68:	10eb3231 10ac10eb 3ab521b1 bd776bb6     12.......!.:.kw.
2000df78:	0000ffdf 00000000 00000000 00000000     ................
	...
2000dfa8:	52f8ad9c 73fb4277 9d399cfc adf99537     ...RwB.s..9.7...
2000dfb8:	adbbadba a5bca57a a5bca57b 9d7b9d7b     ....z...{...{.{.
2000dfc8:	a5bc9d7b a5bc9d7b adbca5bc adfea5bc     {...{...........
2000dfd8:	957ca5bd 7c787478 9d7a953a 9d3a94f9     ..|.xtx|:.z...:.
2000dfe8:	a5bca57c 8cfb84fa 74377cb9 74776c36     |........|7t6lwt
2000dff8:	74387477 5bb66bf7 53754af3 8d3c6c79     wt8t.k.[.JuSyl<.
2000e008:	8d3b84fb 8d3b84fb 8d7c8d3c 957c8d3c     ..;...;.<.|.<.|.
2000e018:	8d7c8d3b 957c957c 8d3c84fb 8d3b8cfb     ;.|.|.|...<...;.
2000e028:	957b957b 957b953b 8cf98cf9 84b884b9     {.{.;.{.........
2000e038:	7c777c77 63f46bf5 5b735373 5b735373     w|w|.k.csSs[sSs[
2000e048:	53305b72 31ea426c 53301969 29ef42b0     r[0SlB.1i.0S.B.)
2000e058:	322f3271 10ea00a9 21af112c 3a732a31     q2/2....,..!1*s:
2000e068:	216f3a73 10ad086b 42f62171 b5776bb5     s:o!k...q!.B.kw.
2000e078:	0000ffdf 00000000 00000000 00000000     ................
	...
2000e0a8:	7bfaef7c 7c7b5b7a a53ba57c a5b9a579     |..{z[{||.;.y...
2000e0b8:	adbaadba a5bbadbb a5bcadbc 9d3ba5bc     ..............;.
2000e0c8:	a57ca57c a5bcadfd b5fcadbc a5fdb63d     |.|.........=...
2000e0d8:	7cb99dbc 94fa7c78 84b7a53a 74387437     ...|x|..:...7t8t
2000e0e8:	84ba84ba 6c387479 74377438 7c787c77     ....yt8l8t7tw|x|
2000e0f8:	7c7984b9 6bf77438 42f25bb5 84fc63f7     ..y|8t.k.[.B.c..
2000e108:	957c957d 8d3b957c 957d957c 8d7c957d     }.|.|.;.|.}.}.|.
2000e118:	8d3c957d 8d3c8d7c 84fb8d7c 84fb84fb     }.<.|.<.|.......
2000e128:	84fa8cfb 84fa8d3b 7cb884f9 74777cb8     ....;......|.|wt
2000e138:	74367c77 5b736bf5 5b735b73 5b735b73     w|6t.ks[s[s[s[s[
2000e148:	42ee5b72 29a9426c 4af129eb 21ae3270     r[.BlB.).).Jp2.!
2000e158:	4af242b2 192c216d 29ef21ae 42b33a72     .B.Jm!,..!.)r:.B
2000e168:	21b14ab4 08ef08ae 4b773234 9d366c36     .J.!....42wK6l6.
2000e178:	0000ffff 00000000 00000000 00000000     ................
	...
2000e1a8:	8c7cf79c 84bb6379 9cfa9d3c a5b994f8     ..|.yc..<.......
2000e1b8:	adbaa579 adbba5ba a57ba57b 9d7c9d7b     y.......{.{.{.|.
2000e1c8:	a5bd9d7b adfda5bd b63dadbc 957cadfd     {.........=...|.
2000e1d8:	747884fa 9d3a8479 74348cb7 63b663b4     ..xty.:...4t.c.c
2000e1e8:	6bf76bf7 4b335334 5b744af2 7c786bf6     .k.k4S3K.Jt[.kx|
2000e1f8:	847a7c79 7c787c79 3ab263f7 7cbb4b35     y|z.y|x|.c.:5K.|
2000e208:	957c8d3c 9dbd957c 957d957c 957d8d3c     <.|.|...|.}.<.}.
2000e218:	8d3c8d7c 853b84fb 84fb84fb 7cba7cba     |.<...;......|.|
2000e228:	7cb97479 7cb97cb9 84b97cb8 74777477     yt.|.|.|.|..wtwt
2000e238:	6bf57436 5bb363b4 5b735372 5b725372     6t.k.c.[rSs[rSr[
2000e248:	3aad5330 31ea29a9 4af13a6d 29ef29ee     0S.:.).1m:.J.).)
2000e258:	52f342b2 31ef31ef 29f021ae 4af43a72     .B.R.1.1.!.)r:.J
2000e268:	21b142b4 21b300ae 63ba4af7 a5766bf6     .B.!...!.J.c.kv.
2000e278:	0000ffdf 00000000 00000000 00000000     ................
	...
2000e2a8:	94bcf79b 7c7973fa 8cbaa57d a57984b8     .....sy|}.....y.
2000e2b8:	a5baadba a5baadfb a5bba5bb 9d7b9d7b     ............{.{.
2000e2c8:	9d7ca5bd adfda5bc adbcb63d 8d3ba5bd     ..|.....=.....;.
2000e2d8:	6c377479 8cb894fa 6bb27435 5af36bb4     yt7l....5t.k.k.Z
2000e2e8:	42b252f3 322f3a70 3a703a2f 53344af2     .R.Bp:/2/:p:.J4S
2000e2f8:	73f863b6 7c79847a 3a727438 743a42b4     .c.sz.y|8tr:.B:t
2000e308:	957d8cfc 957c9dbd 957d9dbd 8d3c8d3c     ..}...|...}.<.<.
2000e318:	853b957d 84fb853b 7cfb853b 74b97cba     }.;.;...;..|.|.t
2000e328:	6c787479 6c7874b9 7c787cb9 74367c78     ytxl.txl.|x|x|6t
2000e338:	6bf57436 5bb363b4 53325bb3 53315b72     6t.k.c.[.[2Sr[1S
2000e348:	3a6d5331 21a929ea 533242ae 322f322f     1Sm:.).!.B2S/2/2
2000e358:	3a703230 42714ab2 29f03230 4af442b2     02p:.JqB02.).B.J
2000e368:	21b242f5 323508f0 5b785b7a b5f77436     .B.!..52z[x[6t..
2000e378:	0000ffdf 00000000 00000000 00000000     ................
	...
2000e3a8:	ad7cffdb 84b97c7a 847aa57d 9d786bf6     ..|.z|..}.z..kx.
2000e3b8:	adbaadb9 a5bba5ba a5bb9d7a 9d7b953a     ........z...:.{.
2000e3c8:	9d7c9d7c adfc9d7c 9d7ca5bc 7cbb8d3b     |.|.|.....|.;..|
2000e3d8:	6c385bb7 63748478 426d3a2e 52b15af0     .[8lx.tc.:mB.Z.R
2000e3e8:	216c296d 216c196b 29ab216b 21ed216b     m)l!k.l!k!.)k!.!
2000e3f8:	52f33270 6bb75b34 42b463b7 5b77196f     p2.R4[.k.c.Bo.w[
2000e408:	8d3d7cbb 8d3c8d3c 957d957c 957c8d3c     .|=.<.<.|.}.<.|.
2000e418:	953c953c 8d3b8d3b 84fa84fa 74b974b9     <.<.;.;......t.t
2000e428:	6c786c78 6c786c78 74376c37 6bf66c36     xlxlxlxl7l7t6l.k
2000e438:	6bf563b4 63b35b73 5b735b72 53314af0     .c.ks[.cr[s[.J1S
2000e448:	4aee5330 29aa3a2c 6bb442af 322f42b1     0S.J,:.).B.k.B/2
2000e458:	216d08ab 323031f0 29af21af 53353a72     ..m!.102.!.)r:5S
2000e468:	21b24af5 42b708f0 5b7763ba df3b7c35     .J.!...B.cw[5|;.
2000e478:	0000d6d9 00000000 00000000 00000000     ................
	...
2000e4a8:	adbcfffc 84f98cba 7c7ba5bd 953763f6     ..........{|.c7.
2000e4b8:	a5b9b5fa adfbadfb 9d79a5bb 9d3b9d7b     ..........y.{.;.
2000e4c8:	9d7c9d7c a5bca5bc 953ca5bc 6c3a8cfc     |.|.......<...:l
2000e4d8:	5b765b77 29ae6374 002308a8 316b10a6     w[v[tc.)..#...k1
2000e4e8:	192a31ac 1929216a 086510a7 00650865     .1*.j!)...e.e.e.
2000e4f8:	216c10e7 4ab23a30 4af55b36 3a7210ed     ..l!0:.J6[.J..r:
2000e508:	84bb7c7b 957d953d 8d3c9dbd 953c8d3c     {|..=.}...<.<.<.
2000e518:	8d3c957d 8cfb953c 8cfb8d3c 74b984fa     }.<.<...<......t
2000e528:	747874b9 6c377478 6bf66c37 63b56c36     .txtxt7l7l.k6l.c
2000e538:	63b46bf5 5b7263b4 5b7263b3 53305331     .k.c.cr[.cr[1S0S
2000e548:	42ad5330 52ef52ef 74356372 216d5b73     0S.B.R.Rrc5ts[m!
2000e558:	08ab08aa 192d192d 21af196e 53354273     ....-.-.n..!sB5S
2000e568:	19715336 4af81131 5b346bb9 ffde9d38     6Sq.1..J.k4[8...
	...
2000e5a8:	bdfd0000 8d398cfa 7c7b9d7c 95375b76     ......9.|.{|v[7.
2000e5b8:	a5b9a5b9 adfba5b9 9d7aa5ba 9d7b9d7b     ..........z.{.{.
2000e5c8:	9d7c9d3b 9d7b953b 8cfb953a 5bb96c39     ;.|.;.{.:...9l.[
2000e5d8:	5b364af6 10ec4270 00240028 18a60824     .J6[pB..(.$.$...
2000e5e8:	21aa2129 10e71928 08630864 00220022     )!.!(...d.c.".".
2000e5f8:	00250021 29ae10e9 4ab43a31 196e08ab     !.%....)1:.J..n.
2000e608:	7c7b63b8 957d8d3c 8d3b8d3b 8d3c8cfb     .c{|<.}.;.;...<.
2000e618:	84fa84ba 8d3b8cfb 84fa8cfb 74787cb9     ......;......|xt
2000e628:	74786c37 6c377478 63b563f5 6bf563b4     7lxtxt7l.c.c.c.k
2000e638:	5b735b73 5b725b72 5b325332 52f05331     s[s[r[r[2S2[1S.R
2000e648:	4aae4aae 5b314aae 84776bb3 10ea6373     .J.J.J1[.kw.sc..
2000e658:	08ab0069 10ec08ab 196e08ec 5b3629f0     i.........n..)6[
2000e668:	11304ab5 533800b0 6bb45335 ff9bce7c     .J0...8S5S.k|...
	...
2000e6a8:	dedd0000 8cfa9d3a 747a9dbc 84765b37     ....:.....zt7[v.
2000e6b8:	a5b9b5fa a5baadba a5bbadbb 9d7ba5bc     ..............{.
2000e6c8:	9d7ba5bc 953a9d7b 7cba8d3b 53766c39     ..{.{.:.;..|9lvS
2000e6d8:	7c795b76 216d7437 10a80869 63315af0     v[y|7tm!i....Z1c
2000e6e8:	19283a2d 006510e7 00240064 086308a5     -:(...e.d.$...c.
2000e6f8:	00240063 18eb0867 31f031f0 112c00aa     c.$.g....1.1..,.
2000e708:	747a5bb7 84fb84fb 853c8d3c 84fb8d3c     .[zt....<.<.<...
2000e718:	7cba84fb 84fb84fb 63f77479 7c797478     ...|....yt.cxty|
2000e728:	74387cb9 6c377c78 5bb463f6 63b463f5     .|8tx|7l.c.[.c.c
2000e738:	5b735b73 5b736373 53315b32 4aaf5b31     s[s[scs[2[1S1[.J
2000e748:	4aae4aae 52f04aef 7c3673f4 08a95b33     .J.J.J.R.s6|3[..
2000e758:	08ab08aa 10ec10ec 10ec10ec 52f529f0     .............).R
2000e768:	08af4ab4 63781931 9cf66373 50c0ffff     .J..1.xcsc.....P
	...
2000e7a8:	ffdc0000 9cbba4da 84ba9d7c 73f552f7     ........|....R.s
2000e7b8:	adb9adb9 a5ba9d78 9d7ba57a a57b953a     ....x...z.{.:.{.
2000e7c8:	9d3a9d7a 8d3b953a 6c397cba 63f75bf7     z.:.:.;..|9l.[.c
2000e7d8:	957c7478 63749d7c 3a2f192b 8cb87bf6     xt|.|.tc+./:.{..
2000e7e8:	5b318c76 08a62169 196a08a7 21a929ab     v.1[i!....j..).!
2000e7f8:	002508a5 10a90026 216e212d 112c00ab     ..%.&...-!n!..,.
2000e808:	7cba5375 84fb7cba 853c84fb 7cbb7cfb     uS.|.|....<..|.|
2000e818:	7cfb74ba 747974ba 5bb653b6 7c796c37     .t.|.tyt.S.[7ly|
2000e828:	74377478 6c366c37 63f563f5 63b463f5     xt7t7l6l.c.c.c.c
2000e838:	63735b32 63735b32 5b3152f1 42ae4aef     2[sc2[sc.R1[.J.B
2000e848:	4aae426d 5b314aae 7c766bf4 18eb5333     mB.J.J1[.kv|3S..
2000e858:	10ab0069 10eb08ab 10ec08ab 533421ae     i............!4S
2000e868:	00ad3232 63773a34 df3b73f3 0000f799     22..4:wc.s;.....
	...
2000e8a8:	ffdc0000 9cfbb57b 8cfaa5bc 7c3673f9     ....{........s6|
2000e8b8:	adbaadb9 a5799d79 9d7aa5bb 9d7a9d7b     ....y.y...z.{.z.
2000e8c8:	94faa57b 84fa94fa 6c387cba 7c796c38     {........|8l8ly|
2000e8d8:	953b957c 847894fa 73b46bb4 7c368476     |.;...x..k.sv.6|
2000e8e8:	94f88cb7 6bb38476 533163b4 4aef5331     ....v..k.c1S1S.J
2000e8f8:	10a831eb 10ea10a9 323029ae 2a3029ef     .1.......)02.)0*
2000e908:	7cba7479 84fb84fb 7cfb853c 7cfb84fc     yt.|....<..|...|
2000e918:	747a7cfb 64387479 6c386c38 7c787c79     .|ztyt8d8l8ly|x|
2000e928:	6bf67478 63f56c36 6c366c36 5bb363b4     xt.k6l.c6l6l.c.[
2000e938:	5b726bb4 5b726372 52f05b31 4aae52f0     .kr[rcr[1[.R.R.J
2000e948:	52ee4aae 637252f0 74367435 3a306bb5     .J.R.Rrc5t6t.k0:
2000e958:	08aa10eb 08ab10eb 10ec10eb 4af429ef     .............).J
2000e968:	00ad31f2 637552f6 f79db5fa 0000f793     .1...Ruc........
	...
2000e9a8:	ffda0000 9cfbbd9b 9dbb953a 8cb78cfa     ........:.......
2000e9b8:	adfa9d38 a5baa579 a5bb9d7a 9d7a9d7a     8...y...z...z.z.
2000e9c8:	94fa953a 7cb984b9 7c797438 9d7c84fa     :......|8ty|..|.
2000e9d8:	8cf994fa 8cb784b8 7c357c35 847773f4     ........5|5|.sw.
2000e9e8:	84b873f5 953a94f9 63b58d3a 63b45373     .s....:.:..csS.c
2000e9f8:	4af15331 533352f1 63f65b74 6c785bb6     1S.J.R3St[.c.[xl
2000ea08:	8d3b8d3b 7cba7cba 7cba6c79 84fb7cbb     ;.;..|.|yl.|.|..
2000ea18:	7479747a 6c796c38 7cb97479 7cb97478     ztyt8lylyt.|xt.|
2000ea28:	6c377478 63f563f5 74776bf6 5bb35bb4     xt7l.c.c.kwt.[.[
2000ea38:	5b325b72 5b3152f0 52f05330 4aae4aae     r[2[.R1[0S.R.J.J
2000ea48:	4aae4aae 6bb352ef 5b7463b4 5b3452f3     .J.J.R.k.ct[.R4[
2000ea58:	08aa29ef 10eb08ab 192c08aa 4af431f0     .)........,..1.J
2000ea68:	112e1970 8cb64ab2 ffdde71d 00000000     p....J..........
	...
2000eaa8:	ffd90000 9cfac67c a5bb94f9 94f8adbc     ....|...........
2000eab8:	adba9d38 a57aadfa 9d7aa57a 9d7aa57a     8.....z.z.z.z.z.
2000eac8:	84b9953a 84b984b9 9d7b94fa 8cf9953a     :.........{.:...
2000ead8:	7c3684b8 74357c77 6bb373f3 7c367435     ..6|w|5t.s.k5t6|
2000eae8:	63b46bf5 84b97c77 5bb57478 6bf55bb4     .k.cw|..xt.[.[.k
2000eaf8:	63b463b4 6bf67c77 6c376c36 7cba7cb9     .c.cw|.k6l7l.|.|
2000eb08:	84fb8d3b 74797cba 6c797479 74ba747a     ;....|ytytylzt.t
2000eb18:	747974ba 74b97cba 74787cba 74787cb9     .tyt.|.t.|xt.|xt
2000eb28:	6c377477 63f56c36 63f57437 5bb363b4     wt7l6l.c7t.c.c.[
2000eb38:	533163b3 4aef5330 4aef52f0 52ef4aee     .c1S0S.J.R.J.J.R
2000eb48:	4aae5b30 6bb45b31 3a706374 5b753231     0[.J1[.ktcp:12u[
2000eb58:	192c6376 08ab10eb 216e08ab 42734ab3     vc,.......n!.JsB
2000eb68:	29ae196f c63a6372 0000ffff 00000000     o..)rc:.........
	...
2000eba8:	ffda0000 ad7bbe1a a5bb94b9 a57ab5fd     ......{.......z.
2000ebb8:	adfa94f7 a5baa5b9 9d7aa57a 953a9539     ........z.z.9.:.
2000ebc8:	7c7984b9 95397c78 94f99d7a 84b77c36     ..y|x|9.z...6|..
2000ebd8:	73f57c36 6bb36bf4 74346bb3 6bf56bf4     6|.s.k.k.k4t.k.k
2000ebe8:	53325bb3 63b45332 63b663b6 5bb45b74     .[2S2S.c.c.ct[.[
2000ebf8:	63b45332 63b463b5 74775bb4 74787478     2S.c.c.c.[wtxtxt
2000ec08:	74796c38 7cba7479 6c796c79 74796c38     8lytyt.|ylyl8lyt
2000ec18:	74b97479 74786c78 7cb97478 74777477     yt.txlxtxt.|wtwt
2000ec28:	6c376c37 63f563f5 533363f5 5b734b32     7l7l.c.c.c3S2Ks[
2000ec38:	5b715b72 532f52ef 4aae42ae 52ef4aae     r[q[.R/S.B.J.J.R
2000ec48:	52ef52ef 73b45b30 216e4ab2 4b3421af     .R.R0[.s.Jn!.!4K
2000ec58:	216e6376 08aa006a 427108eb 29f052f4     vcn!j.....qB.R.)
2000ec68:	4ab0196e ffff9cf6 0000ffdf 00000000     n..J............
	...
2000eca8:	ffda0000 adbcc6ba adbcadbd a57ab5fc     ..............z.
2000ecb8:	a5b99538 a5baadba a57badfb 84b99d3a     8.........{.:...
2000ecc8:	7cb984b9 8cf88cf9 7bf58cf7 84367bf5     ...|.......{.{6.
2000ecd8:	73f47c35 73f47c35 7c357c35 74767c76     5|.s5|.s5|5|v|vt
2000ece8:	3aef5bb2 5b745332 5b746bf7 4af14af2     .[.:2St[.kt[.J.J
2000ecf8:	63746373 5b736374 6bf563b4 6c377437     sctctcs[.c.k7t7l
2000ed08:	74796c38 7cba7cba 6c7974ba 6c386c79     8lyt.|.|.tylyl8l
2000ed18:	6c787479 64376c38 6c7874b9 74787477     ytxl8l7d.txlwtxt
2000ed28:	6c367477 63f56c36 53335bb4 53315373     wt6l6l.c.[3SsS1S
2000ed38:	53305371 4aef5b30 42ae4aee 4aae4aee     qS0S0[.J.J.B.J.J
2000ed48:	52ef4aee 6b736b72 192e3a30 327229f0     .J.Rrksk0:...)r2
2000ed58:	10eb3a71 08aa08aa 52f429af 196e42b2     q:.......).R.Bn.
2000ed68:	73f33230 ffdfd6bb 00000000 00000000     02.s............
	...
2000eda8:	ffde0000 bdfbce9a a5bcb5bc a5799d7b     ............{.y.
2000edb8:	a5798cb6 9d799538 9d3aa57a 84f98cf9     ..y.8.y.z.:.....
2000edc8:	8cf97cb8 7c758cf8 7c3573f4 73f473f4     .|....u|.s5|.s.s
2000edd8:	7c3573f4 8c777c36 73f67bf6 74367436     .s5|6|w..{.s6t6t
2000ede8:	533242f1 5b345b34 5b355b35 53334ab2     .B2S4[4[5[5[.J3S
2000edf8:	5b745373 5b735333 63b45b73 63b46bb5     sSt[3Ss[s[.c.k.c
2000ee08:	747763b5 74786c37 747974b9 6c386438     .cwt7lxt.tyt8d8l
2000ee18:	63f763f7 6c3763f6 74786c37 74376bf6     .c.c.c7l7lxt.k7t
2000ee28:	6c366c36 6bf56bf5 63b463b4 5b715b73     6l6l.k.k.c.cs[q[
2000ee38:	532f4aef 4aee4aee 4aae4aae 52ef4aef     .J/S.J.J.J.J.J.R
2000ee48:	52f0426d 63b55b72 21ef3ab1 3a7129ef     mB.Rr[.c.:.!.)q:
2000ee58:	42303a71 29ee31ee 4ab34272 31ef21af     q:0B.1.)rB.J.!.1
2000ee68:	9d3742b0 0000f79e 00000000 00000000     .B7.............
	...
2000eeac:	bdfaffde a5bcb5bc a5baadfd 9d7894f7     ..............x.
2000eebc:	9d799d78 8cf89d7a 84b884f9 8cf88cf8     x.y.z...........
2000eecc:	73f48cb7 7c357c34 73f37c35 7bf573f4     ...s4|5|5|.s.s.{
2000eedc:	84768c77 6bf57c35 8cf98cf8 63b55b74     w.v.5|.k....t[.c
2000eeec:	73f58477 6bf68478 53344b33 53735bb4     w..sx..k3K4S.[sS
2000eefc:	63f55bb4 5b735bb4 5b7263b4 6bf563b3     .[.c.[s[.cr[.c.k
2000ef0c:	6c366c36 747974b8 63f76438 5bf66438     6l6l.tyt8d.c8d.[
2000ef1c:	6bf66c37 6c377477 6c377478 6c367437     7l.kwt7lxt7l7t6l
2000ef2c:	6c367436 63b37435 5b3163b3 4aef5330     6t6l5t.c.c1[0S.J
2000ef3c:	4aee52ef 4aae532f 4aef5330 52f05330     .R.J/S.J0S.J0S.R
2000ef4c:	5bb45b73 32704b33 4af33a71 6b746b75     s[.[3Kp2q:.Juktk
2000ef5c:	3a705b32 21b03a72 427131f0 c67b73f4     2[p:r:.!.1qB.s{.
2000ef6c:	0000ffbe 00000000 00000000 00000000     ................
	...
2000efac:	bdfa0000 adbda53a adbaadfd 9d378cb6     ....:.........7.
2000efbc:	95389d78 94f98cf8 7c777c77 94f884b7     x.8.....w|w|....
2000efcc:	73f37434 84757c35 7c347434 73f473f3     4t.s5|u.4t4|.s.s
2000efdc:	84767c36 84b77c75 a5bb9d7a 84b784b7     6|v.u|..z.......
2000efec:	95798d38 7cb7957a 53b44b33 53334b74     8.y.z..|3K.StK3S
2000effc:	5bb45333 53325373 5b735372 5bb45b72     3S.[sS2SrSs[r[.[
2000f00c:	63f55b73 6c3763f6 5bf65bf6 64375bf6     s[.c.c7l.[.[.[7d
2000f01c:	6c3763f6 6c376c37 6c366bf6 74366c36     .c7l7l7l.k6l6l6t
2000f02c:	6bf563f5 63b363b4 5b315b31 52ef5330     .c.k.c.c1[1[0S.R
2000f03c:	4aee52ef 5b3052ef 533052ef 5b304aaf     .R.J.R0[.R0S.J0[
2000f04c:	53335b72 42b242b2 4af33ab2 637563b5     r[3S.B.B.:.J.cuc
2000f05c:	3a704af2 29b0196f 53324272 ffff9d36     .Jp:o..)rB2S6...
	...
2000f0ac:	bdda0000 adbcad7b a579b5fd 95378cb6     ....{.....y...7.
2000f0bc:	84759538 8cb88cf7 84778cf8 8cb78476     8.u.......w.v...
2000f0cc:	7c347c35 7c348476 74337c34 73f47c75     5|4|v.4|4|3tu|.s
2000f0dc:	8cb88476 953a9d3a a5bc953a 9d7cadfd     v...:.:.:.....|.
2000f0ec:	9dbb9dbc 74b88d3a 5bf56c37 53745bf5     ....:..t7l.[.[tS
2000f0fc:	4af24b33 4af15373 5b735372 5b7363b4     3K.JsS.JrSs[.cs[
2000f10c:	5b745bb4 5bb45bb4 63f663f6 63f66437     .[t[.[.[.c.c7d.c
2000f11c:	6bf663f6 63f66c37 6c366c36 63f56c36     .c.k7l.c6l6l6l.c
2000f12c:	5b7363b4 5b325b73 52f05b71 53305b31     .cs[s[2[q[.R1[0S
2000f13c:	52ef532f 532f5b30 5b305b30 5b3152ef     /S.R0[/S0[0[.R1[
2000f14c:	3a705b73 32713ab1 3a302a30 6bb56375     s[p:.:q20*0:uc.k
2000f15c:	29ef4af2 4ab33a31 7c3452f2 ef9bd6fb     .J.)1:.J.R4|....
	...
2000f1ac:	d6bc0000 a57bad39 a539a57b 95378cb6     ....9.{.{.9...7.
2000f1bc:	8cb68cf6 84b784b7 8cb78cb7 84b67c35     ............5|..
2000f1cc:	7c358476 7c346bf3 63b26bf3 847773f4     v.5|.k4|.k.c.sw.
2000f1dc:	8c798477 63357bf8 633652b3 7c3a6bb8     w.y..{5c.R6c.k:|
2000f1ec:	52f66378 53364274 7cb87439 537463f5     xc.RtB6S9t.|.ctS
2000f1fc:	4b335334 4af142f2 537242f0 63b45b73     4S3K.B.J.BrSs[.c
2000f20c:	5bb45bb4 53735373 5bf55373 5bf65bf6     .[.[sSsSsS.[.[.[
2000f21c:	63f65bb5 63f663b6 6c3663f5 63b45bb4     .[.c.c.c.c6l.[.c
2000f22c:	5bb35372 53325332 53305331 5b3052ef     rS.[2S2S1S0S.R0[
2000f23c:	5b70532f 532f52ef 5b305b30 5b314aae     /Sp[.R/S0[0[.J1[
2000f24c:	3ab05332 42b33a71 42723230 63b55b34     2S.:q:.B02rB4[.c
2000f25c:	53335333 5af35b34 b5f86331 a54dffde     3S3S4[.Z1c....M.
	...
2000f2ac:	ffdf0000 94f8b5ba 9cf89d39 94f694f7     ........9.......
2000f2bc:	84b68cf7 84b78cb7 84b68cf7 7cb684b6     ...............|
2000f2cc:	743484b6 63b36bb3 6bb363b3 7c377c36     ..4t.k.c.c.k6|7|
2000f2dc:	4a726375 297039b1 29702970 31f231f2     ucrJ.9p)p)p).1.1
2000f2ec:	10ef2171 29b118ef 53344273 4b3463b5     q!.....)sB4S.c4K
2000f2fc:	53345375 42f14af2 42b042f1 53734af1     uS4S.J.B.B.B.JsS
2000f30c:	53735b73 53325bb4 4b735373 537453b4     s[sS.[2SsSsK.StS
2000f31c:	5bb55bb5 63f56bf7 63f56c35 5bb463f4     .[.[.k.c5l.c.c.[
2000f32c:	537263b3 53315372 53315b31 5b306371     .crSrS1S1[1Sqc0[
2000f33c:	532f5b70 5b305b70 5b305b70 5b715b30     p[/Sp[0[p[0[0[q[
2000f34c:	4af263b4 4af342b2 42b24af4 5b345b34     .c.J.B.J.J.B4[4[
2000f35c:	6bb66bb5 63316374 efbda536 0000ff5c     .k.ktc1c6...\...
	...
2000f3ac:	ffdf0000 a579d69d 84758c76 94f784b5     ......y.v.u.....
2000f3bc:	7c758475 8cb78476 84b684b6 84b67c75     u.u|v.......u|..
2000f3cc:	63b36bf3 52f15332 52f142b0 39f04ab1     .k.c2S.R.B.R.J.9
2000f3dc:	10ac18ed 10ad10ac 213010ad 297131b2     ..........0!.1q)
2000f3ec:	08ac08ac 18ee10ad 10ad002b 3231216f     ........+...o!12
2000f3fc:	537442f3 3ab04af2 326e326e 5b733aaf     .BtS.J.:n2n2.:s[
2000f40c:	53325b73 5b725332 4b734b32 5bf54bb3     s[2S2Sr[2KsK.K.[
2000f41c:	6c3763f5 5bb563f6 5bb453b3 5bb363f4     .c7l.c.[.S.[.c.[
2000f42c:	53714b31 5b325331 5b725331 5b306371     1KqS1S2[1Sr[qc0[
2000f43c:	5b7052ef 5b305b30 5b3052ef 63725b30     .Rp[0[0[.R0[0[rc
2000f44c:	4af24af2 42f342b2 42b342b3 52f34271     .J.J.B.B.B.BqB.R
2000f45c:	6bb56374 94b56332 ffdde75c 00000000     tc.k2c..\.......
	...
2000f4b0:	e71dffff 8cb4adb7 8cb794f6 7c748cf7     ..............t|
2000f4c0:	8cb77c76 8cb79538 7c7684b6 42f05bb3     v|..8.....v|.[.B
2000f4d0:	196b322e 192b192a 18ec18ec 41f2316f     .2k.*.+.....o1.A
2000f4e0:	42334a34 297139f3 10ae2131 10ad10ad     4J3B.9q)1!......
2000f4f0:	10ad18ee 086c18ad 006b086b 196d10ec     ......l.k.k...m.
2000f500:	21ad31ef 21ec19ac 4af13ab0 53325372     .1.!...!.:.JrS2S
2000f510:	4b315372 4b724b32 64365bf5 64366c36     rS1K2KrK.[6d6l6d
2000f520:	53745bb5 53735373 537263f5 4b315332     .[tSsSsS.crS2S1K
2000f530:	53315331 5b315b72 63716371 53305b30     1S1Sr[1[qcqc0[0S
2000f540:	63705b31 5b306370 4af15b71 3ab13ab0     1[pcpc0[q[.J.:.:
2000f550:	3ab242f2 4ab442b3 323142b3 6b725333     .B.:.B.J.B123Srk
2000f560:	ffdf9cb6 0000ffdf 00000000 00000000     ................
	...
2000f5b4:	c679ffdf 8cb694b6 84b68cb6 84b77475     ..y.........ut..
2000f5c4:	9d399d38 7c7684b7 4b315bb3 322e326e     8.9...v|.[1Kn2.2
2000f5d4:	73f652f2 6b766bb6 6b776b75 73b96b78     .R.s.kvkukwkxk.s
2000f5e4:	63376b78 5b375b37 63375af6 63376337     xk7c7[7[.Z7c7c7c
2000f5f4:	52f56336 216f3a31 08aa10ec 08a90069     6c.R1:o!....i...
2000f604:	10e90067 2a2e116b 3ab03a6f 42f03a6f     g...k..*o:.:o:.B
2000f614:	53b44331 64365bf4 64366436 5bb553b4     1C.S.[6d6d6d.S.[
2000f624:	53b453b4 5b735372 53325b72 53315331     .S.SrSs[r[2S1S1S
2000f634:	5b315331 63715b71 5b3152f0 63705b30     1S1[q[qc.R1[0[pc
2000f644:	63715b2f 2a2e5b32 327021ee 32303230     /[qc2[.*.!p20202
2000f654:	42733231 32704272 de9852d0 00000000     12sBrBp2.R......
	...
2000f6b4:	be190000 847594b5 84b58cb6 8cb784b6     ......u.........
2000f6c4:	953894f7 7c768cf8 5bb36c35 84f87435     ..8...v|5l.[5t..
2000f6d4:	9d7b9d7b 94fa9d3b 847994fa 8c7a8c7a     {.{.;.....y.z.z.
2000f6e4:	8cbb8cbb 94fc9d3d 84bb84bb 847b8cfc     ....=.........{.
2000f6f4:	7c7a84bb 6bf77c39 5b346bb7 42704af2     ..z|9|.k.k4[.JpB
2000f704:	29ac426f 116c116b 29ee2a2e 42f1326f     oB.)k.l..*.)o2.B
2000f714:	53b35373 6c765bf5 64366c77 53b45bf5     sS.S.[vlwl6d.[.S
2000f724:	4b325bb4 4b3142f1 5b725b72 53315b72     .[2K.B1Kr[r[r[1S
2000f734:	5b315330 53305b71 5b305b30 52ef6371     0S1[q[0S0[0[qc.R
2000f744:	63715b30 216c5b32 21af196d 29af29f0     0[qc2[l!m..!.).)
2000f754:	21ae29ef 73f23a2f 0000ffdf 00000000     .).!/:.s........
	...
2000f7b4:	b5d70000 8cb68cb5 84758474 8cb784b6     ........t.u.....
2000f7c4:	8cf78cf7 74357c76 74766c35 9d798cf8     ....v|5t5lvt..y.
2000f7d4:	9d3a9539 9d3a94fa 8cb994fa 8cb98cb9     9.:...:.........
2000f7e4:	84797c38 6bf67438 7c796bf7 84fa7c79     8|y.8t.k.ky|y|..
2000f7f4:	8cfb84ba 8cfb8cfb 8cfb84ba 84b884b9     ................
2000f804:	74367c78 42b25374 3ab03a70 4b323ab0     x|6ttS.Bp:.:.:2K
2000f814:	53735373 6c765bb4 5bf563f5 5bb45bb4     sSsS.[vl.c.[.[.[
2000f824:	53735373 5b724b31 53315331 53315331     sSsS1Kr[1S1S1S1S
2000f834:	5b714aef 5b705b30 5b70532f 5b305b70     .Jq[0[p[/Sp[p[0[
2000f844:	637252ef 212b4ab0 192c08ab 192b192c     .Rrc.J+!..,.,.+.
2000f854:	3a2e10ea f7bd8435 00000000 00000000     ...:5...........
	...
2000f8b4:	ad560000 94b694f5 7c748cb5 8cf88cf6     ..V.......t|....
2000f8c4:	84b78d38 7c757c76 8cf884f7 8d389539     8...v|u|....9.8.
2000f8d4:	8cf89539 84778cb8 7c368cb8 7c378477     9.....w...6|w.7|
2000f8e4:	5b746bf6 52f35b74 5bb55bb5 6c376bf6     .kt[t[.R.[.[.k7l
2000f8f4:	7c797438 8cfa84fa 8cfa8cfb 84b98cfa     8ty|............
2000f904:	7cb88cfa 63b57478 4af25374 5bb45373     ...|xt.ctS.JsS.[
2000f914:	64356c36 64356c36 63f56c36 5bb463f5     6l5d6l5d6l.c.c.[
2000f924:	53725bb3 5b725331 53305b72 53315331     .[rS1Sr[r[0S1S1S
2000f934:	53305330 63715b30 5b2f5b70 5b305b30     0S0S0[qcp[/[0[0[
2000f944:	63725b71 296b52af 31ec31ac 422c39ec     q[rc.Rk).1.1.9,B
2000f954:	9d376370 ffdef7ff 00000000 00000000     pc7.............
	...
2000f9b4:	a5550000 8cb58c73 7c738474 8cf78475     ..U.s...t.s|u...
2000f9c4:	7c757cb6 7c767434 8cf884b7 953984b8     .|u|4tv|......9.
2000f9d4:	7c778cf8 743673f5 73f673f5 63746bb5     ..w|.s6t.s.s.ktc
2000f9e4:	53335333 53344af2 5b745373 6c375bb4     3S3S.J4SsSt[.[7l
2000f9f4:	74386bf6 74377437 7cb97478 74787c78     .k8t7t7txt.|x|xt
2000fa04:	7cb87cb8 74b87478 53b46436 4b324b32     .|.|xt.t6d.S2K2K
2000fa14:	5bf342f0 6c3663f4 63f563f5 5bb45bb4     .B.[.c6l.c.c.[.[
2000fa24:	4b314b31 53314b31 53305330 53714aef     1K1K1K1S0S0S.JqS
2000fa34:	53304aef 5b70532f 5b305b70 533052ef     .J0S/Sp[p[0[.R0S
2000fa44:	6bb25b70 41eb4a6d bdf96b6f d69bad57     p[.kmJ.Aok..W...
2000fa54:	ffdfffdf 0000c616 00000000 00000000     ................
	...
2000fab4:	ad960000 8c7494b4 84748c75 84b684b5     ......t.u.t.....
2000fac4:	74357cb6 7c767435 84b884b7 8cf88cf9     .|5t5tv|........
2000fad4:	7c778cf8 6bb47436 6bb57bf5 5b336bb5     ..w|6t.k.{.k.k3[
2000fae4:	4ab252f2 4af24af2 53325332 5b745b73     .R.J.J.J2S2Ss[t[
2000faf4:	6bb663b5 533463b6 63b55b74 6bf663f6     .c.k.c4St[.c.c.k
2000fb04:	7cb87c78 7cb87cb8 64357cf8 32af5373     x|.|.|.|.|5dsS.2
2000fb14:	42f02a6e 6c3563f4 53736c35 4b325373     n*.B.c5l5lsSsS2K
2000fb24:	4b314b31 4af04b31 4aaf4af0 4aef5330     1K1K1K.J.J.J0S.J
2000fb34:	532f4aef 5b305b71 63716371 52ef5b30     .J/Sq[0[qcqc0[.R
2000fb44:	5b306371 52ac426b ffdf9cf4 0000ffdf     qc0[kB.R........
	...
2000fbb4:	b5d70000 8c758473 84b47c74 84b67c74     ....s.u.t|..t|..
2000fbc4:	74357436 84767434 84b77c76 84b784b7     6t5t4tv.v|......
2000fbd4:	8cb78476 73f57c36 63736bb5 52f252f2     v...6|.s.ksc.R.R
2000fbe4:	4ab14271 4ab14a71 42704270 4af24271     qB.JqJ.JpBpBqB.J
2000fbf4:	53344ab2 42f242b2 533342f2 6c375374     .J4S.B.B.B3StS7l
2000fc04:	74787437 6c776c77 74776c36 4b315bb3     7txtwlwl6lwt.[1K
2000fc14:	4b3242f0 63f553b3 53725bb3 53324b31     .B2K.S.c.[rS1K2S
2000fc24:	4af042f0 4af042b0 52f14aaf 532f4aef     .B.J.B.J.J.R.J/S
2000fc34:	4aee4aee 532f532f 5b7152ef 636f532f     .J.J/S/S.Rq[/Soc
2000fc44:	52af6370 6bb1426e ffdeb5b6 00000000     pc.RnB.k........
	...
2000fcb4:	b5d70000 8c758c74 74327c74 74357c75     ....t.u.t|2tu|5t
2000fcc4:	74347c76 7c347434 74358476 84b67c76     v|4t4t4|v.5tv|..
2000fcd4:	7c7684b7 73f67c77 4af163b4 4ab14ab2     ..v|w|.s.c.J.J.J
2000fce4:	42b14ab1 3a304ab2 3a303a2f 3a704ab2     .J.B.J0:/:0:.Jp:
2000fcf4:	3a713a30 42b242b2 4b334b33 6c3763b5     0:q:.B.B3K3K.c7l
2000fd04:	6c367477 63f66c77 6c366c36 53726c35     wt6lwl.c6l6l5lrS
2000fd14:	43324b32 4b325373 53725372 53315b72     2K2CsS2KrSrSr[1S
2000fd24:	42af4af0 4af05331 533152f1 4aef5330     .J.B1S.J.R1S0S.J
2000fd34:	4aee532f 5b305b30 4b2f5b30 636f5bb0     /S.J0[0[0[/K.[oc
2000fd44:	63316bb1 7c736bb2 ffdfceb9 00000000     .k1c.ks|........
	...
2000fdb4:	add70000 7c337c32 743273f3 7c757c34     ....2|3|.s2t4|u|
2000fdc4:	74356c34 73f37434 74356bf3 84b77435     4l5t4t.s.k5t5t..
2000fdd4:	7c767476 6bf56bf6 4af25332 4ab142b1     vtv|.k.k2S.J.B.J
2000fde4:	4ab23a70 3a303a70 42703a2f 31ef3a30     p:.Jp:0:/:pB0:.1
2000fdf4:	323029ef 42f23a71 53744af3 6bf65bb5     .)02q:.B.JtS.[.k
2000fe04:	6c376bf6 5bb55bf5 63f463f5 53725bb3     .k7l.[.[.c.c.[rS
2000fe14:	4b3242f0 53725373 53724b31 42f042f0     .B2KsSrS1KrS.B.B
2000fe24:	42af3aaf 4af04af0 52f042af 532f4aef     .:.B.J.J.B.R.J/S
2000fe34:	5330532f 6371532f 52ef5b30 5b6f532e     /S0S/Sqc0[.R.So[
2000fe44:	6bb36bb1 847473b3 0000e75c 00000000     .k.k.st.\.......
	...
2000feb4:	a5550000 73f28433 84b47c33 74347c74     ..U.3..s3|..t|4t
2000fec4:	7c346c34 6bb27c34 743473f3 6c347435     4l4|4|.k.s4t5t4l
2000fed4:	6c357476 63b46bf5 53325b74 42b052f2     vt5l.k.ct[2S.R.B
2000fee4:	4ab142b1 3a304270 427042b1 31ef3a30     .B.JpB0:.BpB0:.1
2000fef4:	323031ef 4af242b2 53334b33 5bb45bb5     .102.B.J3K3S.[.[
2000ff04:	6c366c36 5bb463f5 537363b4 53715bb3     6l6l.c.[.csS.[qS
2000ff14:	3af04b30 53724331 42f04b72 326e42ef     0K.:1CrSrK.B.Bn2
2000ff24:	42ef42af 42af42ef 42af4af0 532f4aef     .B.B.B.B.J.B.J/S
2000ff34:	52ef532f 5b306371 52ef5b30 52ee532f     /S.Rqc0[0[.R/S.R
2000ff44:	73b373f3 8cb473f3 0000ffff 00000000     .s.s.s..........
	...
2000ffb4:	a5550000 7c337c32 7c7373f3 74346bf2     ..U.2|3|.ss|.k4t
2000ffc4:	7c747434 7c3373f2 743473f3 6bf463b3     4tt|.s3|.s4t.c.k
2000ffd4:	74356c34 74366c35 6bf563b4 63736bb4     4l5t5l6t.c.k.ksc
2000ffe4:	426f42b0 3a6f3a2f 42b03a2f 29ee3a6f     .BoB/:o:/:.Bo:.)
2000fff4:	3a7031ef 42f23a70 53744af2 5bb45373     .1p:p:.B.JtSsS.[
20010004:	63f563f5 53735373 53324b31 53715371     .c.csSsS1K2SqSqS
20010014:	3ab042ef 4b313af0 42ef3af0 326d326e     .B.:.:1K.:.Bn2m2
20010024:	42af326d 3aae42af 4aef42af 53304aae     m2.B.B.:.B.J.J0S
20010034:	5b70532f 52ef5b30 5b3052ef 532f4aae     /Sp[0[.R.R0[.J/S
20010044:	73f463b2 adb773b2 0000ffdf 00000000     .c.s.s..........
	...
200100b4:	a5950000 7bf37c32 63b07c33 7c3573f3     ....2|.{3|.c.s5|
200100c4:	74337c75 7c737c33 74337c34 63f26bf3     u|3t3|s|4|3t.k.c
200100d4:	74757475 847784b7 84767c77 94f894f8     utut..w.w|v.....
200100e4:	63737c35 52f15b31 53326373 5b735b73     5|sc1[.Rsc2Ss[s[
200100f4:	5b745b74 42f25332 53335374 53735373     t[t[2S.BtS3SsSsS
20010104:	53735bb4 4b325373 4b314b31 42ae5331     .[sSsS2K1K1K1S.B
20010114:	42f042ef 3aaf4331 3aae42f0 326d326e     .B.B1C.:.B.:n2m2
20010124:	326d3aae 3a6e3aae 42ae42af 4aef4aef     .:m2.:n:.B.B.J.J
20010134:	53305b70 5b3052ef 52ef5b30 5b7152ef     p[0S.R0[0[.R.Rq[
20010144:	6bb46bf4 be397c33 0000ffdf 00000000     .k.k3|9.........
	...
200101b4:	b6180000 73f37c33 6bf16bf2 847573f3     ....3|.s.k.k.su.
200101c4:	7c3473f3 7c337c33 743473f3 6bf26bf2     .s4|3|3|.s4t.k.k
200101d4:	7c3573f3 84b77c75 8cb784b7 9d3894f7     .s5|u|........8.
200101e4:	8cf784b6 7c358435 84b794f8 84b87c77     ....5.5|....w|..
200101f4:	7cb87c77 5b7463f5 5bb45373 5bb45bb4     w|.|.ct[sS.[.[.[
20010204:	3ab04b31 533242f0 4af042f0 4af042ef     1K.:.B2S.B.J.B.J
20010214:	42f042af 3aaf3af0 32ae326e 3aae326d     .B.B.:.:n2.2m2.:
20010224:	42ae326d 42ae3aae 322c3a6d 4aee42ad     m2.B.:.Bm:,2.B.J
20010234:	532f4aae 532f52ef 5b2f52ef 63b2532f     .J/S.R/S.R/[/S.c
20010244:	6bb363b3 c6798433 00000000 00000000     .c.k3.y.........
	...
200102b4:	dedc0000 73f28cb4 6bb17c34 74336bf2     .......s4|.k.k3t
200102c4:	7c3473f3 74337c33 73f373f3 6bf27c34     .s4|3|3t.s.s4|.k
200102d4:	7c7573f3 84b784b7 953894f9 8cb78cb6     .su|......8.....
200102e4:	94f894f8 84b79d39 847694f8 74378cb8     ....9.....v...7t
200102f4:	74777477 63f56c36 63f46c35 5bb463f4     wtwt6l.c5l.c.c.[
20010304:	4b315bb3 53314b31 53315331 4af04af0     .[1K1K1S1S1S.J.J
20010314:	4b315372 3aaf42f0 3aaf3aaf 3aaf3af0     rS1K.B.:.:.:.:.:
20010324:	3a6e3aae 3a6e3aae 3a2d42ae 4aee4aee     .:n:.:n:.B-:.J.J
20010334:	5b3052ef 52ef6370 5b2e532f 63726370     .R0[pc.R/S.[pcrc
20010344:	6bb363b4 d69a94f5 00000000 00000000     .c.k............
	...
200103b8:	73f28c94 6bb16bb2 6bf15b2f 73f36bb1     ...s.k.k/[.k.k.s
200103c8:	74336bf2 73f36bf2 73f36bb2 847573f4     .k3t.k.s.k.s.su.
200103d8:	74357c35 8cf87c36 9d398cb6 94f89d39     5|5t6|....9.9...
200103e8:	94f894f8 8cb784b6 743684b7 6c367436     ..........6t6t6l
200103f8:	6c3563f5 6bf463f5 63b363b4 5bb35bb2     .c5l.c.k.c.c.[.[
20010408:	53715371 5b725331 42ef42ef 42f04b30     qSqS1Sr[.B.B0K.B
20010418:	42f03aaf 3aaf3aaf 3aaf326e 42af3a6e     .:.B.:.:n2.:n:.B
20010428:	3a6d3a6d 3a2c31ec 52ee42ad 5b304aae     m:m:.1,:.B.R.J0[
20010438:	52ef52ef 5b2f52ee 63b35b70 6bb25b73     .R.R.R/[p[.cs[.k
20010448:	ffdf9cf5 00000000 00000000 00000000     ................
	...
200104b8:	6bb1c6bb 73f273f2 63b16bb1 6bf26bf2     ...k.s.s.k.c.k.k
200104c8:	6bb273f2 7c348475 74346bf3 74347c75     .s.ku.4|.k4tu|4t
200104d8:	74356bf4 847684b8 95399538 8cf89539     .k5t..v.8.9.9...
200104e8:	84b77c76 95389539 6bf584b7 74767436     v|..9.8....k6tvt
200104f8:	6bf57476 7c776bf5 63b36c35 533163f3     vt.k.kw|5l.c.c1S
20010508:	4af04b30 53315331 42af4aef 3aaf4b31     0K.J1S1S.J.B1K.:
20010518:	42f042f0 3aaf3aef 3aae3aaf 326d3aae     .B.B.:.:.:.:.:m2
20010528:	322c3a6d 3a6d3a2c 4aae4aae 532f52ef     m:,2,:m:.J.J.R/S
20010538:	4aee5b2f 5b2f532f 63736371 6bb263b3     /[.J/S/[qcsc.c.k
20010548:	ffdfad77 00000000 00000000 00000000     w...............
	...
200105b8:	73f2ffdf 73f26bb1 5b705b70 6bb15b70     ...s.k.sp[p[p[.k
200105c8:	73f36bb1 7c748cb5 7c3463b1 73f47c34     .k.s..t|.c4|4|.s
200105d8:	84b76372 7c7784b7 8cb88476 84b78cb8     rc....w|v.......
200105e8:	953984b7 8cf89538 74367436 7cb76c36     ..9.8...6t6t6l.|
200105f8:	6c357476 6c356bf4 53715331 53315331     vt5l.k5l1SqS1S1S
20010608:	53714b30 5b714b30 4aef4b30 4af04b30     0KqS0Kq[0K.J0K.J
20010618:	4af03aaf 42f042ef 42af3aaf 3a6d3a6d     .:.J.B.B.:.Bm:m:
20010628:	3a2c3a6d 4aae322c 4aae42ad 52ef4aae     m:,:,2.J.B.J.J.R
20010638:	52ef52ee 5b3052ef 5b735b31 7c3363b3     .R.R.R0[1[s[.c3|
20010648:	ffdfb597 00000000 00000000 00000000     ................
	...
200106b8:	8c940000 5b306bb2 63b06370 63b063b0     .....k0[pc.c.c.c
200106c8:	73f273f2 6bb17c34 7c346bf2 7c3584b6     .s.s4|.k.k4|..5|
200106d8:	7c767434 84b784b7 95398cf8 7c768cf9     4tv|......9...v|
200106e8:	84b78cf8 84f88d38 74367c77 74377c77     ....8...w|6tw|7t
200106f8:	63f47436 63b37435 4af05371 53304b30     6t.c5t.cqS.J0K0S
20010708:	5bb15bb2 4b305b71 4b2f5371 42ef4b30     .[.[q[0KqS/K0K.B
20010718:	42ae42af 3a6d42af 3aae42ae 322c3aae     .B.B.Bm:.B.:.:,2
20010728:	322c326d 426d3a6d 42ad4aae 52ef52ef     m2,2m:mB.J.B.R.R
20010738:	52ef52ef 52f05b70 5b735b72 7c736bf3     .R.Rp[.Rr[s[.ks|
20010748:	0000d69a 00000000 00000000 00000000     ................
	...
200107b8:	94f50000 63716bb1 63b15b30 63b05b6f     .....kqc0[.co[.c
200107c8:	6bb163b1 5b705b70 7c7563b1 7c357c34     .c.kp[p[.cu|4|5|
200107d8:	7c767435 84b87435 8cf97c77 8cf884b8     5tv|5t..w|......
200107e8:	84b784b7 743684b7 7c787437 6bf673f7     ......6t7tx|.s.k
200107f8:	5b726bf5 7c756bf3 5bb26bf3 53715330     .kr[.ku|.k.[0SqS
20010808:	53715371 53304b2f 42ae4aef 42ef42ae     qSqS/K0S.J.B.B.B
20010818:	326d42ae 326d322c 326d322c 322c2a2c     .Bm2,2m2,2m2,*,2
20010828:	3a6d29eb 3a6c3a6c 42ad42ad 4aee4aae     .)m:l:l:.B.B.J.J
20010838:	532f42ad 53315b30 63b45332 84946392     .B/S0[1S2S.c.c..
	...
200108b8:	be1c0000 5b6f73f2 5b6f6370 5b7063b0     .....so[pco[.cp[
200108c8:	637063b0 637063b1 73f363b1 73f37c34     .cpc.cpc.c.s4|.s
200108d8:	73f46bf3 63b47c76 74366bf6 7c777c77     .k.sv|.c.k6tw|w|
200108e8:	747684b7 74377c77 6bf67437 5b7463b5     ..vtw|7t7t.k.ct[
200108f8:	63b36bf5 63b27434 53305b72 5b7163b2     .k.c4t.cr[0S.cq[
20010908:	5b7163b2 42ae4b30 3a6d42ee 3aae3a6d     .cq[0K.B.Bm:m:.:
20010918:	3a6d42ef 2a2c3a6d 322c322c 322b322c     .Bm:m:,*,2,2,2+2
20010928:	3a6c322c 42ad426d 4aad4aee 42ad52ee     ,2l:mB.B.J.J.R.B
20010938:	532f4aae 5b315b71 00005b34 00000000     .J/Sq[1[4[......
	...
200109bc:	63b07c53 5b2f636f 5b70532f 637052ee     S|.coc/[/Sp[.Rpc
200109cc:	6bb163b1 63b15b2f 73f373f3 5b715b31     .c.k/[.c.s.s1[q[
200109dc:	637363b3 6bb55b33 5b735b73 74356bf5     .csc3[.ks[s[.k5t
200109ec:	63b56bf5 63b55b74 537363f5 5b724af0     .k.ct[.c.csS.Jr[
200109fc:	5bb25b72 53305331 53305330 532f5330     r[.[1S0S0S0S0S/S
20010a0c:	42ae42ae 3a6c3a6d 322c322c 322c31eb     .B.Bm:l:,2,2.1,2
20010a1c:	29eb322c 326c31eb 322b29eb 3a2b322b     ,2.).1l2.)+2+2+:
20010a2c:	4aad3a2c 4aad426c 4aae42ad 5b3052ef     ,:.JlB.J.B.J.R0[
20010a3c:	63925b30 00000000 00000000 00000000     0[.c............
	...
20010abc:	6bb0c6dd 5b2e636f 5b705b6f 5b706370     ...koc.[o[p[pcp[
20010acc:	63706bf1 63715b70 743473f3 533163b3     .kpcp[qc.s4t.c1S
20010adc:	53325b73 5b335b33 5b735b73 63736bf4     s[2S3[3[s[s[.ksc
20010aec:	53735b73 5b745b74 537363b5 42f04b31     s[sSt[t[.csS1K.B
20010afc:	42f042f0 4b305371 4aef5330 426d4aef     .B.BqS0K0S.J.JmB
20010b0c:	3a6c3a6c 322b42ad 29ea322b 31eb29ea     l:l:.B+2+2.).).1
20010b1c:	29eb322b 29ea3a2c 322b322b 3a6c3a6c     +2.),:.)+2+2l:l:
20010b2c:	426c42ad 426c4aad 4aee4aad 53305b30     .BlB.JlB.J.J0[0S
20010b3c:	00005b71 00000000 00000000 00000000     q[..............
	...
20010bbc:	74120000 5b705b2f 5b2f5b2f 5b2f5b2f     ...t/[p[/[/[/[/[
20010bcc:	63705b2f 5b715b2f 6bf463b2 5bb35bb3     /[pc/[q[.c.k.[.[
20010bdc:	53325b72 5b735332 53325332 53325331     r[2S2Ss[2S2S1S2S
20010bec:	63f55332 4b324b33 43314b31 43304330     2S.c3K2K1K1C0C0C
20010bfc:	43304330 42ef3aae 42ae42ee 3a6c42ad     0C0C.:.B.B.B.Bl:
20010c0c:	322c322b 31eb31eb 29ea29ea 29ea21a9     +2,2.1.1.).).!.)
20010c1c:	29ea29ea 21a921aa 3a6c21ea 3a6c322c     .).).!.!.!l:,2l:
20010c2c:	426c3a2b 426c426c 52ef4aad 5b305b30     +:lBlBlB.J.R0[0[
20010c3c:	00004ad0 00000000 00000000 00000000     .J..............
	...
20010cbc:	9d970000 5b706bb1 532e5b70 52ee5b2f     .....kp[p[.S/[.R
20010ccc:	52ee5aee 533052ee 53315b71 53315331     .Z.R.R0Sq[1S1S1S
20010cdc:	42b04af1 4af05331 42b04af0 4ab042b0     .J.B1S.J.J.B.B.J
20010cec:	3aaf42b0 42f142f1 3aaf42f1 32ae3aaf     .B.:.B.B.B.:.:.2
20010cfc:	326d3aae 3aae42ae 326c42ae 322a3a6c     .:m2.B.:.Bl2l:*2
20010d0c:	29ea322b 29ea29ea 29aa31eb 29a929aa     +2.).).).1.).).)
20010d1c:	21a921a9 21a921a9 322b2a2b 322b3a6c     .!.!.!.!+*+2l:+2
20010d2c:	426c3a2b 42ad42ad 532f52ef 5b115330     +:lB.B.B.R/S0S.[
	...
20010dc0:	5b707413 5b2e532e 52ed52ed 52ad4aac     .tp[.S.[.R.R.J.R
20010dd0:	4aee4aac 4aee4aae 42af42ae 3a6e3a6d     .J.J.J.J.B.Bm:n:
20010de0:	3a6e326d 322e3a6e 42b0322e 322d3aaf     m2n:n:.2.2.B.:-2
20010df0:	3aaf29ed 3aae3a6e 21eb2a2c 326c21eb     .).:n:.:,*.!.!l2
20010e00:	322c3a6d 322b322c 29ea29ea 29e929a9     m:,2,2+2.).).).)
20010e10:	29ea2168 29a929ea 29a921a9 29a92169     h!.).).).!.)i!.)
20010e20:	29ea21a9 322c29eb 322b322b 4aad322b     .!.).),2+2+2+2.J
20010e30:	4aad426d 53304aee 00004ad0 00000000     mB.J.J0S.J......
	...
20010ec0:	63709d19 52ee5b2f 5aee5b2e 4a6c52ed     ..pc/[.R.[.Z.RlJ
20010ed0:	3a2b426b 322b3a6c 3a6d3a6c 29eb3a2d     kB+:l:+2l:m:-:.)
20010ee0:	29ec2a2c 29ed322d 3a6f3a6f 3a6d426f     ,*.)-2.)o:o:oBm:
20010ef0:	21ac31ed 29ec29ec 21aa29eb 29eb29eb     .1.!.).).).!.).)
20010f00:	29aa322b 29a929aa 21a929ea 21a929a9     +2.).).).).!.).!
20010f10:	21a921a9 216829a9 216821a9 21a929a9     .!.!.)h!.!h!.).!
20010f20:	29ea29ea 322b2a2b 322b322b 4aad426c     .).)+*+2+2+2lB.J
20010f30:	42ad4aee 5b114aef 00000000 00000000     .J.B.J.[........
	...
20010fc0:	74140000 52ee532f 5aee52ed 4aad52ed     ...t/S.R.R.Z.R.J
20010fd0:	31ea3a2a 31e931e9 31e929a9 29aa29a9     *:.1.1.1.).1.).)
20010fe0:	29ea21aa 29ab21aa 3a6d29eb 29aa31eb     .!.).!.).)m:.1.)
20010ff0:	21692169 21681928 29a92168 21692169     i!i!(.h!h!.)i!i!
20011000:	29a92169 29a92127 29a929a8 21682167     i!.)'!.).).)g!h!
20011010:	21a81967 29692168 29a929a9 29a92169     g..!h!i).).)i!.)
20011020:	29ea29aa 322b21a9 3a6c322b 4aad42ad     .).).!+2+2l:.B.J
20011030:	4aee42ad 00004acf 00000000 00000000     .B.J.J..........
	...
200110c0:	c69f0000 4aee6bf2 4aad52ee 52ad52ed     .....k.J.R.J.R.R
200110d0:	3a2a426b 29a839ea 216731e9 29a829a8     kB*:.9.).1g!.).)
200110e0:	216829a9 216821a8 29e929a9 192729a9     .)h!.!h!.).).)'.
200110f0:	21272127 10e51926 19261926 18e61926     '!'!&...&.&.&...
20011100:	21672167 21682968 29a829a8 216829a8     g!g!h)h!.).).)h!
20011110:	21682168 296929a9 29aa31ea 29ea29aa     h!h!.)i).1.).).)
20011120:	29ea322b 29ea29ea 3a6b3a6c 42ad4aee     +2.).).)l:k:.J.B
20011130:	530f42ad 00000000 00000000 00000000     .B.S............
	...
200111c4:	63b29d59 4aad4aae 4aac4a6c 422b426b     Y..c.J.JlJ.JkB+B
200111d4:	31e931e9 29a829a8 21672167 21672167     .1.1.).)g!g!g!g!
200111e4:	21671927 21671926 21261926 18e610e5     '.g!&.g!&.&!....
200111f4:	18e518e5 10e510e4 192610e6 21671926     ..........&.&.g!
20011204:	21672167 21672127 21682167 21a91968     g!g!'!g!g!h!h..!
20011214:	29aa2169 29ea29aa 31eb29aa 31eb29eb     i!.).).).).1.).1
20011224:	3a6c29eb 3a4c3a0c 428d3a4c 530f428e     .)l:.:L:L:.B.B.S
	...
200112c4:	9d9b0000 4aee5b71 52ac52ad 426b52ac     ....q[.J.R.R.RkB
200112d4:	3a2a426b 296831e9 216729a8 21662967     kB*:.1h).)g!g)f!
200112e4:	296729a7 296729a7 212629a7 21252126     .)g).)g).)&!&!%!
200112f4:	19252166 19262125 19262127 19261926     f!%.%!&.'!&.&.&.
20011304:	19262167 21272127 29a929a8 29a929a9     g!&.'!'!.).).).)
20011314:	29aa29aa 29aa31eb 29ea31eb 3a4c322c     .).).1.).1.),2L:
20011324:	00004aae 00000000 00000000 00000000     .J..............
	...
200113c8:	5330a5dc 52ed4aad 4aac4a6b 422b426b     ..0S.J.RkJ.JkB+B
200113d8:	31e93a2a 296729a8 29662126 29a72166     *:.1.)g)&!f)f!.)
200113e8:	29a72967 29662966 29662166 21252125     g).)f)f)f!f)%!%!
200113f8:	19261925 10e510e5 192610e5 19261925     %.&.......&.%.&.
20011408:	21671926 29a92167 29a921a9 29aa29a9     &.g!g!.).!.).).)
20011418:	29eb29ea 324c31cb 00003ace 00000000     .).).1L2.:......
	...
200114c8:	74560000 42ad4aef 4aac52ed 426b4aac     ..Vt.J.B.R.J.JkB
200114d8:	3a2a422b 31e93a2a 296731a8 21662967     +B*:*:.1.1g)g)f!
200114e8:	19262167 19252166 21662166 19252126     g!&.f!%.f!f!&!%.
200114f8:	18e51926 10e518e5 19261926 21672167     &.......&.&.g!g!
20011508:	21672968 29a82968 29a929a9 298a31eb     h)g!h).).).).1.)
20011518:	31cb322b 0000428d 00000000 00000000     +2.1.B..........
	...
200115cc:	42ae63d3 4aac426c 4aac4aac 3a2a3a2a     .c.BlB.J.J.J*:*:
200115dc:	3a2a3a2a 31e931a8 31a831a9 19262167     *:*:.1.1.1.1g!&.
200115ec:	21661925 21661926 192710e5 192510e6     %.f!&.f!..'...%.
200115fc:	192610e5 21661926 21661926 21681926     ..&.&.f!&.f!&.h!
2001160c:	31e92147 3a4b31ca 00000000 00000000     G!.1.1K:........
	...
200116cc:	6bd4a5dc 3a0a3a6d 4aad52ad 426b4a6c     ...km:.:.R.JlJkB
200116dc:	3a6b4aab 31ea3a2b 31e93a2a 29a831e9     .Jk:+:.1*:.1.1.)
200116ec:	21a729a8 216729a8 21672167 19262167     .).!.)g!g!g!g!&.
200116fc:	19262167 19262167 19262167 31c92168     g!&.g!&.g!&.h!.1
2001170c:	530e424b 00000000 00000000 00000000     KB.S............
	...
200117d0:	00460000 426d298a 4aac426c 42ac42ab     ..F..)mBlB.J.B.B
200117e0:	3a6b3a6c 31e9322a 3a2931e9 31e931e9     l:k:*2.1.1):.1.1
200117f0:	29a829a9 21682147 29682147 21472147     .).)G!h!G!h)G!G!
20011800:	21481906 29892147 000031cf 00000000     ..H!G!.).1......
	...
200118d8:	42ad3a6d 42ac42ad 42ac4aad 3a2a3a6b     m:.B.B.B.J.Bk:*:
200118e8:	3a2a3a2a 3a0b3a6b 000052ee 00000000     *:*:k:.:.R......
	...
20011990:	803b0044 80360046 8034004a 8031004c     D.;.F.6.J.4.L.1.
200119a0:	802f004f 802e0050 802c0053 802b0056     O./.P...S.,.V.+.
200119b0:	80290057 80260058 8024005a 8023005b     W.).X.&.Z.$.[.#.
200119c0:	8022005c 8021005d 8020005f 801f0060     \.".].!._. .`...
200119d0:	801e0061 801d0062 801c0063 801b0064     a...b...c...d...
200119e0:	801a0065 801a0066 80190066 80190066     e...f...f...f...
200119f0:	80180067 80180068 80170069 80170069     g...h...i...i...
20011a00:	8017006a 8017006a 8017006a 8017006b     j...j...j...k...
20011a10:	8016006b 8015006b 8015006b 8015006b     k...k...k...k...
20011a20:	8015006b 8015006b 8015006b 8015006b     k...k...k...k...
20011a30:	8015006b 8014006b 8014006b 8014006c     k...k...k...l...
20011a40:	8014006c 8014006b 8014006b 8014006b     l...k...k...k...
20011a50:	8014006c 8014006c 8014006c 8014006c     l...l...l...l...
20011a60:	8014006c 8014006b 8014006b 8014006b     l...k...k...k...
20011a70:	8014006b 8013006b 000f006b 800d006b     k...k...k...k...
20011a80:	800d006b 800d006b 800d006c 800c006f     k...k...l...o...
20011a90:	800c0070 800c0070 800c0071 800c0072     p...p...q...r...
20011aa0:	800c0072 800d0072 800d0072 800d0072     r...r...r...r...
20011ab0:	800d0072 800d0072 800d0072 800e0072     r...r...r...r...
20011ac0:	800e0071 800e0071 800f0071 800f0070     q...q...q...p...
20011ad0:	800f006f 800f006f 800f006e 800f006e     o...o...n...n...
20011ae0:	800f006d 8010006c 8010006c 8010006c     m...l...l...l...
20011af0:	8010006b 8010006a 80110068 80120066     k...j...h...f...
20011b00:	80140065 80140064 80140064 80140063     e...d...d...c...
20011b10:	8014005f 8014005e 8014005e 8014005d     _...^...^...]...
20011b20:	8014005d 8014005d 8014005c 8014005c     ]...]...\...\...
20011b30:	8014005c 8015005c 8015005c 8016005b     \...\...\...[...
20011b40:	8016005b 8016005a 80160057 80170056     [...Z...W...V...
20011b50:	80170055 80180055 80180054 80190053     U...U...T...S...
20011b60:	80190053 801a0052 801a0051 801b004f     S...R...Q...O...
20011b70:	801c004a 801d0047 801e0045 801e0040     J...G...E...@...
20011b80:	801f003c 8022003a 8024002f 8025002a     <...:."./.$.*.%.

20011b90 <default_alarm_pool>:
	...
20011ba4:	20012468                                h$. 

20011ba8 <striped_spin_lock_num>:
20011ba8:	00000010                                ....

20011bac <irq_handler_chain_slots>:
20011bac:	00000000 	.word	0x00000000
20011bb0:	00010000 	.word	0x00010000
	...
20011bbc:	00020000 	.word	0x00020000
	...
20011bc8:	00030000 	.word	0x00030000
	...
20011bd4:	00ff0000 	.word	0x00ff0000
20011bd8:	00000000 	.word	0x00000000

20011bdc <irq_handler_chain_first_slot>:
20011bdc:	b501      	push	{r0, lr}
20011bde:	6848      	ldr	r0, [r1, #4]
20011be0:	3101      	adds	r1, #1
20011be2:	468e      	mov	lr, r1
20011be4:	4700      	bx	r0

20011be6 <irq_handler_chain_remove_tail>:
20011be6:	4670      	mov	r0, lr
20011be8:	3809      	subs	r0, #9
20011bea:	4901      	ldr	r1, [pc, #4]	; (20011bf0 <irq_handler_chain_remove_tail+0xa>)
20011bec:	4788      	blx	r1
20011bee:	bd01      	pop	{r0, pc}
20011bf0:	100011bd 	.word	0x100011bd

20011bf4 <stdio_uart>:
20011bf4:	1000319d 100032c9 10003229 100032dd     .1...2..)2...2..
20011c04:	00000000 00000100                       ........

20011c0c <_missing_scanline_data>:
20011c0c:	f8000003 000b0000 00010000              ............

20011c18 <_impure_ptr>:
20011c18:	20011c20 00000000                        .. ....

20011c20 <impure_data>:
20011c20:	00000000 20011f0c 20011f74 20011fdc     ....... t.. ... 
	...
20011cc8:	00000001 00000000 abcd330e e66d1234     .........3..4.m.
20011cd8:	0005deec 0000000b 00000000 00000000     ................
	...

20012048 <__malloc_av_>:
	...
20012050:	20012048 20012048 20012050 20012050     H . H . P . P . 
20012060:	20012058 20012058 20012060 20012060     X . X . ` . ` . 
20012070:	20012068 20012068 20012070 20012070     h . h . p . p . 
20012080:	20012078 20012078 20012080 20012080     x . x . . . . . 
20012090:	20012088 20012088 20012090 20012090     . . . . . . . . 
200120a0:	20012098 20012098 200120a0 200120a0     . . . . . . . . 
200120b0:	200120a8 200120a8 200120b0 200120b0     . . . . . . . . 
200120c0:	200120b8 200120b8 200120c0 200120c0     . . . . . . . . 
200120d0:	200120c8 200120c8 200120d0 200120d0     . . . . . . . . 
200120e0:	200120d8 200120d8 200120e0 200120e0     . . . . . . . . 
200120f0:	200120e8 200120e8 200120f0 200120f0     . . . . . . . . 
20012100:	200120f8 200120f8 20012100 20012100     . . . . .!. .!. 
20012110:	20012108 20012108 20012110 20012110     .!. .!. .!. .!. 
20012120:	20012118 20012118 20012120 20012120     .!. .!.  !.  !. 
20012130:	20012128 20012128 20012130 20012130     (!. (!. 0!. 0!. 
20012140:	20012138 20012138 20012140 20012140     8!. 8!. @!. @!. 
20012150:	20012148 20012148 20012150 20012150     H!. H!. P!. P!. 
20012160:	20012158 20012158 20012160 20012160     X!. X!. `!. `!. 
20012170:	20012168 20012168 20012170 20012170     h!. h!. p!. p!. 
20012180:	20012178 20012178 20012180 20012180     x!. x!. .!. .!. 
20012190:	20012188 20012188 20012190 20012190     .!. .!. .!. .!. 
200121a0:	20012198 20012198 200121a0 200121a0     .!. .!. .!. .!. 
200121b0:	200121a8 200121a8 200121b0 200121b0     .!. .!. .!. .!. 
200121c0:	200121b8 200121b8 200121c0 200121c0     .!. .!. .!. .!. 
200121d0:	200121c8 200121c8 200121d0 200121d0     .!. .!. .!. .!. 
200121e0:	200121d8 200121d8 200121e0 200121e0     .!. .!. .!. .!. 
200121f0:	200121e8 200121e8 200121f0 200121f0     .!. .!. .!. .!. 
20012200:	200121f8 200121f8 20012200 20012200     .!. .!. .". .". 
20012210:	20012208 20012208 20012210 20012210     .". .". .". .". 
20012220:	20012218 20012218 20012220 20012220     .". .".  ".  ". 
20012230:	20012228 20012228 20012230 20012230     (". (". 0". 0". 
20012240:	20012238 20012238 20012240 20012240     8". 8". @". @". 
20012250:	20012248 20012248 20012250 20012250     H". H". P". P". 
20012260:	20012258 20012258 20012260 20012260     X". X". `". `". 
20012270:	20012268 20012268 20012270 20012270     h". h". p". p". 
20012280:	20012278 20012278 20012280 20012280     x". x". .". .". 
20012290:	20012288 20012288 20012290 20012290     .". .". .". .". 
200122a0:	20012298 20012298 200122a0 200122a0     .". .". .". .". 
200122b0:	200122a8 200122a8 200122b0 200122b0     .". .". .". .". 
200122c0:	200122b8 200122b8 200122c0 200122c0     .". .". .". .". 
200122d0:	200122c8 200122c8 200122d0 200122d0     .". .". .". .". 
200122e0:	200122d8 200122d8 200122e0 200122e0     .". .". .". .". 
200122f0:	200122e8 200122e8 200122f0 200122f0     .". .". .". .". 
20012300:	200122f8 200122f8 20012300 20012300     .". .". .#. .#. 
20012310:	20012308 20012308 20012310 20012310     .#. .#. .#. .#. 
20012320:	20012318 20012318 20012320 20012320     .#. .#.  #.  #. 
20012330:	20012328 20012328 20012330 20012330     (#. (#. 0#. 0#. 
20012340:	20012338 20012338 20012340 20012340     8#. 8#. @#. @#. 
20012350:	20012348 20012348 20012350 20012350     H#. H#. P#. P#. 
20012360:	20012358 20012358 20012360 20012360     X#. X#. `#. `#. 
20012370:	20012368 20012368 20012370 20012370     h#. h#. p#. p#. 
20012380:	20012378 20012378 20012380 20012380     x#. x#. .#. .#. 
20012390:	20012388 20012388 20012390 20012390     .#. .#. .#. .#. 
200123a0:	20012398 20012398 200123a0 200123a0     .#. .#. .#. .#. 
200123b0:	200123a8 200123a8 200123b0 200123b0     .#. .#. .#. .#. 
200123c0:	200123b8 200123b8 200123c0 200123c0     .#. .#. .#. .#. 
200123d0:	200123c8 200123c8 200123d0 200123d0     .#. .#. .#. .#. 
200123e0:	200123d8 200123d8 200123e0 200123e0     .#. .#. .#. .#. 
200123f0:	200123e8 200123e8 200123f0 200123f0     .#. .#. .#. .#. 
20012400:	200123f8 200123f8 20012400 20012400     .#. .#. .$. .$. 
20012410:	20012408 20012408 20012410 20012410     .$. .$. .$. .$. 
20012420:	20012418 20012418 20012420 20012420     .$. .$.  $.  $. 
20012430:	20012428 20012428 20012430 20012430     ($. ($. 0$. 0$. 
20012440:	20012438 20012438 20012440 20012440     8$. 8$. @$. @$. 

20012450 <__malloc_sbrk_base>:
20012450:	ffffffff                                ....

20012454 <__malloc_trim_threshold>:
20012454:	00020000                                ....

20012458 <malloc_mutex>:
	...

20012460 <print_mutex>:
	...
