
C:/pico/build-playground/scanvideo/test_pattern/test_pattern.elf:     file format elf32-littlearm

Sections:
Idx Name          Size      VMA       LMA       File off  Algn
  0 .text         00007cb8  10000000  10000000  00001000  2**3
                  CONTENTS, ALLOC, LOAD, READONLY, CODE
  1 .rodata       0000135c  10007cb8  10007cb8  00008cb8  2**3
                  CONTENTS, ALLOC, LOAD, READONLY, DATA
  2 .ARM.exidx    00000008  10009014  10009014  0000a014  2**2
                  CONTENTS, ALLOC, LOAD, READONLY, DATA
  3 .binary_info  0000003c  1000901c  1000901c  0000a01c  2**2
                  CONTENTS, ALLOC, LOAD, READONLY, DATA
  4 .ram_vector_table 00000110  20000000  20000000  0000e000  2**2
                  ALLOC
  5 .uninitialized_data 00000000  20000110  20000110  0000d354  2**0
                  CONTENTS
  6 .data         000022e8  20000110  10009058  0000a110  2**3
                  CONTENTS, ALLOC, LOAD, READONLY, CODE
  7 .tdata        00000000  200023f8  200023f8  0000d354  2**0
                  CONTENTS, ALLOC, LOAD, DATA, THREAD_LOCAL
  8 .tbss         00000000  200023f8  200023f8  00000000  2**0
                  ALLOC, THREAD_LOCAL
  9 .bss          00000e20  200023f8  1000b340  0000d3f8  2**3
                  ALLOC
 10 .heap         00000800  20003218  1000b340  0000e218  2**2
                  ALLOC, READONLY
 11 .scratch_x    00000000  20080000  20080000  0000d354  2**0
                  CONTENTS
 12 .scratch_y    00000000  20081000  20081000  0000d354  2**0
                  CONTENTS
 13 .stack1_dummy 00000800  20080000  20080000  0000e000  2**2
                  ALLOC
 14 .stack_dummy  00000800  20081000  20081000  0000e000  2**5
                  ALLOC, READONLY
 15 .flash_end    00000014  1000b340  1000b340  0000d340  2**2
                  CONTENTS, ALLOC, LOAD, READONLY, DATA
 16 .ARM.attributes 00000034  00000000  00000000  0000d354  2**0
                  CONTENTS, READONLY
 17 .comment      00000049  00000000  00000000  0000d388  2**0
                  CONTENTS, READONLY
 18 .debug_info   000402d1  00000000  00000000  0000d3d1  2**0
                  CONTENTS, READONLY, DEBUGGING, OCTETS
 19 .debug_abbrev 00009e26  00000000  00000000  0004d6a2  2**0
                  CONTENTS, READONLY, DEBUGGING, OCTETS
 20 .debug_loc    00025241  00000000  00000000  000574c8  2**0
                  CONTENTS, READONLY, DEBUGGING, OCTETS
 21 .debug_aranges 00001890  00000000  00000000  0007c710  2**3
                  CONTENTS, READONLY, DEBUGGING, OCTETS
 22 .debug_ranges 00009320  00000000  00000000  0007dfa0  2**3
                  CONTENTS, READONLY, DEBUGGING, OCTETS
 23 .debug_line   000211d3  00000000  00000000  000872c0  2**0
                  CONTENTS, READONLY, DEBUGGING, OCTETS
 24 .debug_str    0000c131  00000000  00000000  000a8493  2**0
                  CONTENTS, READONLY, DEBUGGING, OCTETS
 25 .debug_frame  000042b0  00000000  00000000  000b45c4  2**2
                  CONTENTS, READONLY, DEBUGGING, OCTETS

C:/pico/build-playground/scanvideo/test_pattern/test_pattern.elf:     file format elf32-littlearm


Disassembly of section .text:

10000000 <__VECTOR_TABLE>:
10000000:	20082000 	.word	0x20082000
10000004:	1000015d 	.word	0x1000015d
10000008:	1000011b 	.word	0x1000011b
1000000c:	1000011d 	.word	0x1000011d
10000010:	10000111 	.word	0x10000111
10000014:	10000111 	.word	0x10000111
10000018:	10000111 	.word	0x10000111
1000001c:	10000111 	.word	0x10000111
10000020:	10000119 	.word	0x10000119
10000024:	10000119 	.word	0x10000119
10000028:	10000119 	.word	0x10000119
1000002c:	1000011f 	.word	0x1000011f
10000030:	10000111 	.word	0x10000111
10000034:	10000119 	.word	0x10000119
10000038:	10000121 	.word	0x10000121
1000003c:	10000123 	.word	0x10000123
10000040:	10000111 	.word	0x10000111
10000044:	10000111 	.word	0x10000111
10000048:	10000111 	.word	0x10000111
1000004c:	10000111 	.word	0x10000111
10000050:	10000111 	.word	0x10000111
10000054:	10000111 	.word	0x10000111
10000058:	10000111 	.word	0x10000111
1000005c:	10000111 	.word	0x10000111
10000060:	10000111 	.word	0x10000111
10000064:	10000111 	.word	0x10000111
10000068:	2000135d 	.word	0x2000135d
1000006c:	10000111 	.word	0x10000111
10000070:	10000111 	.word	0x10000111
10000074:	10000111 	.word	0x10000111
10000078:	10000111 	.word	0x10000111
1000007c:	20000b41 	.word	0x20000b41
10000080:	200011ed 	.word	0x200011ed
10000084:	10000111 	.word	0x10000111
10000088:	10000111 	.word	0x10000111
1000008c:	10000111 	.word	0x10000111
10000090:	10000111 	.word	0x10000111
10000094:	10000111 	.word	0x10000111
10000098:	10000111 	.word	0x10000111
1000009c:	10000111 	.word	0x10000111
100000a0:	10000111 	.word	0x10000111
100000a4:	10000111 	.word	0x10000111
100000a8:	10000111 	.word	0x10000111
100000ac:	10000111 	.word	0x10000111
100000b0:	10000111 	.word	0x10000111
100000b4:	10000111 	.word	0x10000111
100000b8:	10000111 	.word	0x10000111
100000bc:	10000111 	.word	0x10000111
100000c0:	10000111 	.word	0x10000111
100000c4:	10000111 	.word	0x10000111
100000c8:	10000111 	.word	0x10000111
100000cc:	10000111 	.word	0x10000111
100000d0:	10000111 	.word	0x10000111
100000d4:	10000111 	.word	0x10000111
100000d8:	10000111 	.word	0x10000111
100000dc:	10000111 	.word	0x10000111
100000e0:	10000111 	.word	0x10000111
100000e4:	10000111 	.word	0x10000111
100000e8:	10000111 	.word	0x10000111
100000ec:	10000111 	.word	0x10000111
100000f0:	10000111 	.word	0x10000111
100000f4:	10000111 	.word	0x10000111
100000f8:	10000111 	.word	0x10000111
100000fc:	10000111 	.word	0x10000111
10000100:	10000111 	.word	0x10000111
10000104:	10000111 	.word	0x10000111
10000108:	10000111 	.word	0x10000111
1000010c:	10000111 	.word	0x10000111

10000110 <__unhandled_user_irq>:
10000110:	f3ef 8005 	mrs	r0, IPSR
10000114:	3810      	subs	r0, #16

10000116 <unhandled_user_irq_num_in_r0>:
10000116:	be00      	bkpt	0x0000

10000118 <isr_invalid>:
10000118:	be00      	bkpt	0x0000

1000011a <isr_nmi>:
1000011a:	be00      	bkpt	0x0000

1000011c <isr_hardfault>:
1000011c:	be00      	bkpt	0x0000

1000011e <isr_svcall>:
1000011e:	be00      	bkpt	0x0000

10000120 <isr_pendsv>:
10000120:	be00      	bkpt	0x0000

10000122 <isr_systick>:
10000122:	be00      	bkpt	0x0000

10000124 <__default_isrs_end>:
10000124:	7188ebf2 	.word	0x7188ebf2
10000128:	1000901c 	.word	0x1000901c
1000012c:	10009058 	.word	0x10009058
10000130:	100001a0 	.word	0x100001a0
10000134:	e71aa390 	.word	0xe71aa390

10000138 <__binary_info_header_end>:
10000138:	ffffded3 	.word	0xffffded3
1000013c:	10210142 	.word	0x10210142
10000140:	000001ff 	.word	0x000001ff
10000144:	0000b208 	.word	0x0000b208
10000148:	ab123579 	.word	0xab123579

1000014c <_entry_point>:
1000014c:	f04f 0000 	mov.w	r0, #0

10000150 <_enter_vtable_in_r0>:
10000150:	491e      	ldr	r1, [pc, #120]	; (100001cc <data_cpy_table+0x2c>)
10000152:	6008      	str	r0, [r1, #0]
10000154:	c806      	ldmia	r0!, {r1, r2}
10000156:	f381 8808 	msr	MSP, r1
1000015a:	4710      	bx	r2

1000015c <_reset_handler>:
1000015c:	f04f 4050 	mov.w	r0, #3489660928	; 0xd0000000
10000160:	6800      	ldr	r0, [r0, #0]
10000162:	b110      	cbz	r0, 1000016a <hold_non_core0_in_bootrom+0x6>

10000164 <hold_non_core0_in_bootrom>:
10000164:	f04f 0000 	mov.w	r0, #0
10000168:	e7f2      	b.n	10000150 <_enter_vtable_in_r0>
1000016a:	a40d      	add	r4, pc, #52	; (adr r4, 100001a0 <data_cpy_table>)
1000016c:	cc0e      	ldmia	r4!, {r1, r2, r3}
1000016e:	2900      	cmp	r1, #0
10000170:	d002      	beq.n	10000178 <hold_non_core0_in_bootrom+0x14>
10000172:	f000 f812 	bl	1000019a <data_cpy>
10000176:	e7f9      	b.n	1000016c <hold_non_core0_in_bootrom+0x8>
10000178:	4915      	ldr	r1, [pc, #84]	; (100001d0 <data_cpy_table+0x30>)
1000017a:	4a16      	ldr	r2, [pc, #88]	; (100001d4 <data_cpy_table+0x34>)
1000017c:	2000      	movs	r0, #0
1000017e:	e000      	b.n	10000182 <bss_fill_test>

10000180 <bss_fill_loop>:
10000180:	c101      	stmia	r1!, {r0}

10000182 <bss_fill_test>:
10000182:	4291      	cmp	r1, r2
10000184:	d1fc      	bne.n	10000180 <bss_fill_loop>

10000186 <platform_entry>:
10000186:	4914      	ldr	r1, [pc, #80]	; (100001d8 <data_cpy_table+0x38>)
10000188:	4788      	blx	r1
1000018a:	4914      	ldr	r1, [pc, #80]	; (100001dc <data_cpy_table+0x3c>)
1000018c:	4788      	blx	r1
1000018e:	4914      	ldr	r1, [pc, #80]	; (100001e0 <data_cpy_table+0x40>)
10000190:	4788      	blx	r1
10000192:	be00      	bkpt	0x0000
10000194:	e7fd      	b.n	10000192 <platform_entry+0xc>

10000196 <data_cpy_loop>:
10000196:	c901      	ldmia	r1!, {r0}
10000198:	c201      	stmia	r2!, {r0}

1000019a <data_cpy>:
1000019a:	429a      	cmp	r2, r3
1000019c:	d3fb      	bcc.n	10000196 <data_cpy_loop>
1000019e:	4770      	bx	lr

100001a0 <data_cpy_table>:
100001a0:	10009058 	.word	0x10009058
100001a4:	20000110 	.word	0x20000110
100001a8:	200023f8 	.word	0x200023f8
100001ac:	1000b340 	.word	0x1000b340
100001b0:	20080000 	.word	0x20080000
100001b4:	20080000 	.word	0x20080000
100001b8:	1000b340 	.word	0x1000b340
100001bc:	20081000 	.word	0x20081000
100001c0:	20081000 	.word	0x20081000
100001c4:	00000000 	.word	0x00000000
100001c8:	4770      	bx	lr
100001ca:	0000      	.short	0x0000
100001cc:	e000ed08 	.word	0xe000ed08
100001d0:	200023f8 	.word	0x200023f8
100001d4:	20003218 	.word	0x20003218
100001d8:	10003225 	.word	0x10003225
100001dc:	10000229 	.word	0x10000229
100001e0:	100031e5 	.word	0x100031e5

100001e4 <_init>:
100001e4:	b5f8      	push	{r3, r4, r5, r6, r7, lr}
100001e6:	bf00      	nop

100001e8 <__do_global_dtors_aux>:
100001e8:	b510      	push	{r4, lr}
100001ea:	4c05      	ldr	r4, [pc, #20]	; (10000200 <__do_global_dtors_aux+0x18>)
100001ec:	7823      	ldrb	r3, [r4, #0]
100001ee:	b933      	cbnz	r3, 100001fe <__do_global_dtors_aux+0x16>
100001f0:	4b04      	ldr	r3, [pc, #16]	; (10000204 <__do_global_dtors_aux+0x1c>)
100001f2:	b113      	cbz	r3, 100001fa <__do_global_dtors_aux+0x12>
100001f4:	4804      	ldr	r0, [pc, #16]	; (10000208 <__do_global_dtors_aux+0x20>)
100001f6:	e000      	b.n	100001fa <__do_global_dtors_aux+0x12>
100001f8:	bf00      	nop
100001fa:	2301      	movs	r3, #1
100001fc:	7023      	strb	r3, [r4, #0]
100001fe:	bd10      	pop	{r4, pc}
10000200:	20002580 	.word	0x20002580
10000204:	00000000 	.word	0x00000000
10000208:	10007cb8 	.word	0x10007cb8

1000020c <frame_dummy>:
1000020c:	b508      	push	{r3, lr}
1000020e:	4b03      	ldr	r3, [pc, #12]	; (1000021c <frame_dummy+0x10>)
10000210:	b11b      	cbz	r3, 1000021a <frame_dummy+0xe>
10000212:	4903      	ldr	r1, [pc, #12]	; (10000220 <frame_dummy+0x14>)
10000214:	4803      	ldr	r0, [pc, #12]	; (10000224 <frame_dummy+0x18>)
10000216:	e000      	b.n	1000021a <frame_dummy+0xe>
10000218:	bf00      	nop
1000021a:	bd08      	pop	{r3, pc}
1000021c:	00000000 	.word	0x00000000
10000220:	20002584 	.word	0x20002584
10000224:	10007cb8 	.word	0x10007cb8

10000228 <main>:
10000228:	b510      	push	{r4, lr}
1000022a:	f003 f949 	bl	100034c0 <stdio_init_all>
1000022e:	4c0f      	ldr	r4, [pc, #60]	; (1000026c <main+0x44>)
10000230:	2201      	movs	r2, #1
10000232:	2100      	movs	r1, #0
10000234:	4620      	mov	r0, r4
10000236:	f000 f939 	bl	100004ac <sem_init>
1000023a:	480d      	ldr	r0, [pc, #52]	; (10000270 <main+0x48>)
1000023c:	f000 f924 	bl	10000488 <multicore_launch_core1>
10000240:	4620      	mov	r0, r4
10000242:	f007 fcbd 	bl	10007bc0 <__sem_acquire_blocking_veneer>
10000246:	480b      	ldr	r0, [pc, #44]	; (10000274 <main+0x4c>)
10000248:	f003 f96a 	bl	10003520 <__wrap_puts>
1000024c:	f006 fd50 	bl	10006cf0 <scanvideo_wait_for_vblank>
10000250:	2000      	movs	r0, #0
10000252:	f003 f93d 	bl	100034d0 <stdio_getchar_timeout_us>
10000256:	2820      	cmp	r0, #32
10000258:	d1f8      	bne.n	1000024c <main+0x24>
1000025a:	4b07      	ldr	r3, [pc, #28]	; (10000278 <main+0x50>)
1000025c:	7819      	ldrb	r1, [r3, #0]
1000025e:	f081 0101 	eor.w	r1, r1, #1
10000262:	7019      	strb	r1, [r3, #0]
10000264:	4805      	ldr	r0, [pc, #20]	; (1000027c <main+0x54>)
10000266:	f003 f989 	bl	1000357c <__wrap_printf>
1000026a:	e7ef      	b.n	1000024c <main+0x24>
1000026c:	200031ec 	.word	0x200031ec
10000270:	10000355 	.word	0x10000355
10000274:	10007cb8 	.word	0x10007cb8
10000278:	2000320f 	.word	0x2000320f
1000027c:	10007ce4 	.word	0x10007ce4

10000280 <draw_color_bar>:
10000280:	b510      	push	{r4, lr}
10000282:	4604      	mov	r4, r0
10000284:	8803      	ldrh	r3, [r0, #0]
10000286:	ebc3 03c3 	rsb	r3, r3, r3, lsl #3
1000028a:	482c      	ldr	r0, [pc, #176]	; (1000033c <draw_color_bar+0xbc>)
1000028c:	8942      	ldrh	r2, [r0, #10]
1000028e:	fbb3 f3f2 	udiv	r3, r3, r2
10000292:	3301      	adds	r3, #1
10000294:	f3c3 0c80 	ubfx	ip, r3, #2, #1
10000298:	ebcc 114c 	rsb	r1, ip, ip, lsl #5
1000029c:	f3c3 0240 	ubfx	r2, r3, #1, #1
100002a0:	ebc2 1242 	rsb	r2, r2, r2, lsl #5
100002a4:	ea4f 1c82 	mov.w	ip, r2, lsl #6
100002a8:	ea4c 2cc1 	orr.w	ip, ip, r1, lsl #11
100002ac:	f003 0301 	and.w	r3, r3, #1
100002b0:	ebc3 1343 	rsb	r3, r3, r3, lsl #5
100002b4:	ea4c 0c03 	orr.w	ip, ip, r3
100002b8:	f8b0 e008 	ldrh.w	lr, [r0, #8]
100002bc:	ea4f 1e5e 	mov.w	lr, lr, lsr #5
100002c0:	6861      	ldr	r1, [r4, #4]
100002c2:	4b1f      	ldr	r3, [pc, #124]	; (10000340 <draw_color_bar+0xc0>)
100002c4:	781b      	ldrb	r3, [r3, #0]
100002c6:	b11b      	cbz	r3, 100002d0 <draw_color_bar+0x50>
100002c8:	f64f 70df 	movw	r0, #65503	; 0xffdf
100002cc:	2200      	movs	r2, #0
100002ce:	e011      	b.n	100002f4 <draw_color_bar+0x74>
100002d0:	2000      	movs	r0, #0
100002d2:	e7fb      	b.n	100002cc <draw_color_bar+0x4c>
100002d4:	2303      	movs	r3, #3
100002d6:	800b      	strh	r3, [r1, #0]
100002d8:	0193      	lsls	r3, r2, #6
100002da:	ea43 23c2 	orr.w	r3, r3, r2, lsl #11
100002de:	4313      	orrs	r3, r2
100002e0:	ea03 030c 	and.w	r3, r3, ip
100002e4:	b29b      	uxth	r3, r3
100002e6:	4043      	eors	r3, r0
100002e8:	804b      	strh	r3, [r1, #2]
100002ea:	f1ae 0303 	sub.w	r3, lr, #3
100002ee:	808b      	strh	r3, [r1, #4]
100002f0:	3201      	adds	r2, #1
100002f2:	3106      	adds	r1, #6
100002f4:	2a1f      	cmp	r2, #31
100002f6:	d9ed      	bls.n	100002d4 <draw_color_bar+0x54>
100002f8:	f011 0f03 	tst.w	r1, #3
100002fc:	d112      	bne.n	10000324 <draw_color_bar+0xa4>
100002fe:	230b      	movs	r3, #11
10000300:	800b      	strh	r3, [r1, #0]
10000302:	2200      	movs	r2, #0
10000304:	804a      	strh	r2, [r1, #2]
10000306:	808a      	strh	r2, [r1, #4]
10000308:	f101 0308 	add.w	r3, r1, #8
1000030c:	80ca      	strh	r2, [r1, #6]
1000030e:	6862      	ldr	r2, [r4, #4]
10000310:	1a9b      	subs	r3, r3, r2
10000312:	f3c3 038f 	ubfx	r3, r3, #2, #16
10000316:	8123      	strh	r3, [r4, #8]
10000318:	8962      	ldrh	r2, [r4, #10]
1000031a:	4293      	cmp	r3, r2
1000031c:	d208      	bcs.n	10000330 <draw_color_bar+0xb0>
1000031e:	2301      	movs	r3, #1
10000320:	7423      	strb	r3, [r4, #16]
10000322:	bd10      	pop	{r4, pc}
10000324:	4b07      	ldr	r3, [pc, #28]	; (10000344 <draw_color_bar+0xc4>)
10000326:	4a08      	ldr	r2, [pc, #32]	; (10000348 <draw_color_bar+0xc8>)
10000328:	214c      	movs	r1, #76	; 0x4c
1000032a:	4808      	ldr	r0, [pc, #32]	; (1000034c <draw_color_bar+0xcc>)
1000032c:	f002 ff5e 	bl	100031ec <__assert_func>
10000330:	4b07      	ldr	r3, [pc, #28]	; (10000350 <draw_color_bar+0xd0>)
10000332:	4a05      	ldr	r2, [pc, #20]	; (10000348 <draw_color_bar+0xc8>)
10000334:	2156      	movs	r1, #86	; 0x56
10000336:	4805      	ldr	r0, [pc, #20]	; (1000034c <draw_color_bar+0xcc>)
10000338:	f002 ff58 	bl	100031ec <__assert_func>
1000033c:	10008fe4 	.word	0x10008fe4
10000340:	2000320f 	.word	0x2000320f
10000344:	10007cf4 	.word	0x10007cf4
10000348:	10007d74 	.word	0x10007d74
1000034c:	10007d0c 	.word	0x10007d0c
10000350:	10007d4c 	.word	0x10007d4c

10000354 <core1_func>:
10000354:	b510      	push	{r4, lr}
10000356:	4809      	ldr	r0, [pc, #36]	; (1000037c <core1_func+0x28>)
10000358:	f006 fc7e 	bl	10006c58 <scanvideo_setup>
1000035c:	2001      	movs	r0, #1
1000035e:	f006 fc7f 	bl	10006c60 <scanvideo_timing_enable>
10000362:	4807      	ldr	r0, [pc, #28]	; (10000380 <core1_func+0x2c>)
10000364:	f007 fc04 	bl	10007b70 <__sem_release_veneer>
10000368:	2001      	movs	r0, #1
1000036a:	f007 fc49 	bl	10007c00 <__scanvideo_begin_scanline_generation_veneer>
1000036e:	4604      	mov	r4, r0
10000370:	f7ff ff86 	bl	10000280 <draw_color_bar>
10000374:	4620      	mov	r0, r4
10000376:	f007 fc1b 	bl	10007bb0 <__scanvideo_end_scanline_generation_veneer>
1000037a:	e7f5      	b.n	10000368 <core1_func+0x14>
1000037c:	10008fe4 	.word	0x10008fe4
10000380:	200031ec 	.word	0x200031ec

10000384 <core1_trampoline>:
10000384:	bd03      	pop	{r0, r1, pc}

10000386 <core1_wrapper>:
10000386:	b510      	push	{r4, lr}
10000388:	4604      	mov	r4, r0
1000038a:	f001 fbbb 	bl	10001b04 <runtime_run_per_core_initializers>
1000038e:	47a0      	blx	r4
10000390:	bd10      	pop	{r4, pc}

10000392 <multicore_fifo_push_blocking>:
10000392:	f04f 4350 	mov.w	r3, #3489660928	; 0xd0000000
10000396:	6d1b      	ldr	r3, [r3, #80]	; 0x50
10000398:	f013 0f02 	tst.w	r3, #2
1000039c:	d0f9      	beq.n	10000392 <multicore_fifo_push_blocking>
1000039e:	f04f 4350 	mov.w	r3, #3489660928	; 0xd0000000
100003a2:	6558      	str	r0, [r3, #84]	; 0x54
100003a4:	bf40      	sev
100003a6:	4770      	bx	lr

100003a8 <multicore_fifo_pop_blocking>:
100003a8:	e000      	b.n	100003ac <multicore_fifo_pop_blocking+0x4>
100003aa:	bf20      	wfe
100003ac:	f04f 4350 	mov.w	r3, #3489660928	; 0xd0000000
100003b0:	6d1b      	ldr	r3, [r3, #80]	; 0x50
100003b2:	f013 0f01 	tst.w	r3, #1
100003b6:	d0f8      	beq.n	100003aa <multicore_fifo_pop_blocking+0x2>
100003b8:	f04f 4350 	mov.w	r3, #3489660928	; 0xd0000000
100003bc:	6d98      	ldr	r0, [r3, #88]	; 0x58
100003be:	4770      	bx	lr

100003c0 <multicore_launch_core1_raw>:
100003c0:	e92d 41f0 	stmdb	sp!, {r4, r5, r6, r7, r8, lr}
100003c4:	b086      	sub	sp, #24
100003c6:	4604      	mov	r4, r0
100003c8:	460f      	mov	r7, r1
100003ca:	4690      	mov	r8, r2
100003cc:	2019      	movs	r0, #25
100003ce:	f000 fdb5 	bl	10000f3c <irq_is_enabled>
100003d2:	4606      	mov	r6, r0
100003d4:	2100      	movs	r1, #0
100003d6:	2019      	movs	r0, #25
100003d8:	f000 fddc 	bl	10000f94 <irq_set_enabled>
100003dc:	2500      	movs	r5, #0
100003de:	9500      	str	r5, [sp, #0]
100003e0:	9501      	str	r5, [sp, #4]
100003e2:	2301      	movs	r3, #1
100003e4:	9302      	str	r3, [sp, #8]
100003e6:	f8cd 800c 	str.w	r8, [sp, #12]
100003ea:	9704      	str	r7, [sp, #16]
100003ec:	9405      	str	r4, [sp, #20]
100003ee:	e000      	b.n	100003f2 <multicore_launch_core1_raw+0x32>
100003f0:	2500      	movs	r5, #0
100003f2:	ab06      	add	r3, sp, #24
100003f4:	eb03 0385 	add.w	r3, r3, r5, lsl #2
100003f8:	f853 4c18 	ldr.w	r4, [r3, #-24]
100003fc:	b19c      	cbz	r4, 10000426 <multicore_launch_core1_raw+0x66>
100003fe:	4620      	mov	r0, r4
10000400:	f7ff ffc7 	bl	10000392 <multicore_fifo_push_blocking>
10000404:	f7ff ffd0 	bl	100003a8 <multicore_fifo_pop_blocking>
10000408:	4284      	cmp	r4, r0
1000040a:	d1f1      	bne.n	100003f0 <multicore_launch_core1_raw+0x30>
1000040c:	3501      	adds	r5, #1
1000040e:	2d05      	cmp	r5, #5
10000410:	d9ef      	bls.n	100003f2 <multicore_launch_core1_raw+0x32>
10000412:	4631      	mov	r1, r6
10000414:	2019      	movs	r0, #25
10000416:	f000 fdbd 	bl	10000f94 <irq_set_enabled>
1000041a:	b006      	add	sp, #24
1000041c:	e8bd 81f0 	ldmia.w	sp!, {r4, r5, r6, r7, r8, pc}
10000420:	f04f 4350 	mov.w	r3, #3489660928	; 0xd0000000
10000424:	6d9b      	ldr	r3, [r3, #88]	; 0x58
10000426:	f04f 4350 	mov.w	r3, #3489660928	; 0xd0000000
1000042a:	6d1b      	ldr	r3, [r3, #80]	; 0x50
1000042c:	f013 0f01 	tst.w	r3, #1
10000430:	d1f6      	bne.n	10000420 <multicore_launch_core1_raw+0x60>
10000432:	bf40      	sev
10000434:	e7e3      	b.n	100003fe <multicore_launch_core1_raw+0x3e>
	...

10000438 <multicore_launch_core1_with_stack>:
10000438:	b508      	push	{r3, lr}
1000043a:	f012 0f03 	tst.w	r2, #3
1000043e:	d111      	bne.n	10000464 <multicore_launch_core1_with_stack+0x2c>
10000440:	f022 0203 	bic.w	r2, r2, #3
10000444:	188b      	adds	r3, r1, r2
10000446:	4a0a      	ldr	r2, [pc, #40]	; (10000470 <multicore_launch_core1_with_stack+0x38>)
10000448:	6892      	ldr	r2, [r2, #8]
1000044a:	f843 0c0c 	str.w	r0, [r3, #-12]
1000044e:	f843 1c08 	str.w	r1, [r3, #-8]
10000452:	4908      	ldr	r1, [pc, #32]	; (10000474 <multicore_launch_core1_with_stack+0x3c>)
10000454:	f843 1c04 	str.w	r1, [r3, #-4]
10000458:	f1a3 010c 	sub.w	r1, r3, #12
1000045c:	4806      	ldr	r0, [pc, #24]	; (10000478 <multicore_launch_core1_with_stack+0x40>)
1000045e:	f7ff ffaf 	bl	100003c0 <multicore_launch_core1_raw>
10000462:	bd08      	pop	{r3, pc}
10000464:	4b05      	ldr	r3, [pc, #20]	; (1000047c <multicore_launch_core1_with_stack+0x44>)
10000466:	4a06      	ldr	r2, [pc, #24]	; (10000480 <multicore_launch_core1_with_stack+0x48>)
10000468:	218e      	movs	r1, #142	; 0x8e
1000046a:	4806      	ldr	r0, [pc, #24]	; (10000484 <multicore_launch_core1_with_stack+0x4c>)
1000046c:	f002 febe 	bl	100031ec <__assert_func>
10000470:	e000ed00 	.word	0xe000ed00
10000474:	10000387 	.word	0x10000387
10000478:	10000385 	.word	0x10000385
1000047c:	10007de8 	.word	0x10007de8
10000480:	10007e04 	.word	0x10007e04
10000484:	10007dac 	.word	0x10007dac

10000488 <multicore_launch_core1>:
10000488:	b508      	push	{r3, lr}
1000048a:	4a06      	ldr	r2, [pc, #24]	; (100004a4 <multicore_launch_core1+0x1c>)
1000048c:	4b06      	ldr	r3, [pc, #24]	; (100004a8 <multicore_launch_core1+0x20>)
1000048e:	429a      	cmp	r2, r3
10000490:	d805      	bhi.n	1000049e <multicore_launch_core1+0x16>
10000492:	4619      	mov	r1, r3
10000494:	f44f 6200 	mov.w	r2, #2048	; 0x800
10000498:	f7ff ffce 	bl	10000438 <multicore_launch_core1_with_stack>
1000049c:	bd08      	pop	{r3, pc}
1000049e:	f04f 31ff 	mov.w	r1, #4294967295
100004a2:	e7f7      	b.n	10000494 <multicore_launch_core1+0xc>
100004a4:	20080000 	.word	0x20080000
100004a8:	20080800 	.word	0x20080800

100004ac <sem_init>:
100004ac:	b570      	push	{r4, r5, r6, lr}
100004ae:	4604      	mov	r4, r0
100004b0:	460e      	mov	r6, r1
100004b2:	4615      	mov	r5, r2
100004b4:	f000 fc94 	bl	10000de0 <next_striped_spin_lock_num>
100004b8:	4601      	mov	r1, r0
100004ba:	4620      	mov	r0, r4
100004bc:	f000 f806 	bl	100004cc <lock_init>
100004c0:	80a6      	strh	r6, [r4, #4]
100004c2:	80e5      	strh	r5, [r4, #6]
100004c4:	f3bf 8f5f 	dmb	sy
100004c8:	bd70      	pop	{r4, r5, r6, pc}
	...

100004cc <lock_init>:
100004cc:	4b01      	ldr	r3, [pc, #4]	; (100004d4 <lock_init+0x8>)
100004ce:	440b      	add	r3, r1
100004d0:	6003      	str	r3, [r0, #0]
100004d2:	4770      	bx	lr
100004d4:	20002794 	.word	0x20002794

100004d8 <mutex_init>:
100004d8:	b510      	push	{r4, lr}
100004da:	4604      	mov	r4, r0
100004dc:	f000 fc80 	bl	10000de0 <next_striped_spin_lock_num>
100004e0:	4601      	mov	r1, r0
100004e2:	4620      	mov	r0, r4
100004e4:	f7ff fff2 	bl	100004cc <lock_init>
100004e8:	23ff      	movs	r3, #255	; 0xff
100004ea:	7123      	strb	r3, [r4, #4]
100004ec:	f3bf 8f5f 	dmb	sy
100004f0:	bd10      	pop	{r4, pc}

100004f2 <recursive_mutex_init>:
100004f2:	b510      	push	{r4, lr}
100004f4:	4604      	mov	r4, r0
100004f6:	f000 fc73 	bl	10000de0 <next_striped_spin_lock_num>
100004fa:	4601      	mov	r1, r0
100004fc:	4620      	mov	r0, r4
100004fe:	f7ff ffe5 	bl	100004cc <lock_init>
10000502:	23ff      	movs	r3, #255	; 0xff
10000504:	7123      	strb	r3, [r4, #4]
10000506:	2300      	movs	r3, #0
10000508:	7163      	strb	r3, [r4, #5]
1000050a:	f3bf 8f5f 	dmb	sy
1000050e:	bd10      	pop	{r4, pc}

10000510 <runtime_init_mutex>:
10000510:	b510      	push	{r4, lr}
10000512:	4c0d      	ldr	r4, [pc, #52]	; (10000548 <runtime_init_mutex+0x38>)
10000514:	e009      	b.n	1000052a <runtime_init_mutex+0x1a>
10000516:	4b0d      	ldr	r3, [pc, #52]	; (1000054c <runtime_init_mutex+0x3c>)
10000518:	4a0d      	ldr	r2, [pc, #52]	; (10000550 <runtime_init_mutex+0x40>)
1000051a:	211a      	movs	r1, #26
1000051c:	480d      	ldr	r0, [pc, #52]	; (10000554 <runtime_init_mutex+0x44>)
1000051e:	f002 fe65 	bl	100031ec <__assert_func>
10000522:	4620      	mov	r0, r4
10000524:	f7ff ffd8 	bl	100004d8 <mutex_init>
10000528:	3408      	adds	r4, #8
1000052a:	4b0b      	ldr	r3, [pc, #44]	; (10000558 <runtime_init_mutex+0x48>)
1000052c:	429c      	cmp	r4, r3
1000052e:	d209      	bcs.n	10000544 <runtime_init_mutex+0x34>
10000530:	6823      	ldr	r3, [r4, #0]
10000532:	2b00      	cmp	r3, #0
10000534:	d0f5      	beq.n	10000522 <runtime_init_mutex+0x12>
10000536:	2b01      	cmp	r3, #1
10000538:	d1ed      	bne.n	10000516 <runtime_init_mutex+0x6>
1000053a:	4620      	mov	r0, r4
1000053c:	f7ff ffd9 	bl	100004f2 <recursive_mutex_init>
10000540:	3408      	adds	r4, #8
10000542:	e7f2      	b.n	1000052a <runtime_init_mutex+0x1a>
10000544:	bd10      	pop	{r4, pc}
10000546:	bf00      	nop
10000548:	200023e8 	.word	0x200023e8
1000054c:	10007e28 	.word	0x10007e28
10000550:	10007ef0 	.word	0x10007ef0
10000554:	10007e48 	.word	0x10007e48
10000558:	200023f8 	.word	0x200023f8

1000055c <critical_section_init_with_lock_num>:
1000055c:	4b02      	ldr	r3, [pc, #8]	; (10000568 <critical_section_init_with_lock_num+0xc>)
1000055e:	440b      	add	r3, r1
10000560:	6003      	str	r3, [r0, #0]
10000562:	f3bf 8f5f 	dmb	sy
10000566:	4770      	bx	lr
10000568:	20002794 	.word	0x20002794

1000056c <critical_section_init>:
1000056c:	b510      	push	{r4, lr}
1000056e:	4604      	mov	r4, r0
10000570:	2001      	movs	r0, #1
10000572:	f000 fc43 	bl	10000dfc <spin_lock_claim_unused>
10000576:	4601      	mov	r1, r0
10000578:	4620      	mov	r0, r4
1000057a:	f7ff ffef 	bl	1000055c <critical_section_init_with_lock_num>
1000057e:	bd10      	pop	{r4, pc}

10000580 <make_alarm_id>:
10000580:	ea41 4000 	orr.w	r0, r1, r0, lsl #16
10000584:	4770      	bx	lr
	...

10000588 <sleep_until_callback>:
10000588:	4b0d      	ldr	r3, [pc, #52]	; (100005c0 <sleep_until_callback+0x38>)
1000058a:	681a      	ldr	r2, [r3, #0]
1000058c:	f3ef 8110 	mrs	r1, PRIMASK
10000590:	b672      	cpsid	i
10000592:	e8d2 cfcf 	ldaexb	ip, [r2]
10000596:	2001      	movs	r0, #1
10000598:	f1bc 0f00 	cmp.w	ip, #0
1000059c:	d1f9      	bne.n	10000592 <sleep_until_callback+0xa>
1000059e:	e8c2 0f4c 	strexb	ip, r0, [r2]
100005a2:	f1bc 0f00 	cmp.w	ip, #0
100005a6:	d1f4      	bne.n	10000592 <sleep_until_callback+0xa>
100005a8:	f3bf 8f5f 	dmb	sy
100005ac:	681a      	ldr	r2, [r3, #0]
100005ae:	2300      	movs	r3, #0
100005b0:	e8c2 3f8f 	stlb	r3, [r2]
100005b4:	f381 8810 	msr	PRIMASK, r1
100005b8:	bf40      	sev
100005ba:	2000      	movs	r0, #0
100005bc:	2100      	movs	r1, #0
100005be:	4770      	bx	lr
100005c0:	20003180 	.word	0x20003180

100005c4 <alarm_pool_irq_handler>:
100005c4:	e92d 4ff0 	stmdb	sp!, {r4, r5, r6, r7, r8, r9, sl, fp, lr}
100005c8:	b085      	sub	sp, #20
100005ca:	f3ef 8705 	mrs	r7, IPSR
100005ce:	b2ff      	uxtb	r7, r7
100005d0:	3f10      	subs	r7, #16
100005d2:	08bb      	lsrs	r3, r7, #2
100005d4:	d015      	beq.n	10000602 <alarm_pool_irq_handler+0x3e>
100005d6:	4d96      	ldr	r5, [pc, #600]	; (10000830 <alarm_pool_irq_handler+0x26c>)
100005d8:	f007 0703 	and.w	r7, r7, #3
100005dc:	4b94      	ldr	r3, [pc, #592]	; (10000830 <alarm_pool_irq_handler+0x26c>)
100005de:	429d      	cmp	r5, r3
100005e0:	bf14      	ite	ne
100005e2:	2300      	movne	r3, #0
100005e4:	2301      	moveq	r3, #1
100005e6:	eb07 0383 	add.w	r3, r7, r3, lsl #2
100005ea:	4a92      	ldr	r2, [pc, #584]	; (10000834 <alarm_pool_irq_handler+0x270>)
100005ec:	f852 4023 	ldr.w	r4, [r2, r3, lsl #2]
100005f0:	7823      	ldrb	r3, [r4, #0]
100005f2:	42bb      	cmp	r3, r7
100005f4:	d107      	bne.n	10000606 <alarm_pool_irq_handler+0x42>
100005f6:	2201      	movs	r2, #1
100005f8:	40ba      	lsls	r2, r7
100005fa:	f505 5341 	add.w	r3, r5, #12352	; 0x3040
100005fe:	605a      	str	r2, [r3, #4]
10000600:	e131      	b.n	10000866 <alarm_pool_irq_handler+0x2a2>
10000602:	4d8d      	ldr	r5, [pc, #564]	; (10000838 <alarm_pool_irq_handler+0x274>)
10000604:	e7e8      	b.n	100005d8 <alarm_pool_irq_handler+0x14>
10000606:	4b8d      	ldr	r3, [pc, #564]	; (1000083c <alarm_pool_irq_handler+0x278>)
10000608:	4a8d      	ldr	r2, [pc, #564]	; (10000840 <alarm_pool_irq_handler+0x27c>)
1000060a:	2192      	movs	r1, #146	; 0x92
1000060c:	488d      	ldr	r0, [pc, #564]	; (10000844 <alarm_pool_irq_handler+0x280>)
1000060e:	f002 fded 	bl	100031ec <__assert_func>
10000612:	f8d4 a014 	ldr.w	sl, [r4, #20]
10000616:	eb06 0846 	add.w	r8, r6, r6, lsl #1
1000061a:	ea4f 0bc8 	mov.w	fp, r8, lsl #3
1000061e:	eb0a 08c8 	add.w	r8, sl, r8, lsl #3
10000622:	f8d8 3008 	ldr.w	r3, [r8, #8]
10000626:	9301      	str	r3, [sp, #4]
10000628:	f8d8 900c 	ldr.w	r9, [r8, #12]
1000062c:	4628      	mov	r0, r5
1000062e:	f000 fb27 	bl	10000c80 <timer_time_us_64>
10000632:	9b01      	ldr	r3, [sp, #4]
10000634:	1ac0      	subs	r0, r0, r3
10000636:	eb61 0309 	sbc.w	r3, r1, r9
1000063a:	2b00      	cmp	r3, #0
1000063c:	f2c0 811b 	blt.w	10000876 <alarm_pool_irq_handler+0x2b2>
10000640:	f1b9 0f00 	cmp.w	r9, #0
10000644:	db65      	blt.n	10000712 <alarm_pool_irq_handler+0x14e>
10000646:	f8d8 3010 	ldr.w	r3, [r8, #16]
1000064a:	461a      	mov	r2, r3
1000064c:	9302      	str	r3, [sp, #8]
1000064e:	4b7e      	ldr	r3, [pc, #504]	; (10000848 <alarm_pool_irq_handler+0x284>)
10000650:	429a      	cmp	r2, r3
10000652:	d032      	beq.n	100006ba <alarm_pool_irq_handler+0xf6>
10000654:	f8b8 1002 	ldrh.w	r1, [r8, #2]
10000658:	b289      	uxth	r1, r1
1000065a:	f9b4 0008 	ldrsh.w	r0, [r4, #8]
1000065e:	f7ff ff8f 	bl	10000580 <make_alarm_id>
10000662:	f8d8 1014 	ldr.w	r1, [r8, #20]
10000666:	9b02      	ldr	r3, [sp, #8]
10000668:	4798      	blx	r3
1000066a:	9002      	str	r0, [sp, #8]
1000066c:	9103      	str	r1, [sp, #12]
1000066e:	9a02      	ldr	r2, [sp, #8]
10000670:	9b03      	ldr	r3, [sp, #12]
10000672:	ea52 0103 	orrs.w	r1, r2, r3
10000676:	d04c      	beq.n	10000712 <alarm_pool_irq_handler+0x14e>
10000678:	2b00      	cmp	r3, #0
1000067a:	da2b      	bge.n	100006d4 <alarm_pool_irq_handler+0x110>
1000067c:	9901      	ldr	r1, [sp, #4]
1000067e:	1a88      	subs	r0, r1, r2
10000680:	eb69 0903 	sbc.w	r9, r9, r3
10000684:	f8c8 0008 	str.w	r0, [r8, #8]
10000688:	f8c8 900c 	str.w	r9, [r8, #12]
1000068c:	f93a 300b 	ldrsh.w	r3, [sl, fp]
10000690:	2b00      	cmp	r3, #0
10000692:	f2c0 80f0 	blt.w	10000876 <alarm_pool_irq_handler+0x2b2>
10000696:	f8d4 8014 	ldr.w	r8, [r4, #20]
1000069a:	eb03 0243 	add.w	r2, r3, r3, lsl #1
1000069e:	eb08 02c2 	add.w	r2, r8, r2, lsl #3
100006a2:	6891      	ldr	r1, [r2, #8]
100006a4:	68d2      	ldr	r2, [r2, #12]
100006a6:	1a41      	subs	r1, r0, r1
100006a8:	eb69 0202 	sbc.w	r2, r9, r2
100006ac:	2a00      	cmp	r2, #0
100006ae:	f2c0 80e2 	blt.w	10000876 <alarm_pool_irq_handler+0x2b2>
100006b2:	46a6      	mov	lr, r4
100006b4:	f82e 3f08 	strh.w	r3, [lr, #8]!
100006b8:	e016      	b.n	100006e8 <alarm_pool_irq_handler+0x124>
100006ba:	f8d8 2014 	ldr.w	r2, [r8, #20]
100006be:	6913      	ldr	r3, [r2, #16]
100006c0:	9202      	str	r2, [sp, #8]
100006c2:	4610      	mov	r0, r2
100006c4:	4798      	blx	r3
100006c6:	b320      	cbz	r0, 10000712 <alarm_pool_irq_handler+0x14e>
100006c8:	9a02      	ldr	r2, [sp, #8]
100006ca:	6813      	ldr	r3, [r2, #0]
100006cc:	9302      	str	r3, [sp, #8]
100006ce:	6853      	ldr	r3, [r2, #4]
100006d0:	9303      	str	r3, [sp, #12]
100006d2:	e7cc      	b.n	1000066e <alarm_pool_irq_handler+0xaa>
100006d4:	4628      	mov	r0, r5
100006d6:	f000 fad3 	bl	10000c80 <timer_time_us_64>
100006da:	9b02      	ldr	r3, [sp, #8]
100006dc:	1818      	adds	r0, r3, r0
100006de:	9b03      	ldr	r3, [sp, #12]
100006e0:	eb43 0901 	adc.w	r9, r3, r1
100006e4:	e7ce      	b.n	10000684 <alarm_pool_irq_handler+0xc0>
100006e6:	469e      	mov	lr, r3
100006e8:	f9be c000 	ldrsh.w	ip, [lr]
100006ec:	f1bc 0f00 	cmp.w	ip, #0
100006f0:	db0a      	blt.n	10000708 <alarm_pool_irq_handler+0x144>
100006f2:	eb0c 034c 	add.w	r3, ip, ip, lsl #1
100006f6:	eb08 03c3 	add.w	r3, r8, r3, lsl #3
100006fa:	6899      	ldr	r1, [r3, #8]
100006fc:	68da      	ldr	r2, [r3, #12]
100006fe:	1a41      	subs	r1, r0, r1
10000700:	eb69 0202 	sbc.w	r2, r9, r2
10000704:	2a00      	cmp	r2, #0
10000706:	daee      	bge.n	100006e6 <alarm_pool_irq_handler+0x122>
10000708:	f82a c00b 	strh.w	ip, [sl, fp]
1000070c:	f8ae 6000 	strh.w	r6, [lr]
10000710:	e0b1      	b.n	10000876 <alarm_pool_irq_handler+0x2b2>
10000712:	f93a 300b 	ldrsh.w	r3, [sl, fp]
10000716:	8123      	strh	r3, [r4, #8]
10000718:	6923      	ldr	r3, [r4, #16]
1000071a:	f3ef 8210 	mrs	r2, PRIMASK
1000071e:	b672      	cpsid	i
10000720:	e8d3 0fcf 	ldaexb	r0, [r3]
10000724:	2101      	movs	r1, #1
10000726:	2800      	cmp	r0, #0
10000728:	d1fa      	bne.n	10000720 <alarm_pool_irq_handler+0x15c>
1000072a:	e8c3 1f40 	strexb	r0, r1, [r3]
1000072e:	2800      	cmp	r0, #0
10000730:	d1f6      	bne.n	10000720 <alarm_pool_irq_handler+0x15c>
10000732:	f3bf 8f5f 	dmb	sy
10000736:	f9b4 3002 	ldrsh.w	r3, [r4, #2]
1000073a:	f82a 300b 	strh.w	r3, [sl, fp]
1000073e:	8066      	strh	r6, [r4, #2]
10000740:	6921      	ldr	r1, [r4, #16]
10000742:	2300      	movs	r3, #0
10000744:	e8c1 3f8f 	stlb	r3, [r1]
10000748:	f382 8810 	msr	PRIMASK, r2
1000074c:	e093      	b.n	10000876 <alarm_pool_irq_handler+0x2b2>
1000074e:	6923      	ldr	r3, [r4, #16]
10000750:	f3ef 8210 	mrs	r2, PRIMASK
10000754:	b672      	cpsid	i
10000756:	e8d3 0fcf 	ldaexb	r0, [r3]
1000075a:	2101      	movs	r1, #1
1000075c:	2800      	cmp	r0, #0
1000075e:	d1fa      	bne.n	10000756 <alarm_pool_irq_handler+0x192>
10000760:	e8c3 1f40 	strexb	r0, r1, [r3]
10000764:	2800      	cmp	r0, #0
10000766:	d1f6      	bne.n	10000756 <alarm_pool_irq_handler+0x192>
10000768:	f3bf 8f5f 	dmb	sy
1000076c:	f8b4 9004 	ldrh.w	r9, [r4, #4]
10000770:	fa0f f989 	sxth.w	r9, r9
10000774:	f64f 73ff 	movw	r3, #65535	; 0xffff
10000778:	80a3      	strh	r3, [r4, #4]
1000077a:	6921      	ldr	r1, [r4, #16]
1000077c:	2300      	movs	r3, #0
1000077e:	e8c1 3f8f 	stlb	r3, [r1]
10000782:	f382 8810 	msr	PRIMASK, r2
10000786:	e016      	b.n	100007b6 <alarm_pool_irq_handler+0x1f2>
10000788:	461e      	mov	r6, r3
1000078a:	f9b6 2000 	ldrsh.w	r2, [r6]
1000078e:	2a00      	cmp	r2, #0
10000790:	db0b      	blt.n	100007aa <alarm_pool_irq_handler+0x1e6>
10000792:	eb02 0342 	add.w	r3, r2, r2, lsl #1
10000796:	eb0e 03c3 	add.w	r3, lr, r3, lsl #3
1000079a:	6898      	ldr	r0, [r3, #8]
1000079c:	68d9      	ldr	r1, [r3, #12]
1000079e:	ebbc 0000 	subs.w	r0, ip, r0
100007a2:	eb68 0101 	sbc.w	r1, r8, r1
100007a6:	2900      	cmp	r1, #0
100007a8:	daee      	bge.n	10000788 <alarm_pool_irq_handler+0x1c4>
100007aa:	f8a6 9000 	strh.w	r9, [r6]
100007ae:	f93e 900a 	ldrsh.w	r9, [lr, sl]
100007b2:	f82e 200a 	strh.w	r2, [lr, sl]
100007b6:	f1b9 0f00 	cmp.w	r9, #0
100007ba:	db61      	blt.n	10000880 <alarm_pool_irq_handler+0x2bc>
100007bc:	f8d4 e014 	ldr.w	lr, [r4, #20]
100007c0:	eb09 0349 	add.w	r3, r9, r9, lsl #1
100007c4:	ea4f 0ac3 	mov.w	sl, r3, lsl #3
100007c8:	eb0e 03c3 	add.w	r3, lr, r3, lsl #3
100007cc:	f8d3 c008 	ldr.w	ip, [r3, #8]
100007d0:	f8d3 800c 	ldr.w	r8, [r3, #12]
100007d4:	f104 0608 	add.w	r6, r4, #8
100007d8:	e7d7      	b.n	1000078a <alarm_pool_irq_handler+0x1c6>
100007da:	2300      	movs	r3, #0
100007dc:	71a3      	strb	r3, [r4, #6]
100007de:	f104 0e08 	add.w	lr, r4, #8
100007e2:	f9b4 3008 	ldrsh.w	r3, [r4, #8]
100007e6:	e011      	b.n	1000080c <alarm_pool_irq_handler+0x248>
100007e8:	f04f 38ff 	mov.w	r8, #4294967295
100007ec:	f04f 39ff 	mov.w	r9, #4294967295
100007f0:	e9c0 8902 	strd	r8, r9, [r0, #8]
100007f4:	f9b4 0008 	ldrsh.w	r0, [r4, #8]
100007f8:	4298      	cmp	r0, r3
100007fa:	d006      	beq.n	1000080a <alarm_pool_irq_handler+0x246>
100007fc:	f8ae 2000 	strh.w	r2, [lr]
10000800:	f9b4 0008 	ldrsh.w	r0, [r4, #8]
10000804:	f821 000c 	strh.w	r0, [r1, ip]
10000808:	8123      	strh	r3, [r4, #8]
1000080a:	4613      	mov	r3, r2
1000080c:	f1b3 3fff 	cmp.w	r3, #4294967295
10000810:	d039      	beq.n	10000886 <alarm_pool_irq_handler+0x2c2>
10000812:	6961      	ldr	r1, [r4, #20]
10000814:	eb03 0243 	add.w	r2, r3, r3, lsl #1
10000818:	ea4f 0cc2 	mov.w	ip, r2, lsl #3
1000081c:	eb01 00c2 	add.w	r0, r1, r2, lsl #3
10000820:	f931 2032 	ldrsh.w	r2, [r1, r2, lsl #3]
10000824:	8846      	ldrh	r6, [r0, #2]
10000826:	f416 4f00 	tst.w	r6, #32768	; 0x8000
1000082a:	d1dd      	bne.n	100007e8 <alarm_pool_irq_handler+0x224>
1000082c:	4686      	mov	lr, r0
1000082e:	e7ec      	b.n	1000080a <alarm_pool_irq_handler+0x246>
10000830:	400b8000 	.word	0x400b8000
10000834:	20003054 	.word	0x20003054
10000838:	400b0000 	.word	0x400b0000
1000083c:	10007f04 	.word	0x10007f04
10000840:	10007f9c 	.word	0x10007f9c
10000844:	10007f30 	.word	0x10007f30
10000848:	100005c5 	.word	0x100005c5
1000084c:	1d3b      	adds	r3, r7, #4
1000084e:	f845 6023 	str.w	r6, [r5, r3, lsl #2]
10000852:	4628      	mov	r0, r5
10000854:	f000 fa14 	bl	10000c80 <timer_time_us_64>
10000858:	1a36      	subs	r6, r6, r0
1000085a:	eb68 0101 	sbc.w	r1, r8, r1
1000085e:	2e01      	cmp	r6, #1
10000860:	f171 0300 	sbcs.w	r3, r1, #0
10000864:	da2f      	bge.n	100008c6 <alarm_pool_irq_handler+0x302>
10000866:	2301      	movs	r3, #1
10000868:	40bb      	lsls	r3, r7
1000086a:	63eb      	str	r3, [r5, #60]	; 0x3c
1000086c:	f9b4 6008 	ldrsh.w	r6, [r4, #8]
10000870:	2e00      	cmp	r6, #0
10000872:	f6bf aece 	bge.w	10000612 <alarm_pool_irq_handler+0x4e>
10000876:	88a3      	ldrh	r3, [r4, #4]
10000878:	f413 4f00 	tst.w	r3, #32768	; 0x8000
1000087c:	f43f af67 	beq.w	1000074e <alarm_pool_irq_handler+0x18a>
10000880:	79a3      	ldrb	r3, [r4, #6]
10000882:	2b00      	cmp	r3, #0
10000884:	d1a9      	bne.n	100007da <alarm_pool_irq_handler+0x216>
10000886:	f9b4 3008 	ldrsh.w	r3, [r4, #8]
1000088a:	2b00      	cmp	r3, #0
1000088c:	db1b      	blt.n	100008c6 <alarm_pool_irq_handler+0x302>
1000088e:	6962      	ldr	r2, [r4, #20]
10000890:	eb03 0343 	add.w	r3, r3, r3, lsl #1
10000894:	eb02 03c3 	add.w	r3, r2, r3, lsl #3
10000898:	689e      	ldr	r6, [r3, #8]
1000089a:	f8d3 800c 	ldr.w	r8, [r3, #12]
1000089e:	f1b8 3fff 	cmp.w	r8, #4294967295
100008a2:	bf08      	it	eq
100008a4:	f1b6 3fff 	cmpeq.w	r6, #4294967295
100008a8:	d0d3      	beq.n	10000852 <alarm_pool_irq_handler+0x28e>
100008aa:	6aaa      	ldr	r2, [r5, #40]	; 0x28
100008ac:	1ab1      	subs	r1, r6, r2
100008ae:	1d3b      	adds	r3, r7, #4
100008b0:	f855 3023 	ldr.w	r3, [r5, r3, lsl #2]
100008b4:	1a9b      	subs	r3, r3, r2
100008b6:	4299      	cmp	r1, r3
100008b8:	d3c8      	bcc.n	1000084c <alarm_pool_irq_handler+0x288>
100008ba:	6a2a      	ldr	r2, [r5, #32]
100008bc:	2301      	movs	r3, #1
100008be:	40bb      	lsls	r3, r7
100008c0:	421a      	tst	r2, r3
100008c2:	d1c6      	bne.n	10000852 <alarm_pool_irq_handler+0x28e>
100008c4:	e7c2      	b.n	1000084c <alarm_pool_irq_handler+0x288>
100008c6:	bf40      	sev
100008c8:	b005      	add	sp, #20
100008ca:	e8bd 8ff0 	ldmia.w	sp!, {r4, r5, r6, r7, r8, r9, sl, fp, pc}
100008ce:	bf00      	nop

100008d0 <alarm_pool_post_alloc_init>:
100008d0:	e92d 41f0 	stmdb	sp!, {r4, r5, r6, r7, r8, lr}
100008d4:	4604      	mov	r4, r0
100008d6:	4688      	mov	r8, r1
100008d8:	4617      	mov	r7, r2
100008da:	461e      	mov	r6, r3
100008dc:	60c1      	str	r1, [r0, #12]
100008de:	f000 fa7f 	bl	10000de0 <next_striped_spin_lock_num>
100008e2:	4b20      	ldr	r3, [pc, #128]	; (10000964 <alarm_pool_post_alloc_init+0x94>)
100008e4:	4403      	add	r3, r0
100008e6:	6123      	str	r3, [r4, #16]
100008e8:	7027      	strb	r7, [r4, #0]
100008ea:	b2b3      	uxth	r3, r6
100008ec:	8163      	strh	r3, [r4, #10]
100008ee:	f04f 4250 	mov.w	r2, #3489660928	; 0xd0000000
100008f2:	7812      	ldrb	r2, [r2, #0]
100008f4:	7062      	strb	r2, [r4, #1]
100008f6:	f64f 72ff 	movw	r2, #65535	; 0xffff
100008fa:	8122      	strh	r2, [r4, #8]
100008fc:	80a2      	strh	r2, [r4, #4]
100008fe:	3b01      	subs	r3, #1
10000900:	8063      	strh	r3, [r4, #2]
10000902:	f04f 0c00 	mov.w	ip, #0
10000906:	e008      	b.n	1000091a <alarm_pool_post_alloc_init+0x4a>
10000908:	f10c 35ff 	add.w	r5, ip, #4294967295
1000090c:	6960      	ldr	r0, [r4, #20]
1000090e:	eb0c 0e4c 	add.w	lr, ip, ip, lsl #1
10000912:	f820 503e 	strh.w	r5, [r0, lr, lsl #3]
10000916:	f10c 0c01 	add.w	ip, ip, #1
1000091a:	45b4      	cmp	ip, r6
1000091c:	d3f4      	bcc.n	10000908 <alarm_pool_post_alloc_init+0x38>
1000091e:	4b12      	ldr	r3, [pc, #72]	; (10000968 <alarm_pool_post_alloc_init+0x98>)
10000920:	4598      	cmp	r8, r3
10000922:	bf0c      	ite	eq
10000924:	2301      	moveq	r3, #1
10000926:	2300      	movne	r3, #0
10000928:	eb07 0383 	add.w	r3, r7, r3, lsl #2
1000092c:	4a0f      	ldr	r2, [pc, #60]	; (1000096c <alarm_pool_post_alloc_init+0x9c>)
1000092e:	f842 4023 	str.w	r4, [r2, r3, lsl #2]
10000932:	d014      	beq.n	1000095e <alarm_pool_post_alloc_init+0x8e>
10000934:	2400      	movs	r4, #0
10000936:	443c      	add	r4, r7
10000938:	2501      	movs	r5, #1
1000093a:	fa05 f707 	lsl.w	r7, r5, r7
1000093e:	f8c8 7020 	str.w	r7, [r8, #32]
10000942:	490b      	ldr	r1, [pc, #44]	; (10000970 <alarm_pool_post_alloc_init+0xa0>)
10000944:	4620      	mov	r0, r4
10000946:	f000 fb4f 	bl	10000fe8 <irq_set_exclusive_handler>
1000094a:	4629      	mov	r1, r5
1000094c:	4620      	mov	r0, r4
1000094e:	f000 fb21 	bl	10000f94 <irq_set_enabled>
10000952:	f508 5801 	add.w	r8, r8, #8256	; 0x2040
10000956:	f8c8 7000 	str.w	r7, [r8]
1000095a:	e8bd 81f0 	ldmia.w	sp!, {r4, r5, r6, r7, r8, pc}
1000095e:	2404      	movs	r4, #4
10000960:	e7e9      	b.n	10000936 <alarm_pool_post_alloc_init+0x66>
10000962:	bf00      	nop
10000964:	20002794 	.word	0x20002794
10000968:	400b8000 	.word	0x400b8000
1000096c:	20003054 	.word	0x20003054
10000970:	100005c5 	.word	0x100005c5

10000974 <alarm_pool_get_default>:
10000974:	b508      	push	{r3, lr}
10000976:	4b05      	ldr	r3, [pc, #20]	; (1000098c <alarm_pool_get_default+0x18>)
10000978:	691b      	ldr	r3, [r3, #16]
1000097a:	b10b      	cbz	r3, 10000980 <alarm_pool_get_default+0xc>
1000097c:	4803      	ldr	r0, [pc, #12]	; (1000098c <alarm_pool_get_default+0x18>)
1000097e:	bd08      	pop	{r3, pc}
10000980:	4b03      	ldr	r3, [pc, #12]	; (10000990 <alarm_pool_get_default+0x1c>)
10000982:	4a04      	ldr	r2, [pc, #16]	; (10000994 <alarm_pool_get_default+0x20>)
10000984:	2165      	movs	r1, #101	; 0x65
10000986:	4804      	ldr	r0, [pc, #16]	; (10000998 <alarm_pool_get_default+0x24>)
10000988:	f002 fc30 	bl	100031ec <__assert_func>
1000098c:	20001ae8 	.word	0x20001ae8
10000990:	10007f60 	.word	0x10007f60
10000994:	10007f84 	.word	0x10007f84
10000998:	10007f30 	.word	0x10007f30

1000099c <alarm_pool_add_alarm_at_force_in_context>:
1000099c:	b5f8      	push	{r3, r4, r5, r6, r7, lr}
1000099e:	4604      	mov	r4, r0
100009a0:	469e      	mov	lr, r3
100009a2:	6901      	ldr	r1, [r0, #16]
100009a4:	f3ef 8c10 	mrs	ip, PRIMASK
100009a8:	b672      	cpsid	i
100009aa:	e8d1 5fcf 	ldaexb	r5, [r1]
100009ae:	2001      	movs	r0, #1
100009b0:	2d00      	cmp	r5, #0
100009b2:	d1fa      	bne.n	100009aa <alarm_pool_add_alarm_at_force_in_context+0xe>
100009b4:	e8c1 0f45 	strexb	r5, r0, [r1]
100009b8:	2d00      	cmp	r5, #0
100009ba:	d1f6      	bne.n	100009aa <alarm_pool_add_alarm_at_force_in_context+0xe>
100009bc:	f3bf 8f5f 	dmb	sy
100009c0:	f9b4 5002 	ldrsh.w	r5, [r4, #2]
100009c4:	6966      	ldr	r6, [r4, #20]
100009c6:	eb05 0045 	add.w	r0, r5, r5, lsl #1
100009ca:	00c7      	lsls	r7, r0, #3
100009cc:	eb06 00c0 	add.w	r0, r6, r0, lsl #3
100009d0:	2d00      	cmp	r5, #0
100009d2:	db01      	blt.n	100009d8 <alarm_pool_add_alarm_at_force_in_context+0x3c>
100009d4:	5ff1      	ldrsh	r1, [r6, r7]
100009d6:	8061      	strh	r1, [r4, #2]
100009d8:	2100      	movs	r1, #0
100009da:	6923      	ldr	r3, [r4, #16]
100009dc:	e8c3 1f8f 	stlb	r1, [r3]
100009e0:	f38c 8810 	msr	PRIMASK, ip
100009e4:	428d      	cmp	r5, r1
100009e6:	db33      	blt.n	10000a50 <alarm_pool_add_alarm_at_force_in_context+0xb4>
100009e8:	9906      	ldr	r1, [sp, #24]
100009ea:	6101      	str	r1, [r0, #16]
100009ec:	9907      	ldr	r1, [sp, #28]
100009ee:	6141      	str	r1, [r0, #20]
100009f0:	6082      	str	r2, [r0, #8]
100009f2:	f8c0 e00c 	str.w	lr, [r0, #12]
100009f6:	8841      	ldrh	r1, [r0, #2]
100009f8:	b289      	uxth	r1, r1
100009fa:	3101      	adds	r1, #1
100009fc:	f3c1 010e 	ubfx	r1, r1, #0, #15
10000a00:	b901      	cbnz	r1, 10000a04 <alarm_pool_add_alarm_at_force_in_context+0x68>
10000a02:	2101      	movs	r1, #1
10000a04:	8041      	strh	r1, [r0, #2]
10000a06:	4628      	mov	r0, r5
10000a08:	f7ff fdba 	bl	10000580 <make_alarm_id>
10000a0c:	6923      	ldr	r3, [r4, #16]
10000a0e:	f3ef 8210 	mrs	r2, PRIMASK
10000a12:	b672      	cpsid	i
10000a14:	e8d3 cfcf 	ldaexb	ip, [r3]
10000a18:	2101      	movs	r1, #1
10000a1a:	f1bc 0f00 	cmp.w	ip, #0
10000a1e:	d1f9      	bne.n	10000a14 <alarm_pool_add_alarm_at_force_in_context+0x78>
10000a20:	e8c3 1f4c 	strexb	ip, r1, [r3]
10000a24:	f1bc 0f00 	cmp.w	ip, #0
10000a28:	d1f4      	bne.n	10000a14 <alarm_pool_add_alarm_at_force_in_context+0x78>
10000a2a:	f3bf 8f5f 	dmb	sy
10000a2e:	88a3      	ldrh	r3, [r4, #4]
10000a30:	53f3      	strh	r3, [r6, r7]
10000a32:	80a5      	strh	r5, [r4, #4]
10000a34:	6921      	ldr	r1, [r4, #16]
10000a36:	2300      	movs	r3, #0
10000a38:	e8c1 3f8f 	stlb	r3, [r1]
10000a3c:	f382 8810 	msr	PRIMASK, r2
10000a40:	68e3      	ldr	r3, [r4, #12]
10000a42:	7821      	ldrb	r1, [r4, #0]
10000a44:	2201      	movs	r2, #1
10000a46:	408a      	lsls	r2, r1
10000a48:	f503 5301 	add.w	r3, r3, #8256	; 0x2040
10000a4c:	605a      	str	r2, [r3, #4]
10000a4e:	bdf8      	pop	{r3, r4, r5, r6, r7, pc}
10000a50:	f04f 30ff 	mov.w	r0, #4294967295
10000a54:	e7fb      	b.n	10000a4e <alarm_pool_add_alarm_at_force_in_context+0xb2>

10000a56 <alarm_pool_add_alarm_at>:
10000a56:	b570      	push	{r4, r5, r6, lr}
10000a58:	b082      	sub	sp, #8
10000a5a:	4606      	mov	r6, r0
10000a5c:	4615      	mov	r5, r2
10000a5e:	461c      	mov	r4, r3
10000a60:	f89d 3020 	ldrb.w	r3, [sp, #32]
10000a64:	b933      	cbnz	r3, 10000a74 <alarm_pool_add_alarm_at+0x1e>
10000a66:	f000 f935 	bl	10000cd4 <time_us_64>
10000a6a:	4285      	cmp	r5, r0
10000a6c:	eb64 0101 	sbc.w	r1, r4, r1
10000a70:	2900      	cmp	r1, #0
10000a72:	db0a      	blt.n	10000a8a <alarm_pool_add_alarm_at+0x34>
10000a74:	9b07      	ldr	r3, [sp, #28]
10000a76:	9301      	str	r3, [sp, #4]
10000a78:	9b06      	ldr	r3, [sp, #24]
10000a7a:	9300      	str	r3, [sp, #0]
10000a7c:	462a      	mov	r2, r5
10000a7e:	4623      	mov	r3, r4
10000a80:	4630      	mov	r0, r6
10000a82:	f7ff ff8b 	bl	1000099c <alarm_pool_add_alarm_at_force_in_context>
10000a86:	b002      	add	sp, #8
10000a88:	bd70      	pop	{r4, r5, r6, pc}
10000a8a:	2000      	movs	r0, #0
10000a8c:	e7fb      	b.n	10000a86 <alarm_pool_add_alarm_at+0x30>

10000a8e <alarm_pool_cancel_alarm>:
10000a8e:	4603      	mov	r3, r0
10000a90:	8940      	ldrh	r0, [r0, #10]
10000a92:	ebb0 4f21 	cmp.w	r0, r1, asr #16
10000a96:	dd31      	ble.n	10000afc <alarm_pool_cancel_alarm+0x6e>
10000a98:	b510      	push	{r4, lr}
10000a9a:	140a      	asrs	r2, r1, #16
10000a9c:	6958      	ldr	r0, [r3, #20]
10000a9e:	eb02 0242 	add.w	r2, r2, r2, lsl #1
10000aa2:	eb00 02c2 	add.w	r2, r0, r2, lsl #3
10000aa6:	6918      	ldr	r0, [r3, #16]
10000aa8:	f3ef 8c10 	mrs	ip, PRIMASK
10000aac:	b672      	cpsid	i
10000aae:	e8d0 4fcf 	ldaexb	r4, [r0]
10000ab2:	f05f 0e01 	movs.w	lr, #1
10000ab6:	2c00      	cmp	r4, #0
10000ab8:	d1f9      	bne.n	10000aae <alarm_pool_cancel_alarm+0x20>
10000aba:	e8c0 ef44 	strexb	r4, lr, [r0]
10000abe:	2c00      	cmp	r4, #0
10000ac0:	d1f5      	bne.n	10000aae <alarm_pool_cancel_alarm+0x20>
10000ac2:	f3bf 8f5f 	dmb	sy
10000ac6:	8850      	ldrh	r0, [r2, #2]
10000ac8:	b280      	uxth	r0, r0
10000aca:	b289      	uxth	r1, r1
10000acc:	4288      	cmp	r0, r1
10000ace:	d00f      	beq.n	10000af0 <alarm_pool_cancel_alarm+0x62>
10000ad0:	2000      	movs	r0, #0
10000ad2:	6919      	ldr	r1, [r3, #16]
10000ad4:	2200      	movs	r2, #0
10000ad6:	e8c1 2f8f 	stlb	r2, [r1]
10000ada:	f38c 8810 	msr	PRIMASK, ip
10000ade:	b130      	cbz	r0, 10000aee <alarm_pool_cancel_alarm+0x60>
10000ae0:	68da      	ldr	r2, [r3, #12]
10000ae2:	781b      	ldrb	r3, [r3, #0]
10000ae4:	2101      	movs	r1, #1
10000ae6:	4099      	lsls	r1, r3
10000ae8:	f502 5301 	add.w	r3, r2, #8256	; 0x2040
10000aec:	6059      	str	r1, [r3, #4]
10000aee:	bd10      	pop	{r4, pc}
10000af0:	f440 4000 	orr.w	r0, r0, #32768	; 0x8000
10000af4:	8050      	strh	r0, [r2, #2]
10000af6:	2001      	movs	r0, #1
10000af8:	7198      	strb	r0, [r3, #6]
10000afa:	e7ea      	b.n	10000ad2 <alarm_pool_cancel_alarm+0x44>
10000afc:	2000      	movs	r0, #0
10000afe:	4770      	bx	lr

10000b00 <alarm_pool_core_num>:
10000b00:	7840      	ldrb	r0, [r0, #1]
10000b02:	4770      	bx	lr

10000b04 <best_effort_wfe_or_timeout>:
10000b04:	b5f0      	push	{r4, r5, r6, r7, lr}
10000b06:	b085      	sub	sp, #20
10000b08:	4605      	mov	r5, r0
10000b0a:	460c      	mov	r4, r1
10000b0c:	f3ef 8305 	mrs	r3, IPSR
10000b10:	b2db      	uxtb	r3, r3
10000b12:	b193      	cbz	r3, 10000b3a <best_effort_wfe_or_timeout+0x36>
10000b14:	4b40      	ldr	r3, [pc, #256]	; (10000c18 <best_effort_wfe_or_timeout+0x114>)
10000b16:	6a5b      	ldr	r3, [r3, #36]	; 0x24
10000b18:	428b      	cmp	r3, r1
10000b1a:	d309      	bcc.n	10000b30 <best_effort_wfe_or_timeout+0x2c>
10000b1c:	4a3e      	ldr	r2, [pc, #248]	; (10000c18 <best_effort_wfe_or_timeout+0x114>)
10000b1e:	6a92      	ldr	r2, [r2, #40]	; 0x28
10000b20:	4282      	cmp	r2, r0
10000b22:	d208      	bcs.n	10000b36 <best_effort_wfe_or_timeout+0x32>
10000b24:	428b      	cmp	r3, r1
10000b26:	d001      	beq.n	10000b2c <best_effort_wfe_or_timeout+0x28>
10000b28:	2001      	movs	r0, #1
10000b2a:	e002      	b.n	10000b32 <best_effort_wfe_or_timeout+0x2e>
10000b2c:	2000      	movs	r0, #0
10000b2e:	e000      	b.n	10000b32 <best_effort_wfe_or_timeout+0x2e>
10000b30:	2000      	movs	r0, #0
10000b32:	b005      	add	sp, #20
10000b34:	bdf0      	pop	{r4, r5, r6, r7, pc}
10000b36:	2001      	movs	r0, #1
10000b38:	e7fb      	b.n	10000b32 <best_effort_wfe_or_timeout+0x2e>
10000b3a:	f7ff ff1b 	bl	10000974 <alarm_pool_get_default>
10000b3e:	68c7      	ldr	r7, [r0, #12]
10000b40:	7806      	ldrb	r6, [r0, #0]
10000b42:	4638      	mov	r0, r7
10000b44:	f000 f89c 	bl	10000c80 <timer_time_us_64>
10000b48:	1a2a      	subs	r2, r5, r0
10000b4a:	eb64 0101 	sbc.w	r1, r4, r1
10000b4e:	3604      	adds	r6, #4
10000b50:	f857 3026 	ldr.w	r3, [r7, r6, lsl #2]
10000b54:	1a18      	subs	r0, r3, r0
10000b56:	4282      	cmp	r2, r0
10000b58:	f171 0300 	sbcs.w	r3, r1, #0
10000b5c:	db12      	blt.n	10000b84 <best_effort_wfe_or_timeout+0x80>
10000b5e:	bf20      	wfe
10000b60:	4b2d      	ldr	r3, [pc, #180]	; (10000c18 <best_effort_wfe_or_timeout+0x114>)
10000b62:	6a5b      	ldr	r3, [r3, #36]	; 0x24
10000b64:	429c      	cmp	r4, r3
10000b66:	d809      	bhi.n	10000b7c <best_effort_wfe_or_timeout+0x78>
10000b68:	4a2b      	ldr	r2, [pc, #172]	; (10000c18 <best_effort_wfe_or_timeout+0x114>)
10000b6a:	6a92      	ldr	r2, [r2, #40]	; 0x28
10000b6c:	42aa      	cmp	r2, r5
10000b6e:	d207      	bcs.n	10000b80 <best_effort_wfe_or_timeout+0x7c>
10000b70:	429c      	cmp	r4, r3
10000b72:	d001      	beq.n	10000b78 <best_effort_wfe_or_timeout+0x74>
10000b74:	2001      	movs	r0, #1
10000b76:	e7dc      	b.n	10000b32 <best_effort_wfe_or_timeout+0x2e>
10000b78:	2000      	movs	r0, #0
10000b7a:	e7da      	b.n	10000b32 <best_effort_wfe_or_timeout+0x2e>
10000b7c:	2000      	movs	r0, #0
10000b7e:	e7d8      	b.n	10000b32 <best_effort_wfe_or_timeout+0x2e>
10000b80:	2001      	movs	r0, #1
10000b82:	e7d6      	b.n	10000b32 <best_effort_wfe_or_timeout+0x2e>
10000b84:	f7ff fef6 	bl	10000974 <alarm_pool_get_default>
10000b88:	2300      	movs	r3, #0
10000b8a:	9302      	str	r3, [sp, #8]
10000b8c:	9301      	str	r3, [sp, #4]
10000b8e:	4b23      	ldr	r3, [pc, #140]	; (10000c1c <best_effort_wfe_or_timeout+0x118>)
10000b90:	9300      	str	r3, [sp, #0]
10000b92:	462a      	mov	r2, r5
10000b94:	4623      	mov	r3, r4
10000b96:	f7ff ff5e 	bl	10000a56 <alarm_pool_add_alarm_at>
10000b9a:	1e06      	subs	r6, r0, #0
10000b9c:	dd0b      	ble.n	10000bb6 <best_effort_wfe_or_timeout+0xb2>
10000b9e:	4b1e      	ldr	r3, [pc, #120]	; (10000c18 <best_effort_wfe_or_timeout+0x114>)
10000ba0:	6a5b      	ldr	r3, [r3, #36]	; 0x24
10000ba2:	429c      	cmp	r4, r3
10000ba4:	d81b      	bhi.n	10000bde <best_effort_wfe_or_timeout+0xda>
10000ba6:	4a1c      	ldr	r2, [pc, #112]	; (10000c18 <best_effort_wfe_or_timeout+0x114>)
10000ba8:	6a92      	ldr	r2, [r2, #40]	; 0x28
10000baa:	42aa      	cmp	r2, r5
10000bac:	d22b      	bcs.n	10000c06 <best_effort_wfe_or_timeout+0x102>
10000bae:	429c      	cmp	r4, r3
10000bb0:	d013      	beq.n	10000bda <best_effort_wfe_or_timeout+0xd6>
10000bb2:	2301      	movs	r3, #1
10000bb4:	e014      	b.n	10000be0 <best_effort_wfe_or_timeout+0xdc>
10000bb6:	4b18      	ldr	r3, [pc, #96]	; (10000c18 <best_effort_wfe_or_timeout+0x114>)
10000bb8:	6a5b      	ldr	r3, [r3, #36]	; 0x24
10000bba:	429c      	cmp	r4, r3
10000bbc:	d809      	bhi.n	10000bd2 <best_effort_wfe_or_timeout+0xce>
10000bbe:	4a16      	ldr	r2, [pc, #88]	; (10000c18 <best_effort_wfe_or_timeout+0x114>)
10000bc0:	6a92      	ldr	r2, [r2, #40]	; 0x28
10000bc2:	42aa      	cmp	r2, r5
10000bc4:	d207      	bcs.n	10000bd6 <best_effort_wfe_or_timeout+0xd2>
10000bc6:	429c      	cmp	r4, r3
10000bc8:	d001      	beq.n	10000bce <best_effort_wfe_or_timeout+0xca>
10000bca:	2001      	movs	r0, #1
10000bcc:	e7b1      	b.n	10000b32 <best_effort_wfe_or_timeout+0x2e>
10000bce:	2000      	movs	r0, #0
10000bd0:	e7af      	b.n	10000b32 <best_effort_wfe_or_timeout+0x2e>
10000bd2:	2000      	movs	r0, #0
10000bd4:	e7ad      	b.n	10000b32 <best_effort_wfe_or_timeout+0x2e>
10000bd6:	2001      	movs	r0, #1
10000bd8:	e7ab      	b.n	10000b32 <best_effort_wfe_or_timeout+0x2e>
10000bda:	2300      	movs	r3, #0
10000bdc:	e000      	b.n	10000be0 <best_effort_wfe_or_timeout+0xdc>
10000bde:	2300      	movs	r3, #0
10000be0:	b903      	cbnz	r3, 10000be4 <best_effort_wfe_or_timeout+0xe0>
10000be2:	bf20      	wfe
10000be4:	f7ff fec6 	bl	10000974 <alarm_pool_get_default>
10000be8:	4631      	mov	r1, r6
10000bea:	f7ff ff50 	bl	10000a8e <alarm_pool_cancel_alarm>
10000bee:	4b0a      	ldr	r3, [pc, #40]	; (10000c18 <best_effort_wfe_or_timeout+0x114>)
10000bf0:	6a5b      	ldr	r3, [r3, #36]	; 0x24
10000bf2:	429c      	cmp	r4, r3
10000bf4:	d80b      	bhi.n	10000c0e <best_effort_wfe_or_timeout+0x10a>
10000bf6:	4a08      	ldr	r2, [pc, #32]	; (10000c18 <best_effort_wfe_or_timeout+0x114>)
10000bf8:	6a92      	ldr	r2, [r2, #40]	; 0x28
10000bfa:	42aa      	cmp	r2, r5
10000bfc:	d209      	bcs.n	10000c12 <best_effort_wfe_or_timeout+0x10e>
10000bfe:	429c      	cmp	r4, r3
10000c00:	d003      	beq.n	10000c0a <best_effort_wfe_or_timeout+0x106>
10000c02:	2001      	movs	r0, #1
10000c04:	e795      	b.n	10000b32 <best_effort_wfe_or_timeout+0x2e>
10000c06:	2301      	movs	r3, #1
10000c08:	e7ea      	b.n	10000be0 <best_effort_wfe_or_timeout+0xdc>
10000c0a:	2000      	movs	r0, #0
10000c0c:	e791      	b.n	10000b32 <best_effort_wfe_or_timeout+0x2e>
10000c0e:	2000      	movs	r0, #0
10000c10:	e78f      	b.n	10000b32 <best_effort_wfe_or_timeout+0x2e>
10000c12:	2001      	movs	r0, #1
10000c14:	e78d      	b.n	10000b32 <best_effort_wfe_or_timeout+0x2e>
10000c16:	bf00      	nop
10000c18:	400b0000 	.word	0x400b0000
10000c1c:	10000589 	.word	0x10000589

10000c20 <alarm_pool_get_default_timer>:
10000c20:	4800      	ldr	r0, [pc, #0]	; (10000c24 <alarm_pool_get_default_timer+0x4>)
10000c22:	4770      	bx	lr
10000c24:	400b0000 	.word	0x400b0000

10000c28 <runtime_init_default_alarm_pool>:
10000c28:	b510      	push	{r4, lr}
10000c2a:	4b0a      	ldr	r3, [pc, #40]	; (10000c54 <runtime_init_default_alarm_pool+0x2c>)
10000c2c:	691b      	ldr	r3, [r3, #16]
10000c2e:	b123      	cbz	r3, 10000c3a <runtime_init_default_alarm_pool+0x12>
10000c30:	210a      	movs	r1, #10
10000c32:	4809      	ldr	r0, [pc, #36]	; (10000c58 <runtime_init_default_alarm_pool+0x30>)
10000c34:	f7ff fc4a 	bl	100004cc <lock_init>
10000c38:	bd10      	pop	{r4, pc}
10000c3a:	f7ff fff1 	bl	10000c20 <alarm_pool_get_default_timer>
10000c3e:	4604      	mov	r4, r0
10000c40:	2103      	movs	r1, #3
10000c42:	f000 f80b 	bl	10000c5c <timer_hardware_alarm_claim>
10000c46:	2310      	movs	r3, #16
10000c48:	2203      	movs	r2, #3
10000c4a:	4621      	mov	r1, r4
10000c4c:	4801      	ldr	r0, [pc, #4]	; (10000c54 <runtime_init_default_alarm_pool+0x2c>)
10000c4e:	f7ff fe3f 	bl	100008d0 <alarm_pool_post_alloc_init>
10000c52:	e7ed      	b.n	10000c30 <runtime_init_default_alarm_pool+0x8>
10000c54:	20001ae8 	.word	0x20001ae8
10000c58:	20003180 	.word	0x20003180

10000c5c <timer_hardware_alarm_claim>:
10000c5c:	b510      	push	{r4, lr}
10000c5e:	4a05      	ldr	r2, [pc, #20]	; (10000c74 <timer_hardware_alarm_claim+0x18>)
10000c60:	4c05      	ldr	r4, [pc, #20]	; (10000c78 <timer_hardware_alarm_claim+0x1c>)
10000c62:	4b06      	ldr	r3, [pc, #24]	; (10000c7c <timer_hardware_alarm_claim+0x20>)
10000c64:	42a0      	cmp	r0, r4
10000c66:	bf14      	ite	ne
10000c68:	4618      	movne	r0, r3
10000c6a:	1c58      	addeq	r0, r3, #1
10000c6c:	f000 f878 	bl	10000d60 <hw_claim_or_assert>
10000c70:	bd10      	pop	{r4, pc}
10000c72:	bf00      	nop
10000c74:	10007fb4 	.word	0x10007fb4
10000c78:	400b8000 	.word	0x400b8000
10000c7c:	20002bc4 	.word	0x20002bc4

10000c80 <timer_time_us_64>:
10000c80:	4602      	mov	r2, r0
10000c82:	6a43      	ldr	r3, [r0, #36]	; 0x24
10000c84:	6a90      	ldr	r0, [r2, #40]	; 0x28
10000c86:	4619      	mov	r1, r3
10000c88:	6a53      	ldr	r3, [r2, #36]	; 0x24
10000c8a:	4299      	cmp	r1, r3
10000c8c:	d1fa      	bne.n	10000c84 <timer_time_us_64+0x4>
10000c8e:	4770      	bx	lr

10000c90 <timer_busy_wait_until>:
10000c90:	6a41      	ldr	r1, [r0, #36]	; 0x24
10000c92:	e000      	b.n	10000c96 <timer_busy_wait_until+0x6>
10000c94:	6a41      	ldr	r1, [r0, #36]	; 0x24
10000c96:	4299      	cmp	r1, r3
10000c98:	d3fc      	bcc.n	10000c94 <timer_busy_wait_until+0x4>
10000c9a:	e000      	b.n	10000c9e <timer_busy_wait_until+0xe>
10000c9c:	6a41      	ldr	r1, [r0, #36]	; 0x24
10000c9e:	4299      	cmp	r1, r3
10000ca0:	d102      	bne.n	10000ca8 <timer_busy_wait_until+0x18>
10000ca2:	6a81      	ldr	r1, [r0, #40]	; 0x28
10000ca4:	4291      	cmp	r1, r2
10000ca6:	d3f9      	bcc.n	10000c9c <timer_busy_wait_until+0xc>
10000ca8:	4770      	bx	lr

10000caa <timer_busy_wait_us>:
10000caa:	b570      	push	{r4, r5, r6, lr}
10000cac:	4606      	mov	r6, r0
10000cae:	4614      	mov	r4, r2
10000cb0:	461d      	mov	r5, r3
10000cb2:	f7ff ffe5 	bl	10000c80 <timer_time_us_64>
10000cb6:	1902      	adds	r2, r0, r4
10000cb8:	eb41 0305 	adc.w	r3, r1, r5
10000cbc:	4282      	cmp	r2, r0
10000cbe:	eb73 0101 	sbcs.w	r1, r3, r1
10000cc2:	d202      	bcs.n	10000cca <timer_busy_wait_us+0x20>
10000cc4:	f04f 32ff 	mov.w	r2, #4294967295
10000cc8:	4613      	mov	r3, r2
10000cca:	4630      	mov	r0, r6
10000ccc:	f7ff ffe0 	bl	10000c90 <timer_busy_wait_until>
10000cd0:	bd70      	pop	{r4, r5, r6, pc}
	...

10000cd4 <time_us_64>:
10000cd4:	b508      	push	{r3, lr}
10000cd6:	4802      	ldr	r0, [pc, #8]	; (10000ce0 <time_us_64+0xc>)
10000cd8:	f7ff ffd2 	bl	10000c80 <timer_time_us_64>
10000cdc:	bd08      	pop	{r3, pc}
10000cde:	bf00      	nop
10000ce0:	400b0000 	.word	0x400b0000

10000ce4 <busy_wait_us>:
10000ce4:	b508      	push	{r3, lr}
10000ce6:	4602      	mov	r2, r0
10000ce8:	460b      	mov	r3, r1
10000cea:	4802      	ldr	r0, [pc, #8]	; (10000cf4 <busy_wait_us+0x10>)
10000cec:	f7ff ffdd 	bl	10000caa <timer_busy_wait_us>
10000cf0:	bd08      	pop	{r3, pc}
10000cf2:	bf00      	nop
10000cf4:	400b0000 	.word	0x400b0000

10000cf8 <panic>:
10000cf8:	b40f      	push	{r0, r1, r2, r3}
10000cfa:	b500      	push	{lr}
10000cfc:	b083      	sub	sp, #12
10000cfe:	9c04      	ldr	r4, [sp, #16]
10000d00:	4807      	ldr	r0, [pc, #28]	; (10000d20 <panic+0x28>)
10000d02:	f002 fc0d 	bl	10003520 <__wrap_puts>
10000d06:	b13c      	cbz	r4, 10000d18 <panic+0x20>
10000d08:	a905      	add	r1, sp, #20
10000d0a:	9101      	str	r1, [sp, #4]
10000d0c:	4620      	mov	r0, r4
10000d0e:	f002 fc17 	bl	10003540 <__wrap_vprintf>
10000d12:	4804      	ldr	r0, [pc, #16]	; (10000d24 <panic+0x2c>)
10000d14:	f002 fc04 	bl	10003520 <__wrap_puts>
10000d18:	2001      	movs	r0, #1
10000d1a:	f002 fa47 	bl	100031ac <_exit>
10000d1e:	bf00      	nop
10000d20:	10007fd8 	.word	0x10007fd8
10000d24:	10007cf0 	.word	0x10007cf0

10000d28 <hw_claim_lock>:
10000d28:	f3ef 8010 	mrs	r0, PRIMASK
10000d2c:	b672      	cpsid	i
10000d2e:	4b06      	ldr	r3, [pc, #24]	; (10000d48 <hw_claim_lock+0x20>)
10000d30:	e8d3 1fcf 	ldaexb	r1, [r3]
10000d34:	2201      	movs	r2, #1
10000d36:	2900      	cmp	r1, #0
10000d38:	d1fa      	bne.n	10000d30 <hw_claim_lock+0x8>
10000d3a:	e8c3 2f41 	strexb	r1, r2, [r3]
10000d3e:	2900      	cmp	r1, #0
10000d40:	d1f6      	bne.n	10000d30 <hw_claim_lock+0x8>
10000d42:	f3bf 8f5f 	dmb	sy
10000d46:	4770      	bx	lr
10000d48:	2000279f 	.word	0x2000279f

10000d4c <hw_claim_unlock>:
10000d4c:	2300      	movs	r3, #0
10000d4e:	4a03      	ldr	r2, [pc, #12]	; (10000d5c <hw_claim_unlock+0x10>)
10000d50:	e8c2 3f8f 	stlb	r3, [r2]
10000d54:	f380 8810 	msr	PRIMASK, r0
10000d58:	4770      	bx	lr
10000d5a:	bf00      	nop
10000d5c:	2000279f 	.word	0x2000279f

10000d60 <hw_claim_or_assert>:
10000d60:	b570      	push	{r4, r5, r6, lr}
10000d62:	4605      	mov	r5, r0
10000d64:	460c      	mov	r4, r1
10000d66:	4616      	mov	r6, r2
10000d68:	f7ff ffde 	bl	10000d28 <hw_claim_lock>
10000d6c:	08e2      	lsrs	r2, r4, #3
10000d6e:	5ca9      	ldrb	r1, [r5, r2]
10000d70:	f004 0c07 	and.w	ip, r4, #7
10000d74:	2301      	movs	r3, #1
10000d76:	fa03 f30c 	lsl.w	r3, r3, ip
10000d7a:	4219      	tst	r1, r3
10000d7c:	d105      	bne.n	10000d8a <hw_claim_or_assert+0x2a>
10000d7e:	b2db      	uxtb	r3, r3
10000d80:	430b      	orrs	r3, r1
10000d82:	54ab      	strb	r3, [r5, r2]
10000d84:	f7ff ffe2 	bl	10000d4c <hw_claim_unlock>
10000d88:	bd70      	pop	{r4, r5, r6, pc}
10000d8a:	4621      	mov	r1, r4
10000d8c:	4630      	mov	r0, r6
10000d8e:	f7ff ffb3 	bl	10000cf8 <panic>

10000d92 <hw_claim_unused_from_range>:
10000d92:	b5f8      	push	{r3, r4, r5, r6, r7, lr}
10000d94:	4606      	mov	r6, r0
10000d96:	460d      	mov	r5, r1
10000d98:	4614      	mov	r4, r2
10000d9a:	461f      	mov	r7, r3
10000d9c:	f7ff ffc4 	bl	10000d28 <hw_claim_lock>
10000da0:	e000      	b.n	10000da4 <hw_claim_unused_from_range+0x12>
10000da2:	3401      	adds	r4, #1
10000da4:	42bc      	cmp	r4, r7
10000da6:	d80e      	bhi.n	10000dc6 <hw_claim_unused_from_range+0x34>
10000da8:	08e2      	lsrs	r2, r4, #3
10000daa:	eb06 0cd4 	add.w	ip, r6, r4, lsr #3
10000dae:	5cb3      	ldrb	r3, [r6, r2]
10000db0:	f004 0107 	and.w	r1, r4, #7
10000db4:	2201      	movs	r2, #1
10000db6:	408a      	lsls	r2, r1
10000db8:	4213      	tst	r3, r2
10000dba:	d1f2      	bne.n	10000da2 <hw_claim_unused_from_range+0x10>
10000dbc:	b2d2      	uxtb	r2, r2
10000dbe:	431a      	orrs	r2, r3
10000dc0:	f88c 2000 	strb.w	r2, [ip]
10000dc4:	e001      	b.n	10000dca <hw_claim_unused_from_range+0x38>
10000dc6:	f04f 34ff 	mov.w	r4, #4294967295
10000dca:	f7ff ffbf 	bl	10000d4c <hw_claim_unlock>
10000dce:	2c00      	cmp	r4, #0
10000dd0:	db01      	blt.n	10000dd6 <hw_claim_unused_from_range+0x44>
10000dd2:	4620      	mov	r0, r4
10000dd4:	bdf8      	pop	{r3, r4, r5, r6, r7, pc}
10000dd6:	2d00      	cmp	r5, #0
10000dd8:	d0fb      	beq.n	10000dd2 <hw_claim_unused_from_range+0x40>
10000dda:	9806      	ldr	r0, [sp, #24]
10000ddc:	f7ff ff8c 	bl	10000cf8 <panic>

10000de0 <next_striped_spin_lock_num>:
10000de0:	4a05      	ldr	r2, [pc, #20]	; (10000df8 <next_striped_spin_lock_num+0x18>)
10000de2:	7810      	ldrb	r0, [r2, #0]
10000de4:	1c43      	adds	r3, r0, #1
10000de6:	b2db      	uxtb	r3, r3
10000de8:	7013      	strb	r3, [r2, #0]
10000dea:	2b17      	cmp	r3, #23
10000dec:	d902      	bls.n	10000df4 <next_striped_spin_lock_num+0x14>
10000dee:	4613      	mov	r3, r2
10000df0:	2210      	movs	r2, #16
10000df2:	701a      	strb	r2, [r3, #0]
10000df4:	4770      	bx	lr
10000df6:	bf00      	nop
10000df8:	20001b00 	.word	0x20001b00

10000dfc <spin_lock_claim_unused>:
10000dfc:	b500      	push	{lr}
10000dfe:	b083      	sub	sp, #12
10000e00:	4601      	mov	r1, r0
10000e02:	4b05      	ldr	r3, [pc, #20]	; (10000e18 <spin_lock_claim_unused+0x1c>)
10000e04:	9300      	str	r3, [sp, #0]
10000e06:	231f      	movs	r3, #31
10000e08:	2218      	movs	r2, #24
10000e0a:	4804      	ldr	r0, [pc, #16]	; (10000e1c <spin_lock_claim_unused+0x20>)
10000e0c:	f7ff ffc1 	bl	10000d92 <hw_claim_unused_from_range>
10000e10:	b003      	add	sp, #12
10000e12:	f85d fb04 	ldr.w	pc, [sp], #4
10000e16:	bf00      	nop
10000e18:	10007fe8 	.word	0x10007fe8
10000e1c:	20002bc8 	.word	0x20002bc8

10000e20 <spinlock_set_extexclall>:
10000e20:	f04f 22e0 	mov.w	r2, #3758153728	; 0xe000e000
10000e24:	6893      	ldr	r3, [r2, #8]
10000e26:	f043 5300 	orr.w	r3, r3, #536870912	; 0x20000000
10000e2a:	6093      	str	r3, [r2, #8]
10000e2c:	4770      	bx	lr
	...

10000e30 <spin_locks_reset>:
10000e30:	2300      	movs	r3, #0
10000e32:	e005      	b.n	10000e40 <spin_locks_reset+0x10>
10000e34:	4a04      	ldr	r2, [pc, #16]	; (10000e48 <spin_locks_reset+0x18>)
10000e36:	441a      	add	r2, r3
10000e38:	2100      	movs	r1, #0
10000e3a:	e8c2 1f8f 	stlb	r1, [r2]
10000e3e:	3301      	adds	r3, #1
10000e40:	2b1f      	cmp	r3, #31
10000e42:	d9f7      	bls.n	10000e34 <spin_locks_reset+0x4>
10000e44:	4770      	bx	lr
10000e46:	bf00      	nop
10000e48:	20002794 	.word	0x20002794

10000e4c <spin_lock_init>:
10000e4c:	b508      	push	{r3, lr}
10000e4e:	281f      	cmp	r0, #31
10000e50:	d805      	bhi.n	10000e5e <spin_lock_init+0x12>
10000e52:	4b06      	ldr	r3, [pc, #24]	; (10000e6c <spin_lock_init+0x20>)
10000e54:	4418      	add	r0, r3
10000e56:	2300      	movs	r3, #0
10000e58:	e8c0 3f8f 	stlb	r3, [r0]
10000e5c:	bd08      	pop	{r3, pc}
10000e5e:	4b04      	ldr	r3, [pc, #16]	; (10000e70 <spin_lock_init+0x24>)
10000e60:	4a04      	ldr	r2, [pc, #16]	; (10000e74 <spin_lock_init+0x28>)
10000e62:	210f      	movs	r1, #15
10000e64:	4804      	ldr	r0, [pc, #16]	; (10000e78 <spin_lock_init+0x2c>)
10000e66:	f002 f9c1 	bl	100031ec <__assert_func>
10000e6a:	bf00      	nop
10000e6c:	20002794 	.word	0x20002794
10000e70:	10008004 	.word	0x10008004
10000e74:	1000806c 	.word	0x1000806c
10000e78:	10008020 	.word	0x10008020

10000e7c <set_raw_irq_handler_and_unlock>:
10000e7c:	4b06      	ldr	r3, [pc, #24]	; (10000e98 <set_raw_irq_handler_and_unlock+0x1c>)
10000e7e:	689b      	ldr	r3, [r3, #8]
10000e80:	3010      	adds	r0, #16
10000e82:	f843 1020 	str.w	r1, [r3, r0, lsl #2]
10000e86:	f3bf 8f5f 	dmb	sy
10000e8a:	2300      	movs	r3, #0
10000e8c:	4903      	ldr	r1, [pc, #12]	; (10000e9c <set_raw_irq_handler_and_unlock+0x20>)
10000e8e:	e8c1 3f8f 	stlb	r3, [r1]
10000e92:	f382 8810 	msr	PRIMASK, r2
10000e96:	4770      	bx	lr
10000e98:	e000ed00 	.word	0xe000ed00
10000e9c:	2000279d 	.word	0x2000279d

10000ea0 <nvic_ipr0>:
10000ea0:	4800      	ldr	r0, [pc, #0]	; (10000ea4 <nvic_ipr0+0x4>)
10000ea2:	4770      	bx	lr
10000ea4:	e000e400 	.word	0xe000e400

10000ea8 <runtime_init_per_core_irq_priorities>:
10000ea8:	b508      	push	{r3, lr}
10000eaa:	f7ff fff9 	bl	10000ea0 <nvic_ipr0>
10000eae:	2300      	movs	r3, #0
10000eb0:	e004      	b.n	10000ebc <runtime_init_per_core_irq_priorities+0x14>
10000eb2:	f04f 3280 	mov.w	r2, #2155905152	; 0x80808080
10000eb6:	f840 2b04 	str.w	r2, [r0], #4
10000eba:	3301      	adds	r3, #1
10000ebc:	2b0c      	cmp	r3, #12
10000ebe:	d9f8      	bls.n	10000eb2 <runtime_init_per_core_irq_priorities+0xa>
10000ec0:	b662      	cpsie	i
10000ec2:	bd08      	pop	{r3, pc}

10000ec4 <make_j_16>:
10000ec4:	b508      	push	{r3, lr}
10000ec6:	1a09      	subs	r1, r1, r0
10000ec8:	1f08      	subs	r0, r1, #4
10000eca:	f201 71fc 	addw	r1, r1, #2044	; 0x7fc
10000ece:	f640 73fe 	movw	r3, #4094	; 0xffe
10000ed2:	4299      	cmp	r1, r3
10000ed4:	d807      	bhi.n	10000ee6 <make_j_16+0x22>
10000ed6:	f010 0f01 	tst.w	r0, #1
10000eda:	d104      	bne.n	10000ee6 <make_j_16+0x22>
10000edc:	f3c0 004a 	ubfx	r0, r0, #1, #11
10000ee0:	f440 4060 	orr.w	r0, r0, #57344	; 0xe000
10000ee4:	bd08      	pop	{r3, pc}
10000ee6:	4b03      	ldr	r3, [pc, #12]	; (10000ef4 <make_j_16+0x30>)
10000ee8:	4a03      	ldr	r2, [pc, #12]	; (10000ef8 <make_j_16+0x34>)
10000eea:	f44f 7187 	mov.w	r1, #270	; 0x10e
10000eee:	4803      	ldr	r0, [pc, #12]	; (10000efc <make_j_16+0x38>)
10000ef0:	f002 f97c 	bl	100031ec <__assert_func>
10000ef4:	1000807c 	.word	0x1000807c
10000ef8:	100082e8 	.word	0x100082e8
10000efc:	100080ac 	.word	0x100080ac

10000f00 <insert_bl_32>:
10000f00:	b508      	push	{r3, lr}
10000f02:	1a09      	subs	r1, r1, r0
10000f04:	3904      	subs	r1, #4
10000f06:	084b      	lsrs	r3, r1, #1
10000f08:	0b09      	lsrs	r1, r1, #12
10000f0a:	d10a      	bne.n	10000f22 <insert_bl_32+0x22>
10000f0c:	f3c1 010a 	ubfx	r1, r1, #0, #11
10000f10:	f441 4170 	orr.w	r1, r1, #61440	; 0xf000
10000f14:	8001      	strh	r1, [r0, #0]
10000f16:	ea6f 5343 	mvn.w	r3, r3, lsl #21
10000f1a:	ea6f 5353 	mvn.w	r3, r3, lsr #21
10000f1e:	8043      	strh	r3, [r0, #2]
10000f20:	bd08      	pop	{r3, pc}
10000f22:	4b03      	ldr	r3, [pc, #12]	; (10000f30 <insert_bl_32+0x30>)
10000f24:	4a03      	ldr	r2, [pc, #12]	; (10000f34 <insert_bl_32+0x34>)
10000f26:	f44f 718b 	mov.w	r1, #278	; 0x116
10000f2a:	4803      	ldr	r0, [pc, #12]	; (10000f38 <insert_bl_32+0x38>)
10000f2c:	f002 f95e 	bl	100031ec <__assert_func>
10000f30:	100080e0 	.word	0x100080e0
10000f34:	100082c4 	.word	0x100082c4
10000f38:	100080ac 	.word	0x100080ac

10000f3c <irq_is_enabled>:
10000f3c:	0942      	lsrs	r2, r0, #5
10000f3e:	4b06      	ldr	r3, [pc, #24]	; (10000f58 <irq_is_enabled+0x1c>)
10000f40:	f853 2022 	ldr.w	r2, [r3, r2, lsl #2]
10000f44:	f000 001f 	and.w	r0, r0, #31
10000f48:	2301      	movs	r3, #1
10000f4a:	fa03 f000 	lsl.w	r0, r3, r0
10000f4e:	4202      	tst	r2, r0
10000f50:	bf14      	ite	ne
10000f52:	4618      	movne	r0, r3
10000f54:	2000      	moveq	r0, #0
10000f56:	4770      	bx	lr
10000f58:	e000e100 	.word	0xe000e100

10000f5c <irq_set_mask_enabled>:
10000f5c:	b121      	cbz	r1, 10000f68 <irq_set_mask_enabled+0xc>
10000f5e:	4b04      	ldr	r3, [pc, #16]	; (10000f70 <irq_set_mask_enabled+0x14>)
10000f60:	f8c3 0180 	str.w	r0, [r3, #384]	; 0x180
10000f64:	6018      	str	r0, [r3, #0]
10000f66:	4770      	bx	lr
10000f68:	4b01      	ldr	r3, [pc, #4]	; (10000f70 <irq_set_mask_enabled+0x14>)
10000f6a:	f8c3 0080 	str.w	r0, [r3, #128]	; 0x80
10000f6e:	4770      	bx	lr
10000f70:	e000e100 	.word	0xe000e100

10000f74 <irq_set_mask_n_enabled>:
10000f74:	b13a      	cbz	r2, 10000f86 <irq_set_mask_n_enabled+0x12>
10000f76:	4b06      	ldr	r3, [pc, #24]	; (10000f90 <irq_set_mask_n_enabled+0x1c>)
10000f78:	f100 0260 	add.w	r2, r0, #96	; 0x60
10000f7c:	f843 1022 	str.w	r1, [r3, r2, lsl #2]
10000f80:	f843 1020 	str.w	r1, [r3, r0, lsl #2]
10000f84:	4770      	bx	lr
10000f86:	3020      	adds	r0, #32
10000f88:	4b01      	ldr	r3, [pc, #4]	; (10000f90 <irq_set_mask_n_enabled+0x1c>)
10000f8a:	f843 1020 	str.w	r1, [r3, r0, lsl #2]
10000f8e:	4770      	bx	lr
10000f90:	e000e100 	.word	0xe000e100

10000f94 <irq_set_enabled>:
10000f94:	b508      	push	{r3, lr}
10000f96:	460a      	mov	r2, r1
10000f98:	f000 031f 	and.w	r3, r0, #31
10000f9c:	2101      	movs	r1, #1
10000f9e:	4099      	lsls	r1, r3
10000fa0:	0940      	lsrs	r0, r0, #5
10000fa2:	f7ff ffe7 	bl	10000f74 <irq_set_mask_n_enabled>
10000fa6:	bd08      	pop	{r3, pc}

10000fa8 <irq_set_pending>:
10000fa8:	f000 021f 	and.w	r2, r0, #31
10000fac:	0940      	lsrs	r0, r0, #5
10000fae:	2301      	movs	r3, #1
10000fb0:	4093      	lsls	r3, r2
10000fb2:	3040      	adds	r0, #64	; 0x40
10000fb4:	4a01      	ldr	r2, [pc, #4]	; (10000fbc <irq_set_pending+0x14>)
10000fb6:	f842 3020 	str.w	r3, [r2, r0, lsl #2]
10000fba:	4770      	bx	lr
10000fbc:	e000e100 	.word	0xe000e100

10000fc0 <irq_get_vtable_handler>:
10000fc0:	4b02      	ldr	r3, [pc, #8]	; (10000fcc <irq_get_vtable_handler+0xc>)
10000fc2:	689b      	ldr	r3, [r3, #8]
10000fc4:	3010      	adds	r0, #16
10000fc6:	f853 0020 	ldr.w	r0, [r3, r0, lsl #2]
10000fca:	4770      	bx	lr
10000fcc:	e000ed00 	.word	0xe000ed00

10000fd0 <irq_has_shared_handler>:
10000fd0:	b508      	push	{r3, lr}
10000fd2:	f7ff fff5 	bl	10000fc0 <irq_get_vtable_handler>
10000fd6:	4b03      	ldr	r3, [pc, #12]	; (10000fe4 <irq_has_shared_handler+0x14>)
10000fd8:	1ac0      	subs	r0, r0, r3
10000fda:	282f      	cmp	r0, #47	; 0x2f
10000fdc:	bf8c      	ite	hi
10000fde:	2000      	movhi	r0, #0
10000fe0:	2001      	movls	r0, #1
10000fe2:	bd08      	pop	{r3, pc}
10000fe4:	20001b04 	.word	0x20001b04

10000fe8 <irq_set_exclusive_handler>:
10000fe8:	b570      	push	{r4, r5, r6, lr}
10000fea:	4605      	mov	r5, r0
10000fec:	460c      	mov	r4, r1
10000fee:	f3ef 8610 	mrs	r6, PRIMASK
10000ff2:	b672      	cpsid	i
10000ff4:	4b0f      	ldr	r3, [pc, #60]	; (10001034 <irq_set_exclusive_handler+0x4c>)
10000ff6:	e8d3 1fcf 	ldaexb	r1, [r3]
10000ffa:	2201      	movs	r2, #1
10000ffc:	2900      	cmp	r1, #0
10000ffe:	d1fa      	bne.n	10000ff6 <irq_set_exclusive_handler+0xe>
10001000:	e8c3 2f41 	strexb	r1, r2, [r3]
10001004:	2900      	cmp	r1, #0
10001006:	d1f6      	bne.n	10000ff6 <irq_set_exclusive_handler+0xe>
10001008:	f3bf 8f5f 	dmb	sy
1000100c:	f7ff ffd8 	bl	10000fc0 <irq_get_vtable_handler>
10001010:	4b09      	ldr	r3, [pc, #36]	; (10001038 <irq_set_exclusive_handler+0x50>)
10001012:	4298      	cmp	r0, r3
10001014:	d001      	beq.n	1000101a <irq_set_exclusive_handler+0x32>
10001016:	42a0      	cmp	r0, r4
10001018:	d105      	bne.n	10001026 <irq_set_exclusive_handler+0x3e>
1000101a:	4632      	mov	r2, r6
1000101c:	4621      	mov	r1, r4
1000101e:	4628      	mov	r0, r5
10001020:	f7ff ff2c 	bl	10000e7c <set_raw_irq_handler_and_unlock>
10001024:	bd70      	pop	{r4, r5, r6, pc}
10001026:	4b05      	ldr	r3, [pc, #20]	; (1000103c <irq_set_exclusive_handler+0x54>)
10001028:	4a05      	ldr	r2, [pc, #20]	; (10001040 <irq_set_exclusive_handler+0x58>)
1000102a:	21ed      	movs	r1, #237	; 0xed
1000102c:	4805      	ldr	r0, [pc, #20]	; (10001044 <irq_set_exclusive_handler+0x5c>)
1000102e:	f002 f8dd 	bl	100031ec <__assert_func>
10001032:	bf00      	nop
10001034:	2000279d 	.word	0x2000279d
10001038:	10000111 	.word	0x10000111
1000103c:	100080f0 	.word	0x100080f0
10001040:	1000831c 	.word	0x1000831c
10001044:	100080ac 	.word	0x100080ac

10001048 <irq_add_shared_handler>:
10001048:	e92d 4ff0 	stmdb	sp!, {r4, r5, r6, r7, r8, r9, sl, fp, lr}
1000104c:	b087      	sub	sp, #28
1000104e:	9100      	str	r1, [sp, #0]
10001050:	4615      	mov	r5, r2
10001052:	f3ef 8a10 	mrs	sl, PRIMASK
10001056:	b672      	cpsid	i
10001058:	4b86      	ldr	r3, [pc, #536]	; (10001274 <irq_add_shared_handler+0x22c>)
1000105a:	e8d3 1fcf 	ldaexb	r1, [r3]
1000105e:	2201      	movs	r2, #1
10001060:	2900      	cmp	r1, #0
10001062:	d1fa      	bne.n	1000105a <irq_add_shared_handler+0x12>
10001064:	e8c3 2f41 	strexb	r1, r2, [r3]
10001068:	2900      	cmp	r1, #0
1000106a:	d1f6      	bne.n	1000105a <irq_add_shared_handler+0x12>
1000106c:	f3bf 8f5f 	dmb	sy
10001070:	4b81      	ldr	r3, [pc, #516]	; (10001278 <irq_add_shared_handler+0x230>)
10001072:	f993 4000 	ldrsb.w	r4, [r3]
10001076:	2c00      	cmp	r4, #0
10001078:	db44      	blt.n	10001104 <irq_add_shared_handler+0xbc>
1000107a:	4680      	mov	r8, r0
1000107c:	eb04 0744 	add.w	r7, r4, r4, lsl #1
10001080:	4b7e      	ldr	r3, [pc, #504]	; (1000127c <irq_add_shared_handler+0x234>)
10001082:	eb03 0787 	add.w	r7, r3, r7, lsl #2
10001086:	f997 1006 	ldrsb.w	r1, [r7, #6]
1000108a:	4a7b      	ldr	r2, [pc, #492]	; (10001278 <irq_add_shared_handler+0x230>)
1000108c:	7011      	strb	r1, [r2, #0]
1000108e:	4a7c      	ldr	r2, [pc, #496]	; (10001280 <irq_add_shared_handler+0x238>)
10001090:	6892      	ldr	r2, [r2, #8]
10001092:	f100 0110 	add.w	r1, r0, #16
10001096:	f852 9021 	ldr.w	r9, [r2, r1, lsl #2]
1000109a:	eba9 0203 	sub.w	r2, r9, r3
1000109e:	2a2f      	cmp	r2, #47	; 0x2f
100010a0:	d93e      	bls.n	10001120 <irq_add_shared_handler+0xd8>
100010a2:	4b78      	ldr	r3, [pc, #480]	; (10001284 <irq_add_shared_handler+0x23c>)
100010a4:	4599      	cmp	r9, r3
100010a6:	d134      	bne.n	10001112 <irq_add_shared_handler+0xca>
100010a8:	f44f 4321 	mov.w	r3, #41216	; 0xa100
100010ac:	f8ad 300c 	strh.w	r3, [sp, #12]
100010b0:	ea4f 0944 	mov.w	r9, r4, lsl #1
100010b4:	eb04 0044 	add.w	r0, r4, r4, lsl #1
100010b8:	4e70      	ldr	r6, [pc, #448]	; (1000127c <irq_add_shared_handler+0x234>)
100010ba:	eb06 0080 	add.w	r0, r6, r0, lsl #2
100010be:	4972      	ldr	r1, [pc, #456]	; (10001288 <irq_add_shared_handler+0x240>)
100010c0:	3002      	adds	r0, #2
100010c2:	f7ff feff 	bl	10000ec4 <make_j_16>
100010c6:	f8ad 000e 	strh.w	r0, [sp, #14]
100010ca:	f64b 5301 	movw	r3, #48385	; 0xbd01
100010ce:	f8ad 3010 	strh.w	r3, [sp, #16]
100010d2:	23ff      	movs	r3, #255	; 0xff
100010d4:	f88d 3012 	strb.w	r3, [sp, #18]
100010d8:	f88d 5013 	strb.w	r5, [sp, #19]
100010dc:	9b00      	ldr	r3, [sp, #0]
100010de:	9305      	str	r3, [sp, #20]
100010e0:	444c      	add	r4, r9
100010e2:	eb06 0484 	add.w	r4, r6, r4, lsl #2
100010e6:	ab06      	add	r3, sp, #24
100010e8:	e913 0007 	ldmdb	r3, {r0, r1, r2}
100010ec:	e884 0007 	stmia.w	r4, {r0, r1, r2}
100010f0:	f047 0901 	orr.w	r9, r7, #1
100010f4:	4652      	mov	r2, sl
100010f6:	4649      	mov	r1, r9
100010f8:	4640      	mov	r0, r8
100010fa:	f7ff febf 	bl	10000e7c <set_raw_irq_handler_and_unlock>
100010fe:	b007      	add	sp, #28
10001100:	e8bd 8ff0 	ldmia.w	sp!, {r4, r5, r6, r7, r8, r9, sl, fp, pc}
10001104:	4b61      	ldr	r3, [pc, #388]	; (1000128c <irq_add_shared_handler+0x244>)
10001106:	4a62      	ldr	r2, [pc, #392]	; (10001290 <irq_add_shared_handler+0x248>)
10001108:	f44f 71be 	mov.w	r1, #380	; 0x17c
1000110c:	4861      	ldr	r0, [pc, #388]	; (10001294 <irq_add_shared_handler+0x24c>)
1000110e:	f002 f86d 	bl	100031ec <__assert_func>
10001112:	4b61      	ldr	r3, [pc, #388]	; (10001298 <irq_add_shared_handler+0x250>)
10001114:	4a5e      	ldr	r2, [pc, #376]	; (10001290 <irq_add_shared_handler+0x248>)
10001116:	f240 1183 	movw	r1, #387	; 0x183
1000111a:	485e      	ldr	r0, [pc, #376]	; (10001294 <irq_add_shared_handler+0x24c>)
1000111c:	f002 f866 	bl	100031ec <__assert_func>
10001120:	f029 0b01 	bic.w	fp, r9, #1
10001124:	ebab 0303 	sub.w	r3, fp, r3
10001128:	4a5c      	ldr	r2, [pc, #368]	; (1000129c <irq_add_shared_handler+0x254>)
1000112a:	fba2 1203 	umull	r1, r2, r2, r3
1000112e:	08d2      	lsrs	r2, r2, #3
10001130:	eb02 0242 	add.w	r2, r2, r2, lsl #1
10001134:	ebb3 0f82 	cmp.w	r3, r2, lsl #2
10001138:	d10f      	bne.n	1000115a <irq_add_shared_handler+0x112>
1000113a:	465b      	mov	r3, fp
1000113c:	2600      	movs	r6, #0
1000113e:	79da      	ldrb	r2, [r3, #7]
10001140:	42aa      	cmp	r2, r5
10001142:	d912      	bls.n	1000116a <irq_add_shared_handler+0x122>
10001144:	f993 2006 	ldrsb.w	r2, [r3, #6]
10001148:	2a00      	cmp	r2, #0
1000114a:	db0d      	blt.n	10001168 <irq_add_shared_handler+0x120>
1000114c:	eb02 0242 	add.w	r2, r2, r2, lsl #1
10001150:	461e      	mov	r6, r3
10001152:	4b4a      	ldr	r3, [pc, #296]	; (1000127c <irq_add_shared_handler+0x234>)
10001154:	eb03 0382 	add.w	r3, r3, r2, lsl #2
10001158:	e7f1      	b.n	1000113e <irq_add_shared_handler+0xf6>
1000115a:	4b51      	ldr	r3, [pc, #324]	; (100012a0 <irq_add_shared_handler+0x258>)
1000115c:	4a4c      	ldr	r2, [pc, #304]	; (10001290 <irq_add_shared_handler+0x248>)
1000115e:	f44f 71ca 	mov.w	r1, #404	; 0x194
10001162:	484c      	ldr	r0, [pc, #304]	; (10001294 <irq_add_shared_handler+0x24c>)
10001164:	f002 f842 	bl	100031ec <__assert_func>
10001168:	461e      	mov	r6, r3
1000116a:	2e00      	cmp	r6, #0
1000116c:	d048      	beq.n	10001200 <irq_add_shared_handler+0x1b8>
1000116e:	f644 0301 	movw	r3, #18433	; 0x4801
10001172:	f8ad 300c 	strh.w	r3, [sp, #12]
10001176:	f44f 438f 	mov.w	r3, #18304	; 0x4780
1000117a:	f8ad 300e 	strh.w	r3, [sp, #14]
1000117e:	f996 b006 	ldrsb.w	fp, [r6, #6]
10001182:	f1bb 0f00 	cmp.w	fp, #0
10001186:	da1a      	bge.n	100011be <irq_add_shared_handler+0x176>
10001188:	f64b 5001 	movw	r0, #48385	; 0xbd01
1000118c:	f8ad 0010 	strh.w	r0, [sp, #16]
10001190:	f88d b012 	strb.w	fp, [sp, #18]
10001194:	f88d 5013 	strb.w	r5, [sp, #19]
10001198:	9b00      	ldr	r3, [sp, #0]
1000119a:	9305      	str	r3, [sp, #20]
1000119c:	4639      	mov	r1, r7
1000119e:	1d30      	adds	r0, r6, #4
100011a0:	f7ff fe90 	bl	10000ec4 <make_j_16>
100011a4:	80b0      	strh	r0, [r6, #4]
100011a6:	71b4      	strb	r4, [r6, #6]
100011a8:	eb04 0444 	add.w	r4, r4, r4, lsl #1
100011ac:	4b33      	ldr	r3, [pc, #204]	; (1000127c <irq_add_shared_handler+0x234>)
100011ae:	eb03 0484 	add.w	r4, r3, r4, lsl #2
100011b2:	ab06      	add	r3, sp, #24
100011b4:	e913 0007 	ldmdb	r3, {r0, r1, r2}
100011b8:	e884 0007 	stmia.w	r4, {r0, r1, r2}
100011bc:	e79a      	b.n	100010f4 <irq_add_shared_handler+0xac>
100011be:	eb04 0044 	add.w	r0, r4, r4, lsl #1
100011c2:	4b2e      	ldr	r3, [pc, #184]	; (1000127c <irq_add_shared_handler+0x234>)
100011c4:	eb03 0080 	add.w	r0, r3, r0, lsl #2
100011c8:	3004      	adds	r0, #4
100011ca:	1d31      	adds	r1, r6, #4
100011cc:	88b3      	ldrh	r3, [r6, #4]
100011ce:	0ada      	lsrs	r2, r3, #11
100011d0:	2a1c      	cmp	r2, #28
100011d2:	d108      	bne.n	100011e6 <irq_add_shared_handler+0x19e>
100011d4:	055b      	lsls	r3, r3, #21
100011d6:	d40d      	bmi.n	100011f4 <irq_add_shared_handler+0x1ac>
100011d8:	155b      	asrs	r3, r3, #21
100011da:	3302      	adds	r3, #2
100011dc:	eb01 0143 	add.w	r1, r1, r3, lsl #1
100011e0:	f7ff fe70 	bl	10000ec4 <make_j_16>
100011e4:	e7d2      	b.n	1000118c <irq_add_shared_handler+0x144>
100011e6:	4b2f      	ldr	r3, [pc, #188]	; (100012a4 <irq_add_shared_handler+0x25c>)
100011e8:	4a2f      	ldr	r2, [pc, #188]	; (100012a8 <irq_add_shared_handler+0x260>)
100011ea:	f44f 718e 	mov.w	r1, #284	; 0x11c
100011ee:	4829      	ldr	r0, [pc, #164]	; (10001294 <irq_add_shared_handler+0x24c>)
100011f0:	f001 fffc 	bl	100031ec <__assert_func>
100011f4:	f503 13ff 	add.w	r3, r3, #2088960	; 0x1fe000
100011f8:	f503 53ff 	add.w	r3, r3, #8160	; 0x1fe0
100011fc:	331f      	adds	r3, #31
100011fe:	e7eb      	b.n	100011d8 <irq_add_shared_handler+0x190>
10001200:	f44f 4321 	mov.w	r3, #41216	; 0xa100
10001204:	f8ad 300c 	strh.w	r3, [sp, #12]
10001208:	0063      	lsls	r3, r4, #1
1000120a:	9301      	str	r3, [sp, #4]
1000120c:	eb04 0644 	add.w	r6, r4, r4, lsl #1
10001210:	f8df 9068 	ldr.w	r9, [pc, #104]	; 1000127c <irq_add_shared_handler+0x234>
10001214:	eb09 0686 	add.w	r6, r9, r6, lsl #2
10001218:	491b      	ldr	r1, [pc, #108]	; (10001288 <irq_add_shared_handler+0x240>)
1000121a:	1cb0      	adds	r0, r6, #2
1000121c:	f7ff fe52 	bl	10000ec4 <make_j_16>
10001220:	f8ad 000e 	strh.w	r0, [sp, #14]
10001224:	4659      	mov	r1, fp
10001226:	1d30      	adds	r0, r6, #4
10001228:	f7ff fe4c 	bl	10000ec4 <make_j_16>
1000122c:	f8ad 0010 	strh.w	r0, [sp, #16]
10001230:	f64a 23aa 	movw	r3, #43690	; 0xaaaa
10001234:	465a      	mov	r2, fp
10001236:	4649      	mov	r1, r9
10001238:	1a52      	subs	r2, r2, r1
1000123a:	4152      	adcs	r2, r2
1000123c:	4353      	muls	r3, r2
1000123e:	0d1b      	lsrs	r3, r3, #20
10001240:	f88d 3012 	strb.w	r3, [sp, #18]
10001244:	f88d 5013 	strb.w	r5, [sp, #19]
10001248:	9a00      	ldr	r2, [sp, #0]
1000124a:	9205      	str	r2, [sp, #20]
1000124c:	9b01      	ldr	r3, [sp, #4]
1000124e:	441c      	add	r4, r3
10001250:	eb09 0984 	add.w	r9, r9, r4, lsl #2
10001254:	ab06      	add	r3, sp, #24
10001256:	e913 0007 	ldmdb	r3, {r0, r1, r2}
1000125a:	e889 0007 	stmia.w	r9, {r0, r1, r2}
1000125e:	f644 0301 	movw	r3, #18433	; 0x4801
10001262:	f8ab 3000 	strh.w	r3, [fp]
10001266:	f44f 438f 	mov.w	r3, #18304	; 0x4780
1000126a:	f8ab 3002 	strh.w	r3, [fp, #2]
1000126e:	f047 0901 	orr.w	r9, r7, #1
10001272:	e73f      	b.n	100010f4 <irq_add_shared_handler+0xac>
10001274:	2000279d 	.word	0x2000279d
10001278:	20003210 	.word	0x20003210
1000127c:	20001b04 	.word	0x20001b04
10001280:	e000ed00 	.word	0xe000ed00
10001284:	10000111 	.word	0x10000111
10001288:	20001b34 	.word	0x20001b34
1000128c:	10008128 	.word	0x10008128
10001290:	10008304 	.word	0x10008304
10001294:	100080ac 	.word	0x100080ac
10001298:	10008150 	.word	0x10008150
1000129c:	aaaaaaab 	.word	0xaaaaaaab
100012a0:	10008178 	.word	0x10008178
100012a4:	100081fc 	.word	0x100081fc
100012a8:	100082f4 	.word	0x100082f4

100012ac <irq_remove_handler>:
100012ac:	e92d 47f0 	stmdb	sp!, {r4, r5, r6, r7, r8, r9, sl, lr}
100012b0:	4606      	mov	r6, r0
100012b2:	460d      	mov	r5, r1
100012b4:	f3ef 8810 	mrs	r8, PRIMASK
100012b8:	b672      	cpsid	i
100012ba:	4b5b      	ldr	r3, [pc, #364]	; (10001428 <irq_remove_handler+0x17c>)
100012bc:	e8d3 1fcf 	ldaexb	r1, [r3]
100012c0:	2201      	movs	r2, #1
100012c2:	2900      	cmp	r1, #0
100012c4:	d1fa      	bne.n	100012bc <irq_remove_handler+0x10>
100012c6:	e8c3 2f41 	strexb	r1, r2, [r3]
100012ca:	2900      	cmp	r1, #0
100012cc:	d1f6      	bne.n	100012bc <irq_remove_handler+0x10>
100012ce:	f3bf 8f5f 	dmb	sy
100012d2:	4b56      	ldr	r3, [pc, #344]	; (1000142c <irq_remove_handler+0x180>)
100012d4:	689b      	ldr	r3, [r3, #8]
100012d6:	f100 0a10 	add.w	sl, r0, #16
100012da:	f853 702a 	ldr.w	r7, [r3, sl, lsl #2]
100012de:	4b54      	ldr	r3, [pc, #336]	; (10001430 <irq_remove_handler+0x184>)
100012e0:	429f      	cmp	r7, r3
100012e2:	d007      	beq.n	100012f4 <irq_remove_handler+0x48>
100012e4:	42af      	cmp	r7, r5
100012e6:	f000 809d 	beq.w	10001424 <irq_remove_handler+0x178>
100012ea:	463c      	mov	r4, r7
100012ec:	4b51      	ldr	r3, [pc, #324]	; (10001434 <irq_remove_handler+0x188>)
100012ee:	1afb      	subs	r3, r7, r3
100012f0:	2b2f      	cmp	r3, #47	; 0x2f
100012f2:	d906      	bls.n	10001302 <irq_remove_handler+0x56>
100012f4:	4642      	mov	r2, r8
100012f6:	4639      	mov	r1, r7
100012f8:	4630      	mov	r0, r6
100012fa:	f7ff fdbf 	bl	10000e7c <set_raw_irq_handler_and_unlock>
100012fe:	e8bd 87f0 	ldmia.w	sp!, {r4, r5, r6, r7, r8, r9, sl, pc}
10001302:	f7ff fe1b 	bl	10000f3c <irq_is_enabled>
10001306:	4681      	mov	r9, r0
10001308:	2100      	movs	r1, #0
1000130a:	4630      	mov	r0, r6
1000130c:	f7ff fe42 	bl	10000f94 <irq_set_enabled>
10001310:	f3bf 8f5f 	dmb	sy
10001314:	f3ef 8005 	mrs	r0, IPSR
10001318:	b2c0      	uxtb	r0, r0
1000131a:	b108      	cbz	r0, 10001320 <irq_remove_handler+0x74>
1000131c:	4582      	cmp	sl, r0
1000131e:	d110      	bne.n	10001342 <irq_remove_handler+0x96>
10001320:	f024 0401 	bic.w	r4, r4, #1
10001324:	2100      	movs	r1, #0
10001326:	68a2      	ldr	r2, [r4, #8]
10001328:	4295      	cmp	r5, r2
1000132a:	d012      	beq.n	10001352 <irq_remove_handler+0xa6>
1000132c:	f994 3006 	ldrsb.w	r3, [r4, #6]
10001330:	2b00      	cmp	r3, #0
10001332:	db0d      	blt.n	10001350 <irq_remove_handler+0xa4>
10001334:	eb03 0343 	add.w	r3, r3, r3, lsl #1
10001338:	4621      	mov	r1, r4
1000133a:	4c3e      	ldr	r4, [pc, #248]	; (10001434 <irq_remove_handler+0x188>)
1000133c:	eb04 0483 	add.w	r4, r4, r3, lsl #2
10001340:	e7f1      	b.n	10001326 <irq_remove_handler+0x7a>
10001342:	4b3d      	ldr	r3, [pc, #244]	; (10001438 <irq_remove_handler+0x18c>)
10001344:	4a3d      	ldr	r2, [pc, #244]	; (1000143c <irq_remove_handler+0x190>)
10001346:	f240 2102 	movw	r1, #514	; 0x202
1000134a:	483d      	ldr	r0, [pc, #244]	; (10001440 <irq_remove_handler+0x194>)
1000134c:	f001 ff4e 	bl	100031ec <__assert_func>
10001350:	4621      	mov	r1, r4
10001352:	4295      	cmp	r5, r2
10001354:	d15f      	bne.n	10001416 <irq_remove_handler+0x16a>
10001356:	f994 5006 	ldrsb.w	r5, [r4, #6]
1000135a:	2d00      	cmp	r5, #0
1000135c:	db41      	blt.n	100013e2 <irq_remove_handler+0x136>
1000135e:	eb05 0345 	add.w	r3, r5, r5, lsl #1
10001362:	4a34      	ldr	r2, [pc, #208]	; (10001434 <irq_remove_handler+0x188>)
10001364:	eb02 0383 	add.w	r3, r2, r3, lsl #2
10001368:	689a      	ldr	r2, [r3, #8]
1000136a:	60a2      	str	r2, [r4, #8]
1000136c:	79da      	ldrb	r2, [r3, #7]
1000136e:	71e2      	strb	r2, [r4, #7]
10001370:	f993 2006 	ldrsb.w	r2, [r3, #6]
10001374:	71a2      	strb	r2, [r4, #6]
10001376:	f993 3006 	ldrsb.w	r3, [r3, #6]
1000137a:	2b00      	cmp	r3, #0
1000137c:	da10      	bge.n	100013a0 <irq_remove_handler+0xf4>
1000137e:	f64b 5001 	movw	r0, #48385	; 0xbd01
10001382:	80a0      	strh	r0, [r4, #4]
10001384:	eb05 0245 	add.w	r2, r5, r5, lsl #1
10001388:	4b2a      	ldr	r3, [pc, #168]	; (10001434 <irq_remove_handler+0x188>)
1000138a:	eb03 0382 	add.w	r3, r3, r2, lsl #2
1000138e:	4a2d      	ldr	r2, [pc, #180]	; (10001444 <irq_remove_handler+0x198>)
10001390:	7811      	ldrb	r1, [r2, #0]
10001392:	7199      	strb	r1, [r3, #6]
10001394:	7015      	strb	r5, [r2, #0]
10001396:	4649      	mov	r1, r9
10001398:	4630      	mov	r0, r6
1000139a:	f7ff fdfb 	bl	10000f94 <irq_set_enabled>
1000139e:	e7a9      	b.n	100012f4 <irq_remove_handler+0x48>
100013a0:	1d20      	adds	r0, r4, #4
100013a2:	eb05 0345 	add.w	r3, r5, r5, lsl #1
100013a6:	4a23      	ldr	r2, [pc, #140]	; (10001434 <irq_remove_handler+0x188>)
100013a8:	eb02 0383 	add.w	r3, r2, r3, lsl #2
100013ac:	1d19      	adds	r1, r3, #4
100013ae:	889b      	ldrh	r3, [r3, #4]
100013b0:	0ada      	lsrs	r2, r3, #11
100013b2:	2a1c      	cmp	r2, #28
100013b4:	d108      	bne.n	100013c8 <irq_remove_handler+0x11c>
100013b6:	055b      	lsls	r3, r3, #21
100013b8:	d40d      	bmi.n	100013d6 <irq_remove_handler+0x12a>
100013ba:	155b      	asrs	r3, r3, #21
100013bc:	3302      	adds	r3, #2
100013be:	eb01 0143 	add.w	r1, r1, r3, lsl #1
100013c2:	f7ff fd7f 	bl	10000ec4 <make_j_16>
100013c6:	e7dc      	b.n	10001382 <irq_remove_handler+0xd6>
100013c8:	4b1f      	ldr	r3, [pc, #124]	; (10001448 <irq_remove_handler+0x19c>)
100013ca:	4a20      	ldr	r2, [pc, #128]	; (1000144c <irq_remove_handler+0x1a0>)
100013cc:	f44f 718e 	mov.w	r1, #284	; 0x11c
100013d0:	481b      	ldr	r0, [pc, #108]	; (10001440 <irq_remove_handler+0x194>)
100013d2:	f001 ff0b 	bl	100031ec <__assert_func>
100013d6:	f503 13ff 	add.w	r3, r3, #2088960	; 0x1fe000
100013da:	f503 53ff 	add.w	r3, r3, #8160	; 0x1fe0
100013de:	331f      	adds	r3, #31
100013e0:	e7eb      	b.n	100013ba <irq_remove_handler+0x10e>
100013e2:	b998      	cbnz	r0, 1000140c <irq_remove_handler+0x160>
100013e4:	b181      	cbz	r1, 10001408 <irq_remove_handler+0x15c>
100013e6:	23ff      	movs	r3, #255	; 0xff
100013e8:	718b      	strb	r3, [r1, #6]
100013ea:	f64b 5301 	movw	r3, #48385	; 0xbd01
100013ee:	808b      	strh	r3, [r1, #4]
100013f0:	4a14      	ldr	r2, [pc, #80]	; (10001444 <irq_remove_handler+0x198>)
100013f2:	7813      	ldrb	r3, [r2, #0]
100013f4:	71a3      	strb	r3, [r4, #6]
100013f6:	f64a 23aa 	movw	r3, #43690	; 0xaaaa
100013fa:	490e      	ldr	r1, [pc, #56]	; (10001434 <irq_remove_handler+0x188>)
100013fc:	1a64      	subs	r4, r4, r1
100013fe:	4164      	adcs	r4, r4
10001400:	4363      	muls	r3, r4
10001402:	0d1b      	lsrs	r3, r3, #20
10001404:	7013      	strb	r3, [r2, #0]
10001406:	e7c6      	b.n	10001396 <irq_remove_handler+0xea>
10001408:	4f09      	ldr	r7, [pc, #36]	; (10001430 <irq_remove_handler+0x184>)
1000140a:	e7f1      	b.n	100013f0 <irq_remove_handler+0x144>
1000140c:	4910      	ldr	r1, [pc, #64]	; (10001450 <irq_remove_handler+0x1a4>)
1000140e:	1d20      	adds	r0, r4, #4
10001410:	f7ff fd76 	bl	10000f00 <insert_bl_32>
10001414:	e7bf      	b.n	10001396 <irq_remove_handler+0xea>
10001416:	4b0f      	ldr	r3, [pc, #60]	; (10001454 <irq_remove_handler+0x1a8>)
10001418:	4a08      	ldr	r2, [pc, #32]	; (1000143c <irq_remove_handler+0x190>)
1000141a:	f44f 7111 	mov.w	r1, #580	; 0x244
1000141e:	4808      	ldr	r0, [pc, #32]	; (10001440 <irq_remove_handler+0x194>)
10001420:	f001 fee4 	bl	100031ec <__assert_func>
10001424:	4f02      	ldr	r7, [pc, #8]	; (10001430 <irq_remove_handler+0x184>)
10001426:	e765      	b.n	100012f4 <irq_remove_handler+0x48>
10001428:	2000279d 	.word	0x2000279d
1000142c:	e000ed00 	.word	0xe000ed00
10001430:	10000111 	.word	0x10000111
10001434:	20001b04 	.word	0x20001b04
10001438:	10008214 	.word	0x10008214
1000143c:	100082d4 	.word	0x100082d4
10001440:	100080ac 	.word	0x100080ac
10001444:	20003210 	.word	0x20003210
10001448:	100081fc 	.word	0x100081fc
1000144c:	100082f4 	.word	0x100082f4
10001450:	20001b3e 	.word	0x20001b3e
10001454:	10008248 	.word	0x10008248

10001458 <irq_set_priority>:
10001458:	b538      	push	{r3, r4, r5, lr}
1000145a:	4604      	mov	r4, r0
1000145c:	460d      	mov	r5, r1
1000145e:	f7ff fd1f 	bl	10000ea0 <nvic_ipr0>
10001462:	08a1      	lsrs	r1, r4, #2
10001464:	f850 3021 	ldr.w	r3, [r0, r1, lsl #2]
10001468:	f004 0403 	and.w	r4, r4, #3
1000146c:	00e4      	lsls	r4, r4, #3
1000146e:	22ff      	movs	r2, #255	; 0xff
10001470:	40a2      	lsls	r2, r4
10001472:	ea23 0302 	bic.w	r3, r3, r2
10001476:	fa05 f404 	lsl.w	r4, r5, r4
1000147a:	431c      	orrs	r4, r3
1000147c:	f840 4021 	str.w	r4, [r0, r1, lsl #2]
10001480:	bd38      	pop	{r3, r4, r5, pc}
	...

10001484 <irq_add_tail_to_free_list>:
10001484:	b538      	push	{r3, r4, r5, lr}
10001486:	f040 0e01 	orr.w	lr, r0, #1
1000148a:	4b34      	ldr	r3, [pc, #208]	; (1000155c <irq_add_tail_to_free_list+0xd8>)
1000148c:	ebae 0303 	sub.w	r3, lr, r3
10001490:	2b2f      	cmp	r3, #47	; 0x2f
10001492:	d831      	bhi.n	100014f8 <irq_add_tail_to_free_list+0x74>
10001494:	f3ef 8105 	mrs	r1, IPSR
10001498:	b2c9      	uxtb	r1, r1
1000149a:	2900      	cmp	r1, #0
1000149c:	d033      	beq.n	10001506 <irq_add_tail_to_free_list+0x82>
1000149e:	f3ef 8410 	mrs	r4, PRIMASK
100014a2:	b672      	cpsid	i
100014a4:	4b2e      	ldr	r3, [pc, #184]	; (10001560 <irq_add_tail_to_free_list+0xdc>)
100014a6:	e8d3 5fcf 	ldaexb	r5, [r3]
100014aa:	2201      	movs	r2, #1
100014ac:	2d00      	cmp	r5, #0
100014ae:	d1fa      	bne.n	100014a6 <irq_add_tail_to_free_list+0x22>
100014b0:	e8c3 2f45 	strexb	r5, r2, [r3]
100014b4:	2d00      	cmp	r5, #0
100014b6:	d1f6      	bne.n	100014a6 <irq_add_tail_to_free_list+0x22>
100014b8:	f3bf 8f5f 	dmb	sy
100014bc:	f64a 23aa 	movw	r3, #43690	; 0xaaaa
100014c0:	4602      	mov	r2, r0
100014c2:	4d26      	ldr	r5, [pc, #152]	; (1000155c <irq_add_tail_to_free_list+0xd8>)
100014c4:	1b52      	subs	r2, r2, r5
100014c6:	4152      	adcs	r2, r2
100014c8:	4353      	muls	r3, r2
100014ca:	0d1b      	lsrs	r3, r3, #20
100014cc:	fa4f fc83 	sxtb.w	ip, r3
100014d0:	4b24      	ldr	r3, [pc, #144]	; (10001564 <irq_add_tail_to_free_list+0xe0>)
100014d2:	689b      	ldr	r3, [r3, #8]
100014d4:	f853 3021 	ldr.w	r3, [r3, r1, lsl #2]
100014d8:	4573      	cmp	r3, lr
100014da:	d01b      	beq.n	10001514 <irq_add_tail_to_free_list+0x90>
100014dc:	2300      	movs	r3, #0
100014de:	2b03      	cmp	r3, #3
100014e0:	d834      	bhi.n	1000154c <irq_add_tail_to_free_list+0xc8>
100014e2:	eb03 0243 	add.w	r2, r3, r3, lsl #1
100014e6:	491d      	ldr	r1, [pc, #116]	; (1000155c <irq_add_tail_to_free_list+0xd8>)
100014e8:	eb01 0282 	add.w	r2, r1, r2, lsl #2
100014ec:	f992 2006 	ldrsb.w	r2, [r2, #6]
100014f0:	4562      	cmp	r2, ip
100014f2:	d020      	beq.n	10001536 <irq_add_tail_to_free_list+0xb2>
100014f4:	3301      	adds	r3, #1
100014f6:	e7f2      	b.n	100014de <irq_add_tail_to_free_list+0x5a>
100014f8:	4b1b      	ldr	r3, [pc, #108]	; (10001568 <irq_add_tail_to_free_list+0xe4>)
100014fa:	4a1c      	ldr	r2, [pc, #112]	; (1000156c <irq_add_tail_to_free_list+0xe8>)
100014fc:	f240 217f 	movw	r1, #639	; 0x27f
10001500:	481b      	ldr	r0, [pc, #108]	; (10001570 <irq_add_tail_to_free_list+0xec>)
10001502:	f001 fe73 	bl	100031ec <__assert_func>
10001506:	4b1b      	ldr	r3, [pc, #108]	; (10001574 <irq_add_tail_to_free_list+0xf0>)
10001508:	4a18      	ldr	r2, [pc, #96]	; (1000156c <irq_add_tail_to_free_list+0xe8>)
1000150a:	f240 2182 	movw	r1, #642	; 0x282
1000150e:	4818      	ldr	r0, [pc, #96]	; (10001570 <irq_add_tail_to_free_list+0xec>)
10001510:	f001 fe6c 	bl	100031ec <__assert_func>
10001514:	4b13      	ldr	r3, [pc, #76]	; (10001564 <irq_add_tail_to_free_list+0xe0>)
10001516:	689b      	ldr	r3, [r3, #8]
10001518:	4a17      	ldr	r2, [pc, #92]	; (10001578 <irq_add_tail_to_free_list+0xf4>)
1000151a:	f843 2021 	str.w	r2, [r3, r1, lsl #2]
1000151e:	4b17      	ldr	r3, [pc, #92]	; (1000157c <irq_add_tail_to_free_list+0xf8>)
10001520:	781a      	ldrb	r2, [r3, #0]
10001522:	7182      	strb	r2, [r0, #6]
10001524:	f883 c000 	strb.w	ip, [r3]
10001528:	2300      	movs	r3, #0
1000152a:	4a0d      	ldr	r2, [pc, #52]	; (10001560 <irq_add_tail_to_free_list+0xdc>)
1000152c:	e8c2 3f8f 	stlb	r3, [r2]
10001530:	f384 8810 	msr	PRIMASK, r4
10001534:	bd38      	pop	{r3, r4, r5, pc}
10001536:	460a      	mov	r2, r1
10001538:	eb03 0143 	add.w	r1, r3, r3, lsl #1
1000153c:	eb02 0181 	add.w	r1, r2, r1, lsl #2
10001540:	25ff      	movs	r5, #255	; 0xff
10001542:	718d      	strb	r5, [r1, #6]
10001544:	f64b 5201 	movw	r2, #48385	; 0xbd01
10001548:	808a      	strh	r2, [r1, #4]
1000154a:	e7e8      	b.n	1000151e <irq_add_tail_to_free_list+0x9a>
1000154c:	4b0c      	ldr	r3, [pc, #48]	; (10001580 <irq_add_tail_to_free_list+0xfc>)
1000154e:	4a07      	ldr	r2, [pc, #28]	; (1000156c <irq_add_tail_to_free_list+0xe8>)
10001550:	f240 2193 	movw	r1, #659	; 0x293
10001554:	4806      	ldr	r0, [pc, #24]	; (10001570 <irq_add_tail_to_free_list+0xec>)
10001556:	f001 fe49 	bl	100031ec <__assert_func>
1000155a:	bf00      	nop
1000155c:	20001b04 	.word	0x20001b04
10001560:	2000279d 	.word	0x2000279d
10001564:	e000ed00 	.word	0xe000ed00
10001568:	10008250 	.word	0x10008250
1000156c:	100082a8 	.word	0x100082a8
10001570:	100080ac 	.word	0x100080ac
10001574:	10008278 	.word	0x10008278
10001578:	10000111 	.word	0x10000111
1000157c:	20003210 	.word	0x20003210
10001580:	10008284 	.word	0x10008284

10001584 <user_irq_claim_unused>:
10001584:	b500      	push	{lr}
10001586:	b083      	sub	sp, #12
10001588:	4601      	mov	r1, r0
1000158a:	4b07      	ldr	r3, [pc, #28]	; (100015a8 <user_irq_claim_unused+0x24>)
1000158c:	9300      	str	r3, [sp, #0]
1000158e:	2305      	movs	r3, #5
10001590:	2200      	movs	r2, #0
10001592:	4806      	ldr	r0, [pc, #24]	; (100015ac <user_irq_claim_unused+0x28>)
10001594:	f7ff fbfd 	bl	10000d92 <hw_claim_unused_from_range>
10001598:	2800      	cmp	r0, #0
1000159a:	db01      	blt.n	100015a0 <user_irq_claim_unused+0x1c>
1000159c:	f1c0 0033 	rsb	r0, r0, #51	; 0x33
100015a0:	b003      	add	sp, #12
100015a2:	f85d fb04 	ldr.w	pc, [sp], #4
100015a6:	bf00      	nop
100015a8:	1000828c 	.word	0x1000828c
100015ac:	20003214 	.word	0x20003214

100015b0 <gpio_set_function>:
100015b0:	4b0c      	ldr	r3, [pc, #48]	; (100015e4 <gpio_set_function+0x34>)
100015b2:	eb03 0280 	add.w	r2, r3, r0, lsl #2
100015b6:	f853 3020 	ldr.w	r3, [r3, r0, lsl #2]
100015ba:	f083 0340 	eor.w	r3, r3, #64	; 0x40
100015be:	f003 03c0 	and.w	r3, r3, #192	; 0xc0
100015c2:	f502 5c80 	add.w	ip, r2, #4096	; 0x1000
100015c6:	f8cc 3000 	str.w	r3, [ip]
100015ca:	00c0      	lsls	r0, r0, #3
100015cc:	f100 4080 	add.w	r0, r0, #1073741824	; 0x40000000
100015d0:	f500 3020 	add.w	r0, r0, #163840	; 0x28000
100015d4:	6041      	str	r1, [r0, #4]
100015d6:	f502 5240 	add.w	r2, r2, #12288	; 0x3000
100015da:	f44f 7380 	mov.w	r3, #256	; 0x100
100015de:	6013      	str	r3, [r2, #0]
100015e0:	4770      	bx	lr
100015e2:	bf00      	nop
100015e4:	40038004 	.word	0x40038004

100015e8 <uart_disable_before_lcr_write>:
100015e8:	b538      	push	{r3, r4, r5, lr}
100015ea:	6b04      	ldr	r4, [r0, #48]	; 0x30
100015ec:	f014 0f01 	tst.w	r4, #1
100015f0:	d101      	bne.n	100015f6 <uart_disable_before_lcr_write+0xe>
100015f2:	4620      	mov	r0, r4
100015f4:	bd38      	pop	{r3, r4, r5, pc}
100015f6:	f500 5340 	add.w	r3, r0, #12288	; 0x3000
100015fa:	f240 3201 	movw	r2, #769	; 0x301
100015fe:	631a      	str	r2, [r3, #48]	; 0x30
10001600:	6a43      	ldr	r3, [r0, #36]	; 0x24
10001602:	6a85      	ldr	r5, [r0, #40]	; 0x28
10001604:	eb05 1583 	add.w	r5, r5, r3, lsl #6
10001608:	02ad      	lsls	r5, r5, #10
1000160a:	2006      	movs	r0, #6
1000160c:	f000 f8f8 	bl	10001800 <clock_get_hz>
10001610:	4b04      	ldr	r3, [pc, #16]	; (10001624 <uart_disable_before_lcr_write+0x3c>)
10001612:	fba3 3000 	umull	r3, r0, r3, r0
10001616:	0ac0      	lsrs	r0, r0, #11
10001618:	fbb5 f0f0 	udiv	r0, r5, r0
1000161c:	2100      	movs	r1, #0
1000161e:	f7ff fb61 	bl	10000ce4 <busy_wait_us>
10001622:	e7e6      	b.n	100015f2 <uart_disable_before_lcr_write+0xa>
10001624:	8f2b7b75 	.word	0x8f2b7b75

10001628 <uart_write_lcr_bits_masked>:
10001628:	b570      	push	{r4, r5, r6, lr}
1000162a:	4605      	mov	r5, r0
1000162c:	460c      	mov	r4, r1
1000162e:	4616      	mov	r6, r2
10001630:	f7ff ffda 	bl	100015e8 <uart_disable_before_lcr_write>
10001634:	6ae9      	ldr	r1, [r5, #44]	; 0x2c
10001636:	404c      	eors	r4, r1
10001638:	4034      	ands	r4, r6
1000163a:	f505 5381 	add.w	r3, r5, #4128	; 0x1020
1000163e:	60dc      	str	r4, [r3, #12]
10001640:	6328      	str	r0, [r5, #48]	; 0x30
10001642:	bd70      	pop	{r4, r5, r6, pc}

10001644 <uart_set_baudrate>:
10001644:	b570      	push	{r4, r5, r6, lr}
10001646:	4605      	mov	r5, r0
10001648:	460c      	mov	r4, r1
1000164a:	2006      	movs	r0, #6
1000164c:	f000 f8d8 	bl	10001800 <clock_get_hz>
10001650:	00c3      	lsls	r3, r0, #3
10001652:	fbb3 f1f4 	udiv	r1, r3, r4
10001656:	3101      	adds	r1, #1
10001658:	09cc      	lsrs	r4, r1, #7
1000165a:	d007      	beq.n	1000166c <uart_set_baudrate+0x28>
1000165c:	f64f 73fe 	movw	r3, #65534	; 0xfffe
10001660:	429c      	cmp	r4, r3
10001662:	d814      	bhi.n	1000168e <uart_set_baudrate+0x4a>
10001664:	4626      	mov	r6, r4
10001666:	f3c1 0445 	ubfx	r4, r1, #1, #6
1000166a:	e000      	b.n	1000166e <uart_set_baudrate+0x2a>
1000166c:	2601      	movs	r6, #1
1000166e:	626e      	str	r6, [r5, #36]	; 0x24
10001670:	62ac      	str	r4, [r5, #40]	; 0x28
10001672:	2200      	movs	r2, #0
10001674:	4611      	mov	r1, r2
10001676:	4628      	mov	r0, r5
10001678:	f7ff ffd6 	bl	10001628 <uart_write_lcr_bits_masked>
1000167c:	2006      	movs	r0, #6
1000167e:	f000 f8bf 	bl	10001800 <clock_get_hz>
10001682:	0080      	lsls	r0, r0, #2
10001684:	eb04 1486 	add.w	r4, r4, r6, lsl #6
10001688:	fbb0 f0f4 	udiv	r0, r0, r4
1000168c:	bd70      	pop	{r4, r5, r6, pc}
1000168e:	2400      	movs	r4, #0
10001690:	f64f 76ff 	movw	r6, #65535	; 0xffff
10001694:	e7eb      	b.n	1000166e <uart_set_baudrate+0x2a>
	...

10001698 <uart_set_translate_crlf>:
10001698:	b149      	cbz	r1, 100016ae <uart_set_translate_crlf+0x16>
1000169a:	220a      	movs	r2, #10
1000169c:	4b05      	ldr	r3, [pc, #20]	; (100016b4 <uart_set_translate_crlf+0x1c>)
1000169e:	4298      	cmp	r0, r3
100016a0:	bf14      	ite	ne
100016a2:	2000      	movne	r0, #0
100016a4:	2001      	moveq	r0, #1
100016a6:	4b04      	ldr	r3, [pc, #16]	; (100016b8 <uart_set_translate_crlf+0x20>)
100016a8:	f823 2010 	strh.w	r2, [r3, r0, lsl #1]
100016ac:	4770      	bx	lr
100016ae:	f44f 7280 	mov.w	r2, #256	; 0x100
100016b2:	e7f3      	b.n	1000169c <uart_set_translate_crlf+0x4>
100016b4:	40078000 	.word	0x40078000
100016b8:	200031c8 	.word	0x200031c8

100016bc <uart_init>:
100016bc:	b538      	push	{r3, r4, r5, lr}
100016be:	4604      	mov	r4, r0
100016c0:	460d      	mov	r5, r1
100016c2:	2006      	movs	r0, #6
100016c4:	f000 f89c 	bl	10001800 <clock_get_hz>
100016c8:	b348      	cbz	r0, 1000171e <uart_init+0x62>
100016ca:	4b17      	ldr	r3, [pc, #92]	; (10001728 <uart_init+0x6c>)
100016cc:	429c      	cmp	r4, r3
100016ce:	d027      	beq.n	10001720 <uart_init+0x64>
100016d0:	221a      	movs	r2, #26
100016d2:	2301      	movs	r3, #1
100016d4:	4093      	lsls	r3, r2
100016d6:	4a15      	ldr	r2, [pc, #84]	; (1000172c <uart_init+0x70>)
100016d8:	6013      	str	r3, [r2, #0]
100016da:	4b13      	ldr	r3, [pc, #76]	; (10001728 <uart_init+0x6c>)
100016dc:	429c      	cmp	r4, r3
100016de:	d021      	beq.n	10001724 <uart_init+0x68>
100016e0:	231a      	movs	r3, #26
100016e2:	2201      	movs	r2, #1
100016e4:	409a      	lsls	r2, r3
100016e6:	4b12      	ldr	r3, [pc, #72]	; (10001730 <uart_init+0x74>)
100016e8:	601a      	str	r2, [r3, #0]
100016ea:	4b12      	ldr	r3, [pc, #72]	; (10001734 <uart_init+0x78>)
100016ec:	689b      	ldr	r3, [r3, #8]
100016ee:	ea32 0303 	bics.w	r3, r2, r3
100016f2:	d1fa      	bne.n	100016ea <uart_init+0x2e>
100016f4:	2100      	movs	r1, #0
100016f6:	4620      	mov	r0, r4
100016f8:	f7ff ffce 	bl	10001698 <uart_set_translate_crlf>
100016fc:	4629      	mov	r1, r5
100016fe:	4620      	mov	r0, r4
10001700:	f7ff ffa0 	bl	10001644 <uart_set_baudrate>
10001704:	6ae3      	ldr	r3, [r4, #44]	; 0x2c
10001706:	f083 0370 	eor.w	r3, r3, #112	; 0x70
1000170a:	f003 037e 	and.w	r3, r3, #126	; 0x7e
1000170e:	f504 5281 	add.w	r2, r4, #4128	; 0x1020
10001712:	60d3      	str	r3, [r2, #12]
10001714:	f240 3301 	movw	r3, #769	; 0x301
10001718:	6323      	str	r3, [r4, #48]	; 0x30
1000171a:	2303      	movs	r3, #3
1000171c:	64a3      	str	r3, [r4, #72]	; 0x48
1000171e:	bd38      	pop	{r3, r4, r5, pc}
10001720:	221b      	movs	r2, #27
10001722:	e7d6      	b.n	100016d2 <uart_init+0x16>
10001724:	231b      	movs	r3, #27
10001726:	e7dc      	b.n	100016e2 <uart_init+0x26>
10001728:	40078000 	.word	0x40078000
1000172c:	40022000 	.word	0x40022000
10001730:	40023000 	.word	0x40023000
10001734:	40020000 	.word	0x40020000

10001738 <clock_configure_internal>:
10001738:	b570      	push	{r4, r5, r6, lr}
1000173a:	9d04      	ldr	r5, [sp, #16]
1000173c:	eb00 0c40 	add.w	ip, r0, r0, lsl #1
10001740:	ea4f 0c8c 	mov.w	ip, ip, lsl #2
10001744:	f10c 4c80 	add.w	ip, ip, #1073741824	; 0x40000000
10001748:	f50c 3c80 	add.w	ip, ip, #65536	; 0x10000
1000174c:	f8dc 4004 	ldr.w	r4, [ip, #4]
10001750:	42ac      	cmp	r4, r5
10001752:	d201      	bcs.n	10001758 <clock_configure_internal+0x20>
10001754:	f8cc 5004 	str.w	r5, [ip, #4]
10001758:	f1a0 0e04 	sub.w	lr, r0, #4
1000175c:	fa5f fe8e 	uxtb.w	lr, lr
10001760:	f1be 0f01 	cmp.w	lr, #1
10001764:	d927      	bls.n	100017b6 <clock_configure_internal+0x7e>
10001766:	f50c 5440 	add.w	r4, ip, #12288	; 0x3000
1000176a:	f44f 6600 	mov.w	r6, #2048	; 0x800
1000176e:	6026      	str	r6, [r4, #0]
10001770:	4c1d      	ldr	r4, [pc, #116]	; (100017e8 <clock_configure_internal+0xb0>)
10001772:	f854 6020 	ldr.w	r6, [r4, r0, lsl #2]
10001776:	b13e      	cbz	r6, 10001788 <clock_configure_internal+0x50>
10001778:	6964      	ldr	r4, [r4, #20]
1000177a:	fbb4 f4f6 	udiv	r4, r4, r6
1000177e:	3401      	adds	r4, #1
10001780:	eb04 0444 	add.w	r4, r4, r4, lsl #1
10001784:	3c03      	subs	r4, #3
10001786:	d2fd      	bcs.n	10001784 <clock_configure_internal+0x4c>
10001788:	f8dc 4000 	ldr.w	r4, [ip]
1000178c:	ea84 1242 	eor.w	r2, r4, r2, lsl #5
10001790:	f002 02e0 	and.w	r2, r2, #224	; 0xe0
10001794:	f50c 5480 	add.w	r4, ip, #4096	; 0x1000
10001798:	6022      	str	r2, [r4, #0]
1000179a:	f1be 0f01 	cmp.w	lr, #1
1000179e:	d916      	bls.n	100017ce <clock_configure_internal+0x96>
100017a0:	f50c 5200 	add.w	r2, ip, #8192	; 0x2000
100017a4:	f44f 6100 	mov.w	r1, #2048	; 0x800
100017a8:	6011      	str	r1, [r2, #0]
100017aa:	f8cc 5004 	str.w	r5, [ip, #4]
100017ae:	4a0e      	ldr	r2, [pc, #56]	; (100017e8 <clock_configure_internal+0xb0>)
100017b0:	f842 3020 	str.w	r3, [r2, r0, lsl #2]
100017b4:	bd70      	pop	{r4, r5, r6, pc}
100017b6:	2901      	cmp	r1, #1
100017b8:	d1d5      	bne.n	10001766 <clock_configure_internal+0x2e>
100017ba:	f50c 5440 	add.w	r4, ip, #12288	; 0x3000
100017be:	2603      	movs	r6, #3
100017c0:	6026      	str	r6, [r4, #0]
100017c2:	f8dc 4008 	ldr.w	r4, [ip, #8]
100017c6:	f014 0f01 	tst.w	r4, #1
100017ca:	d0fa      	beq.n	100017c2 <clock_configure_internal+0x8a>
100017cc:	e7dc      	b.n	10001788 <clock_configure_internal+0x50>
100017ce:	f8dc 2000 	ldr.w	r2, [ip]
100017d2:	404a      	eors	r2, r1
100017d4:	f002 0203 	and.w	r2, r2, #3
100017d8:	6022      	str	r2, [r4, #0]
100017da:	f8dc 4008 	ldr.w	r4, [ip, #8]
100017de:	2201      	movs	r2, #1
100017e0:	408a      	lsls	r2, r1
100017e2:	4214      	tst	r4, r2
100017e4:	d0f9      	beq.n	100017da <clock_configure_internal+0xa2>
100017e6:	e7db      	b.n	100017a0 <clock_configure_internal+0x68>
100017e8:	20002bd0 	.word	0x20002bd0

100017ec <clock_configure_undivided>:
100017ec:	b510      	push	{r4, lr}
100017ee:	b082      	sub	sp, #8
100017f0:	f44f 3480 	mov.w	r4, #65536	; 0x10000
100017f4:	9400      	str	r4, [sp, #0]
100017f6:	f7ff ff9f 	bl	10001738 <clock_configure_internal>
100017fa:	b002      	add	sp, #8
100017fc:	bd10      	pop	{r4, pc}
	...

10001800 <clock_get_hz>:
10001800:	4b01      	ldr	r3, [pc, #4]	; (10001808 <clock_get_hz+0x8>)
10001802:	f853 0020 	ldr.w	r0, [r3, r0, lsl #2]
10001806:	4770      	bx	lr
10001808:	20002bd0 	.word	0x20002bd0

1000180c <pll_init>:
1000180c:	b570      	push	{r4, r5, r6, lr}
1000180e:	9c04      	ldr	r4, [sp, #16]
10001810:	4d34      	ldr	r5, [pc, #208]	; (100018e4 <pll_init+0xd8>)
10001812:	fbb5 fcf1 	udiv	ip, r5, r1
10001816:	4d34      	ldr	r5, [pc, #208]	; (100018e8 <pll_init+0xdc>)
10001818:	4415      	add	r5, r2
1000181a:	4e34      	ldr	r6, [pc, #208]	; (100018ec <pll_init+0xe0>)
1000181c:	42b5      	cmp	r5, r6
1000181e:	d837      	bhi.n	10001890 <pll_init+0x84>
10001820:	fbb2 f5fc 	udiv	r5, r2, ip
10001824:	f1a5 0e10 	sub.w	lr, r5, #16
10001828:	f5be 7f98 	cmp.w	lr, #304	; 0x130
1000182c:	d836      	bhi.n	1000189c <pll_init+0x90>
1000182e:	f103 3eff 	add.w	lr, r3, #4294967295
10001832:	f1be 0f06 	cmp.w	lr, #6
10001836:	d837      	bhi.n	100018a8 <pll_init+0x9c>
10001838:	f104 3eff 	add.w	lr, r4, #4294967295
1000183c:	f1be 0f06 	cmp.w	lr, #6
10001840:	d832      	bhi.n	100018a8 <pll_init+0x9c>
10001842:	ebbc 1f12 	cmp.w	ip, r2, lsr #4
10001846:	d835      	bhi.n	100018b4 <pll_init+0xa8>
10001848:	0324      	lsls	r4, r4, #12
1000184a:	ea44 4403 	orr.w	r4, r4, r3, lsl #16
1000184e:	6803      	ldr	r3, [r0, #0]
10001850:	2b00      	cmp	r3, #0
10001852:	db35      	blt.n	100018c0 <pll_init+0xb4>
10001854:	4b26      	ldr	r3, [pc, #152]	; (100018f0 <pll_init+0xe4>)
10001856:	4298      	cmp	r0, r3
10001858:	d042      	beq.n	100018e0 <pll_init+0xd4>
1000185a:	230e      	movs	r3, #14
1000185c:	2201      	movs	r2, #1
1000185e:	409a      	lsls	r2, r3
10001860:	4b24      	ldr	r3, [pc, #144]	; (100018f4 <pll_init+0xe8>)
10001862:	601a      	str	r2, [r3, #0]
10001864:	f503 5380 	add.w	r3, r3, #4096	; 0x1000
10001868:	601a      	str	r2, [r3, #0]
1000186a:	4b23      	ldr	r3, [pc, #140]	; (100018f8 <pll_init+0xec>)
1000186c:	689b      	ldr	r3, [r3, #8]
1000186e:	ea32 0303 	bics.w	r3, r2, r3
10001872:	d1fa      	bne.n	1000186a <pll_init+0x5e>
10001874:	6001      	str	r1, [r0, #0]
10001876:	6085      	str	r5, [r0, #8]
10001878:	f500 5240 	add.w	r2, r0, #12288	; 0x3000
1000187c:	3204      	adds	r2, #4
1000187e:	2321      	movs	r3, #33	; 0x21
10001880:	6013      	str	r3, [r2, #0]
10001882:	6803      	ldr	r3, [r0, #0]
10001884:	2b00      	cmp	r3, #0
10001886:	dafc      	bge.n	10001882 <pll_init+0x76>
10001888:	60c4      	str	r4, [r0, #12]
1000188a:	2308      	movs	r3, #8
1000188c:	6013      	str	r3, [r2, #0]
1000188e:	bd70      	pop	{r4, r5, r6, pc}
10001890:	4b1a      	ldr	r3, [pc, #104]	; (100018fc <pll_init+0xf0>)
10001892:	4a1b      	ldr	r2, [pc, #108]	; (10001900 <pll_init+0xf4>)
10001894:	2111      	movs	r1, #17
10001896:	481b      	ldr	r0, [pc, #108]	; (10001904 <pll_init+0xf8>)
10001898:	f001 fca8 	bl	100031ec <__assert_func>
1000189c:	4b1a      	ldr	r3, [pc, #104]	; (10001908 <pll_init+0xfc>)
1000189e:	4a18      	ldr	r2, [pc, #96]	; (10001900 <pll_init+0xf4>)
100018a0:	2119      	movs	r1, #25
100018a2:	4818      	ldr	r0, [pc, #96]	; (10001904 <pll_init+0xf8>)
100018a4:	f001 fca2 	bl	100031ec <__assert_func>
100018a8:	4b18      	ldr	r3, [pc, #96]	; (1000190c <pll_init+0x100>)
100018aa:	4a15      	ldr	r2, [pc, #84]	; (10001900 <pll_init+0xf4>)
100018ac:	211c      	movs	r1, #28
100018ae:	4815      	ldr	r0, [pc, #84]	; (10001904 <pll_init+0xf8>)
100018b0:	f001 fc9c 	bl	100031ec <__assert_func>
100018b4:	4b16      	ldr	r3, [pc, #88]	; (10001910 <pll_init+0x104>)
100018b6:	4a12      	ldr	r2, [pc, #72]	; (10001900 <pll_init+0xf4>)
100018b8:	2123      	movs	r1, #35	; 0x23
100018ba:	4812      	ldr	r0, [pc, #72]	; (10001904 <pll_init+0xf8>)
100018bc:	f001 fc96 	bl	100031ec <__assert_func>
100018c0:	6803      	ldr	r3, [r0, #0]
100018c2:	f003 033f 	and.w	r3, r3, #63	; 0x3f
100018c6:	428b      	cmp	r3, r1
100018c8:	d1c4      	bne.n	10001854 <pll_init+0x48>
100018ca:	6883      	ldr	r3, [r0, #8]
100018cc:	f3c3 030b 	ubfx	r3, r3, #0, #12
100018d0:	42ab      	cmp	r3, r5
100018d2:	d1bf      	bne.n	10001854 <pll_init+0x48>
100018d4:	68c3      	ldr	r3, [r0, #12]
100018d6:	f403 23ee 	and.w	r3, r3, #487424	; 0x77000
100018da:	42a3      	cmp	r3, r4
100018dc:	d1ba      	bne.n	10001854 <pll_init+0x48>
100018de:	e7d6      	b.n	1000188e <pll_init+0x82>
100018e0:	230f      	movs	r3, #15
100018e2:	e7bb      	b.n	1000185c <pll_init+0x50>
100018e4:	00b71b00 	.word	0x00b71b00
100018e8:	d34be880 	.word	0xd34be880
100018ec:	32a9f880 	.word	0x32a9f880
100018f0:	40058000 	.word	0x40058000
100018f4:	40022000 	.word	0x40022000
100018f8:	40020000 	.word	0x40020000
100018fc:	10008338 	.word	0x10008338
10001900:	10008440 	.word	0x10008440
10001904:	10008388 	.word	0x10008388
10001908:	100083bc 	.word	0x100083bc
1000190c:	100083d8 	.word	0x100083d8
10001910:	10008424 	.word	0x10008424

10001914 <watchdog_update>:
10001914:	4b02      	ldr	r3, [pc, #8]	; (10001920 <watchdog_update+0xc>)
10001916:	681a      	ldr	r2, [r3, #0]
10001918:	4b02      	ldr	r3, [pc, #8]	; (10001924 <watchdog_update+0x10>)
1000191a:	605a      	str	r2, [r3, #4]
1000191c:	4770      	bx	lr
1000191e:	bf00      	nop
10001920:	20003044 	.word	0x20003044
10001924:	400d8000 	.word	0x400d8000

10001928 <_watchdog_enable>:
10001928:	b508      	push	{r3, lr}
1000192a:	4b16      	ldr	r3, [pc, #88]	; (10001984 <_watchdog_enable+0x5c>)
1000192c:	f04f 4280 	mov.w	r2, #1073741824	; 0x40000000
10001930:	601a      	str	r2, [r3, #0]
10001932:	f5a3 2341 	sub.w	r3, r3, #790528	; 0xc1000
10001936:	4a14      	ldr	r2, [pc, #80]	; (10001988 <_watchdog_enable+0x60>)
10001938:	609a      	str	r2, [r3, #8]
1000193a:	b151      	cbz	r1, 10001952 <_watchdog_enable+0x2a>
1000193c:	f503 2340 	add.w	r3, r3, #786432	; 0xc0000
10001940:	f04f 62e0 	mov.w	r2, #117440512	; 0x7000000
10001944:	601a      	str	r2, [r3, #0]
10001946:	b948      	cbnz	r0, 1000195c <_watchdog_enable+0x34>
10001948:	4b10      	ldr	r3, [pc, #64]	; (1000198c <_watchdog_enable+0x64>)
1000194a:	f04f 4200 	mov.w	r2, #2147483648	; 0x80000000
1000194e:	601a      	str	r2, [r3, #0]
10001950:	bd08      	pop	{r3, pc}
10001952:	4b0c      	ldr	r3, [pc, #48]	; (10001984 <_watchdog_enable+0x5c>)
10001954:	f04f 62e0 	mov.w	r2, #117440512	; 0x7000000
10001958:	601a      	str	r2, [r3, #0]
1000195a:	e7f4      	b.n	10001946 <_watchdog_enable+0x1e>
1000195c:	f44f 737a 	mov.w	r3, #1000	; 0x3e8
10001960:	fb03 f000 	mul.w	r0, r3, r0
10001964:	4b0a      	ldr	r3, [pc, #40]	; (10001990 <_watchdog_enable+0x68>)
10001966:	6018      	str	r0, [r3, #0]
10001968:	f1b0 7f80 	cmp.w	r0, #16777216	; 0x1000000
1000196c:	d302      	bcc.n	10001974 <_watchdog_enable+0x4c>
1000196e:	f06f 427f 	mvn.w	r2, #4278190080	; 0xff000000
10001972:	601a      	str	r2, [r3, #0]
10001974:	f7ff ffce 	bl	10001914 <watchdog_update>
10001978:	4b04      	ldr	r3, [pc, #16]	; (1000198c <_watchdog_enable+0x64>)
1000197a:	f04f 4280 	mov.w	r2, #1073741824	; 0x40000000
1000197e:	601a      	str	r2, [r3, #0]
10001980:	e7e6      	b.n	10001950 <_watchdog_enable+0x28>
10001982:	bf00      	nop
10001984:	400db000 	.word	0x400db000
10001988:	01fffff3 	.word	0x01fffff3
1000198c:	400da000 	.word	0x400da000
10001990:	20003044 	.word	0x20003044

10001994 <watchdog_reboot>:
10001994:	b510      	push	{r4, lr}
10001996:	4b0c      	ldr	r3, [pc, #48]	; (100019c8 <watchdog_reboot+0x34>)
10001998:	f04f 4480 	mov.w	r4, #1073741824	; 0x40000000
1000199c:	601c      	str	r4, [r3, #0]
1000199e:	b170      	cbz	r0, 100019be <watchdog_reboot+0x2a>
100019a0:	f040 0301 	orr.w	r3, r0, #1
100019a4:	4809      	ldr	r0, [pc, #36]	; (100019cc <watchdog_reboot+0x38>)
100019a6:	4c0a      	ldr	r4, [pc, #40]	; (100019d0 <watchdog_reboot+0x3c>)
100019a8:	61c4      	str	r4, [r0, #28]
100019aa:	4c0a      	ldr	r4, [pc, #40]	; (100019d4 <watchdog_reboot+0x40>)
100019ac:	405c      	eors	r4, r3
100019ae:	6204      	str	r4, [r0, #32]
100019b0:	6241      	str	r1, [r0, #36]	; 0x24
100019b2:	6283      	str	r3, [r0, #40]	; 0x28
100019b4:	2100      	movs	r1, #0
100019b6:	4610      	mov	r0, r2
100019b8:	f7ff ffb6 	bl	10001928 <_watchdog_enable>
100019bc:	bd10      	pop	{r4, pc}
100019be:	4b03      	ldr	r3, [pc, #12]	; (100019cc <watchdog_reboot+0x38>)
100019c0:	2100      	movs	r1, #0
100019c2:	61d9      	str	r1, [r3, #28]
100019c4:	e7f6      	b.n	100019b4 <watchdog_reboot+0x20>
100019c6:	bf00      	nop
100019c8:	400db000 	.word	0x400db000
100019cc:	400d8000 	.word	0x400d8000
100019d0:	b007c0d3 	.word	0xb007c0d3
100019d4:	4ff83f2d 	.word	0x4ff83f2d

100019d8 <tick_start>:
100019d8:	4a05      	ldr	r2, [pc, #20]	; (100019f0 <tick_start+0x18>)
100019da:	eb00 0340 	add.w	r3, r0, r0, lsl #1
100019de:	eb02 0383 	add.w	r3, r2, r3, lsl #2
100019e2:	6059      	str	r1, [r3, #4]
100019e4:	eb00 0040 	add.w	r0, r0, r0, lsl #1
100019e8:	0080      	lsls	r0, r0, #2
100019ea:	2301      	movs	r3, #1
100019ec:	5013      	str	r3, [r2, r0]
100019ee:	4770      	bx	lr
100019f0:	40108000 	.word	0x40108000

100019f4 <rom_reboot>:
100019f4:	e92d 41f0 	stmdb	sp!, {r4, r5, r6, r7, r8, lr}
100019f8:	4605      	mov	r5, r0
100019fa:	460e      	mov	r6, r1
100019fc:	4617      	mov	r7, r2
100019fe:	4698      	mov	r8, r3
10001a00:	2300      	movs	r3, #0
10001a02:	8adb      	ldrh	r3, [r3, #22]
10001a04:	2200      	movs	r2, #0
10001a06:	e842 f200 	tt	r2, r2
10001a0a:	f412 0f80 	tst.w	r2, #4194304	; 0x400000
10001a0e:	d10b      	bne.n	10001a28 <rom_reboot+0x34>
10001a10:	2110      	movs	r1, #16
10001a12:	f244 2052 	movw	r0, #16978	; 0x4252
10001a16:	4798      	blx	r3
10001a18:	4604      	mov	r4, r0
10001a1a:	4643      	mov	r3, r8
10001a1c:	463a      	mov	r2, r7
10001a1e:	4631      	mov	r1, r6
10001a20:	4628      	mov	r0, r5
10001a22:	47a0      	blx	r4
10001a24:	e8bd 81f0 	ldmia.w	sp!, {r4, r5, r6, r7, r8, pc}
10001a28:	2104      	movs	r1, #4
10001a2a:	f244 2052 	movw	r0, #16978	; 0x4252
10001a2e:	4798      	blx	r3
10001a30:	4604      	mov	r4, r0
10001a32:	e7f2      	b.n	10001a1a <rom_reboot+0x26>

10001a34 <rom_func_lookup>:
10001a34:	b508      	push	{r3, lr}
10001a36:	2300      	movs	r3, #0
10001a38:	8adb      	ldrh	r3, [r3, #22]
10001a3a:	2200      	movs	r2, #0
10001a3c:	e842 f200 	tt	r2, r2
10001a40:	f412 0f80 	tst.w	r2, #4194304	; 0x400000
10001a44:	d102      	bne.n	10001a4c <rom_func_lookup+0x18>
10001a46:	2110      	movs	r1, #16
10001a48:	4798      	blx	r3
10001a4a:	bd08      	pop	{r3, pc}
10001a4c:	2104      	movs	r1, #4
10001a4e:	4798      	blx	r3
10001a50:	e7fb      	b.n	10001a4a <rom_func_lookup+0x16>

10001a52 <rom_reset_usb_boot_extra>:
10001a52:	b508      	push	{r3, lr}
10001a54:	1e03      	subs	r3, r0, #0
10001a56:	db06      	blt.n	10001a66 <rom_reset_usb_boot_extra+0x14>
10001a58:	f041 0020 	orr.w	r0, r1, #32
10001a5c:	b112      	cbz	r2, 10001a64 <rom_reset_usb_boot_extra+0x12>
10001a5e:	f041 0130 	orr.w	r1, r1, #48	; 0x30
10001a62:	e000      	b.n	10001a66 <rom_reset_usb_boot_extra+0x14>
10001a64:	4601      	mov	r1, r0
10001a66:	460a      	mov	r2, r1
10001a68:	210a      	movs	r1, #10
10001a6a:	f44f 7081 	mov.w	r0, #258	; 0x102
10001a6e:	f7ff ffc1 	bl	100019f4 <rom_reboot>
	...

10001a74 <runtime_init_bootrom_locking_enable>:
10001a74:	4b03      	ldr	r3, [pc, #12]	; (10001a84 <runtime_init_bootrom_locking_enable+0x10>)
10001a76:	f8d3 3828 	ldr.w	r3, [r3, #2088]	; 0x828
10001a7a:	2b00      	cmp	r3, #0
10001a7c:	d0fa      	beq.n	10001a74 <runtime_init_bootrom_locking_enable>
10001a7e:	f3bf 8f5f 	dmb	sy
10001a82:	4770      	bx	lr
10001a84:	400e0000 	.word	0x400e0000

10001a88 <boot_locks_reset>:
10001a88:	2200      	movs	r2, #0
10001a8a:	e007      	b.n	10001a9c <boot_locks_reset+0x14>
10001a8c:	4b05      	ldr	r3, [pc, #20]	; (10001aa4 <boot_locks_reset+0x1c>)
10001a8e:	4413      	add	r3, r2
10001a90:	009b      	lsls	r3, r3, #2
10001a92:	f3bf 8f5f 	dmb	sy
10001a96:	2100      	movs	r1, #0
10001a98:	6019      	str	r1, [r3, #0]
10001a9a:	3201      	adds	r2, #1
10001a9c:	2a07      	cmp	r2, #7
10001a9e:	d9f5      	bls.n	10001a8c <boot_locks_reset+0x4>
10001aa0:	4770      	bx	lr
10001aa2:	bf00      	nop
10001aa4:	10038203 	.word	0x10038203

10001aa8 <runtime_init_boot_locks_reset>:
10001aa8:	b508      	push	{r3, lr}
10001aaa:	f7ff ffed 	bl	10001a88 <boot_locks_reset>
10001aae:	bd08      	pop	{r3, pc}

10001ab0 <xosc_init>:
10001ab0:	4b07      	ldr	r3, [pc, #28]	; (10001ad0 <xosc_init+0x20>)
10001ab2:	f44f 622a 	mov.w	r2, #2720	; 0xaa0
10001ab6:	601a      	str	r2, [r3, #0]
10001ab8:	f44f 728d 	mov.w	r2, #282	; 0x11a
10001abc:	60da      	str	r2, [r3, #12]
10001abe:	f503 5300 	add.w	r3, r3, #8192	; 0x2000
10001ac2:	4a04      	ldr	r2, [pc, #16]	; (10001ad4 <xosc_init+0x24>)
10001ac4:	601a      	str	r2, [r3, #0]
10001ac6:	4b02      	ldr	r3, [pc, #8]	; (10001ad0 <xosc_init+0x20>)
10001ac8:	685b      	ldr	r3, [r3, #4]
10001aca:	2b00      	cmp	r3, #0
10001acc:	dafb      	bge.n	10001ac6 <xosc_init+0x16>
10001ace:	4770      	bx	lr
10001ad0:	40048000 	.word	0x40048000
10001ad4:	00fab000 	.word	0x00fab000

10001ad8 <runtime_run_initializers_from>:
10001ad8:	b510      	push	{r4, lr}
10001ada:	4604      	mov	r4, r0
10001adc:	e002      	b.n	10001ae4 <runtime_run_initializers_from+0xc>
10001ade:	f854 3b04 	ldr.w	r3, [r4], #4
10001ae2:	4798      	blx	r3
10001ae4:	4b01      	ldr	r3, [pc, #4]	; (10001aec <runtime_run_initializers_from+0x14>)
10001ae6:	429c      	cmp	r4, r3
10001ae8:	d3f9      	bcc.n	10001ade <runtime_run_initializers_from+0x6>
10001aea:	bd10      	pop	{r4, pc}
10001aec:	10007cb0 	.word	0x10007cb0

10001af0 <first_per_core_initializer>:
10001af0:	4770      	bx	lr
	...

10001af4 <runtime_run_initializers>:
10001af4:	b508      	push	{r3, lr}
10001af6:	4802      	ldr	r0, [pc, #8]	; (10001b00 <runtime_run_initializers+0xc>)
10001af8:	f7ff ffee 	bl	10001ad8 <runtime_run_initializers_from>
10001afc:	bd08      	pop	{r3, pc}
10001afe:	bf00      	nop
10001b00:	10007c70 	.word	0x10007c70

10001b04 <runtime_run_per_core_initializers>:
10001b04:	b508      	push	{r3, lr}
10001b06:	4802      	ldr	r0, [pc, #8]	; (10001b10 <runtime_run_per_core_initializers+0xc>)
10001b08:	f7ff ffe6 	bl	10001ad8 <runtime_run_initializers_from>
10001b0c:	bd08      	pop	{r3, pc}
10001b0e:	bf00      	nop
10001b10:	10007c9c 	.word	0x10007c9c

10001b14 <runtime_init_early_resets>:
10001b14:	4b06      	ldr	r3, [pc, #24]	; (10001b30 <runtime_init_early_resets+0x1c>)
10001b16:	4a07      	ldr	r2, [pc, #28]	; (10001b34 <runtime_init_early_resets+0x20>)
10001b18:	601a      	str	r2, [r3, #0]
10001b1a:	f503 5380 	add.w	r3, r3, #4096	; 0x1000
10001b1e:	4a06      	ldr	r2, [pc, #24]	; (10001b38 <runtime_init_early_resets+0x24>)
10001b20:	601a      	str	r2, [r3, #0]
10001b22:	4b06      	ldr	r3, [pc, #24]	; (10001b3c <runtime_init_early_resets+0x28>)
10001b24:	689a      	ldr	r2, [r3, #8]
10001b26:	4b04      	ldr	r3, [pc, #16]	; (10001b38 <runtime_init_early_resets+0x24>)
10001b28:	4393      	bics	r3, r2
10001b2a:	d1fa      	bne.n	10001b22 <runtime_init_early_resets+0xe>
10001b2c:	4770      	bx	lr
10001b2e:	bf00      	nop
10001b30:	40022000 	.word	0x40022000
10001b34:	efef3b7f 	.word	0xefef3b7f
10001b38:	03f3fff6 	.word	0x03f3fff6
10001b3c:	40020000 	.word	0x40020000

10001b40 <runtime_init_usb_power_down>:
10001b40:	4b05      	ldr	r3, [pc, #20]	; (10001b58 <runtime_init_usb_power_down+0x18>)
10001b42:	6cdb      	ldr	r3, [r3, #76]	; 0x4c
10001b44:	f5b3 4f00 	cmp.w	r3, #32768	; 0x8000
10001b48:	d000      	beq.n	10001b4c <runtime_init_usb_power_down+0xc>
10001b4a:	4770      	bx	lr
10001b4c:	4b03      	ldr	r3, [pc, #12]	; (10001b5c <runtime_init_usb_power_down+0x1c>)
10001b4e:	f44f 2280 	mov.w	r2, #262144	; 0x40000
10001b52:	64da      	str	r2, [r3, #76]	; 0x4c
10001b54:	e7f9      	b.n	10001b4a <runtime_init_usb_power_down+0xa>
10001b56:	bf00      	nop
10001b58:	50110000 	.word	0x50110000
10001b5c:	50112000 	.word	0x50112000

10001b60 <runtime_init_per_core_enable_coprocessors>:
10001b60:	f04f 22e0 	mov.w	r2, #3758153728	; 0xe000e000
10001b64:	f8d2 1d88 	ldr.w	r1, [r2, #3464]	; 0xd88
10001b68:	4b03      	ldr	r3, [pc, #12]	; (10001b78 <runtime_init_per_core_enable_coprocessors+0x18>)
10001b6a:	430b      	orrs	r3, r1
10001b6c:	f8c2 3d88 	str.w	r3, [r2, #3464]	; 0xd88
10001b70:	ee10 0430 	dcp_rcmp r0
10001b74:	4770      	bx	lr
10001b76:	bf00      	nop
10001b78:	00300303 	.word	0x00300303

10001b7c <runtime_init_post_clock_resets>:
10001b7c:	4b05      	ldr	r3, [pc, #20]	; (10001b94 <runtime_init_post_clock_resets+0x18>)
10001b7e:	f06f 4260 	mvn.w	r2, #3758096384	; 0xe0000000
10001b82:	601a      	str	r2, [r3, #0]
10001b84:	4b04      	ldr	r3, [pc, #16]	; (10001b98 <runtime_init_post_clock_resets+0x1c>)
10001b86:	689b      	ldr	r3, [r3, #8]
10001b88:	43db      	mvns	r3, r3
10001b8a:	f033 4360 	bics.w	r3, r3, #3758096384	; 0xe0000000
10001b8e:	d1f9      	bne.n	10001b84 <runtime_init_post_clock_resets+0x8>
10001b90:	4770      	bx	lr
10001b92:	bf00      	nop
10001b94:	40023000 	.word	0x40023000
10001b98:	40020000 	.word	0x40020000

10001b9c <runtime_init_bootrom_reset>:
10001b9c:	b508      	push	{r3, lr}
10001b9e:	f245 2053 	movw	r0, #21075	; 0x5253
10001ba2:	f7ff ff47 	bl	10001a34 <rom_func_lookup>
10001ba6:	4603      	mov	r3, r0
10001ba8:	2004      	movs	r0, #4
10001baa:	4798      	blx	r3
10001bac:	bd08      	pop	{r3, pc}

10001bae <runtime_init_per_core_bootrom_reset>:
10001bae:	b508      	push	{r3, lr}
10001bb0:	f245 2053 	movw	r0, #21075	; 0x5253
10001bb4:	f7ff ff3e 	bl	10001a34 <rom_func_lookup>
10001bb8:	4603      	mov	r3, r0
10001bba:	2001      	movs	r0, #1
10001bbc:	4798      	blx	r3
10001bbe:	bd08      	pop	{r3, pc}

10001bc0 <runtime_init_spin_locks_reset>:
10001bc0:	b508      	push	{r3, lr}
10001bc2:	f7ff f935 	bl	10000e30 <spin_locks_reset>
10001bc6:	bd08      	pop	{r3, pc}

10001bc8 <runtime_init_install_ram_vector_table>:
10001bc8:	b510      	push	{r4, lr}
10001bca:	490c      	ldr	r1, [pc, #48]	; (10001bfc <runtime_init_install_ram_vector_table+0x34>)
10001bcc:	4a0c      	ldr	r2, [pc, #48]	; (10001c00 <runtime_init_install_ram_vector_table+0x38>)
10001bce:	1a52      	subs	r2, r2, r1
10001bd0:	1092      	asrs	r2, r2, #2
10001bd2:	4614      	mov	r4, r2
10001bd4:	2a44      	cmp	r2, #68	; 0x44
10001bd6:	bf28      	it	cs
10001bd8:	2244      	movcs	r2, #68	; 0x44
10001bda:	0092      	lsls	r2, r2, #2
10001bdc:	4809      	ldr	r0, [pc, #36]	; (10001c04 <runtime_init_install_ram_vector_table+0x3c>)
10001bde:	f005 fd57 	bl	10007690 <memcpy>
10001be2:	e004      	b.n	10001bee <runtime_init_install_ram_vector_table+0x26>
10001be4:	4a08      	ldr	r2, [pc, #32]	; (10001c08 <runtime_init_install_ram_vector_table+0x40>)
10001be6:	4b07      	ldr	r3, [pc, #28]	; (10001c04 <runtime_init_install_ram_vector_table+0x3c>)
10001be8:	f843 2024 	str.w	r2, [r3, r4, lsl #2]
10001bec:	3401      	adds	r4, #1
10001bee:	2c43      	cmp	r4, #67	; 0x43
10001bf0:	d9f8      	bls.n	10001be4 <runtime_init_install_ram_vector_table+0x1c>
10001bf2:	4a04      	ldr	r2, [pc, #16]	; (10001c04 <runtime_init_install_ram_vector_table+0x3c>)
10001bf4:	4b05      	ldr	r3, [pc, #20]	; (10001c0c <runtime_init_install_ram_vector_table+0x44>)
10001bf6:	609a      	str	r2, [r3, #8]
10001bf8:	bd10      	pop	{r4, pc}
10001bfa:	bf00      	nop
10001bfc:	10000000 	.word	0x10000000
10001c00:	10000110 	.word	0x10000110
10001c04:	20000000 	.word	0x20000000
10001c08:	10000111 	.word	0x10000111
10001c0c:	e000ed00 	.word	0xe000ed00

10001c10 <start_all_ticks>:
10001c10:	b538      	push	{r3, r4, r5, lr}
10001c12:	2004      	movs	r0, #4
10001c14:	f7ff fdf4 	bl	10001800 <clock_get_hz>
10001c18:	4d06      	ldr	r5, [pc, #24]	; (10001c34 <start_all_ticks+0x24>)
10001c1a:	fba5 3500 	umull	r3, r5, r5, r0
10001c1e:	0cad      	lsrs	r5, r5, #18
10001c20:	2400      	movs	r4, #0
10001c22:	e004      	b.n	10001c2e <start_all_ticks+0x1e>
10001c24:	4629      	mov	r1, r5
10001c26:	b2e0      	uxtb	r0, r4
10001c28:	f7ff fed6 	bl	100019d8 <tick_start>
10001c2c:	3401      	adds	r4, #1
10001c2e:	2c05      	cmp	r4, #5
10001c30:	ddf8      	ble.n	10001c24 <start_all_ticks+0x14>
10001c32:	bd38      	pop	{r3, r4, r5, pc}
10001c34:	431bde83 	.word	0x431bde83

10001c38 <runtime_init_clocks>:
10001c38:	b530      	push	{r4, r5, lr}
10001c3a:	b083      	sub	sp, #12
10001c3c:	4b26      	ldr	r3, [pc, #152]	; (10001cd8 <runtime_init_clocks+0xa0>)
10001c3e:	2200      	movs	r2, #0
10001c40:	f8c3 2084 	str.w	r2, [r3, #132]	; 0x84
10001c44:	f7ff ff34 	bl	10001ab0 <xosc_init>
10001c48:	4b24      	ldr	r3, [pc, #144]	; (10001cdc <runtime_init_clocks+0xa4>)
10001c4a:	2201      	movs	r2, #1
10001c4c:	63da      	str	r2, [r3, #60]	; 0x3c
10001c4e:	4b22      	ldr	r3, [pc, #136]	; (10001cd8 <runtime_init_clocks+0xa0>)
10001c50:	6c5b      	ldr	r3, [r3, #68]	; 0x44
10001c52:	2b01      	cmp	r3, #1
10001c54:	d1fb      	bne.n	10001c4e <runtime_init_clocks+0x16>
10001c56:	4b21      	ldr	r3, [pc, #132]	; (10001cdc <runtime_init_clocks+0xa4>)
10001c58:	2203      	movs	r2, #3
10001c5a:	631a      	str	r2, [r3, #48]	; 0x30
10001c5c:	4b1e      	ldr	r3, [pc, #120]	; (10001cd8 <runtime_init_clocks+0xa0>)
10001c5e:	6b9b      	ldr	r3, [r3, #56]	; 0x38
10001c60:	2b01      	cmp	r3, #1
10001c62:	d1fb      	bne.n	10001c5c <runtime_init_clocks+0x24>
10001c64:	2402      	movs	r4, #2
10001c66:	9400      	str	r4, [sp, #0]
10001c68:	2305      	movs	r3, #5
10001c6a:	4a1d      	ldr	r2, [pc, #116]	; (10001ce0 <runtime_init_clocks+0xa8>)
10001c6c:	2101      	movs	r1, #1
10001c6e:	481d      	ldr	r0, [pc, #116]	; (10001ce4 <runtime_init_clocks+0xac>)
10001c70:	f7ff fdcc 	bl	1000180c <pll_init>
10001c74:	2505      	movs	r5, #5
10001c76:	9500      	str	r5, [sp, #0]
10001c78:	462b      	mov	r3, r5
10001c7a:	4a1b      	ldr	r2, [pc, #108]	; (10001ce8 <runtime_init_clocks+0xb0>)
10001c7c:	2101      	movs	r1, #1
10001c7e:	481b      	ldr	r0, [pc, #108]	; (10001cec <runtime_init_clocks+0xb4>)
10001c80:	f7ff fdc4 	bl	1000180c <pll_init>
10001c84:	4b1a      	ldr	r3, [pc, #104]	; (10001cf0 <runtime_init_clocks+0xb8>)
10001c86:	2200      	movs	r2, #0
10001c88:	4621      	mov	r1, r4
10001c8a:	2004      	movs	r0, #4
10001c8c:	f7ff fdae 	bl	100017ec <clock_configure_undivided>
10001c90:	4c18      	ldr	r4, [pc, #96]	; (10001cf4 <runtime_init_clocks+0xbc>)
10001c92:	4623      	mov	r3, r4
10001c94:	2200      	movs	r2, #0
10001c96:	2101      	movs	r1, #1
10001c98:	4628      	mov	r0, r5
10001c9a:	f7ff fda7 	bl	100017ec <clock_configure_undivided>
10001c9e:	4d16      	ldr	r5, [pc, #88]	; (10001cf8 <runtime_init_clocks+0xc0>)
10001ca0:	462b      	mov	r3, r5
10001ca2:	2200      	movs	r2, #0
10001ca4:	4611      	mov	r1, r2
10001ca6:	2008      	movs	r0, #8
10001ca8:	f7ff fda0 	bl	100017ec <clock_configure_undivided>
10001cac:	462b      	mov	r3, r5
10001cae:	2200      	movs	r2, #0
10001cb0:	4611      	mov	r1, r2
10001cb2:	2009      	movs	r0, #9
10001cb4:	f7ff fd9a 	bl	100017ec <clock_configure_undivided>
10001cb8:	4623      	mov	r3, r4
10001cba:	2200      	movs	r2, #0
10001cbc:	4611      	mov	r1, r2
10001cbe:	2006      	movs	r0, #6
10001cc0:	f7ff fd94 	bl	100017ec <clock_configure_undivided>
10001cc4:	4623      	mov	r3, r4
10001cc6:	2200      	movs	r2, #0
10001cc8:	4611      	mov	r1, r2
10001cca:	2007      	movs	r0, #7
10001ccc:	f7ff fd8e 	bl	100017ec <clock_configure_undivided>
10001cd0:	f7ff ff9e 	bl	10001c10 <start_all_ticks>
10001cd4:	b003      	add	sp, #12
10001cd6:	bd30      	pop	{r4, r5, pc}
10001cd8:	40010000 	.word	0x40010000
10001cdc:	40013000 	.word	0x40013000
10001ce0:	59682f00 	.word	0x59682f00
10001ce4:	40050000 	.word	0x40050000
10001ce8:	47868c00 	.word	0x47868c00
10001cec:	40058000 	.word	0x40058000
10001cf0:	00b71b00 	.word	0x00b71b00
10001cf4:	08f0d180 	.word	0x08f0d180
10001cf8:	02dc6c00 	.word	0x02dc6c00

10001cfc <generic_save_state>:
10001cfc:	b086      	sub	sp, #24
10001cfe:	b403      	push	{r0, r1}
10001d00:	fc51 0408 	dcp_pxmd r0, r1
10001d04:	e9cd 0102 	strd	r0, r1, [sp, #8]
10001d08:	fc51 0409 	dcp_pymd r0, r1
10001d0c:	e9cd 0104 	strd	r0, r1, [sp, #16]
10001d10:	ec51 040a 	dcp_refd r0, r1
10001d14:	e9cd 0106 	strd	r0, r1, [sp, #24]
10001d18:	bc03      	pop	{r0, r1}
10001d1a:	47f0      	blx	lr

10001d1c <generic_restore_state>:
10001d1c:	e8bd 5000 	ldmia.w	sp!, {ip, lr}
10001d20:	ec4e c400 	dcp_wxmd ip, lr
10001d24:	e8bd 5000 	ldmia.w	sp!, {ip, lr}
10001d28:	ec4e c401 	dcp_wymd ip, lr
10001d2c:	e8bd 5000 	ldmia.w	sp!, {ip, lr}
10001d30:	ec4e c402 	dcp_wefd ip, lr
10001d34:	bd00      	pop	{pc}
10001d36:	0000      	movs	r0, r0
10001d38:	b500      	push	{lr}
10001d3a:	f7ff ffdf 	bl	10001cfc <generic_save_state>
10001d3e:	e002      	b.n	10001d46 <__wrap___aeabi_dadd+0x6>

10001d40 <__wrap___aeabi_dadd>:
10001d40:	fe10 f430 	dcp_pcmp APSR_nzcv
10001d44:	d4f8      	bmi.n	10001d38 <generic_restore_state+0x1c>
10001d46:	ec41 0410 	dcp_wxup r0, r1
10001d4a:	ec43 2411 	dcp_wyup r2, r3
10001d4e:	ee00 0401 	dcp_add0
10001d52:	ee10 0401 	dcp_add1
10001d56:	ee80 0420 	dcp_nrdd
10001d5a:	ec51 0410 	dcp_rdda r0, r1
10001d5e:	4770      	bx	lr
10001d60:	b500      	push	{lr}
10001d62:	f7ff ffcb 	bl	10001cfc <generic_save_state>
10001d66:	e002      	b.n	10001d6e <__wrap___aeabi_dsub+0x6>

10001d68 <__wrap___aeabi_dsub>:
10001d68:	fe10 f430 	dcp_pcmp APSR_nzcv
10001d6c:	d4f8      	bmi.n	10001d60 <__wrap___aeabi_dadd+0x20>
10001d6e:	ec41 0410 	dcp_wxup r0, r1
10001d72:	ec43 2411 	dcp_wyup r2, r3
10001d76:	ee00 0401 	dcp_add0
10001d7a:	ee10 0421 	dcp_sub1
10001d7e:	ee80 0420 	dcp_nrdd
10001d82:	ec51 0430 	dcp_rdds r0, r1
10001d86:	4770      	bx	lr
10001d88:	b500      	push	{lr}
10001d8a:	f7ff ffb7 	bl	10001cfc <generic_save_state>
10001d8e:	e002      	b.n	10001d96 <__wrap___aeabi_dmul+0x6>

10001d90 <__wrap___aeabi_dmul>:
10001d90:	fe10 f430 	dcp_pcmp APSR_nzcv
10001d94:	d4f8      	bmi.n	10001d88 <__wrap___aeabi_dsub+0x20>
10001d96:	b510      	push	{r4, lr}
10001d98:	ec41 0410 	dcp_wxup r0, r1
10001d9c:	ec43 2411 	dcp_wyup r2, r3
10001da0:	ec51 0404 	dcp_rxms r0, r1, #0x0
10001da4:	ec53 2405 	dcp_ryms r2, r3, #0x0
10001da8:	fba0 4c02 	umull	r4, ip, r0, r2
10001dac:	f05f 0e00 	movs.w	lr, #0
10001db0:	fbe0 ce03 	umlal	ip, lr, r0, r3
10001db4:	fbe1 ce02 	umlal	ip, lr, r1, r2
10001db8:	ec4c 4420 	dcp_wxms r4, ip
10001dbc:	2400      	movs	r4, #0
10001dbe:	fbe1 e403 	umlal	lr, r4, r1, r3
10001dc2:	ec44 e430 	dcp_wxmo lr, r4
10001dc6:	ee80 0420 	dcp_nrdd
10001dca:	ec51 0450 	dcp_rddm r0, r1
10001dce:	e8bd 4010 	ldmia.w	sp!, {r4, lr}
10001dd2:	4770      	bx	lr
10001dd4:	b500      	push	{lr}
10001dd6:	f7ff ff91 	bl	10001cfc <generic_save_state>
10001dda:	e002      	b.n	10001de2 <__wrap___aeabi_ddiv+0x6>

10001ddc <__wrap___aeabi_ddiv>:
10001ddc:	fe10 f430 	dcp_pcmp APSR_nzcv
10001de0:	d4f8      	bmi.n	10001dd4 <__wrap___aeabi_dmul+0x44>
10001de2:	ec41 0410 	dcp_wxup r0, r1
10001de6:	ec43 2411 	dcp_wyup r2, r3
10001dea:	ec51 0421 	dcp_rymr r0, r1
10001dee:	fba0 1201 	umull	r1, r2, r0, r1
10001df2:	ea6f 0282 	mvn.w	r2, r2, lsl #2
10001df6:	fb52 0010 	smmlar	r0, r2, r0, r0
10001dfa:	fb52 f212 	smmulr	r2, r2, r2
10001dfe:	fb52 0010 	smmlar	r0, r2, r0, r0
10001e02:	eba0 7cd0 	sub.w	ip, r0, r0, lsr #31
10001e06:	ec53 2404 	dcp_rxms r2, r3, #0x0
10001e0a:	fb5c f113 	smmulr	r1, ip, r3
10001e0e:	ec53 2415 	dcp_ryms r2, r3, #0x1
10001e12:	fba1 2002 	umull	r2, r0, r1, r2
10001e16:	fb01 0003 	mla	r0, r1, r3, r0
10001e1a:	ec53 2444 	dcp_rxms r2, r3, #0x4
10001e1e:	eba2 0000 	sub.w	r0, r2, r0
10001e22:	fb50 f21c 	smmulr	r2, r0, ip
10001e26:	ea4f 1311 	mov.w	r3, r1, lsr #4
10001e2a:	eb12 7001 	adds.w	r0, r2, r1, lsl #28
10001e2e:	eb43 71e2 	adc.w	r1, r3, r2, asr #31
10001e32:	ea40 5051 	orr.w	r0, r0, r1, lsr #21
10001e36:	ea20 5091 	bic.w	r0, r0, r1, lsr #22
10001e3a:	f020 0007 	bic.w	r0, r0, #7
10001e3e:	ec53 2475 	dcp_ryms r2, r3, #0x7
10001e42:	fba0 3c02 	umull	r3, ip, r0, r2
10001e46:	ec53 2475 	dcp_ryms r2, r3, #0x7
10001e4a:	fb00 cc03 	mla	ip, r0, r3, ip
10001e4e:	fb01 cc02 	mla	ip, r1, r2, ip
10001e52:	ec53 2404 	dcp_rxms r2, r3, #0x0
10001e56:	ebac 4c82 	sub.w	ip, ip, r2, lsl #18
10001e5a:	ea40 705c 	orr.w	r0, r0, ip, lsr #29
10001e5e:	f1a0 0001 	sub.w	r0, r0, #1
10001e62:	ec41 0440 	dcp_wxdd r0, r1
10001e66:	ee80 0420 	dcp_nrdd
10001e6a:	ec51 0470 	dcp_rddd r0, r1
10001e6e:	4770      	bx	lr
10001e70:	b500      	push	{lr}
10001e72:	f7ff ff43 	bl	10001cfc <generic_save_state>
10001e76:	e002      	b.n	10001e7e <__wrap___aeabi_i2d+0x6>

10001e78 <__wrap___aeabi_i2d>:
10001e78:	fe10 f430 	dcp_pcmp APSR_nzcv
10001e7c:	d4f8      	bmi.n	10001e70 <__wrap___aeabi_ddiv+0x94>
10001e7e:	ec40 0470 	dcp_wxic r0, r0
10001e82:	ee00 0401 	dcp_add0
10001e86:	ee10 0421 	dcp_sub1
10001e8a:	ee80 0420 	dcp_nrdd
10001e8e:	ec51 0430 	dcp_rdds r0, r1
10001e92:	4770      	bx	lr
10001e94:	b500      	push	{lr}
10001e96:	f7ff ff31 	bl	10001cfc <generic_save_state>
10001e9a:	e002      	b.n	10001ea2 <__wrap___aeabi_ui2d+0x6>

10001e9c <__wrap___aeabi_ui2d>:
10001e9c:	fe10 f430 	dcp_pcmp APSR_nzcv
10001ea0:	d4f8      	bmi.n	10001e94 <__wrap___aeabi_i2d+0x1c>
10001ea2:	ec40 0460 	dcp_wxuc r0, r0
10001ea6:	ee00 0401 	dcp_add0
10001eaa:	ee10 0421 	dcp_sub1
10001eae:	ee80 0420 	dcp_nrdd
10001eb2:	ec51 0430 	dcp_rdds r0, r1
10001eb6:	4770      	bx	lr
10001eb8:	b500      	push	{lr}
10001eba:	f7ff ff1f 	bl	10001cfc <generic_save_state>
10001ebe:	e002      	b.n	10001ec6 <double2int_z_entry>

10001ec0 <__wrap___aeabi_d2iz>:
10001ec0:	fe10 f430 	dcp_pcmp APSR_nzcv
10001ec4:	d4f8      	bmi.n	10001eb8 <__wrap___aeabi_ui2d+0x1c>

10001ec6 <double2int_z_entry>:
10001ec6:	ec41 0480 	dcp_wxdc r0, r1
10001eca:	ee00 0401 	dcp_add0
10001ece:	ee10 0401 	dcp_add1
10001ed2:	ee80 0440 	dcp_ntdc
10001ed6:	ee10 0413 	dcp_rdic r0
10001eda:	4770      	bx	lr
10001edc:	b500      	push	{lr}
10001ede:	f7ff ff0d 	bl	10001cfc <generic_save_state>
10001ee2:	e002      	b.n	10001eea <double2uint_z_entry>

10001ee4 <__wrap___aeabi_d2uiz>:
10001ee4:	fe10 f430 	dcp_pcmp APSR_nzcv
10001ee8:	d4f8      	bmi.n	10001edc <double2int_z_entry+0x16>

10001eea <double2uint_z_entry>:
10001eea:	ec41 0480 	dcp_wxdc r0, r1
10001eee:	ee00 0401 	dcp_add0
10001ef2:	ee10 0401 	dcp_add1
10001ef6:	ee80 0440 	dcp_ntdc
10001efa:	ee10 0433 	dcp_rduc r0
10001efe:	4770      	bx	lr
10001f00:	b500      	push	{lr}
10001f02:	f7ff fefb 	bl	10001cfc <generic_save_state>
10001f06:	e002      	b.n	10001f0e <__wrap___aeabi_dcmpun+0x6>

10001f08 <__wrap___aeabi_dcmpun>:
10001f08:	fe10 f430 	dcp_pcmp APSR_nzcv
10001f0c:	d4f8      	bmi.n	10001f00 <double2uint_z_entry+0x16>
10001f0e:	ec41 0410 	dcp_wxup r0, r1
10001f12:	ec43 2411 	dcp_wyup r2, r3
10001f16:	ee00 0401 	dcp_add0
10001f1a:	ee10 0430 	dcp_rcmp r0
10001f1e:	f3c0 7000 	ubfx	r0, r0, #28, #1
10001f22:	4770      	bx	lr
10001f24:	b500      	push	{lr}
10001f26:	f7ff fee9 	bl	10001cfc <generic_save_state>
10001f2a:	e002      	b.n	10001f32 <__wrap___aeabi_dcmplt+0x6>

10001f2c <__wrap___aeabi_dcmplt>:
10001f2c:	fe10 f430 	dcp_pcmp APSR_nzcv
10001f30:	d4f8      	bmi.n	10001f24 <__wrap___aeabi_dcmpun+0x1c>
10001f32:	ec43 2410 	dcp_wxup r2, r3
10001f36:	ec41 0411 	dcp_wyup r0, r1
10001f3a:	ee00 0401 	dcp_add0
10001f3e:	ee10 f430 	dcp_rcmp APSR_nzcv
10001f42:	bf8c      	ite	hi
10001f44:	2001      	movhi	r0, #1
10001f46:	2000      	movls	r0, #0
10001f48:	4770      	bx	lr
10001f4a:	bf00      	nop
10001f4c:	b500      	push	{lr}
10001f4e:	f7ff fed5 	bl	10001cfc <generic_save_state>
10001f52:	e002      	b.n	10001f5a <__wrap___aeabi_dcmple+0x6>

10001f54 <__wrap___aeabi_dcmple>:
10001f54:	fe10 f430 	dcp_pcmp APSR_nzcv
10001f58:	d4f8      	bmi.n	10001f4c <__wrap___aeabi_dcmplt+0x20>
10001f5a:	ec43 2410 	dcp_wxup r2, r3
10001f5e:	ec41 0411 	dcp_wyup r0, r1
10001f62:	ee00 0401 	dcp_add0
10001f66:	ee10 f430 	dcp_rcmp APSR_nzcv
10001f6a:	bf2c      	ite	cs
10001f6c:	2001      	movcs	r0, #1
10001f6e:	2000      	movcc	r0, #0
10001f70:	4770      	bx	lr
10001f72:	bf00      	nop
10001f74:	b500      	push	{lr}
10001f76:	f7ff fec1 	bl	10001cfc <generic_save_state>
10001f7a:	e002      	b.n	10001f82 <__wrap___aeabi_dcmpge+0x6>

10001f7c <__wrap___aeabi_dcmpge>:
10001f7c:	fe10 f430 	dcp_pcmp APSR_nzcv
10001f80:	d4f8      	bmi.n	10001f74 <__wrap___aeabi_dcmple+0x20>
10001f82:	ec41 0410 	dcp_wxup r0, r1
10001f86:	ec43 2411 	dcp_wyup r2, r3
10001f8a:	ee00 0401 	dcp_add0
10001f8e:	ee10 f430 	dcp_rcmp APSR_nzcv
10001f92:	bf2c      	ite	cs
10001f94:	2001      	movcs	r0, #1
10001f96:	2000      	movcc	r0, #0
10001f98:	4770      	bx	lr
10001f9a:	bf00      	nop
10001f9c:	b500      	push	{lr}
10001f9e:	f7ff fead 	bl	10001cfc <generic_save_state>
10001fa2:	e002      	b.n	10001faa <__wrap___aeabi_dcmpgt+0x6>

10001fa4 <__wrap___aeabi_dcmpgt>:
10001fa4:	fe10 f430 	dcp_pcmp APSR_nzcv
10001fa8:	d4f8      	bmi.n	10001f9c <__wrap___aeabi_dcmpge+0x20>
10001faa:	ec41 0410 	dcp_wxup r0, r1
10001fae:	ec43 2411 	dcp_wyup r2, r3
10001fb2:	ee00 0401 	dcp_add0
10001fb6:	ee10 f430 	dcp_rcmp APSR_nzcv
10001fba:	bf8c      	ite	hi
10001fbc:	2001      	movhi	r0, #1
10001fbe:	2000      	movls	r0, #0
10001fc0:	4770      	bx	lr
10001fc2:	bf00      	nop

10001fc4 <__wrap_calloc>:
10001fc4:	b5f8      	push	{r3, r4, r5, r6, r7, lr}
10001fc6:	4604      	mov	r4, r0
10001fc8:	460e      	mov	r6, r1
10001fca:	4f0c      	ldr	r7, [pc, #48]	; (10001ffc <__wrap_calloc+0x38>)
10001fcc:	4638      	mov	r0, r7
10001fce:	f005 fe47 	bl	10007c60 <__mutex_enter_blocking_veneer>
10001fd2:	4631      	mov	r1, r6
10001fd4:	4620      	mov	r0, r4
10001fd6:	f005 f85d 	bl	10007094 <calloc>
10001fda:	4605      	mov	r5, r0
10001fdc:	4638      	mov	r0, r7
10001fde:	f005 fddf 	bl	10007ba0 <__mutex_exit_veneer>
10001fe2:	fb06 f404 	mul.w	r4, r6, r4
10001fe6:	b12d      	cbz	r5, 10001ff4 <__wrap_calloc+0x30>
10001fe8:	442c      	add	r4, r5
10001fea:	4b05      	ldr	r3, [pc, #20]	; (10002000 <__wrap_calloc+0x3c>)
10001fec:	429c      	cmp	r4, r3
10001fee:	d801      	bhi.n	10001ff4 <__wrap_calloc+0x30>
10001ff0:	4628      	mov	r0, r5
10001ff2:	bdf8      	pop	{r3, r4, r5, r6, r7, pc}
10001ff4:	4803      	ldr	r0, [pc, #12]	; (10002004 <__wrap_calloc+0x40>)
10001ff6:	f7fe fe7f 	bl	10000cf8 <panic>
10001ffa:	bf00      	nop
10001ffc:	200023e8 	.word	0x200023e8
10002000:	20080000 	.word	0x20080000
10002004:	1000844c 	.word	0x1000844c

10002008 <_out_null>:
10002008:	4770      	bx	lr

1000200a <_out_fct>:
1000200a:	b120      	cbz	r0, 10002016 <_out_fct+0xc>
1000200c:	b508      	push	{r3, lr}
1000200e:	680a      	ldr	r2, [r1, #0]
10002010:	6849      	ldr	r1, [r1, #4]
10002012:	4790      	blx	r2
10002014:	bd08      	pop	{r3, pc}
10002016:	4770      	bx	lr

10002018 <_atoi>:
10002018:	4601      	mov	r1, r0
1000201a:	2000      	movs	r0, #0
1000201c:	e007      	b.n	1000202e <_atoi+0x16>
1000201e:	eb00 0080 	add.w	r0, r0, r0, lsl #2
10002022:	1c53      	adds	r3, r2, #1
10002024:	600b      	str	r3, [r1, #0]
10002026:	7813      	ldrb	r3, [r2, #0]
10002028:	eb03 0040 	add.w	r0, r3, r0, lsl #1
1000202c:	3830      	subs	r0, #48	; 0x30
1000202e:	680a      	ldr	r2, [r1, #0]
10002030:	7813      	ldrb	r3, [r2, #0]
10002032:	3b30      	subs	r3, #48	; 0x30
10002034:	b2db      	uxtb	r3, r3
10002036:	2b09      	cmp	r3, #9
10002038:	d9f1      	bls.n	1000201e <_atoi+0x6>
1000203a:	4770      	bx	lr

1000203c <_out_rev>:
1000203c:	e92d 4ff0 	stmdb	sp!, {r4, r5, r6, r7, r8, r9, sl, fp, lr}
10002040:	b083      	sub	sp, #12
10002042:	4605      	mov	r5, r0
10002044:	460e      	mov	r6, r1
10002046:	4693      	mov	fp, r2
10002048:	461f      	mov	r7, r3
1000204a:	f8dd a030 	ldr.w	sl, [sp, #48]	; 0x30
1000204e:	9c0d      	ldr	r4, [sp, #52]	; 0x34
10002050:	f8dd 9038 	ldr.w	r9, [sp, #56]	; 0x38
10002054:	9b0f      	ldr	r3, [sp, #60]	; 0x3c
10002056:	f013 0f03 	tst.w	r3, #3
1000205a:	d119      	bne.n	10002090 <_out_rev+0x54>
1000205c:	46a0      	mov	r8, r4
1000205e:	9201      	str	r2, [sp, #4]
10002060:	45c8      	cmp	r8, r9
10002062:	d209      	bcs.n	10002078 <_out_rev+0x3c>
10002064:	f102 0b01 	add.w	fp, r2, #1
10002068:	463b      	mov	r3, r7
1000206a:	4631      	mov	r1, r6
1000206c:	2020      	movs	r0, #32
1000206e:	47a8      	blx	r5
10002070:	f108 0801 	add.w	r8, r8, #1
10002074:	465a      	mov	r2, fp
10002076:	e7f3      	b.n	10002060 <_out_rev+0x24>
10002078:	f8dd b004 	ldr.w	fp, [sp, #4]
1000207c:	e008      	b.n	10002090 <_out_rev+0x54>
1000207e:	3c01      	subs	r4, #1
10002080:	f102 0801 	add.w	r8, r2, #1
10002084:	463b      	mov	r3, r7
10002086:	4631      	mov	r1, r6
10002088:	f81a 0004 	ldrb.w	r0, [sl, r4]
1000208c:	47a8      	blx	r5
1000208e:	4642      	mov	r2, r8
10002090:	2c00      	cmp	r4, #0
10002092:	d1f4      	bne.n	1000207e <_out_rev+0x42>
10002094:	9b0f      	ldr	r3, [sp, #60]	; 0x3c
10002096:	f013 0f02 	tst.w	r3, #2
1000209a:	d103      	bne.n	100020a4 <_out_rev+0x68>
1000209c:	4610      	mov	r0, r2
1000209e:	b003      	add	sp, #12
100020a0:	e8bd 8ff0 	ldmia.w	sp!, {r4, r5, r6, r7, r8, r9, sl, fp, pc}
100020a4:	eba2 030b 	sub.w	r3, r2, fp
100020a8:	454b      	cmp	r3, r9
100020aa:	d2f7      	bcs.n	1000209c <_out_rev+0x60>
100020ac:	1c54      	adds	r4, r2, #1
100020ae:	463b      	mov	r3, r7
100020b0:	4631      	mov	r1, r6
100020b2:	2020      	movs	r0, #32
100020b4:	47a8      	blx	r5
100020b6:	4622      	mov	r2, r4
100020b8:	e7f4      	b.n	100020a4 <_out_rev+0x68>

100020ba <_ntoa_format>:
100020ba:	e92d 43f0 	stmdb	sp!, {r4, r5, r6, r7, r8, r9, lr}
100020be:	b085      	sub	sp, #20
100020c0:	9d0c      	ldr	r5, [sp, #48]	; 0x30
100020c2:	9c0d      	ldr	r4, [sp, #52]	; 0x34
100020c4:	f89d 9038 	ldrb.w	r9, [sp, #56]	; 0x38
100020c8:	f8dd 803c 	ldr.w	r8, [sp, #60]	; 0x3c
100020cc:	f8dd e040 	ldr.w	lr, [sp, #64]	; 0x40
100020d0:	9f11      	ldr	r7, [sp, #68]	; 0x44
100020d2:	9e12      	ldr	r6, [sp, #72]	; 0x48
100020d4:	f016 0f02 	tst.w	r6, #2
100020d8:	d121      	bne.n	1000211e <_ntoa_format+0x64>
100020da:	b17f      	cbz	r7, 100020fc <_ntoa_format+0x42>
100020dc:	f016 0f01 	tst.w	r6, #1
100020e0:	d00c      	beq.n	100020fc <_ntoa_format+0x42>
100020e2:	f1b9 0f00 	cmp.w	r9, #0
100020e6:	d102      	bne.n	100020ee <_ntoa_format+0x34>
100020e8:	f016 0f0c 	tst.w	r6, #12
100020ec:	d006      	beq.n	100020fc <_ntoa_format+0x42>
100020ee:	3f01      	subs	r7, #1
100020f0:	e004      	b.n	100020fc <_ntoa_format+0x42>
100020f2:	f04f 0c30 	mov.w	ip, #48	; 0x30
100020f6:	f805 c004 	strb.w	ip, [r5, r4]
100020fa:	3401      	adds	r4, #1
100020fc:	4574      	cmp	r4, lr
100020fe:	d201      	bcs.n	10002104 <_ntoa_format+0x4a>
10002100:	2c1f      	cmp	r4, #31
10002102:	d9f6      	bls.n	100020f2 <_ntoa_format+0x38>
10002104:	f016 0f01 	tst.w	r6, #1
10002108:	d009      	beq.n	1000211e <_ntoa_format+0x64>
1000210a:	42bc      	cmp	r4, r7
1000210c:	d207      	bcs.n	1000211e <_ntoa_format+0x64>
1000210e:	2c1f      	cmp	r4, #31
10002110:	d805      	bhi.n	1000211e <_ntoa_format+0x64>
10002112:	f04f 0c30 	mov.w	ip, #48	; 0x30
10002116:	f805 c004 	strb.w	ip, [r5, r4]
1000211a:	3401      	adds	r4, #1
1000211c:	e7f2      	b.n	10002104 <_ntoa_format+0x4a>
1000211e:	f016 0f10 	tst.w	r6, #16
10002122:	d017      	beq.n	10002154 <_ntoa_format+0x9a>
10002124:	f416 6f80 	tst.w	r6, #1024	; 0x400
10002128:	d104      	bne.n	10002134 <_ntoa_format+0x7a>
1000212a:	b11c      	cbz	r4, 10002134 <_ntoa_format+0x7a>
1000212c:	4574      	cmp	r4, lr
1000212e:	d024      	beq.n	1000217a <_ntoa_format+0xc0>
10002130:	42bc      	cmp	r4, r7
10002132:	d022      	beq.n	1000217a <_ntoa_format+0xc0>
10002134:	f1b8 0f10 	cmp.w	r8, #16
10002138:	d02b      	beq.n	10002192 <_ntoa_format+0xd8>
1000213a:	f1b8 0f10 	cmp.w	r8, #16
1000213e:	d033      	beq.n	100021a8 <_ntoa_format+0xee>
10002140:	f1b8 0f02 	cmp.w	r8, #2
10002144:	d03b      	beq.n	100021be <_ntoa_format+0x104>
10002146:	2c1f      	cmp	r4, #31
10002148:	d804      	bhi.n	10002154 <_ntoa_format+0x9a>
1000214a:	f04f 0c30 	mov.w	ip, #48	; 0x30
1000214e:	f805 c004 	strb.w	ip, [r5, r4]
10002152:	3401      	adds	r4, #1
10002154:	2c1f      	cmp	r4, #31
10002156:	d807      	bhi.n	10002168 <_ntoa_format+0xae>
10002158:	f1b9 0f00 	cmp.w	r9, #0
1000215c:	d037      	beq.n	100021ce <_ntoa_format+0x114>
1000215e:	f04f 0c2d 	mov.w	ip, #45	; 0x2d
10002162:	f805 c004 	strb.w	ip, [r5, r4]
10002166:	3401      	adds	r4, #1
10002168:	9603      	str	r6, [sp, #12]
1000216a:	9702      	str	r7, [sp, #8]
1000216c:	9401      	str	r4, [sp, #4]
1000216e:	9500      	str	r5, [sp, #0]
10002170:	f7ff ff64 	bl	1000203c <_out_rev>
10002174:	b005      	add	sp, #20
10002176:	e8bd 83f0 	ldmia.w	sp!, {r4, r5, r6, r7, r8, r9, pc}
1000217a:	f1b4 0c01 	subs.w	ip, r4, #1
1000217e:	d006      	beq.n	1000218e <_ntoa_format+0xd4>
10002180:	f1b8 0f10 	cmp.w	r8, #16
10002184:	d001      	beq.n	1000218a <_ntoa_format+0xd0>
10002186:	4664      	mov	r4, ip
10002188:	e7d4      	b.n	10002134 <_ntoa_format+0x7a>
1000218a:	3c02      	subs	r4, #2
1000218c:	e7d2      	b.n	10002134 <_ntoa_format+0x7a>
1000218e:	4664      	mov	r4, ip
10002190:	e7d0      	b.n	10002134 <_ntoa_format+0x7a>
10002192:	f016 0f20 	tst.w	r6, #32
10002196:	d1d0      	bne.n	1000213a <_ntoa_format+0x80>
10002198:	2c1f      	cmp	r4, #31
1000219a:	d8ce      	bhi.n	1000213a <_ntoa_format+0x80>
1000219c:	f04f 0c78 	mov.w	ip, #120	; 0x78
100021a0:	f805 c004 	strb.w	ip, [r5, r4]
100021a4:	3401      	adds	r4, #1
100021a6:	e7ce      	b.n	10002146 <_ntoa_format+0x8c>
100021a8:	f016 0f20 	tst.w	r6, #32
100021ac:	d0c8      	beq.n	10002140 <_ntoa_format+0x86>
100021ae:	2c1f      	cmp	r4, #31
100021b0:	d8c6      	bhi.n	10002140 <_ntoa_format+0x86>
100021b2:	f04f 0c58 	mov.w	ip, #88	; 0x58
100021b6:	f805 c004 	strb.w	ip, [r5, r4]
100021ba:	3401      	adds	r4, #1
100021bc:	e7c3      	b.n	10002146 <_ntoa_format+0x8c>
100021be:	2c1f      	cmp	r4, #31
100021c0:	d8c1      	bhi.n	10002146 <_ntoa_format+0x8c>
100021c2:	f04f 0c62 	mov.w	ip, #98	; 0x62
100021c6:	f805 c004 	strb.w	ip, [r5, r4]
100021ca:	3401      	adds	r4, #1
100021cc:	e7bb      	b.n	10002146 <_ntoa_format+0x8c>
100021ce:	f016 0f04 	tst.w	r6, #4
100021d2:	d005      	beq.n	100021e0 <_ntoa_format+0x126>
100021d4:	f04f 0c2b 	mov.w	ip, #43	; 0x2b
100021d8:	f805 c004 	strb.w	ip, [r5, r4]
100021dc:	3401      	adds	r4, #1
100021de:	e7c3      	b.n	10002168 <_ntoa_format+0xae>
100021e0:	f016 0f08 	tst.w	r6, #8
100021e4:	d0c0      	beq.n	10002168 <_ntoa_format+0xae>
100021e6:	f04f 0c20 	mov.w	ip, #32
100021ea:	f805 c004 	strb.w	ip, [r5, r4]
100021ee:	3401      	adds	r4, #1
100021f0:	e7ba      	b.n	10002168 <_ntoa_format+0xae>

100021f2 <_ntoa_long>:
100021f2:	b5f0      	push	{r4, r5, r6, r7, lr}
100021f4:	b091      	sub	sp, #68	; 0x44
100021f6:	9c16      	ldr	r4, [sp, #88]	; 0x58
100021f8:	9d18      	ldr	r5, [sp, #96]	; 0x60
100021fa:	9e1b      	ldr	r6, [sp, #108]	; 0x6c
100021fc:	b90c      	cbnz	r4, 10002202 <_ntoa_long+0x10>
100021fe:	f026 0610 	bic.w	r6, r6, #16
10002202:	f416 6e80 	ands.w	lr, r6, #1024	; 0x400
10002206:	d016      	beq.n	10002236 <_ntoa_long+0x44>
10002208:	b364      	cbz	r4, 10002264 <_ntoa_long+0x72>
1000220a:	f04f 0e00 	mov.w	lr, #0
1000220e:	e012      	b.n	10002236 <_ntoa_long+0x44>
10002210:	f10c 0c30 	add.w	ip, ip, #48	; 0x30
10002214:	fa5f fc8c 	uxtb.w	ip, ip
10002218:	f10e 0701 	add.w	r7, lr, #1
1000221c:	f10e 0e40 	add.w	lr, lr, #64	; 0x40
10002220:	44ee      	add	lr, sp
10002222:	f80e cc20 	strb.w	ip, [lr, #-32]
10002226:	fbb4 fcf5 	udiv	ip, r4, r5
1000222a:	42ac      	cmp	r4, r5
1000222c:	d31b      	bcc.n	10002266 <_ntoa_long+0x74>
1000222e:	2f1f      	cmp	r7, #31
10002230:	d819      	bhi.n	10002266 <_ntoa_long+0x74>
10002232:	46be      	mov	lr, r7
10002234:	4664      	mov	r4, ip
10002236:	fbb4 fcf5 	udiv	ip, r4, r5
1000223a:	fb05 4c1c 	mls	ip, r5, ip, r4
1000223e:	fa5f fc8c 	uxtb.w	ip, ip
10002242:	f1bc 0f09 	cmp.w	ip, #9
10002246:	d9e3      	bls.n	10002210 <_ntoa_long+0x1e>
10002248:	f016 0f20 	tst.w	r6, #32
1000224c:	d008      	beq.n	10002260 <_ntoa_long+0x6e>
1000224e:	2741      	movs	r7, #65	; 0x41
10002250:	44bc      	add	ip, r7
10002252:	fa5f fc8c 	uxtb.w	ip, ip
10002256:	f1ac 0c0a 	sub.w	ip, ip, #10
1000225a:	fa5f fc8c 	uxtb.w	ip, ip
1000225e:	e7db      	b.n	10002218 <_ntoa_long+0x26>
10002260:	2761      	movs	r7, #97	; 0x61
10002262:	e7f5      	b.n	10002250 <_ntoa_long+0x5e>
10002264:	4627      	mov	r7, r4
10002266:	9606      	str	r6, [sp, #24]
10002268:	9c1a      	ldr	r4, [sp, #104]	; 0x68
1000226a:	9405      	str	r4, [sp, #20]
1000226c:	9c19      	ldr	r4, [sp, #100]	; 0x64
1000226e:	9404      	str	r4, [sp, #16]
10002270:	9503      	str	r5, [sp, #12]
10002272:	f89d 405c 	ldrb.w	r4, [sp, #92]	; 0x5c
10002276:	9402      	str	r4, [sp, #8]
10002278:	9701      	str	r7, [sp, #4]
1000227a:	ac08      	add	r4, sp, #32
1000227c:	9400      	str	r4, [sp, #0]
1000227e:	f7ff ff1c 	bl	100020ba <_ntoa_format>
10002282:	b011      	add	sp, #68	; 0x44
10002284:	bdf0      	pop	{r4, r5, r6, r7, pc}

10002286 <_ntoa_long_long>:
10002286:	e92d 4ff0 	stmdb	sp!, {r4, r5, r6, r7, r8, r9, sl, fp, lr}
1000228a:	b095      	sub	sp, #84	; 0x54
1000228c:	9009      	str	r0, [sp, #36]	; 0x24
1000228e:	910a      	str	r1, [sp, #40]	; 0x28
10002290:	920b      	str	r2, [sp, #44]	; 0x2c
10002292:	469b      	mov	fp, r3
10002294:	9d1e      	ldr	r5, [sp, #120]	; 0x78
10002296:	9e1f      	ldr	r6, [sp, #124]	; 0x7c
10002298:	9f22      	ldr	r7, [sp, #136]	; 0x88
1000229a:	f8dd 808c 	ldr.w	r8, [sp, #140]	; 0x8c
1000229e:	f8dd a098 	ldr.w	sl, [sp, #152]	; 0x98
100022a2:	ea55 0306 	orrs.w	r3, r5, r6
100022a6:	d101      	bne.n	100022ac <_ntoa_long_long+0x26>
100022a8:	f02a 0a10 	bic.w	sl, sl, #16
100022ac:	f41a 6480 	ands.w	r4, sl, #1024	; 0x400
100022b0:	d01f      	beq.n	100022f2 <_ntoa_long_long+0x6c>
100022b2:	ea55 0306 	orrs.w	r3, r5, r6
100022b6:	d030      	beq.n	1000231a <_ntoa_long_long+0x94>
100022b8:	2400      	movs	r4, #0
100022ba:	e01a      	b.n	100022f2 <_ntoa_long_long+0x6c>
100022bc:	f103 0230 	add.w	r2, r3, #48	; 0x30
100022c0:	b2d2      	uxtb	r2, r2
100022c2:	f104 0901 	add.w	r9, r4, #1
100022c6:	f104 0350 	add.w	r3, r4, #80	; 0x50
100022ca:	eb0d 0403 	add.w	r4, sp, r3
100022ce:	f804 2c20 	strb.w	r2, [r4, #-32]
100022d2:	463a      	mov	r2, r7
100022d4:	4643      	mov	r3, r8
100022d6:	4628      	mov	r0, r5
100022d8:	4631      	mov	r1, r6
100022da:	f005 fc51 	bl	10007b80 <____aeabi_uldivmod_veneer>
100022de:	42bd      	cmp	r5, r7
100022e0:	eb76 0308 	sbcs.w	r3, r6, r8
100022e4:	d31b      	bcc.n	1000231e <_ntoa_long_long+0x98>
100022e6:	f1b9 0f1f 	cmp.w	r9, #31
100022ea:	d818      	bhi.n	1000231e <_ntoa_long_long+0x98>
100022ec:	464c      	mov	r4, r9
100022ee:	4605      	mov	r5, r0
100022f0:	460e      	mov	r6, r1
100022f2:	463a      	mov	r2, r7
100022f4:	4643      	mov	r3, r8
100022f6:	4628      	mov	r0, r5
100022f8:	4631      	mov	r1, r6
100022fa:	f005 fc41 	bl	10007b80 <____aeabi_uldivmod_veneer>
100022fe:	b2d3      	uxtb	r3, r2
10002300:	2b09      	cmp	r3, #9
10002302:	d9db      	bls.n	100022bc <_ntoa_long_long+0x36>
10002304:	f01a 0f20 	tst.w	sl, #32
10002308:	d005      	beq.n	10002316 <_ntoa_long_long+0x90>
1000230a:	2241      	movs	r2, #65	; 0x41
1000230c:	441a      	add	r2, r3
1000230e:	b2d2      	uxtb	r2, r2
10002310:	3a0a      	subs	r2, #10
10002312:	b2d2      	uxtb	r2, r2
10002314:	e7d5      	b.n	100022c2 <_ntoa_long_long+0x3c>
10002316:	2261      	movs	r2, #97	; 0x61
10002318:	e7f8      	b.n	1000230c <_ntoa_long_long+0x86>
1000231a:	f04f 0900 	mov.w	r9, #0
1000231e:	f8cd a018 	str.w	sl, [sp, #24]
10002322:	9b25      	ldr	r3, [sp, #148]	; 0x94
10002324:	9305      	str	r3, [sp, #20]
10002326:	9b24      	ldr	r3, [sp, #144]	; 0x90
10002328:	9304      	str	r3, [sp, #16]
1000232a:	9703      	str	r7, [sp, #12]
1000232c:	f89d 3080 	ldrb.w	r3, [sp, #128]	; 0x80
10002330:	9302      	str	r3, [sp, #8]
10002332:	f8cd 9004 	str.w	r9, [sp, #4]
10002336:	ab0c      	add	r3, sp, #48	; 0x30
10002338:	9300      	str	r3, [sp, #0]
1000233a:	465b      	mov	r3, fp
1000233c:	9a0b      	ldr	r2, [sp, #44]	; 0x2c
1000233e:	990a      	ldr	r1, [sp, #40]	; 0x28
10002340:	9809      	ldr	r0, [sp, #36]	; 0x24
10002342:	f7ff feba 	bl	100020ba <_ntoa_format>
10002346:	b015      	add	sp, #84	; 0x54
10002348:	e8bd 8ff0 	ldmia.w	sp!, {r4, r5, r6, r7, r8, r9, sl, fp, pc}
1000234c:	0000      	movs	r0, r0
	...

10002350 <_etoa>:
10002350:	e92d 4ff0 	stmdb	sp!, {r4, r5, r6, r7, r8, r9, sl, fp, lr}
10002354:	b091      	sub	sp, #68	; 0x44
10002356:	4604      	mov	r4, r0
10002358:	460d      	mov	r5, r1
1000235a:	4617      	mov	r7, r2
1000235c:	461e      	mov	r6, r3
1000235e:	e9dd 231a 	ldrd	r2, r3, [sp, #104]	; 0x68
10002362:	4610      	mov	r0, r2
10002364:	4619      	mov	r1, r3
10002366:	f7ff fdcf 	bl	10001f08 <__wrap___aeabi_dcmpun>
1000236a:	2800      	cmp	r0, #0
1000236c:	f040 80ed 	bne.w	1000254a <_etoa+0x1fa>
10002370:	f04f 32ff 	mov.w	r2, #4294967295
10002374:	4bae      	ldr	r3, [pc, #696]	; (10002630 <_etoa+0x2e0>)
10002376:	e9dd 011a 	ldrd	r0, r1, [sp, #104]	; 0x68
1000237a:	f7ff fe13 	bl	10001fa4 <__wrap___aeabi_dcmpgt>
1000237e:	2800      	cmp	r0, #0
10002380:	f040 80e3 	bne.w	1000254a <_etoa+0x1fa>
10002384:	f04f 32ff 	mov.w	r2, #4294967295
10002388:	f46f 1380 	mvn.w	r3, #1048576	; 0x100000
1000238c:	e9dd 011a 	ldrd	r0, r1, [sp, #104]	; 0x68
10002390:	f7ff fdcc 	bl	10001f2c <__wrap___aeabi_dcmplt>
10002394:	2800      	cmp	r0, #0
10002396:	f040 80d8 	bne.w	1000254a <_etoa+0x1fa>
1000239a:	2200      	movs	r2, #0
1000239c:	2300      	movs	r3, #0
1000239e:	e9dd 011a 	ldrd	r0, r1, [sp, #104]	; 0x68
100023a2:	f7ff fdc3 	bl	10001f2c <__wrap___aeabi_dcmplt>
100023a6:	2800      	cmp	r0, #0
100023a8:	f040 80e2 	bne.w	10002570 <_etoa+0x220>
100023ac:	ed9d 7b1a 	vldr	d7, [sp, #104]	; 0x68
100023b0:	ed8d 7b06 	vstr	d7, [sp, #24]
100023b4:	9b1e      	ldr	r3, [sp, #120]	; 0x78
100023b6:	f413 6380 	ands.w	r3, r3, #1024	; 0x400
100023ba:	930d      	str	r3, [sp, #52]	; 0x34
100023bc:	d101      	bne.n	100023c2 <_etoa+0x72>
100023be:	2306      	movs	r3, #6
100023c0:	931c      	str	r3, [sp, #112]	; 0x70
100023c2:	e9dd 2306 	ldrd	r2, r3, [sp, #24]
100023c6:	4610      	mov	r0, r2
100023c8:	4619      	mov	r1, r3
100023ca:	e9cd 0108 	strd	r0, r1, [sp, #32]
100023ce:	ea52 0103 	orrs.w	r1, r2, r3
100023d2:	f000 80d8 	beq.w	10002586 <_etoa+0x236>
100023d6:	f3c3 500a 	ubfx	r0, r3, #20, #11
100023da:	f3c3 0313 	ubfx	r3, r3, #0, #20
100023de:	4690      	mov	r8, r2
100023e0:	f043 597f 	orr.w	r9, r3, #1069547520	; 0x3fc00000
100023e4:	f449 1940 	orr.w	r9, r9, #3145728	; 0x300000
100023e8:	f2a0 30ff 	subw	r0, r0, #1023	; 0x3ff
100023ec:	f7ff fd44 	bl	10001e78 <__wrap___aeabi_i2d>
100023f0:	a37d      	add	r3, pc, #500	; (adr r3, 100025e8 <_etoa+0x298>)
100023f2:	e9d3 2300 	ldrd	r2, r3, [r3]
100023f6:	f7ff fccb 	bl	10001d90 <__wrap___aeabi_dmul>
100023fa:	a37d      	add	r3, pc, #500	; (adr r3, 100025f0 <_etoa+0x2a0>)
100023fc:	e9d3 2300 	ldrd	r2, r3, [r3]
10002400:	f7ff fc9e 	bl	10001d40 <__wrap___aeabi_dadd>
10002404:	4682      	mov	sl, r0
10002406:	468b      	mov	fp, r1
10002408:	2200      	movs	r2, #0
1000240a:	4b8a      	ldr	r3, [pc, #552]	; (10002634 <_etoa+0x2e4>)
1000240c:	4640      	mov	r0, r8
1000240e:	4649      	mov	r1, r9
10002410:	f7ff fcaa 	bl	10001d68 <__wrap___aeabi_dsub>
10002414:	a378      	add	r3, pc, #480	; (adr r3, 100025f8 <_etoa+0x2a8>)
10002416:	e9d3 2300 	ldrd	r2, r3, [r3]
1000241a:	f7ff fcb9 	bl	10001d90 <__wrap___aeabi_dmul>
1000241e:	4602      	mov	r2, r0
10002420:	460b      	mov	r3, r1
10002422:	4650      	mov	r0, sl
10002424:	4659      	mov	r1, fp
10002426:	f7ff fc8b 	bl	10001d40 <__wrap___aeabi_dadd>
1000242a:	f7ff fd49 	bl	10001ec0 <__wrap___aeabi_d2iz>
1000242e:	4682      	mov	sl, r0
10002430:	f7ff fd22 	bl	10001e78 <__wrap___aeabi_i2d>
10002434:	4680      	mov	r8, r0
10002436:	4689      	mov	r9, r1
10002438:	a371      	add	r3, pc, #452	; (adr r3, 10002600 <_etoa+0x2b0>)
1000243a:	e9d3 2300 	ldrd	r2, r3, [r3]
1000243e:	f7ff fca7 	bl	10001d90 <__wrap___aeabi_dmul>
10002442:	2200      	movs	r2, #0
10002444:	4b7c      	ldr	r3, [pc, #496]	; (10002638 <_etoa+0x2e8>)
10002446:	f7ff fc7b 	bl	10001d40 <__wrap___aeabi_dadd>
1000244a:	f7ff fd39 	bl	10001ec0 <__wrap___aeabi_d2iz>
1000244e:	4683      	mov	fp, r0
10002450:	a36d      	add	r3, pc, #436	; (adr r3, 10002608 <_etoa+0x2b8>)
10002452:	e9d3 2300 	ldrd	r2, r3, [r3]
10002456:	4640      	mov	r0, r8
10002458:	4649      	mov	r1, r9
1000245a:	f7ff fc99 	bl	10001d90 <__wrap___aeabi_dmul>
1000245e:	4680      	mov	r8, r0
10002460:	4689      	mov	r9, r1
10002462:	4658      	mov	r0, fp
10002464:	f7ff fd08 	bl	10001e78 <__wrap___aeabi_i2d>
10002468:	a369      	add	r3, pc, #420	; (adr r3, 10002610 <_etoa+0x2c0>)
1000246a:	e9d3 2300 	ldrd	r2, r3, [r3]
1000246e:	f7ff fc8f 	bl	10001d90 <__wrap___aeabi_dmul>
10002472:	4602      	mov	r2, r0
10002474:	460b      	mov	r3, r1
10002476:	4640      	mov	r0, r8
10002478:	4649      	mov	r1, r9
1000247a:	f7ff fc75 	bl	10001d68 <__wrap___aeabi_dsub>
1000247e:	4680      	mov	r8, r0
10002480:	4689      	mov	r9, r1
10002482:	4602      	mov	r2, r0
10002484:	460b      	mov	r3, r1
10002486:	f7ff fc83 	bl	10001d90 <__wrap___aeabi_dmul>
1000248a:	e9cd 010a 	strd	r0, r1, [sp, #40]	; 0x28
1000248e:	f20b 3bff 	addw	fp, fp, #1023	; 0x3ff
10002492:	2100      	movs	r1, #0
10002494:	2200      	movs	r2, #0
10002496:	e9cd 1208 	strd	r1, r2, [sp, #32]
1000249a:	ea4f 530b 	mov.w	r3, fp, lsl #20
1000249e:	9309      	str	r3, [sp, #36]	; 0x24
100024a0:	2300      	movs	r3, #0
100024a2:	9308      	str	r3, [sp, #32]
100024a4:	4642      	mov	r2, r8
100024a6:	464b      	mov	r3, r9
100024a8:	4640      	mov	r0, r8
100024aa:	4649      	mov	r1, r9
100024ac:	f7ff fc48 	bl	10001d40 <__wrap___aeabi_dadd>
100024b0:	e9cd 010e 	strd	r0, r1, [sp, #56]	; 0x38
100024b4:	4642      	mov	r2, r8
100024b6:	464b      	mov	r3, r9
100024b8:	2000      	movs	r0, #0
100024ba:	f04f 4180 	mov.w	r1, #1073741824	; 0x40000000
100024be:	f7ff fc53 	bl	10001d68 <__wrap___aeabi_dsub>
100024c2:	4680      	mov	r8, r0
100024c4:	4689      	mov	r9, r1
100024c6:	2200      	movs	r2, #0
100024c8:	4b5c      	ldr	r3, [pc, #368]	; (1000263c <_etoa+0x2ec>)
100024ca:	e9dd 010a 	ldrd	r0, r1, [sp, #40]	; 0x28
100024ce:	f7ff fc85 	bl	10001ddc <__wrap___aeabi_ddiv>
100024d2:	2200      	movs	r2, #0
100024d4:	4b5a      	ldr	r3, [pc, #360]	; (10002640 <_etoa+0x2f0>)
100024d6:	f7ff fc33 	bl	10001d40 <__wrap___aeabi_dadd>
100024da:	4602      	mov	r2, r0
100024dc:	460b      	mov	r3, r1
100024de:	e9dd 010a 	ldrd	r0, r1, [sp, #40]	; 0x28
100024e2:	f7ff fc7b 	bl	10001ddc <__wrap___aeabi_ddiv>
100024e6:	2200      	movs	r2, #0
100024e8:	4b56      	ldr	r3, [pc, #344]	; (10002644 <_etoa+0x2f4>)
100024ea:	f7ff fc29 	bl	10001d40 <__wrap___aeabi_dadd>
100024ee:	4602      	mov	r2, r0
100024f0:	460b      	mov	r3, r1
100024f2:	e9dd 010a 	ldrd	r0, r1, [sp, #40]	; 0x28
100024f6:	f7ff fc71 	bl	10001ddc <__wrap___aeabi_ddiv>
100024fa:	4602      	mov	r2, r0
100024fc:	460b      	mov	r3, r1
100024fe:	4640      	mov	r0, r8
10002500:	4649      	mov	r1, r9
10002502:	f7ff fc1d 	bl	10001d40 <__wrap___aeabi_dadd>
10002506:	4602      	mov	r2, r0
10002508:	460b      	mov	r3, r1
1000250a:	e9dd 010e 	ldrd	r0, r1, [sp, #56]	; 0x38
1000250e:	f7ff fc65 	bl	10001ddc <__wrap___aeabi_ddiv>
10002512:	2200      	movs	r2, #0
10002514:	4b4c      	ldr	r3, [pc, #304]	; (10002648 <_etoa+0x2f8>)
10002516:	f7ff fc13 	bl	10001d40 <__wrap___aeabi_dadd>
1000251a:	e9dd 2308 	ldrd	r2, r3, [sp, #32]
1000251e:	f7ff fc37 	bl	10001d90 <__wrap___aeabi_dmul>
10002522:	4680      	mov	r8, r0
10002524:	4689      	mov	r9, r1
10002526:	e9cd 8908 	strd	r8, r9, [sp, #32]
1000252a:	e9dd 2306 	ldrd	r2, r3, [sp, #24]
1000252e:	f7ff fd39 	bl	10001fa4 <__wrap___aeabi_dcmpgt>
10002532:	b350      	cbz	r0, 1000258a <_etoa+0x23a>
10002534:	f10a 3aff 	add.w	sl, sl, #4294967295
10002538:	2200      	movs	r2, #0
1000253a:	4b41      	ldr	r3, [pc, #260]	; (10002640 <_etoa+0x2f0>)
1000253c:	4640      	mov	r0, r8
1000253e:	4649      	mov	r1, r9
10002540:	f7ff fc4c 	bl	10001ddc <__wrap___aeabi_ddiv>
10002544:	e9cd 0108 	strd	r0, r1, [sp, #32]
10002548:	e01f      	b.n	1000258a <_etoa+0x23a>
1000254a:	9b1e      	ldr	r3, [sp, #120]	; 0x78
1000254c:	9304      	str	r3, [sp, #16]
1000254e:	9b1d      	ldr	r3, [sp, #116]	; 0x74
10002550:	9303      	str	r3, [sp, #12]
10002552:	9b1c      	ldr	r3, [sp, #112]	; 0x70
10002554:	9302      	str	r3, [sp, #8]
10002556:	ed9d 7b1a 	vldr	d7, [sp, #104]	; 0x68
1000255a:	ed8d 7b00 	vstr	d7, [sp]
1000255e:	4633      	mov	r3, r6
10002560:	463a      	mov	r2, r7
10002562:	4629      	mov	r1, r5
10002564:	4620      	mov	r0, r4
10002566:	f000 f903 	bl	10002770 <_ftoa>
1000256a:	b011      	add	sp, #68	; 0x44
1000256c:	e8bd 8ff0 	ldmia.w	sp!, {r4, r5, r6, r7, r8, r9, sl, fp, pc}
10002570:	ed9f 7b29 	vldr	d7, [pc, #164]	; 10002618 <_etoa+0x2c8>
10002574:	ed8d 7b06 	vstr	d7, [sp, #24]
10002578:	9b1a      	ldr	r3, [sp, #104]	; 0x68
1000257a:	9306      	str	r3, [sp, #24]
1000257c:	9b1b      	ldr	r3, [sp, #108]	; 0x6c
1000257e:	f103 4300 	add.w	r3, r3, #2147483648	; 0x80000000
10002582:	9307      	str	r3, [sp, #28]
10002584:	e716      	b.n	100023b4 <_etoa+0x64>
10002586:	f04f 0a00 	mov.w	sl, #0
1000258a:	f10a 0363 	add.w	r3, sl, #99	; 0x63
1000258e:	2bc6      	cmp	r3, #198	; 0xc6
10002590:	d827      	bhi.n	100025e2 <_etoa+0x292>
10002592:	f04f 0804 	mov.w	r8, #4
10002596:	9b1e      	ldr	r3, [sp, #120]	; 0x78
10002598:	f413 6f00 	tst.w	r3, #2048	; 0x800
1000259c:	d05f      	beq.n	1000265e <_etoa+0x30e>
1000259e:	e9dd 1208 	ldrd	r1, r2, [sp, #32]
100025a2:	4613      	mov	r3, r2
100025a4:	430b      	orrs	r3, r1
100025a6:	d013      	beq.n	100025d0 <_etoa+0x280>
100025a8:	a31d      	add	r3, pc, #116	; (adr r3, 10002620 <_etoa+0x2d0>)
100025aa:	e9d3 2300 	ldrd	r2, r3, [r3]
100025ae:	e9dd 0106 	ldrd	r0, r1, [sp, #24]
100025b2:	f7ff fce3 	bl	10001f7c <__wrap___aeabi_dcmpge>
100025b6:	2800      	cmp	r0, #0
100025b8:	f000 80b4 	beq.w	10002724 <_etoa+0x3d4>
100025bc:	a31a      	add	r3, pc, #104	; (adr r3, 10002628 <_etoa+0x2d8>)
100025be:	e9d3 2300 	ldrd	r2, r3, [r3]
100025c2:	e9dd 0106 	ldrd	r0, r1, [sp, #24]
100025c6:	f7ff fcb1 	bl	10001f2c <__wrap___aeabi_dcmplt>
100025ca:	2800      	cmp	r0, #0
100025cc:	f000 80aa 	beq.w	10002724 <_etoa+0x3d4>
100025d0:	9b1c      	ldr	r3, [sp, #112]	; 0x70
100025d2:	4553      	cmp	r3, sl
100025d4:	dd3a      	ble.n	1000264c <_etoa+0x2fc>
100025d6:	eba3 0a0a 	sub.w	sl, r3, sl
100025da:	f10a 33ff 	add.w	r3, sl, #4294967295
100025de:	931c      	str	r3, [sp, #112]	; 0x70
100025e0:	e036      	b.n	10002650 <_etoa+0x300>
100025e2:	f04f 0805 	mov.w	r8, #5
100025e6:	e7d6      	b.n	10002596 <_etoa+0x246>
100025e8:	509f79fb 	.word	0x509f79fb
100025ec:	3fd34413 	.word	0x3fd34413
100025f0:	8b60c8b3 	.word	0x8b60c8b3
100025f4:	3fc68a28 	.word	0x3fc68a28
100025f8:	636f4361 	.word	0x636f4361
100025fc:	3fd287a7 	.word	0x3fd287a7
10002600:	0979a371 	.word	0x0979a371
10002604:	400a934f 	.word	0x400a934f
10002608:	bbb55516 	.word	0xbbb55516
1000260c:	40026bb1 	.word	0x40026bb1
10002610:	fefa39ef 	.word	0xfefa39ef
10002614:	3fe62e42 	.word	0x3fe62e42
	...
10002620:	eb1c432d 	.word	0xeb1c432d
10002624:	3f1a36e2 	.word	0x3f1a36e2
10002628:	00000000 	.word	0x00000000
1000262c:	412e8480 	.word	0x412e8480
10002630:	7fefffff 	.word	0x7fefffff
10002634:	3ff80000 	.word	0x3ff80000
10002638:	3fe00000 	.word	0x3fe00000
1000263c:	402c0000 	.word	0x402c0000
10002640:	40240000 	.word	0x40240000
10002644:	40180000 	.word	0x40180000
10002648:	3ff00000 	.word	0x3ff00000
1000264c:	2300      	movs	r3, #0
1000264e:	931c      	str	r3, [sp, #112]	; 0x70
10002650:	9b1e      	ldr	r3, [sp, #120]	; 0x78
10002652:	f443 6380 	orr.w	r3, r3, #1024	; 0x400
10002656:	931e      	str	r3, [sp, #120]	; 0x78
10002658:	f04f 0800 	mov.w	r8, #0
1000265c:	46c2      	mov	sl, r8
1000265e:	9b1d      	ldr	r3, [sp, #116]	; 0x74
10002660:	4598      	cmp	r8, r3
10002662:	d269      	bcs.n	10002738 <_etoa+0x3e8>
10002664:	eba3 0908 	sub.w	r9, r3, r8
10002668:	9b1e      	ldr	r3, [sp, #120]	; 0x78
1000266a:	f013 0b02 	ands.w	fp, r3, #2
1000266e:	d004      	beq.n	1000267a <_etoa+0x32a>
10002670:	f1b8 0f00 	cmp.w	r8, #0
10002674:	d001      	beq.n	1000267a <_etoa+0x32a>
10002676:	f04f 0900 	mov.w	r9, #0
1000267a:	f1ba 0f00 	cmp.w	sl, #0
1000267e:	d007      	beq.n	10002690 <_etoa+0x340>
10002680:	e9dd 2308 	ldrd	r2, r3, [sp, #32]
10002684:	e9dd 0106 	ldrd	r0, r1, [sp, #24]
10002688:	f7ff fba8 	bl	10001ddc <__wrap___aeabi_ddiv>
1000268c:	e9cd 0106 	strd	r0, r1, [sp, #24]
10002690:	2200      	movs	r2, #0
10002692:	2300      	movs	r3, #0
10002694:	e9dd 011a 	ldrd	r0, r1, [sp, #104]	; 0x68
10002698:	f7ff fc48 	bl	10001f2c <__wrap___aeabi_dcmplt>
1000269c:	2800      	cmp	r0, #0
1000269e:	d14e      	bne.n	1000273e <_etoa+0x3ee>
100026a0:	9b1e      	ldr	r3, [sp, #120]	; 0x78
100026a2:	f423 6300 	bic.w	r3, r3, #2048	; 0x800
100026a6:	9304      	str	r3, [sp, #16]
100026a8:	f8cd 900c 	str.w	r9, [sp, #12]
100026ac:	9b1c      	ldr	r3, [sp, #112]	; 0x70
100026ae:	9302      	str	r3, [sp, #8]
100026b0:	ed9d 7b06 	vldr	d7, [sp, #24]
100026b4:	ed8d 7b00 	vstr	d7, [sp]
100026b8:	4633      	mov	r3, r6
100026ba:	463a      	mov	r2, r7
100026bc:	4629      	mov	r1, r5
100026be:	4620      	mov	r0, r4
100026c0:	f000 f856 	bl	10002770 <_ftoa>
100026c4:	f1b8 0f00 	cmp.w	r8, #0
100026c8:	f43f af4f 	beq.w	1000256a <_etoa+0x21a>
100026cc:	9b1e      	ldr	r3, [sp, #120]	; 0x78
100026ce:	f013 0f20 	tst.w	r3, #32
100026d2:	d03c      	beq.n	1000274e <_etoa+0x3fe>
100026d4:	f04f 0c45 	mov.w	ip, #69	; 0x45
100026d8:	f100 0901 	add.w	r9, r0, #1
100026dc:	4633      	mov	r3, r6
100026de:	4602      	mov	r2, r0
100026e0:	4629      	mov	r1, r5
100026e2:	4660      	mov	r0, ip
100026e4:	47a0      	blx	r4
100026e6:	ea8a 72ea 	eor.w	r2, sl, sl, asr #31
100026ea:	eba2 72ea 	sub.w	r2, r2, sl, asr #31
100026ee:	2305      	movs	r3, #5
100026f0:	9305      	str	r3, [sp, #20]
100026f2:	f108 33ff 	add.w	r3, r8, #4294967295
100026f6:	9304      	str	r3, [sp, #16]
100026f8:	2300      	movs	r3, #0
100026fa:	9303      	str	r3, [sp, #12]
100026fc:	230a      	movs	r3, #10
100026fe:	9302      	str	r3, [sp, #8]
10002700:	ea4f 70da 	mov.w	r0, sl, lsr #31
10002704:	9001      	str	r0, [sp, #4]
10002706:	9200      	str	r2, [sp, #0]
10002708:	4633      	mov	r3, r6
1000270a:	464a      	mov	r2, r9
1000270c:	4629      	mov	r1, r5
1000270e:	4620      	mov	r0, r4
10002710:	f7ff fd6f 	bl	100021f2 <_ntoa_long>
10002714:	f1bb 0f00 	cmp.w	fp, #0
10002718:	f43f af27 	beq.w	1000256a <_etoa+0x21a>
1000271c:	4602      	mov	r2, r0
1000271e:	f8dd 9074 	ldr.w	r9, [sp, #116]	; 0x74
10002722:	e01e      	b.n	10002762 <_etoa+0x412>
10002724:	9b1c      	ldr	r3, [sp, #112]	; 0x70
10002726:	2b00      	cmp	r3, #0
10002728:	d099      	beq.n	1000265e <_etoa+0x30e>
1000272a:	9b0d      	ldr	r3, [sp, #52]	; 0x34
1000272c:	2b00      	cmp	r3, #0
1000272e:	d096      	beq.n	1000265e <_etoa+0x30e>
10002730:	9b1c      	ldr	r3, [sp, #112]	; 0x70
10002732:	3b01      	subs	r3, #1
10002734:	931c      	str	r3, [sp, #112]	; 0x70
10002736:	e792      	b.n	1000265e <_etoa+0x30e>
10002738:	f04f 0900 	mov.w	r9, #0
1000273c:	e794      	b.n	10002668 <_etoa+0x318>
1000273e:	e9dd 0106 	ldrd	r0, r1, [sp, #24]
10002742:	4602      	mov	r2, r0
10002744:	f101 4300 	add.w	r3, r1, #2147483648	; 0x80000000
10002748:	e9cd 2306 	strd	r2, r3, [sp, #24]
1000274c:	e7a8      	b.n	100026a0 <_etoa+0x350>
1000274e:	f04f 0c65 	mov.w	ip, #101	; 0x65
10002752:	e7c1      	b.n	100026d8 <_etoa+0x388>
10002754:	f102 0801 	add.w	r8, r2, #1
10002758:	4633      	mov	r3, r6
1000275a:	4629      	mov	r1, r5
1000275c:	2020      	movs	r0, #32
1000275e:	47a0      	blx	r4
10002760:	4642      	mov	r2, r8
10002762:	1bd3      	subs	r3, r2, r7
10002764:	454b      	cmp	r3, r9
10002766:	d3f5      	bcc.n	10002754 <_etoa+0x404>
10002768:	4610      	mov	r0, r2
1000276a:	e6fe      	b.n	1000256a <_etoa+0x21a>
1000276c:	0000      	movs	r0, r0
	...

10002770 <_ftoa>:
10002770:	e92d 4ff0 	stmdb	sp!, {r4, r5, r6, r7, r8, r9, sl, fp, lr}
10002774:	ed2d 8b02 	vpush	{d8}
10002778:	b095      	sub	sp, #84	; 0x54
1000277a:	9007      	str	r0, [sp, #28]
1000277c:	910a      	str	r1, [sp, #40]	; 0x28
1000277e:	4692      	mov	sl, r2
10002780:	469b      	mov	fp, r3
10002782:	e9dd 8920 	ldrd	r8, r9, [sp, #128]	; 0x80
10002786:	9d22      	ldr	r5, [sp, #136]	; 0x88
10002788:	4642      	mov	r2, r8
1000278a:	464b      	mov	r3, r9
1000278c:	4640      	mov	r0, r8
1000278e:	4649      	mov	r1, r9
10002790:	f7ff fbba 	bl	10001f08 <__wrap___aeabi_dcmpun>
10002794:	2800      	cmp	r0, #0
10002796:	d135      	bne.n	10002804 <_ftoa+0x94>
10002798:	f04f 32ff 	mov.w	r2, #4294967295
1000279c:	f46f 1380 	mvn.w	r3, #1048576	; 0x100000
100027a0:	4640      	mov	r0, r8
100027a2:	4649      	mov	r1, r9
100027a4:	f7ff fbc2 	bl	10001f2c <__wrap___aeabi_dcmplt>
100027a8:	2800      	cmp	r0, #0
100027aa:	d13a      	bne.n	10002822 <_ftoa+0xb2>
100027ac:	f04f 32ff 	mov.w	r2, #4294967295
100027b0:	4b9f      	ldr	r3, [pc, #636]	; (10002a30 <_ftoa+0x2c0>)
100027b2:	4640      	mov	r0, r8
100027b4:	4649      	mov	r1, r9
100027b6:	f7ff fbf5 	bl	10001fa4 <__wrap___aeabi_dcmpgt>
100027ba:	2800      	cmp	r0, #0
100027bc:	d140      	bne.n	10002840 <_ftoa+0xd0>
100027be:	a398      	add	r3, pc, #608	; (adr r3, 10002a20 <_ftoa+0x2b0>)
100027c0:	e9d3 2300 	ldrd	r2, r3, [r3]
100027c4:	4640      	mov	r0, r8
100027c6:	4649      	mov	r1, r9
100027c8:	f7ff fbec 	bl	10001fa4 <__wrap___aeabi_dcmpgt>
100027cc:	2800      	cmp	r0, #0
100027ce:	d14f      	bne.n	10002870 <_ftoa+0x100>
100027d0:	a395      	add	r3, pc, #596	; (adr r3, 10002a28 <_ftoa+0x2b8>)
100027d2:	e9d3 2300 	ldrd	r2, r3, [r3]
100027d6:	4640      	mov	r0, r8
100027d8:	4649      	mov	r1, r9
100027da:	f7ff fba7 	bl	10001f2c <__wrap___aeabi_dcmplt>
100027de:	2800      	cmp	r0, #0
100027e0:	d146      	bne.n	10002870 <_ftoa+0x100>
100027e2:	2200      	movs	r2, #0
100027e4:	2300      	movs	r3, #0
100027e6:	4640      	mov	r0, r8
100027e8:	4649      	mov	r1, r9
100027ea:	f7ff fb9f 	bl	10001f2c <__wrap___aeabi_dcmplt>
100027ee:	2800      	cmp	r0, #0
100027f0:	d14c      	bne.n	1000288c <_ftoa+0x11c>
100027f2:	2300      	movs	r3, #0
100027f4:	930b      	str	r3, [sp, #44]	; 0x2c
100027f6:	9b24      	ldr	r3, [sp, #144]	; 0x90
100027f8:	f413 6f80 	tst.w	r3, #1024	; 0x400
100027fc:	f000 80b7 	beq.w	1000296e <_ftoa+0x1fe>
10002800:	2400      	movs	r4, #0
10002802:	e056      	b.n	100028b2 <_ftoa+0x142>
10002804:	9b24      	ldr	r3, [sp, #144]	; 0x90
10002806:	9303      	str	r3, [sp, #12]
10002808:	9b23      	ldr	r3, [sp, #140]	; 0x8c
1000280a:	9302      	str	r3, [sp, #8]
1000280c:	2303      	movs	r3, #3
1000280e:	9301      	str	r3, [sp, #4]
10002810:	4b88      	ldr	r3, [pc, #544]	; (10002a34 <_ftoa+0x2c4>)
10002812:	9300      	str	r3, [sp, #0]
10002814:	465b      	mov	r3, fp
10002816:	4652      	mov	r2, sl
10002818:	990a      	ldr	r1, [sp, #40]	; 0x28
1000281a:	9807      	ldr	r0, [sp, #28]
1000281c:	f7ff fc0e 	bl	1000203c <_out_rev>
10002820:	e137      	b.n	10002a92 <_ftoa+0x322>
10002822:	9b24      	ldr	r3, [sp, #144]	; 0x90
10002824:	9303      	str	r3, [sp, #12]
10002826:	9b23      	ldr	r3, [sp, #140]	; 0x8c
10002828:	9302      	str	r3, [sp, #8]
1000282a:	2304      	movs	r3, #4
1000282c:	9301      	str	r3, [sp, #4]
1000282e:	4b82      	ldr	r3, [pc, #520]	; (10002a38 <_ftoa+0x2c8>)
10002830:	9300      	str	r3, [sp, #0]
10002832:	465b      	mov	r3, fp
10002834:	4652      	mov	r2, sl
10002836:	990a      	ldr	r1, [sp, #40]	; 0x28
10002838:	9807      	ldr	r0, [sp, #28]
1000283a:	f7ff fbff 	bl	1000203c <_out_rev>
1000283e:	e128      	b.n	10002a92 <_ftoa+0x322>
10002840:	9b24      	ldr	r3, [sp, #144]	; 0x90
10002842:	f013 0304 	ands.w	r3, r3, #4
10002846:	d00f      	beq.n	10002868 <_ftoa+0xf8>
10002848:	4a7c      	ldr	r2, [pc, #496]	; (10002a3c <_ftoa+0x2cc>)
1000284a:	b17b      	cbz	r3, 1000286c <_ftoa+0xfc>
1000284c:	2304      	movs	r3, #4
1000284e:	9924      	ldr	r1, [sp, #144]	; 0x90
10002850:	9103      	str	r1, [sp, #12]
10002852:	9923      	ldr	r1, [sp, #140]	; 0x8c
10002854:	9102      	str	r1, [sp, #8]
10002856:	9301      	str	r3, [sp, #4]
10002858:	9200      	str	r2, [sp, #0]
1000285a:	465b      	mov	r3, fp
1000285c:	4652      	mov	r2, sl
1000285e:	990a      	ldr	r1, [sp, #40]	; 0x28
10002860:	9807      	ldr	r0, [sp, #28]
10002862:	f7ff fbeb 	bl	1000203c <_out_rev>
10002866:	e114      	b.n	10002a92 <_ftoa+0x322>
10002868:	4a75      	ldr	r2, [pc, #468]	; (10002a40 <_ftoa+0x2d0>)
1000286a:	e7ee      	b.n	1000284a <_ftoa+0xda>
1000286c:	2303      	movs	r3, #3
1000286e:	e7ee      	b.n	1000284e <_ftoa+0xde>
10002870:	9b24      	ldr	r3, [sp, #144]	; 0x90
10002872:	9304      	str	r3, [sp, #16]
10002874:	9b23      	ldr	r3, [sp, #140]	; 0x8c
10002876:	9303      	str	r3, [sp, #12]
10002878:	9502      	str	r5, [sp, #8]
1000287a:	e9cd 8900 	strd	r8, r9, [sp]
1000287e:	465b      	mov	r3, fp
10002880:	4652      	mov	r2, sl
10002882:	990a      	ldr	r1, [sp, #40]	; 0x28
10002884:	9807      	ldr	r0, [sp, #28]
10002886:	f7ff fd63 	bl	10002350 <_etoa>
1000288a:	e102      	b.n	10002a92 <_ftoa+0x322>
1000288c:	4642      	mov	r2, r8
1000288e:	464b      	mov	r3, r9
10002890:	2000      	movs	r0, #0
10002892:	2100      	movs	r1, #0
10002894:	f7ff fa68 	bl	10001d68 <__wrap___aeabi_dsub>
10002898:	4680      	mov	r8, r0
1000289a:	4689      	mov	r9, r1
1000289c:	2301      	movs	r3, #1
1000289e:	930b      	str	r3, [sp, #44]	; 0x2c
100028a0:	e7a9      	b.n	100027f6 <_ftoa+0x86>
100028a2:	f104 0350 	add.w	r3, r4, #80	; 0x50
100028a6:	446b      	add	r3, sp
100028a8:	2230      	movs	r2, #48	; 0x30
100028aa:	f803 2c20 	strb.w	r2, [r3, #-32]
100028ae:	3d01      	subs	r5, #1
100028b0:	3401      	adds	r4, #1
100028b2:	2c1f      	cmp	r4, #31
100028b4:	d801      	bhi.n	100028ba <_ftoa+0x14a>
100028b6:	2d09      	cmp	r5, #9
100028b8:	d8f3      	bhi.n	100028a2 <_ftoa+0x132>
100028ba:	4640      	mov	r0, r8
100028bc:	4649      	mov	r1, r9
100028be:	f7ff faff 	bl	10001ec0 <__wrap___aeabi_d2iz>
100028c2:	4606      	mov	r6, r0
100028c4:	f7ff fad8 	bl	10001e78 <__wrap___aeabi_i2d>
100028c8:	4602      	mov	r2, r0
100028ca:	460b      	mov	r3, r1
100028cc:	4640      	mov	r0, r8
100028ce:	4649      	mov	r1, r9
100028d0:	f7ff fa4a 	bl	10001d68 <__wrap___aeabi_dsub>
100028d4:	4b5b      	ldr	r3, [pc, #364]	; (10002a44 <_ftoa+0x2d4>)
100028d6:	eb03 03c5 	add.w	r3, r3, r5, lsl #3
100028da:	ed93 8b00 	vldr	d8, [r3]
100028de:	ec53 2b18 	vmov	r2, r3, d8
100028e2:	f7ff fa55 	bl	10001d90 <__wrap___aeabi_dmul>
100028e6:	4602      	mov	r2, r0
100028e8:	460b      	mov	r3, r1
100028ea:	e9cd 2308 	strd	r2, r3, [sp, #32]
100028ee:	f7ff faf9 	bl	10001ee4 <__wrap___aeabi_d2uiz>
100028f2:	4607      	mov	r7, r0
100028f4:	f7ff fad2 	bl	10001e9c <__wrap___aeabi_ui2d>
100028f8:	4602      	mov	r2, r0
100028fa:	460b      	mov	r3, r1
100028fc:	e9dd 0108 	ldrd	r0, r1, [sp, #32]
10002900:	f7ff fa32 	bl	10001d68 <__wrap___aeabi_dsub>
10002904:	4602      	mov	r2, r0
10002906:	460b      	mov	r3, r1
10002908:	e9cd 2308 	strd	r2, r3, [sp, #32]
1000290c:	2200      	movs	r2, #0
1000290e:	4b4e      	ldr	r3, [pc, #312]	; (10002a48 <_ftoa+0x2d8>)
10002910:	f7ff fb48 	bl	10001fa4 <__wrap___aeabi_dcmpgt>
10002914:	b368      	cbz	r0, 10002972 <_ftoa+0x202>
10002916:	3701      	adds	r7, #1
10002918:	4638      	mov	r0, r7
1000291a:	f7ff fabf 	bl	10001e9c <__wrap___aeabi_ui2d>
1000291e:	4602      	mov	r2, r0
10002920:	460b      	mov	r3, r1
10002922:	ec51 0b18 	vmov	r0, r1, d8
10002926:	f7ff fb15 	bl	10001f54 <__wrap___aeabi_dcmple>
1000292a:	b108      	cbz	r0, 10002930 <_ftoa+0x1c0>
1000292c:	3601      	adds	r6, #1
1000292e:	2700      	movs	r7, #0
10002930:	bb6d      	cbnz	r5, 1000298e <_ftoa+0x21e>
10002932:	4630      	mov	r0, r6
10002934:	f7ff faa0 	bl	10001e78 <__wrap___aeabi_i2d>
10002938:	4602      	mov	r2, r0
1000293a:	460b      	mov	r3, r1
1000293c:	4640      	mov	r0, r8
1000293e:	4649      	mov	r1, r9
10002940:	f7ff fa12 	bl	10001d68 <__wrap___aeabi_dsub>
10002944:	4607      	mov	r7, r0
10002946:	4688      	mov	r8, r1
10002948:	2200      	movs	r2, #0
1000294a:	4b3f      	ldr	r3, [pc, #252]	; (10002a48 <_ftoa+0x2d8>)
1000294c:	f7ff faee 	bl	10001f2c <__wrap___aeabi_dcmplt>
10002950:	2800      	cmp	r0, #0
10002952:	d14c      	bne.n	100029ee <_ftoa+0x27e>
10002954:	2200      	movs	r2, #0
10002956:	4b3c      	ldr	r3, [pc, #240]	; (10002a48 <_ftoa+0x2d8>)
10002958:	4638      	mov	r0, r7
1000295a:	4641      	mov	r1, r8
1000295c:	f7ff fb22 	bl	10001fa4 <__wrap___aeabi_dcmpgt>
10002960:	2800      	cmp	r0, #0
10002962:	d144      	bne.n	100029ee <_ftoa+0x27e>
10002964:	f016 0f01 	tst.w	r6, #1
10002968:	d041      	beq.n	100029ee <_ftoa+0x27e>
1000296a:	3601      	adds	r6, #1
1000296c:	e03f      	b.n	100029ee <_ftoa+0x27e>
1000296e:	2506      	movs	r5, #6
10002970:	e746      	b.n	10002800 <_ftoa+0x90>
10002972:	2200      	movs	r2, #0
10002974:	4b34      	ldr	r3, [pc, #208]	; (10002a48 <_ftoa+0x2d8>)
10002976:	e9dd 0108 	ldrd	r0, r1, [sp, #32]
1000297a:	f7ff fad7 	bl	10001f2c <__wrap___aeabi_dcmplt>
1000297e:	2800      	cmp	r0, #0
10002980:	d1d6      	bne.n	10002930 <_ftoa+0x1c0>
10002982:	b117      	cbz	r7, 1000298a <_ftoa+0x21a>
10002984:	f017 0f01 	tst.w	r7, #1
10002988:	d0d2      	beq.n	10002930 <_ftoa+0x1c0>
1000298a:	3701      	adds	r7, #1
1000298c:	e7d0      	b.n	10002930 <_ftoa+0x1c0>
1000298e:	2c1f      	cmp	r4, #31
10002990:	d817      	bhi.n	100029c2 <_ftoa+0x252>
10002992:	3d01      	subs	r5, #1
10002994:	4b2d      	ldr	r3, [pc, #180]	; (10002a4c <_ftoa+0x2dc>)
10002996:	fba3 2307 	umull	r2, r3, r3, r7
1000299a:	08db      	lsrs	r3, r3, #3
1000299c:	4619      	mov	r1, r3
1000299e:	eb03 0383 	add.w	r3, r3, r3, lsl #2
100029a2:	eba7 0343 	sub.w	r3, r7, r3, lsl #1
100029a6:	1c62      	adds	r2, r4, #1
100029a8:	3330      	adds	r3, #48	; 0x30
100029aa:	f104 0050 	add.w	r0, r4, #80	; 0x50
100029ae:	eb0d 0400 	add.w	r4, sp, r0
100029b2:	f804 3c20 	strb.w	r3, [r4, #-32]
100029b6:	2f09      	cmp	r7, #9
100029b8:	d902      	bls.n	100029c0 <_ftoa+0x250>
100029ba:	460f      	mov	r7, r1
100029bc:	4614      	mov	r4, r2
100029be:	e7e6      	b.n	1000298e <_ftoa+0x21e>
100029c0:	4614      	mov	r4, r2
100029c2:	2c1f      	cmp	r4, #31
100029c4:	d80a      	bhi.n	100029dc <_ftoa+0x26c>
100029c6:	1e6b      	subs	r3, r5, #1
100029c8:	b145      	cbz	r5, 100029dc <_ftoa+0x26c>
100029ca:	f104 0250 	add.w	r2, r4, #80	; 0x50
100029ce:	446a      	add	r2, sp
100029d0:	2130      	movs	r1, #48	; 0x30
100029d2:	f802 1c20 	strb.w	r1, [r2, #-32]
100029d6:	461d      	mov	r5, r3
100029d8:	3401      	adds	r4, #1
100029da:	e7f2      	b.n	100029c2 <_ftoa+0x252>
100029dc:	2c1f      	cmp	r4, #31
100029de:	d806      	bhi.n	100029ee <_ftoa+0x27e>
100029e0:	f104 0350 	add.w	r3, r4, #80	; 0x50
100029e4:	446b      	add	r3, sp
100029e6:	222e      	movs	r2, #46	; 0x2e
100029e8:	f803 2c20 	strb.w	r2, [r3, #-32]
100029ec:	3401      	adds	r4, #1
100029ee:	2c1f      	cmp	r4, #31
100029f0:	d831      	bhi.n	10002a56 <_ftoa+0x2e6>
100029f2:	4a17      	ldr	r2, [pc, #92]	; (10002a50 <_ftoa+0x2e0>)
100029f4:	fb82 3206 	smull	r3, r2, r2, r6
100029f8:	17f3      	asrs	r3, r6, #31
100029fa:	ebc3 03a2 	rsb	r3, r3, r2, asr #2
100029fe:	461a      	mov	r2, r3
10002a00:	eb03 0383 	add.w	r3, r3, r3, lsl #2
10002a04:	eba6 0343 	sub.w	r3, r6, r3, lsl #1
10002a08:	1c61      	adds	r1, r4, #1
10002a0a:	3330      	adds	r3, #48	; 0x30
10002a0c:	f104 0050 	add.w	r0, r4, #80	; 0x50
10002a10:	eb0d 0400 	add.w	r4, sp, r0
10002a14:	f804 3c20 	strb.w	r3, [r4, #-32]
10002a18:	4616      	mov	r6, r2
10002a1a:	b1da      	cbz	r2, 10002a54 <_ftoa+0x2e4>
10002a1c:	460c      	mov	r4, r1
10002a1e:	e7e6      	b.n	100029ee <_ftoa+0x27e>
10002a20:	00000000 	.word	0x00000000
10002a24:	41cdcd65 	.word	0x41cdcd65
10002a28:	00000000 	.word	0x00000000
10002a2c:	c1cdcd65 	.word	0xc1cdcd65
10002a30:	7fefffff 	.word	0x7fefffff
10002a34:	10008500 	.word	0x10008500
10002a38:	10008504 	.word	0x10008504
10002a3c:	100084f8 	.word	0x100084f8
10002a40:	100084f4 	.word	0x100084f4
10002a44:	10008510 	.word	0x10008510
10002a48:	3fe00000 	.word	0x3fe00000
10002a4c:	cccccccd 	.word	0xcccccccd
10002a50:	66666667 	.word	0x66666667
10002a54:	460c      	mov	r4, r1
10002a56:	9b24      	ldr	r3, [sp, #144]	; 0x90
10002a58:	f003 0303 	and.w	r3, r3, #3
10002a5c:	2b01      	cmp	r3, #1
10002a5e:	d01d      	beq.n	10002a9c <_ftoa+0x32c>
10002a60:	2c1f      	cmp	r4, #31
10002a62:	d809      	bhi.n	10002a78 <_ftoa+0x308>
10002a64:	9b0b      	ldr	r3, [sp, #44]	; 0x2c
10002a66:	2b00      	cmp	r3, #0
10002a68:	d035      	beq.n	10002ad6 <_ftoa+0x366>
10002a6a:	f104 0350 	add.w	r3, r4, #80	; 0x50
10002a6e:	446b      	add	r3, sp
10002a70:	222d      	movs	r2, #45	; 0x2d
10002a72:	f803 2c20 	strb.w	r2, [r3, #-32]
10002a76:	3401      	adds	r4, #1
10002a78:	9b24      	ldr	r3, [sp, #144]	; 0x90
10002a7a:	9303      	str	r3, [sp, #12]
10002a7c:	9b23      	ldr	r3, [sp, #140]	; 0x8c
10002a7e:	9302      	str	r3, [sp, #8]
10002a80:	9401      	str	r4, [sp, #4]
10002a82:	ab0c      	add	r3, sp, #48	; 0x30
10002a84:	9300      	str	r3, [sp, #0]
10002a86:	465b      	mov	r3, fp
10002a88:	4652      	mov	r2, sl
10002a8a:	990a      	ldr	r1, [sp, #40]	; 0x28
10002a8c:	9807      	ldr	r0, [sp, #28]
10002a8e:	f7ff fad5 	bl	1000203c <_out_rev>
10002a92:	b015      	add	sp, #84	; 0x54
10002a94:	ecbd 8b02 	vpop	{d8}
10002a98:	e8bd 8ff0 	ldmia.w	sp!, {r4, r5, r6, r7, r8, r9, sl, fp, pc}
10002a9c:	9b23      	ldr	r3, [sp, #140]	; 0x8c
10002a9e:	b1b3      	cbz	r3, 10002ace <_ftoa+0x35e>
10002aa0:	9b0b      	ldr	r3, [sp, #44]	; 0x2c
10002aa2:	b91b      	cbnz	r3, 10002aac <_ftoa+0x33c>
10002aa4:	9b24      	ldr	r3, [sp, #144]	; 0x90
10002aa6:	f013 0f0c 	tst.w	r3, #12
10002aaa:	d012      	beq.n	10002ad2 <_ftoa+0x362>
10002aac:	9b23      	ldr	r3, [sp, #140]	; 0x8c
10002aae:	3b01      	subs	r3, #1
10002ab0:	9323      	str	r3, [sp, #140]	; 0x8c
10002ab2:	4619      	mov	r1, r3
10002ab4:	e006      	b.n	10002ac4 <_ftoa+0x354>
10002ab6:	f104 0350 	add.w	r3, r4, #80	; 0x50
10002aba:	446b      	add	r3, sp
10002abc:	2230      	movs	r2, #48	; 0x30
10002abe:	f803 2c20 	strb.w	r2, [r3, #-32]
10002ac2:	3401      	adds	r4, #1
10002ac4:	428c      	cmp	r4, r1
10002ac6:	d2cb      	bcs.n	10002a60 <_ftoa+0x2f0>
10002ac8:	2c1f      	cmp	r4, #31
10002aca:	d9f4      	bls.n	10002ab6 <_ftoa+0x346>
10002acc:	e7c8      	b.n	10002a60 <_ftoa+0x2f0>
10002ace:	9923      	ldr	r1, [sp, #140]	; 0x8c
10002ad0:	e7f8      	b.n	10002ac4 <_ftoa+0x354>
10002ad2:	9923      	ldr	r1, [sp, #140]	; 0x8c
10002ad4:	e7f6      	b.n	10002ac4 <_ftoa+0x354>
10002ad6:	9b24      	ldr	r3, [sp, #144]	; 0x90
10002ad8:	f013 0f04 	tst.w	r3, #4
10002adc:	d007      	beq.n	10002aee <_ftoa+0x37e>
10002ade:	f104 0350 	add.w	r3, r4, #80	; 0x50
10002ae2:	446b      	add	r3, sp
10002ae4:	222b      	movs	r2, #43	; 0x2b
10002ae6:	f803 2c20 	strb.w	r2, [r3, #-32]
10002aea:	3401      	adds	r4, #1
10002aec:	e7c4      	b.n	10002a78 <_ftoa+0x308>
10002aee:	9b24      	ldr	r3, [sp, #144]	; 0x90
10002af0:	f013 0f08 	tst.w	r3, #8
10002af4:	d0c0      	beq.n	10002a78 <_ftoa+0x308>
10002af6:	f104 0350 	add.w	r3, r4, #80	; 0x50
10002afa:	446b      	add	r3, sp
10002afc:	2220      	movs	r2, #32
10002afe:	f803 2c20 	strb.w	r2, [r3, #-32]
10002b02:	3401      	adds	r4, #1
10002b04:	e7b8      	b.n	10002a78 <_ftoa+0x308>
10002b06:	bf00      	nop

10002b08 <_vsnprintf>:
10002b08:	e92d 4ff0 	stmdb	sp!, {r4, r5, r6, r7, r8, r9, sl, fp, lr}
10002b0c:	b08f      	sub	sp, #60	; 0x3c
10002b0e:	4607      	mov	r7, r0
10002b10:	4616      	mov	r6, r2
10002b12:	930d      	str	r3, [sp, #52]	; 0x34
10002b14:	4688      	mov	r8, r1
10002b16:	2900      	cmp	r1, #0
10002b18:	f000 8324 	beq.w	10003164 <_vsnprintf+0x65c>
10002b1c:	2400      	movs	r4, #0
10002b1e:	9b0d      	ldr	r3, [sp, #52]	; 0x34
10002b20:	7818      	ldrb	r0, [r3, #0]
10002b22:	2800      	cmp	r0, #0
10002b24:	f000 8320 	beq.w	10003168 <_vsnprintf+0x660>
10002b28:	2825      	cmp	r0, #37	; 0x25
10002b2a:	d009      	beq.n	10002b40 <_vsnprintf+0x38>
10002b2c:	1c65      	adds	r5, r4, #1
10002b2e:	4633      	mov	r3, r6
10002b30:	4622      	mov	r2, r4
10002b32:	4641      	mov	r1, r8
10002b34:	47b8      	blx	r7
10002b36:	9b0d      	ldr	r3, [sp, #52]	; 0x34
10002b38:	3301      	adds	r3, #1
10002b3a:	930d      	str	r3, [sp, #52]	; 0x34
10002b3c:	462c      	mov	r4, r5
10002b3e:	e7ee      	b.n	10002b1e <_vsnprintf+0x16>
10002b40:	3301      	adds	r3, #1
10002b42:	930d      	str	r3, [sp, #52]	; 0x34
10002b44:	2500      	movs	r5, #0
10002b46:	9b0d      	ldr	r3, [sp, #52]	; 0x34
10002b48:	7819      	ldrb	r1, [r3, #0]
10002b4a:	f1a1 0220 	sub.w	r2, r1, #32
10002b4e:	2a10      	cmp	r2, #16
10002b50:	d80a      	bhi.n	10002b68 <_vsnprintf+0x60>
10002b52:	e8df f002 	tbb	[pc, r2]
10002b56:	0938      	.short	0x0938
10002b58:	09093d09 	.word	0x09093d09
10002b5c:	09090909 	.word	0x09090909
10002b60:	2e093309 	.word	0x2e093309
10002b64:	0909      	.short	0x0909
10002b66:	29          	.byte	0x29
10002b67:	00          	.byte	0x00
10002b68:	f1a1 0330 	sub.w	r3, r1, #48	; 0x30
10002b6c:	b2db      	uxtb	r3, r3
10002b6e:	2b09      	cmp	r3, #9
10002b70:	d933      	bls.n	10002bda <_vsnprintf+0xd2>
10002b72:	292a      	cmp	r1, #42	; 0x2a
10002b74:	d036      	beq.n	10002be4 <_vsnprintf+0xdc>
10002b76:	2300      	movs	r3, #0
10002b78:	930a      	str	r3, [sp, #40]	; 0x28
10002b7a:	9b0d      	ldr	r3, [sp, #52]	; 0x34
10002b7c:	781a      	ldrb	r2, [r3, #0]
10002b7e:	2a2e      	cmp	r2, #46	; 0x2e
10002b80:	d040      	beq.n	10002c04 <_vsnprintf+0xfc>
10002b82:	f04f 0b00 	mov.w	fp, #0
10002b86:	9a0d      	ldr	r2, [sp, #52]	; 0x34
10002b88:	7813      	ldrb	r3, [r2, #0]
10002b8a:	3b68      	subs	r3, #104	; 0x68
10002b8c:	2b12      	cmp	r3, #18
10002b8e:	d877      	bhi.n	10002c80 <_vsnprintf+0x178>
10002b90:	e8df f003 	tbb	[pc, r3]
10002b94:	76d37664 	.word	0x76d37664
10002b98:	76767656 	.word	0x76767656
10002b9c:	76767676 	.word	0x76767676
10002ba0:	76767672 	.word	0x76767672
10002ba4:	7676      	.short	0x7676
10002ba6:	d8          	.byte	0xd8
10002ba7:	00          	.byte	0x00
10002ba8:	f045 0501 	orr.w	r5, r5, #1
10002bac:	3301      	adds	r3, #1
10002bae:	930d      	str	r3, [sp, #52]	; 0x34
10002bb0:	e7c9      	b.n	10002b46 <_vsnprintf+0x3e>
10002bb2:	f045 0502 	orr.w	r5, r5, #2
10002bb6:	3301      	adds	r3, #1
10002bb8:	930d      	str	r3, [sp, #52]	; 0x34
10002bba:	e7c4      	b.n	10002b46 <_vsnprintf+0x3e>
10002bbc:	f045 0504 	orr.w	r5, r5, #4
10002bc0:	3301      	adds	r3, #1
10002bc2:	930d      	str	r3, [sp, #52]	; 0x34
10002bc4:	e7bf      	b.n	10002b46 <_vsnprintf+0x3e>
10002bc6:	f045 0508 	orr.w	r5, r5, #8
10002bca:	3301      	adds	r3, #1
10002bcc:	930d      	str	r3, [sp, #52]	; 0x34
10002bce:	e7ba      	b.n	10002b46 <_vsnprintf+0x3e>
10002bd0:	f045 0510 	orr.w	r5, r5, #16
10002bd4:	3301      	adds	r3, #1
10002bd6:	930d      	str	r3, [sp, #52]	; 0x34
10002bd8:	e7b5      	b.n	10002b46 <_vsnprintf+0x3e>
10002bda:	a80d      	add	r0, sp, #52	; 0x34
10002bdc:	f7ff fa1c 	bl	10002018 <_atoi>
10002be0:	900a      	str	r0, [sp, #40]	; 0x28
10002be2:	e7ca      	b.n	10002b7a <_vsnprintf+0x72>
10002be4:	9b18      	ldr	r3, [sp, #96]	; 0x60
10002be6:	1d1a      	adds	r2, r3, #4
10002be8:	9218      	str	r2, [sp, #96]	; 0x60
10002bea:	6818      	ldr	r0, [r3, #0]
10002bec:	2800      	cmp	r0, #0
10002bee:	db04      	blt.n	10002bfa <_vsnprintf+0xf2>
10002bf0:	900a      	str	r0, [sp, #40]	; 0x28
10002bf2:	9b0d      	ldr	r3, [sp, #52]	; 0x34
10002bf4:	3301      	adds	r3, #1
10002bf6:	930d      	str	r3, [sp, #52]	; 0x34
10002bf8:	e7bf      	b.n	10002b7a <_vsnprintf+0x72>
10002bfa:	f045 0502 	orr.w	r5, r5, #2
10002bfe:	4243      	negs	r3, r0
10002c00:	930a      	str	r3, [sp, #40]	; 0x28
10002c02:	e7f6      	b.n	10002bf2 <_vsnprintf+0xea>
10002c04:	f445 6580 	orr.w	r5, r5, #1024	; 0x400
10002c08:	1c5a      	adds	r2, r3, #1
10002c0a:	920d      	str	r2, [sp, #52]	; 0x34
10002c0c:	785a      	ldrb	r2, [r3, #1]
10002c0e:	f1a2 0330 	sub.w	r3, r2, #48	; 0x30
10002c12:	b2db      	uxtb	r3, r3
10002c14:	2b09      	cmp	r3, #9
10002c16:	d904      	bls.n	10002c22 <_vsnprintf+0x11a>
10002c18:	2a2a      	cmp	r2, #42	; 0x2a
10002c1a:	d007      	beq.n	10002c2c <_vsnprintf+0x124>
10002c1c:	f04f 0b00 	mov.w	fp, #0
10002c20:	e7b1      	b.n	10002b86 <_vsnprintf+0x7e>
10002c22:	a80d      	add	r0, sp, #52	; 0x34
10002c24:	f7ff f9f8 	bl	10002018 <_atoi>
10002c28:	4683      	mov	fp, r0
10002c2a:	e7ac      	b.n	10002b86 <_vsnprintf+0x7e>
10002c2c:	9b18      	ldr	r3, [sp, #96]	; 0x60
10002c2e:	1d1a      	adds	r2, r3, #4
10002c30:	9218      	str	r2, [sp, #96]	; 0x60
10002c32:	681b      	ldr	r3, [r3, #0]
10002c34:	ea23 7be3 	bic.w	fp, r3, r3, asr #31
10002c38:	9b0d      	ldr	r3, [sp, #52]	; 0x34
10002c3a:	3301      	adds	r3, #1
10002c3c:	930d      	str	r3, [sp, #52]	; 0x34
10002c3e:	e7a2      	b.n	10002b86 <_vsnprintf+0x7e>
10002c40:	f445 7180 	orr.w	r1, r5, #256	; 0x100
10002c44:	1c53      	adds	r3, r2, #1
10002c46:	930d      	str	r3, [sp, #52]	; 0x34
10002c48:	7852      	ldrb	r2, [r2, #1]
10002c4a:	2a6c      	cmp	r2, #108	; 0x6c
10002c4c:	d001      	beq.n	10002c52 <_vsnprintf+0x14a>
10002c4e:	460d      	mov	r5, r1
10002c50:	e016      	b.n	10002c80 <_vsnprintf+0x178>
10002c52:	f445 7540 	orr.w	r5, r5, #768	; 0x300
10002c56:	3301      	adds	r3, #1
10002c58:	930d      	str	r3, [sp, #52]	; 0x34
10002c5a:	e011      	b.n	10002c80 <_vsnprintf+0x178>
10002c5c:	f045 0180 	orr.w	r1, r5, #128	; 0x80
10002c60:	1c53      	adds	r3, r2, #1
10002c62:	930d      	str	r3, [sp, #52]	; 0x34
10002c64:	7852      	ldrb	r2, [r2, #1]
10002c66:	2a68      	cmp	r2, #104	; 0x68
10002c68:	d001      	beq.n	10002c6e <_vsnprintf+0x166>
10002c6a:	460d      	mov	r5, r1
10002c6c:	e008      	b.n	10002c80 <_vsnprintf+0x178>
10002c6e:	f045 05c0 	orr.w	r5, r5, #192	; 0xc0
10002c72:	3301      	adds	r3, #1
10002c74:	930d      	str	r3, [sp, #52]	; 0x34
10002c76:	e003      	b.n	10002c80 <_vsnprintf+0x178>
10002c78:	f445 7580 	orr.w	r5, r5, #256	; 0x100
10002c7c:	3201      	adds	r2, #1
10002c7e:	920d      	str	r2, [sp, #52]	; 0x34
10002c80:	9b0d      	ldr	r3, [sp, #52]	; 0x34
10002c82:	7818      	ldrb	r0, [r3, #0]
10002c84:	f1a0 0325 	sub.w	r3, r0, #37	; 0x25
10002c88:	2b53      	cmp	r3, #83	; 0x53
10002c8a:	f200 8261 	bhi.w	10003150 <_vsnprintf+0x648>
10002c8e:	e8df f013 	tbh	[pc, r3, lsl #1]
10002c92:	0254      	.short	0x0254
10002c94:	025f025f 	.word	0x025f025f
10002c98:	025f025f 	.word	0x025f025f
10002c9c:	025f025f 	.word	0x025f025f
10002ca0:	025f025f 	.word	0x025f025f
10002ca4:	025f025f 	.word	0x025f025f
10002ca8:	025f025f 	.word	0x025f025f
10002cac:	025f025f 	.word	0x025f025f
10002cb0:	025f025f 	.word	0x025f025f
10002cb4:	025f025f 	.word	0x025f025f
10002cb8:	025f025f 	.word	0x025f025f
10002cbc:	025f025f 	.word	0x025f025f
10002cc0:	025f025f 	.word	0x025f025f
10002cc4:	025f025f 	.word	0x025f025f
10002cc8:	025f025f 	.word	0x025f025f
10002ccc:	025f025f 	.word	0x025f025f
10002cd0:	0174025f 	.word	0x0174025f
10002cd4:	01740154 	.word	0x01740154
10002cd8:	025f025f 	.word	0x025f025f
10002cdc:	025f025f 	.word	0x025f025f
10002ce0:	025f025f 	.word	0x025f025f
10002ce4:	025f025f 	.word	0x025f025f
10002ce8:	025f025f 	.word	0x025f025f
10002cec:	025f025f 	.word	0x025f025f
10002cf0:	025f025f 	.word	0x025f025f
10002cf4:	025f025f 	.word	0x025f025f
10002cf8:	025f005e 	.word	0x025f005e
10002cfc:	025f025f 	.word	0x025f025f
10002d00:	025f025f 	.word	0x025f025f
10002d04:	025f025f 	.word	0x025f025f
10002d08:	025f025f 	.word	0x025f025f
10002d0c:	019b005e 	.word	0x019b005e
10002d10:	0174005e 	.word	0x0174005e
10002d14:	01740154 	.word	0x01740154
10002d18:	005e025f 	.word	0x005e025f
10002d1c:	025f025f 	.word	0x025f025f
10002d20:	025f025f 	.word	0x025f025f
10002d24:	005e025f 	.word	0x005e025f
10002d28:	025f0239 	.word	0x025f0239
10002d2c:	01d4025f 	.word	0x01d4025f
10002d30:	005e025f 	.word	0x005e025f
10002d34:	025f025f 	.word	0x025f025f
10002d38:	005e      	.short	0x005e
10002d3a:	f445 7500 	orr.w	r5, r5, #512	; 0x200
10002d3e:	3201      	adds	r2, #1
10002d40:	920d      	str	r2, [sp, #52]	; 0x34
10002d42:	e79d      	b.n	10002c80 <_vsnprintf+0x178>
10002d44:	f445 7580 	orr.w	r5, r5, #256	; 0x100
10002d48:	3201      	adds	r2, #1
10002d4a:	920d      	str	r2, [sp, #52]	; 0x34
10002d4c:	e798      	b.n	10002c80 <_vsnprintf+0x178>
10002d4e:	2878      	cmp	r0, #120	; 0x78
10002d50:	d009      	beq.n	10002d66 <_vsnprintf+0x25e>
10002d52:	2858      	cmp	r0, #88	; 0x58
10002d54:	d03a      	beq.n	10002dcc <_vsnprintf+0x2c4>
10002d56:	286f      	cmp	r0, #111	; 0x6f
10002d58:	d03a      	beq.n	10002dd0 <_vsnprintf+0x2c8>
10002d5a:	2862      	cmp	r0, #98	; 0x62
10002d5c:	d03a      	beq.n	10002dd4 <_vsnprintf+0x2cc>
10002d5e:	f025 0510 	bic.w	r5, r5, #16
10002d62:	230a      	movs	r3, #10
10002d64:	e000      	b.n	10002d68 <_vsnprintf+0x260>
10002d66:	2310      	movs	r3, #16
10002d68:	2858      	cmp	r0, #88	; 0x58
10002d6a:	d035      	beq.n	10002dd8 <_vsnprintf+0x2d0>
10002d6c:	2869      	cmp	r0, #105	; 0x69
10002d6e:	d003      	beq.n	10002d78 <_vsnprintf+0x270>
10002d70:	2864      	cmp	r0, #100	; 0x64
10002d72:	d001      	beq.n	10002d78 <_vsnprintf+0x270>
10002d74:	f025 050c 	bic.w	r5, r5, #12
10002d78:	f415 6f80 	tst.w	r5, #1024	; 0x400
10002d7c:	d001      	beq.n	10002d82 <_vsnprintf+0x27a>
10002d7e:	f025 0501 	bic.w	r5, r5, #1
10002d82:	2869      	cmp	r0, #105	; 0x69
10002d84:	d02b      	beq.n	10002dde <_vsnprintf+0x2d6>
10002d86:	2864      	cmp	r0, #100	; 0x64
10002d88:	d029      	beq.n	10002dde <_vsnprintf+0x2d6>
10002d8a:	f415 7f00 	tst.w	r5, #512	; 0x200
10002d8e:	f040 8096 	bne.w	10002ebe <_vsnprintf+0x3b6>
10002d92:	f415 7f80 	tst.w	r5, #256	; 0x100
10002d96:	f040 80ae 	bne.w	10002ef6 <_vsnprintf+0x3ee>
10002d9a:	f015 0f40 	tst.w	r5, #64	; 0x40
10002d9e:	f000 80bf 	beq.w	10002f20 <_vsnprintf+0x418>
10002da2:	9a18      	ldr	r2, [sp, #96]	; 0x60
10002da4:	1d11      	adds	r1, r2, #4
10002da6:	9118      	str	r1, [sp, #96]	; 0x60
10002da8:	7812      	ldrb	r2, [r2, #0]
10002daa:	9505      	str	r5, [sp, #20]
10002dac:	990a      	ldr	r1, [sp, #40]	; 0x28
10002dae:	9104      	str	r1, [sp, #16]
10002db0:	f8cd b00c 	str.w	fp, [sp, #12]
10002db4:	9302      	str	r3, [sp, #8]
10002db6:	2300      	movs	r3, #0
10002db8:	9301      	str	r3, [sp, #4]
10002dba:	9200      	str	r2, [sp, #0]
10002dbc:	4633      	mov	r3, r6
10002dbe:	4622      	mov	r2, r4
10002dc0:	4641      	mov	r1, r8
10002dc2:	4638      	mov	r0, r7
10002dc4:	f7ff fa15 	bl	100021f2 <_ntoa_long>
10002dc8:	4604      	mov	r4, r0
10002dca:	e029      	b.n	10002e20 <_vsnprintf+0x318>
10002dcc:	2310      	movs	r3, #16
10002dce:	e7cb      	b.n	10002d68 <_vsnprintf+0x260>
10002dd0:	2308      	movs	r3, #8
10002dd2:	e7c9      	b.n	10002d68 <_vsnprintf+0x260>
10002dd4:	2302      	movs	r3, #2
10002dd6:	e7c7      	b.n	10002d68 <_vsnprintf+0x260>
10002dd8:	f045 0520 	orr.w	r5, r5, #32
10002ddc:	e7c6      	b.n	10002d6c <_vsnprintf+0x264>
10002dde:	f415 7f00 	tst.w	r5, #512	; 0x200
10002de2:	d121      	bne.n	10002e28 <_vsnprintf+0x320>
10002de4:	f415 7f80 	tst.w	r5, #256	; 0x100
10002de8:	d142      	bne.n	10002e70 <_vsnprintf+0x368>
10002dea:	f015 0f40 	tst.w	r5, #64	; 0x40
10002dee:	d058      	beq.n	10002ea2 <_vsnprintf+0x39a>
10002df0:	9a18      	ldr	r2, [sp, #96]	; 0x60
10002df2:	1d11      	adds	r1, r2, #4
10002df4:	9118      	str	r1, [sp, #96]	; 0x60
10002df6:	7812      	ldrb	r2, [r2, #0]
10002df8:	ea82 71e2 	eor.w	r1, r2, r2, asr #31
10002dfc:	eba1 71e2 	sub.w	r1, r1, r2, asr #31
10002e00:	9505      	str	r5, [sp, #20]
10002e02:	980a      	ldr	r0, [sp, #40]	; 0x28
10002e04:	9004      	str	r0, [sp, #16]
10002e06:	f8cd b00c 	str.w	fp, [sp, #12]
10002e0a:	9302      	str	r3, [sp, #8]
10002e0c:	0fd2      	lsrs	r2, r2, #31
10002e0e:	9201      	str	r2, [sp, #4]
10002e10:	9100      	str	r1, [sp, #0]
10002e12:	4633      	mov	r3, r6
10002e14:	4622      	mov	r2, r4
10002e16:	4641      	mov	r1, r8
10002e18:	4638      	mov	r0, r7
10002e1a:	f7ff f9ea 	bl	100021f2 <_ntoa_long>
10002e1e:	4604      	mov	r4, r0
10002e20:	9b0d      	ldr	r3, [sp, #52]	; 0x34
10002e22:	3301      	adds	r3, #1
10002e24:	930d      	str	r3, [sp, #52]	; 0x34
10002e26:	e67a      	b.n	10002b1e <_vsnprintf+0x16>
10002e28:	9a18      	ldr	r2, [sp, #96]	; 0x60
10002e2a:	3207      	adds	r2, #7
10002e2c:	f022 0207 	bic.w	r2, r2, #7
10002e30:	f102 0108 	add.w	r1, r2, #8
10002e34:	9118      	str	r1, [sp, #96]	; 0x60
10002e36:	6851      	ldr	r1, [r2, #4]
10002e38:	6812      	ldr	r2, [r2, #0]
10002e3a:	4608      	mov	r0, r1
10002e3c:	2900      	cmp	r1, #0
10002e3e:	db13      	blt.n	10002e68 <_vsnprintf+0x360>
10002e40:	9508      	str	r5, [sp, #32]
10002e42:	9d0a      	ldr	r5, [sp, #40]	; 0x28
10002e44:	9507      	str	r5, [sp, #28]
10002e46:	f8cd b018 	str.w	fp, [sp, #24]
10002e4a:	9304      	str	r3, [sp, #16]
10002e4c:	2300      	movs	r3, #0
10002e4e:	9305      	str	r3, [sp, #20]
10002e50:	0fc9      	lsrs	r1, r1, #31
10002e52:	9102      	str	r1, [sp, #8]
10002e54:	9200      	str	r2, [sp, #0]
10002e56:	9001      	str	r0, [sp, #4]
10002e58:	4633      	mov	r3, r6
10002e5a:	4622      	mov	r2, r4
10002e5c:	4641      	mov	r1, r8
10002e5e:	4638      	mov	r0, r7
10002e60:	f7ff fa11 	bl	10002286 <_ntoa_long_long>
10002e64:	4604      	mov	r4, r0
10002e66:	e7db      	b.n	10002e20 <_vsnprintf+0x318>
10002e68:	4252      	negs	r2, r2
10002e6a:	eb61 0041 	sbc.w	r0, r1, r1, lsl #1
10002e6e:	e7e7      	b.n	10002e40 <_vsnprintf+0x338>
10002e70:	9a18      	ldr	r2, [sp, #96]	; 0x60
10002e72:	1d11      	adds	r1, r2, #4
10002e74:	9118      	str	r1, [sp, #96]	; 0x60
10002e76:	6812      	ldr	r2, [r2, #0]
10002e78:	ea82 71e2 	eor.w	r1, r2, r2, asr #31
10002e7c:	eba1 71e2 	sub.w	r1, r1, r2, asr #31
10002e80:	9505      	str	r5, [sp, #20]
10002e82:	980a      	ldr	r0, [sp, #40]	; 0x28
10002e84:	9004      	str	r0, [sp, #16]
10002e86:	f8cd b00c 	str.w	fp, [sp, #12]
10002e8a:	9302      	str	r3, [sp, #8]
10002e8c:	0fd2      	lsrs	r2, r2, #31
10002e8e:	9201      	str	r2, [sp, #4]
10002e90:	9100      	str	r1, [sp, #0]
10002e92:	4633      	mov	r3, r6
10002e94:	4622      	mov	r2, r4
10002e96:	4641      	mov	r1, r8
10002e98:	4638      	mov	r0, r7
10002e9a:	f7ff f9aa 	bl	100021f2 <_ntoa_long>
10002e9e:	4604      	mov	r4, r0
10002ea0:	e7be      	b.n	10002e20 <_vsnprintf+0x318>
10002ea2:	f015 0f80 	tst.w	r5, #128	; 0x80
10002ea6:	d005      	beq.n	10002eb4 <_vsnprintf+0x3ac>
10002ea8:	9a18      	ldr	r2, [sp, #96]	; 0x60
10002eaa:	1d11      	adds	r1, r2, #4
10002eac:	9118      	str	r1, [sp, #96]	; 0x60
10002eae:	f9b2 2000 	ldrsh.w	r2, [r2]
10002eb2:	e7a1      	b.n	10002df8 <_vsnprintf+0x2f0>
10002eb4:	9a18      	ldr	r2, [sp, #96]	; 0x60
10002eb6:	1d11      	adds	r1, r2, #4
10002eb8:	9118      	str	r1, [sp, #96]	; 0x60
10002eba:	6812      	ldr	r2, [r2, #0]
10002ebc:	e79c      	b.n	10002df8 <_vsnprintf+0x2f0>
10002ebe:	9a18      	ldr	r2, [sp, #96]	; 0x60
10002ec0:	3207      	adds	r2, #7
10002ec2:	f022 0207 	bic.w	r2, r2, #7
10002ec6:	f102 0108 	add.w	r1, r2, #8
10002eca:	9118      	str	r1, [sp, #96]	; 0x60
10002ecc:	9508      	str	r5, [sp, #32]
10002ece:	990a      	ldr	r1, [sp, #40]	; 0x28
10002ed0:	9107      	str	r1, [sp, #28]
10002ed2:	f8cd b018 	str.w	fp, [sp, #24]
10002ed6:	2100      	movs	r1, #0
10002ed8:	9304      	str	r3, [sp, #16]
10002eda:	9105      	str	r1, [sp, #20]
10002edc:	9102      	str	r1, [sp, #8]
10002ede:	e9d2 2300 	ldrd	r2, r3, [r2]
10002ee2:	e9cd 2300 	strd	r2, r3, [sp]
10002ee6:	4633      	mov	r3, r6
10002ee8:	4622      	mov	r2, r4
10002eea:	4641      	mov	r1, r8
10002eec:	4638      	mov	r0, r7
10002eee:	f7ff f9ca 	bl	10002286 <_ntoa_long_long>
10002ef2:	4604      	mov	r4, r0
10002ef4:	e794      	b.n	10002e20 <_vsnprintf+0x318>
10002ef6:	9a18      	ldr	r2, [sp, #96]	; 0x60
10002ef8:	1d11      	adds	r1, r2, #4
10002efa:	9118      	str	r1, [sp, #96]	; 0x60
10002efc:	9505      	str	r5, [sp, #20]
10002efe:	990a      	ldr	r1, [sp, #40]	; 0x28
10002f00:	9104      	str	r1, [sp, #16]
10002f02:	f8cd b00c 	str.w	fp, [sp, #12]
10002f06:	9302      	str	r3, [sp, #8]
10002f08:	2300      	movs	r3, #0
10002f0a:	9301      	str	r3, [sp, #4]
10002f0c:	6813      	ldr	r3, [r2, #0]
10002f0e:	9300      	str	r3, [sp, #0]
10002f10:	4633      	mov	r3, r6
10002f12:	4622      	mov	r2, r4
10002f14:	4641      	mov	r1, r8
10002f16:	4638      	mov	r0, r7
10002f18:	f7ff f96b 	bl	100021f2 <_ntoa_long>
10002f1c:	4604      	mov	r4, r0
10002f1e:	e77f      	b.n	10002e20 <_vsnprintf+0x318>
10002f20:	f015 0f80 	tst.w	r5, #128	; 0x80
10002f24:	d004      	beq.n	10002f30 <_vsnprintf+0x428>
10002f26:	9a18      	ldr	r2, [sp, #96]	; 0x60
10002f28:	1d11      	adds	r1, r2, #4
10002f2a:	9118      	str	r1, [sp, #96]	; 0x60
10002f2c:	8812      	ldrh	r2, [r2, #0]
10002f2e:	e73c      	b.n	10002daa <_vsnprintf+0x2a2>
10002f30:	9a18      	ldr	r2, [sp, #96]	; 0x60
10002f32:	1d11      	adds	r1, r2, #4
10002f34:	9118      	str	r1, [sp, #96]	; 0x60
10002f36:	6812      	ldr	r2, [r2, #0]
10002f38:	e737      	b.n	10002daa <_vsnprintf+0x2a2>
10002f3a:	2846      	cmp	r0, #70	; 0x46
10002f3c:	d01a      	beq.n	10002f74 <_vsnprintf+0x46c>
10002f3e:	9b18      	ldr	r3, [sp, #96]	; 0x60
10002f40:	3307      	adds	r3, #7
10002f42:	f023 0307 	bic.w	r3, r3, #7
10002f46:	f103 0208 	add.w	r2, r3, #8
10002f4a:	9218      	str	r2, [sp, #96]	; 0x60
10002f4c:	9504      	str	r5, [sp, #16]
10002f4e:	9a0a      	ldr	r2, [sp, #40]	; 0x28
10002f50:	9203      	str	r2, [sp, #12]
10002f52:	f8cd b008 	str.w	fp, [sp, #8]
10002f56:	e9d3 2300 	ldrd	r2, r3, [r3]
10002f5a:	e9cd 2300 	strd	r2, r3, [sp]
10002f5e:	4633      	mov	r3, r6
10002f60:	4622      	mov	r2, r4
10002f62:	4641      	mov	r1, r8
10002f64:	4638      	mov	r0, r7
10002f66:	f7ff fc03 	bl	10002770 <_ftoa>
10002f6a:	4604      	mov	r4, r0
10002f6c:	9b0d      	ldr	r3, [sp, #52]	; 0x34
10002f6e:	3301      	adds	r3, #1
10002f70:	930d      	str	r3, [sp, #52]	; 0x34
10002f72:	e5d4      	b.n	10002b1e <_vsnprintf+0x16>
10002f74:	f045 0520 	orr.w	r5, r5, #32
10002f78:	e7e1      	b.n	10002f3e <_vsnprintf+0x436>
10002f7a:	2867      	cmp	r0, #103	; 0x67
10002f7c:	d001      	beq.n	10002f82 <_vsnprintf+0x47a>
10002f7e:	2847      	cmp	r0, #71	; 0x47
10002f80:	d101      	bne.n	10002f86 <_vsnprintf+0x47e>
10002f82:	f445 6500 	orr.w	r5, r5, #2048	; 0x800
10002f86:	2845      	cmp	r0, #69	; 0x45
10002f88:	d001      	beq.n	10002f8e <_vsnprintf+0x486>
10002f8a:	2847      	cmp	r0, #71	; 0x47
10002f8c:	d101      	bne.n	10002f92 <_vsnprintf+0x48a>
10002f8e:	f045 0520 	orr.w	r5, r5, #32
10002f92:	9b18      	ldr	r3, [sp, #96]	; 0x60
10002f94:	3307      	adds	r3, #7
10002f96:	f023 0307 	bic.w	r3, r3, #7
10002f9a:	f103 0208 	add.w	r2, r3, #8
10002f9e:	9218      	str	r2, [sp, #96]	; 0x60
10002fa0:	9504      	str	r5, [sp, #16]
10002fa2:	9a0a      	ldr	r2, [sp, #40]	; 0x28
10002fa4:	9203      	str	r2, [sp, #12]
10002fa6:	f8cd b008 	str.w	fp, [sp, #8]
10002faa:	e9d3 2300 	ldrd	r2, r3, [r3]
10002fae:	e9cd 2300 	strd	r2, r3, [sp]
10002fb2:	4633      	mov	r3, r6
10002fb4:	4622      	mov	r2, r4
10002fb6:	4641      	mov	r1, r8
10002fb8:	4638      	mov	r0, r7
10002fba:	f7ff f9c9 	bl	10002350 <_etoa>
10002fbe:	4604      	mov	r4, r0
10002fc0:	9b0d      	ldr	r3, [sp, #52]	; 0x34
10002fc2:	3301      	adds	r3, #1
10002fc4:	930d      	str	r3, [sp, #52]	; 0x34
10002fc6:	e5aa      	b.n	10002b1e <_vsnprintf+0x16>
10002fc8:	f015 0502 	ands.w	r5, r5, #2
10002fcc:	d01f      	beq.n	1000300e <_vsnprintf+0x506>
10002fce:	f04f 0901 	mov.w	r9, #1
10002fd2:	9818      	ldr	r0, [sp, #96]	; 0x60
10002fd4:	1d03      	adds	r3, r0, #4
10002fd6:	9318      	str	r3, [sp, #96]	; 0x60
10002fd8:	f104 0a01 	add.w	sl, r4, #1
10002fdc:	4633      	mov	r3, r6
10002fde:	4622      	mov	r2, r4
10002fe0:	4641      	mov	r1, r8
10002fe2:	7800      	ldrb	r0, [r0, #0]
10002fe4:	47b8      	blx	r7
10002fe6:	b9bd      	cbnz	r5, 10003018 <_vsnprintf+0x510>
10002fe8:	9b0d      	ldr	r3, [sp, #52]	; 0x34
10002fea:	3301      	adds	r3, #1
10002fec:	930d      	str	r3, [sp, #52]	; 0x34
10002fee:	4654      	mov	r4, sl
10002ff0:	e595      	b.n	10002b1e <_vsnprintf+0x16>
10002ff2:	f102 0a01 	add.w	sl, r2, #1
10002ff6:	4633      	mov	r3, r6
10002ff8:	4641      	mov	r1, r8
10002ffa:	2020      	movs	r0, #32
10002ffc:	47b8      	blx	r7
10002ffe:	464b      	mov	r3, r9
10003000:	4652      	mov	r2, sl
10003002:	f103 0901 	add.w	r9, r3, #1
10003006:	459b      	cmp	fp, r3
10003008:	d8f3      	bhi.n	10002ff2 <_vsnprintf+0x4ea>
1000300a:	4614      	mov	r4, r2
1000300c:	e7e1      	b.n	10002fd2 <_vsnprintf+0x4ca>
1000300e:	2301      	movs	r3, #1
10003010:	f8dd b028 	ldr.w	fp, [sp, #40]	; 0x28
10003014:	4622      	mov	r2, r4
10003016:	e7f4      	b.n	10003002 <_vsnprintf+0x4fa>
10003018:	4652      	mov	r2, sl
1000301a:	f8dd a028 	ldr.w	sl, [sp, #40]	; 0x28
1000301e:	e006      	b.n	1000302e <_vsnprintf+0x526>
10003020:	1c55      	adds	r5, r2, #1
10003022:	4633      	mov	r3, r6
10003024:	4641      	mov	r1, r8
10003026:	2020      	movs	r0, #32
10003028:	47b8      	blx	r7
1000302a:	46a1      	mov	r9, r4
1000302c:	462a      	mov	r2, r5
1000302e:	f109 0401 	add.w	r4, r9, #1
10003032:	45ca      	cmp	sl, r9
10003034:	d8f4      	bhi.n	10003020 <_vsnprintf+0x518>
10003036:	4692      	mov	sl, r2
10003038:	e7d6      	b.n	10002fe8 <_vsnprintf+0x4e0>
1000303a:	9b18      	ldr	r3, [sp, #96]	; 0x60
1000303c:	1d1a      	adds	r2, r3, #4
1000303e:	9218      	str	r2, [sp, #96]	; 0x60
10003040:	f8d3 a000 	ldr.w	sl, [r3]
10003044:	f1bb 0f00 	cmp.w	fp, #0
10003048:	d11e      	bne.n	10003088 <_vsnprintf+0x580>
1000304a:	f04f 33ff 	mov.w	r3, #4294967295
1000304e:	46d1      	mov	r9, sl
10003050:	e002      	b.n	10003058 <_vsnprintf+0x550>
10003052:	f109 0901 	add.w	r9, r9, #1
10003056:	4613      	mov	r3, r2
10003058:	f899 2000 	ldrb.w	r2, [r9]
1000305c:	b112      	cbz	r2, 10003064 <_vsnprintf+0x55c>
1000305e:	1e5a      	subs	r2, r3, #1
10003060:	2b00      	cmp	r3, #0
10003062:	d1f6      	bne.n	10003052 <_vsnprintf+0x54a>
10003064:	eba9 090a 	sub.w	r9, r9, sl
10003068:	f415 6380 	ands.w	r3, r5, #1024	; 0x400
1000306c:	930b      	str	r3, [sp, #44]	; 0x2c
1000306e:	d002      	beq.n	10003076 <_vsnprintf+0x56e>
10003070:	45d9      	cmp	r9, fp
10003072:	bf28      	it	cs
10003074:	46d9      	movcs	r9, fp
10003076:	f015 0302 	ands.w	r3, r5, #2
1000307a:	930c      	str	r3, [sp, #48]	; 0x30
1000307c:	d006      	beq.n	1000308c <_vsnprintf+0x584>
1000307e:	4622      	mov	r2, r4
10003080:	465c      	mov	r4, fp
10003082:	46b3      	mov	fp, r6
10003084:	9e0b      	ldr	r6, [sp, #44]	; 0x2c
10003086:	e01d      	b.n	100030c4 <_vsnprintf+0x5bc>
10003088:	465b      	mov	r3, fp
1000308a:	e7e0      	b.n	1000304e <_vsnprintf+0x546>
1000308c:	4622      	mov	r2, r4
1000308e:	9c0a      	ldr	r4, [sp, #40]	; 0x28
10003090:	464b      	mov	r3, r9
10003092:	e007      	b.n	100030a4 <_vsnprintf+0x59c>
10003094:	f102 0901 	add.w	r9, r2, #1
10003098:	4633      	mov	r3, r6
1000309a:	4641      	mov	r1, r8
1000309c:	2020      	movs	r0, #32
1000309e:	47b8      	blx	r7
100030a0:	462b      	mov	r3, r5
100030a2:	464a      	mov	r2, r9
100030a4:	1c5d      	adds	r5, r3, #1
100030a6:	429c      	cmp	r4, r3
100030a8:	d8f4      	bhi.n	10003094 <_vsnprintf+0x58c>
100030aa:	46a9      	mov	r9, r5
100030ac:	465c      	mov	r4, fp
100030ae:	46b3      	mov	fp, r6
100030b0:	9e0b      	ldr	r6, [sp, #44]	; 0x2c
100030b2:	e007      	b.n	100030c4 <_vsnprintf+0x5bc>
100030b4:	461c      	mov	r4, r3
100030b6:	f10a 0a01 	add.w	sl, sl, #1
100030ba:	1c55      	adds	r5, r2, #1
100030bc:	465b      	mov	r3, fp
100030be:	4641      	mov	r1, r8
100030c0:	47b8      	blx	r7
100030c2:	462a      	mov	r2, r5
100030c4:	f89a 0000 	ldrb.w	r0, [sl]
100030c8:	b120      	cbz	r0, 100030d4 <_vsnprintf+0x5cc>
100030ca:	2e00      	cmp	r6, #0
100030cc:	d0f3      	beq.n	100030b6 <_vsnprintf+0x5ae>
100030ce:	1e63      	subs	r3, r4, #1
100030d0:	2c00      	cmp	r4, #0
100030d2:	d1ef      	bne.n	100030b4 <_vsnprintf+0x5ac>
100030d4:	4614      	mov	r4, r2
100030d6:	465e      	mov	r6, fp
100030d8:	9b0c      	ldr	r3, [sp, #48]	; 0x30
100030da:	b91b      	cbnz	r3, 100030e4 <_vsnprintf+0x5dc>
100030dc:	9b0d      	ldr	r3, [sp, #52]	; 0x34
100030de:	3301      	adds	r3, #1
100030e0:	930d      	str	r3, [sp, #52]	; 0x34
100030e2:	e51c      	b.n	10002b1e <_vsnprintf+0x16>
100030e4:	f8dd a028 	ldr.w	sl, [sp, #40]	; 0x28
100030e8:	e006      	b.n	100030f8 <_vsnprintf+0x5f0>
100030ea:	1c55      	adds	r5, r2, #1
100030ec:	4633      	mov	r3, r6
100030ee:	4641      	mov	r1, r8
100030f0:	2020      	movs	r0, #32
100030f2:	47b8      	blx	r7
100030f4:	46a1      	mov	r9, r4
100030f6:	462a      	mov	r2, r5
100030f8:	f109 0401 	add.w	r4, r9, #1
100030fc:	45ca      	cmp	sl, r9
100030fe:	d8f4      	bhi.n	100030ea <_vsnprintf+0x5e2>
10003100:	4614      	mov	r4, r2
10003102:	e7eb      	b.n	100030dc <_vsnprintf+0x5d4>
10003104:	f045 0521 	orr.w	r5, r5, #33	; 0x21
10003108:	9b18      	ldr	r3, [sp, #96]	; 0x60
1000310a:	1d1a      	adds	r2, r3, #4
1000310c:	9218      	str	r2, [sp, #96]	; 0x60
1000310e:	681b      	ldr	r3, [r3, #0]
10003110:	9505      	str	r5, [sp, #20]
10003112:	2208      	movs	r2, #8
10003114:	9204      	str	r2, [sp, #16]
10003116:	f8cd b00c 	str.w	fp, [sp, #12]
1000311a:	2210      	movs	r2, #16
1000311c:	9202      	str	r2, [sp, #8]
1000311e:	2200      	movs	r2, #0
10003120:	9201      	str	r2, [sp, #4]
10003122:	9300      	str	r3, [sp, #0]
10003124:	4633      	mov	r3, r6
10003126:	4622      	mov	r2, r4
10003128:	4641      	mov	r1, r8
1000312a:	4638      	mov	r0, r7
1000312c:	f7ff f861 	bl	100021f2 <_ntoa_long>
10003130:	4604      	mov	r4, r0
10003132:	9b0d      	ldr	r3, [sp, #52]	; 0x34
10003134:	3301      	adds	r3, #1
10003136:	930d      	str	r3, [sp, #52]	; 0x34
10003138:	e4f1      	b.n	10002b1e <_vsnprintf+0x16>
1000313a:	1c65      	adds	r5, r4, #1
1000313c:	4633      	mov	r3, r6
1000313e:	4622      	mov	r2, r4
10003140:	4641      	mov	r1, r8
10003142:	2025      	movs	r0, #37	; 0x25
10003144:	47b8      	blx	r7
10003146:	9b0d      	ldr	r3, [sp, #52]	; 0x34
10003148:	3301      	adds	r3, #1
1000314a:	930d      	str	r3, [sp, #52]	; 0x34
1000314c:	462c      	mov	r4, r5
1000314e:	e4e6      	b.n	10002b1e <_vsnprintf+0x16>
10003150:	1c65      	adds	r5, r4, #1
10003152:	4633      	mov	r3, r6
10003154:	4622      	mov	r2, r4
10003156:	4641      	mov	r1, r8
10003158:	47b8      	blx	r7
1000315a:	9b0d      	ldr	r3, [sp, #52]	; 0x34
1000315c:	3301      	adds	r3, #1
1000315e:	930d      	str	r3, [sp, #52]	; 0x34
10003160:	462c      	mov	r4, r5
10003162:	e4dc      	b.n	10002b1e <_vsnprintf+0x16>
10003164:	4f07      	ldr	r7, [pc, #28]	; (10003184 <_vsnprintf+0x67c>)
10003166:	e4d9      	b.n	10002b1c <_vsnprintf+0x14>
10003168:	42b4      	cmp	r4, r6
1000316a:	d301      	bcc.n	10003170 <_vsnprintf+0x668>
1000316c:	1e72      	subs	r2, r6, #1
1000316e:	e000      	b.n	10003172 <_vsnprintf+0x66a>
10003170:	4622      	mov	r2, r4
10003172:	4633      	mov	r3, r6
10003174:	4641      	mov	r1, r8
10003176:	2000      	movs	r0, #0
10003178:	47b8      	blx	r7
1000317a:	4620      	mov	r0, r4
1000317c:	b00f      	add	sp, #60	; 0x3c
1000317e:	e8bd 8ff0 	ldmia.w	sp!, {r4, r5, r6, r7, r8, r9, sl, fp, pc}
10003182:	bf00      	nop
10003184:	10002009 	.word	0x10002009

10003188 <vfctprintf>:
10003188:	b500      	push	{lr}
1000318a:	b085      	sub	sp, #20
1000318c:	9002      	str	r0, [sp, #8]
1000318e:	9103      	str	r1, [sp, #12]
10003190:	9300      	str	r3, [sp, #0]
10003192:	4613      	mov	r3, r2
10003194:	f04f 32ff 	mov.w	r2, #4294967295
10003198:	a902      	add	r1, sp, #8
1000319a:	4803      	ldr	r0, [pc, #12]	; (100031a8 <vfctprintf+0x20>)
1000319c:	f7ff fcb4 	bl	10002b08 <_vsnprintf>
100031a0:	b005      	add	sp, #20
100031a2:	f85d fb04 	ldr.w	pc, [sp], #4
100031a6:	bf00      	nop
100031a8:	1000200b 	.word	0x1000200b

100031ac <_exit>:
100031ac:	be00      	bkpt	0x0000
100031ae:	e7fd      	b.n	100031ac <_exit>

100031b0 <_sbrk>:
100031b0:	4603      	mov	r3, r0
100031b2:	4a09      	ldr	r2, [pc, #36]	; (100031d8 <_sbrk+0x28>)
100031b4:	6812      	ldr	r2, [r2, #0]
100031b6:	b142      	cbz	r2, 100031ca <_sbrk+0x1a>
100031b8:	4a07      	ldr	r2, [pc, #28]	; (100031d8 <_sbrk+0x28>)
100031ba:	6810      	ldr	r0, [r2, #0]
100031bc:	4403      	add	r3, r0
100031be:	4a07      	ldr	r2, [pc, #28]	; (100031dc <_sbrk+0x2c>)
100031c0:	4293      	cmp	r3, r2
100031c2:	d806      	bhi.n	100031d2 <_sbrk+0x22>
100031c4:	4a04      	ldr	r2, [pc, #16]	; (100031d8 <_sbrk+0x28>)
100031c6:	6013      	str	r3, [r2, #0]
100031c8:	4770      	bx	lr
100031ca:	4a03      	ldr	r2, [pc, #12]	; (100031d8 <_sbrk+0x28>)
100031cc:	4904      	ldr	r1, [pc, #16]	; (100031e0 <_sbrk+0x30>)
100031ce:	6011      	str	r1, [r2, #0]
100031d0:	e7f2      	b.n	100031b8 <_sbrk+0x8>
100031d2:	f04f 30ff 	mov.w	r0, #4294967295
100031d6:	4770      	bx	lr
100031d8:	20002c40 	.word	0x20002c40
100031dc:	20080000 	.word	0x20080000
100031e0:	20003218 	.word	0x20003218

100031e4 <exit>:
100031e4:	b508      	push	{r3, lr}
100031e6:	f7ff ffe1 	bl	100031ac <_exit>
	...

100031ec <__assert_func>:
100031ec:	b500      	push	{lr}
100031ee:	b083      	sub	sp, #12
100031f0:	468c      	mov	ip, r1
100031f2:	4619      	mov	r1, r3
100031f4:	4613      	mov	r3, r2
100031f6:	b15a      	cbz	r2, 10003210 <__assert_func+0x24>
100031f8:	4a07      	ldr	r2, [pc, #28]	; (10003218 <__assert_func+0x2c>)
100031fa:	b15b      	cbz	r3, 10003214 <__assert_func+0x28>
100031fc:	9301      	str	r3, [sp, #4]
100031fe:	9200      	str	r2, [sp, #0]
10003200:	4663      	mov	r3, ip
10003202:	4602      	mov	r2, r0
10003204:	4805      	ldr	r0, [pc, #20]	; (1000321c <__assert_func+0x30>)
10003206:	f000 f9b9 	bl	1000357c <__wrap_printf>
1000320a:	2001      	movs	r0, #1
1000320c:	f7ff ffce 	bl	100031ac <_exit>
10003210:	4a03      	ldr	r2, [pc, #12]	; (10003220 <__assert_func+0x34>)
10003212:	e7f2      	b.n	100031fa <__assert_func+0xe>
10003214:	4b02      	ldr	r3, [pc, #8]	; (10003220 <__assert_func+0x34>)
10003216:	e7f1      	b.n	100031fc <__assert_func+0x10>
10003218:	10008560 	.word	0x10008560
1000321c:	10008570 	.word	0x10008570
10003220:	1000856c 	.word	0x1000856c

10003224 <runtime_init>:
10003224:	b510      	push	{r4, lr}
10003226:	f3ef 8305 	mrs	r3, IPSR
1000322a:	b2db      	uxtb	r3, r3
1000322c:	b103      	cbz	r3, 10003230 <runtime_init+0xc>
1000322e:	be00      	bkpt	0x0000
10003230:	f7fe fc60 	bl	10001af4 <runtime_run_initializers>
10003234:	4c04      	ldr	r4, [pc, #16]	; (10003248 <runtime_init+0x24>)
10003236:	e002      	b.n	1000323e <runtime_init+0x1a>
10003238:	f854 3b04 	ldr.w	r3, [r4], #4
1000323c:	4798      	blx	r3
1000323e:	4b03      	ldr	r3, [pc, #12]	; (1000324c <runtime_init+0x28>)
10003240:	429c      	cmp	r4, r3
10003242:	d3f9      	bcc.n	10003238 <runtime_init+0x14>
10003244:	bd10      	pop	{r4, pc}
10003246:	bf00      	nop
10003248:	10007cb0 	.word	0x10007cb0
1000324c:	10007cb8 	.word	0x10007cb8

10003250 <stdio_out_chars_no_crlf>:
10003250:	b508      	push	{r3, lr}
10003252:	4603      	mov	r3, r0
10003254:	4608      	mov	r0, r1
10003256:	681b      	ldr	r3, [r3, #0]
10003258:	4611      	mov	r1, r2
1000325a:	4798      	blx	r3
1000325c:	bd08      	pop	{r3, pc}
	...

10003260 <stdio_out_chars_crlf>:
10003260:	b5f8      	push	{r3, r4, r5, r6, r7, lr}
10003262:	4607      	mov	r7, r0
10003264:	460d      	mov	r5, r1
10003266:	4616      	mov	r6, r2
10003268:	7d43      	ldrb	r3, [r0, #21]
1000326a:	b113      	cbz	r3, 10003272 <stdio_out_chars_crlf+0x12>
1000326c:	2400      	movs	r4, #0
1000326e:	4620      	mov	r0, r4
10003270:	e00c      	b.n	1000328c <stdio_out_chars_crlf+0x2c>
10003272:	6803      	ldr	r3, [r0, #0]
10003274:	4611      	mov	r1, r2
10003276:	4628      	mov	r0, r5
10003278:	4798      	blx	r3
1000327a:	e02e      	b.n	100032da <stdio_out_chars_crlf+0x7a>
1000327c:	7d3b      	ldrb	r3, [r7, #20]
1000327e:	e010      	b.n	100032a2 <stdio_out_chars_crlf+0x42>
10003280:	683b      	ldr	r3, [r7, #0]
10003282:	2102      	movs	r1, #2
10003284:	4815      	ldr	r0, [pc, #84]	; (100032dc <stdio_out_chars_crlf+0x7c>)
10003286:	4798      	blx	r3
10003288:	1c60      	adds	r0, r4, #1
1000328a:	3401      	adds	r4, #1
1000328c:	42b4      	cmp	r4, r6
1000328e:	da14      	bge.n	100032ba <stdio_out_chars_crlf+0x5a>
10003290:	2c00      	cmp	r4, #0
10003292:	ddf3      	ble.n	1000327c <stdio_out_chars_crlf+0x1c>
10003294:	192b      	adds	r3, r5, r4
10003296:	f813 3c01 	ldrb.w	r3, [r3, #-1]
1000329a:	2b0d      	cmp	r3, #13
1000329c:	bf14      	ite	ne
1000329e:	2300      	movne	r3, #0
100032a0:	2301      	moveq	r3, #1
100032a2:	5d2a      	ldrb	r2, [r5, r4]
100032a4:	2a0a      	cmp	r2, #10
100032a6:	d1f0      	bne.n	1000328a <stdio_out_chars_crlf+0x2a>
100032a8:	2b00      	cmp	r3, #0
100032aa:	d1ee      	bne.n	1000328a <stdio_out_chars_crlf+0x2a>
100032ac:	42a0      	cmp	r0, r4
100032ae:	dae7      	bge.n	10003280 <stdio_out_chars_crlf+0x20>
100032b0:	683b      	ldr	r3, [r7, #0]
100032b2:	1a21      	subs	r1, r4, r0
100032b4:	4428      	add	r0, r5
100032b6:	4798      	blx	r3
100032b8:	e7e2      	b.n	10003280 <stdio_out_chars_crlf+0x20>
100032ba:	42b0      	cmp	r0, r6
100032bc:	da03      	bge.n	100032c6 <stdio_out_chars_crlf+0x66>
100032be:	683b      	ldr	r3, [r7, #0]
100032c0:	1a31      	subs	r1, r6, r0
100032c2:	4428      	add	r0, r5
100032c4:	4798      	blx	r3
100032c6:	2e00      	cmp	r6, #0
100032c8:	dd07      	ble.n	100032da <stdio_out_chars_crlf+0x7a>
100032ca:	4435      	add	r5, r6
100032cc:	f815 3c01 	ldrb.w	r3, [r5, #-1]
100032d0:	2b0d      	cmp	r3, #13
100032d2:	bf14      	ite	ne
100032d4:	2300      	movne	r3, #0
100032d6:	2301      	moveq	r3, #1
100032d8:	753b      	strb	r3, [r7, #20]
100032da:	bdf8      	pop	{r3, r4, r5, r6, r7, pc}
100032dc:	100085f4 	.word	0x100085f4

100032e0 <stdio_stack_buffer_flush>:
100032e0:	b538      	push	{r3, r4, r5, lr}
100032e2:	6803      	ldr	r3, [r0, #0]
100032e4:	b1bb      	cbz	r3, 10003316 <stdio_stack_buffer_flush+0x36>
100032e6:	4605      	mov	r5, r0
100032e8:	4b0b      	ldr	r3, [pc, #44]	; (10003318 <stdio_stack_buffer_flush+0x38>)
100032ea:	681c      	ldr	r4, [r3, #0]
100032ec:	e006      	b.n	100032fc <stdio_stack_buffer_flush+0x1c>
100032ee:	4629      	mov	r1, r5
100032f0:	f851 2b04 	ldr.w	r2, [r1], #4
100032f4:	4620      	mov	r0, r4
100032f6:	f7ff ffb3 	bl	10003260 <stdio_out_chars_crlf>
100032fa:	6924      	ldr	r4, [r4, #16]
100032fc:	b14c      	cbz	r4, 10003312 <stdio_stack_buffer_flush+0x32>
100032fe:	6823      	ldr	r3, [r4, #0]
10003300:	2b00      	cmp	r3, #0
10003302:	d0fa      	beq.n	100032fa <stdio_stack_buffer_flush+0x1a>
10003304:	4b05      	ldr	r3, [pc, #20]	; (1000331c <stdio_stack_buffer_flush+0x3c>)
10003306:	681b      	ldr	r3, [r3, #0]
10003308:	2b00      	cmp	r3, #0
1000330a:	d0f0      	beq.n	100032ee <stdio_stack_buffer_flush+0xe>
1000330c:	42a3      	cmp	r3, r4
1000330e:	d1f4      	bne.n	100032fa <stdio_stack_buffer_flush+0x1a>
10003310:	e7ed      	b.n	100032ee <stdio_stack_buffer_flush+0xe>
10003312:	2300      	movs	r3, #0
10003314:	602b      	str	r3, [r5, #0]
10003316:	bd38      	pop	{r3, r4, r5, pc}
10003318:	20002c30 	.word	0x20002c30
1000331c:	20002c3c 	.word	0x20002c3c

10003320 <stdio_buffered_printer>:
10003320:	b538      	push	{r3, r4, r5, lr}
10003322:	4605      	mov	r5, r0
10003324:	460c      	mov	r4, r1
10003326:	680b      	ldr	r3, [r1, #0]
10003328:	2b80      	cmp	r3, #128	; 0x80
1000332a:	d005      	beq.n	10003338 <stdio_buffered_printer+0x18>
1000332c:	6821      	ldr	r1, [r4, #0]
1000332e:	1c4b      	adds	r3, r1, #1
10003330:	6023      	str	r3, [r4, #0]
10003332:	440c      	add	r4, r1
10003334:	7125      	strb	r5, [r4, #4]
10003336:	bd38      	pop	{r3, r4, r5, pc}
10003338:	4608      	mov	r0, r1
1000333a:	f7ff ffd1 	bl	100032e0 <stdio_stack_buffer_flush>
1000333e:	e7f5      	b.n	1000332c <stdio_buffered_printer+0xc>

10003340 <stdout_serialize_begin>:
10003340:	b508      	push	{r3, lr}
10003342:	f7fd fcc7 	bl	10000cd4 <time_us_64>
10003346:	4a07      	ldr	r2, [pc, #28]	; (10003364 <stdout_serialize_begin+0x24>)
10003348:	1882      	adds	r2, r0, r2
1000334a:	f141 0300 	adc.w	r3, r1, #0
1000334e:	2b00      	cmp	r3, #0
10003350:	db03      	blt.n	1000335a <stdout_serialize_begin+0x1a>
10003352:	4805      	ldr	r0, [pc, #20]	; (10003368 <stdout_serialize_begin+0x28>)
10003354:	f004 fc5c 	bl	10007c10 <__mutex_try_enter_block_until_veneer>
10003358:	bd08      	pop	{r3, pc}
1000335a:	f04f 32ff 	mov.w	r2, #4294967295
1000335e:	f06f 4300 	mvn.w	r3, #2147483648	; 0x80000000
10003362:	e7f6      	b.n	10003352 <stdout_serialize_begin+0x12>
10003364:	000f4240 	.word	0x000f4240
10003368:	200023f0 	.word	0x200023f0

1000336c <stdout_serialize_end>:
1000336c:	b508      	push	{r3, lr}
1000336e:	4802      	ldr	r0, [pc, #8]	; (10003378 <stdout_serialize_end+0xc>)
10003370:	f004 fc16 	bl	10007ba0 <__mutex_exit_veneer>
10003374:	bd08      	pop	{r3, pc}
10003376:	bf00      	nop
10003378:	200023f0 	.word	0x200023f0

1000337c <stdio_put_string>:
1000337c:	e92d 43f0 	stmdb	sp!, {r4, r5, r6, r7, r8, r9, lr}
10003380:	b083      	sub	sp, #12
10003382:	4606      	mov	r6, r0
10003384:	460d      	mov	r5, r1
10003386:	4690      	mov	r8, r2
10003388:	461c      	mov	r4, r3
1000338a:	f7ff ffd9 	bl	10003340 <stdout_serialize_begin>
1000338e:	4681      	mov	r9, r0
10003390:	f1b5 3fff 	cmp.w	r5, #4294967295
10003394:	d004      	beq.n	100033a0 <stdio_put_string+0x24>
10003396:	b144      	cbz	r4, 100033aa <stdio_put_string+0x2e>
10003398:	4f17      	ldr	r7, [pc, #92]	; (100033f8 <stdio_put_string+0x7c>)
1000339a:	4b18      	ldr	r3, [pc, #96]	; (100033fc <stdio_put_string+0x80>)
1000339c:	681c      	ldr	r4, [r3, #0]
1000339e:	e007      	b.n	100033b0 <stdio_put_string+0x34>
100033a0:	4630      	mov	r0, r6
100033a2:	f004 fa5b 	bl	1000785c <strlen>
100033a6:	4605      	mov	r5, r0
100033a8:	e7f5      	b.n	10003396 <stdio_put_string+0x1a>
100033aa:	4f15      	ldr	r7, [pc, #84]	; (10003400 <stdio_put_string+0x84>)
100033ac:	e7f5      	b.n	1000339a <stdio_put_string+0x1e>
100033ae:	6924      	ldr	r4, [r4, #16]
100033b0:	b1bc      	cbz	r4, 100033e2 <stdio_put_string+0x66>
100033b2:	6823      	ldr	r3, [r4, #0]
100033b4:	2b00      	cmp	r3, #0
100033b6:	d0fa      	beq.n	100033ae <stdio_put_string+0x32>
100033b8:	4b12      	ldr	r3, [pc, #72]	; (10003404 <stdio_put_string+0x88>)
100033ba:	681b      	ldr	r3, [r3, #0]
100033bc:	b10b      	cbz	r3, 100033c2 <stdio_put_string+0x46>
100033be:	42a3      	cmp	r3, r4
100033c0:	d1f5      	bne.n	100033ae <stdio_put_string+0x32>
100033c2:	462a      	mov	r2, r5
100033c4:	4631      	mov	r1, r6
100033c6:	4620      	mov	r0, r4
100033c8:	47b8      	blx	r7
100033ca:	f1b8 0f00 	cmp.w	r8, #0
100033ce:	d0ee      	beq.n	100033ae <stdio_put_string+0x32>
100033d0:	230a      	movs	r3, #10
100033d2:	f88d 3007 	strb.w	r3, [sp, #7]
100033d6:	2201      	movs	r2, #1
100033d8:	f10d 0107 	add.w	r1, sp, #7
100033dc:	4620      	mov	r0, r4
100033de:	47b8      	blx	r7
100033e0:	e7e5      	b.n	100033ae <stdio_put_string+0x32>
100033e2:	f1b9 0f00 	cmp.w	r9, #0
100033e6:	d103      	bne.n	100033f0 <stdio_put_string+0x74>
100033e8:	4628      	mov	r0, r5
100033ea:	b003      	add	sp, #12
100033ec:	e8bd 83f0 	ldmia.w	sp!, {r4, r5, r6, r7, r8, r9, pc}
100033f0:	f7ff ffbc 	bl	1000336c <stdout_serialize_end>
100033f4:	e7f8      	b.n	100033e8 <stdio_put_string+0x6c>
100033f6:	bf00      	nop
100033f8:	10003261 	.word	0x10003261
100033fc:	20002c30 	.word	0x20002c30
10003400:	10003251 	.word	0x10003251
10003404:	20002c3c 	.word	0x20002c3c

10003408 <stdio_get_until>:
10003408:	e92d 41f0 	stmdb	sp!, {r4, r5, r6, r7, r8, lr}
1000340c:	4606      	mov	r6, r0
1000340e:	460d      	mov	r5, r1
10003410:	4690      	mov	r8, r2
10003412:	461f      	mov	r7, r3
10003414:	e023      	b.n	1000345e <stdio_get_until+0x56>
10003416:	68a3      	ldr	r3, [r4, #8]
10003418:	b123      	cbz	r3, 10003424 <stdio_get_until+0x1c>
1000341a:	4629      	mov	r1, r5
1000341c:	4630      	mov	r0, r6
1000341e:	4798      	blx	r3
10003420:	2800      	cmp	r0, #0
10003422:	dc23      	bgt.n	1000346c <stdio_get_until+0x64>
10003424:	6924      	ldr	r4, [r4, #16]
10003426:	b134      	cbz	r4, 10003436 <stdio_get_until+0x2e>
10003428:	4b11      	ldr	r3, [pc, #68]	; (10003470 <stdio_get_until+0x68>)
1000342a:	681b      	ldr	r3, [r3, #0]
1000342c:	2b00      	cmp	r3, #0
1000342e:	d0f2      	beq.n	10003416 <stdio_get_until+0xe>
10003430:	42a3      	cmp	r3, r4
10003432:	d1f7      	bne.n	10003424 <stdio_get_until+0x1c>
10003434:	e7ef      	b.n	10003416 <stdio_get_until+0xe>
10003436:	4b0f      	ldr	r3, [pc, #60]	; (10003474 <stdio_get_until+0x6c>)
10003438:	6a5b      	ldr	r3, [r3, #36]	; 0x24
1000343a:	429f      	cmp	r7, r3
1000343c:	d809      	bhi.n	10003452 <stdio_get_until+0x4a>
1000343e:	4a0d      	ldr	r2, [pc, #52]	; (10003474 <stdio_get_until+0x6c>)
10003440:	6a92      	ldr	r2, [r2, #40]	; 0x28
10003442:	4542      	cmp	r2, r8
10003444:	d20e      	bcs.n	10003464 <stdio_get_until+0x5c>
10003446:	429f      	cmp	r7, r3
10003448:	d001      	beq.n	1000344e <stdio_get_until+0x46>
1000344a:	2301      	movs	r3, #1
1000344c:	e002      	b.n	10003454 <stdio_get_until+0x4c>
1000344e:	2300      	movs	r3, #0
10003450:	e000      	b.n	10003454 <stdio_get_until+0x4c>
10003452:	2300      	movs	r3, #0
10003454:	b943      	cbnz	r3, 10003468 <stdio_get_until+0x60>
10003456:	2001      	movs	r0, #1
10003458:	2100      	movs	r1, #0
1000345a:	f7fd fc43 	bl	10000ce4 <busy_wait_us>
1000345e:	4b06      	ldr	r3, [pc, #24]	; (10003478 <stdio_get_until+0x70>)
10003460:	681c      	ldr	r4, [r3, #0]
10003462:	e7e0      	b.n	10003426 <stdio_get_until+0x1e>
10003464:	2301      	movs	r3, #1
10003466:	e7f5      	b.n	10003454 <stdio_get_until+0x4c>
10003468:	f06f 0001 	mvn.w	r0, #1
1000346c:	e8bd 81f0 	ldmia.w	sp!, {r4, r5, r6, r7, r8, pc}
10003470:	20002c3c 	.word	0x20002c3c
10003474:	400b0000 	.word	0x400b0000
10003478:	20002c30 	.word	0x20002c30

1000347c <stdio_set_driver_enabled>:
1000347c:	4a08      	ldr	r2, [pc, #32]	; (100034a0 <stdio_set_driver_enabled+0x24>)
1000347e:	e001      	b.n	10003484 <stdio_set_driver_enabled+0x8>
10003480:	f103 0210 	add.w	r2, r3, #16
10003484:	6813      	ldr	r3, [r2, #0]
10003486:	b13b      	cbz	r3, 10003498 <stdio_set_driver_enabled+0x1c>
10003488:	4283      	cmp	r3, r0
1000348a:	d1f9      	bne.n	10003480 <stdio_set_driver_enabled+0x4>
1000348c:	b931      	cbnz	r1, 1000349c <stdio_set_driver_enabled+0x20>
1000348e:	6903      	ldr	r3, [r0, #16]
10003490:	6013      	str	r3, [r2, #0]
10003492:	2300      	movs	r3, #0
10003494:	6103      	str	r3, [r0, #16]
10003496:	4770      	bx	lr
10003498:	b101      	cbz	r1, 1000349c <stdio_set_driver_enabled+0x20>
1000349a:	6010      	str	r0, [r2, #0]
1000349c:	4770      	bx	lr
1000349e:	bf00      	nop
100034a0:	20002c30 	.word	0x20002c30

100034a4 <stdio_flush>:
100034a4:	b510      	push	{r4, lr}
100034a6:	4b05      	ldr	r3, [pc, #20]	; (100034bc <stdio_flush+0x18>)
100034a8:	681c      	ldr	r4, [r3, #0]
100034aa:	e001      	b.n	100034b0 <stdio_flush+0xc>
100034ac:	4798      	blx	r3
100034ae:	6924      	ldr	r4, [r4, #16]
100034b0:	b11c      	cbz	r4, 100034ba <stdio_flush+0x16>
100034b2:	6863      	ldr	r3, [r4, #4]
100034b4:	2b00      	cmp	r3, #0
100034b6:	d1f9      	bne.n	100034ac <stdio_flush+0x8>
100034b8:	e7f9      	b.n	100034ae <stdio_flush+0xa>
100034ba:	bd10      	pop	{r4, pc}
100034bc:	20002c30 	.word	0x20002c30

100034c0 <stdio_init_all>:
100034c0:	b508      	push	{r3, lr}
100034c2:	f000 f975 	bl	100037b0 <stdio_uart_init>
100034c6:	f000 fadb 	bl	10003a80 <stdio_usb_init>
100034ca:	2001      	movs	r0, #1
100034cc:	bd08      	pop	{r3, pc}
	...

100034d0 <stdio_getchar_timeout_us>:
100034d0:	b510      	push	{r4, lr}
100034d2:	b082      	sub	sp, #8
100034d4:	4604      	mov	r4, r0
100034d6:	f7fd fbfd 	bl	10000cd4 <time_us_64>
100034da:	1822      	adds	r2, r4, r0
100034dc:	f141 0300 	adc.w	r3, r1, #0
100034e0:	2b00      	cmp	r3, #0
100034e2:	db0a      	blt.n	100034fa <stdio_getchar_timeout_us+0x2a>
100034e4:	2101      	movs	r1, #1
100034e6:	a801      	add	r0, sp, #4
100034e8:	f7ff ff8e 	bl	10003408 <stdio_get_until>
100034ec:	2800      	cmp	r0, #0
100034ee:	db02      	blt.n	100034f6 <stdio_getchar_timeout_us+0x26>
100034f0:	b140      	cbz	r0, 10003504 <stdio_getchar_timeout_us+0x34>
100034f2:	f89d 0004 	ldrb.w	r0, [sp, #4]
100034f6:	b002      	add	sp, #8
100034f8:	bd10      	pop	{r4, pc}
100034fa:	f04f 32ff 	mov.w	r2, #4294967295
100034fe:	f06f 4300 	mvn.w	r3, #2147483648	; 0x80000000
10003502:	e7ef      	b.n	100034e4 <stdio_getchar_timeout_us+0x14>
10003504:	4b03      	ldr	r3, [pc, #12]	; (10003514 <stdio_getchar_timeout_us+0x44>)
10003506:	4a04      	ldr	r2, [pc, #16]	; (10003518 <stdio_getchar_timeout_us+0x48>)
10003508:	f240 1103 	movw	r1, #259	; 0x103
1000350c:	4803      	ldr	r0, [pc, #12]	; (1000351c <stdio_getchar_timeout_us+0x4c>)
1000350e:	f7ff fe6d 	bl	100031ec <__assert_func>
10003512:	bf00      	nop
10003514:	100085a0 	.word	0x100085a0
10003518:	100085d8 	.word	0x100085d8
1000351c:	100085a4 	.word	0x100085a4

10003520 <__wrap_puts>:
10003520:	b538      	push	{r3, r4, r5, lr}
10003522:	4605      	mov	r5, r0
10003524:	f004 f99a 	bl	1000785c <strlen>
10003528:	4604      	mov	r4, r0
1000352a:	2301      	movs	r3, #1
1000352c:	461a      	mov	r2, r3
1000352e:	4601      	mov	r1, r0
10003530:	4628      	mov	r0, r5
10003532:	f7ff ff23 	bl	1000337c <stdio_put_string>
10003536:	f7ff ffb5 	bl	100034a4 <stdio_flush>
1000353a:	4620      	mov	r0, r4
1000353c:	bd38      	pop	{r3, r4, r5, pc}
	...

10003540 <__wrap_vprintf>:
10003540:	b570      	push	{r4, r5, r6, lr}
10003542:	b0a2      	sub	sp, #136	; 0x88
10003544:	4604      	mov	r4, r0
10003546:	460e      	mov	r6, r1
10003548:	f7ff fefa 	bl	10003340 <stdout_serialize_begin>
1000354c:	4605      	mov	r5, r0
1000354e:	2300      	movs	r3, #0
10003550:	9301      	str	r3, [sp, #4]
10003552:	4633      	mov	r3, r6
10003554:	4622      	mov	r2, r4
10003556:	a901      	add	r1, sp, #4
10003558:	4807      	ldr	r0, [pc, #28]	; (10003578 <__wrap_vprintf+0x38>)
1000355a:	f7ff fe15 	bl	10003188 <vfctprintf>
1000355e:	4604      	mov	r4, r0
10003560:	a801      	add	r0, sp, #4
10003562:	f7ff febd 	bl	100032e0 <stdio_stack_buffer_flush>
10003566:	f7ff ff9d 	bl	100034a4 <stdio_flush>
1000356a:	b915      	cbnz	r5, 10003572 <__wrap_vprintf+0x32>
1000356c:	4620      	mov	r0, r4
1000356e:	b022      	add	sp, #136	; 0x88
10003570:	bd70      	pop	{r4, r5, r6, pc}
10003572:	f7ff fefb 	bl	1000336c <stdout_serialize_end>
10003576:	e7f9      	b.n	1000356c <__wrap_vprintf+0x2c>
10003578:	10003321 	.word	0x10003321

1000357c <__wrap_printf>:
1000357c:	b40f      	push	{r0, r1, r2, r3}
1000357e:	b500      	push	{lr}
10003580:	b083      	sub	sp, #12
10003582:	a904      	add	r1, sp, #16
10003584:	f851 0b04 	ldr.w	r0, [r1], #4
10003588:	9101      	str	r1, [sp, #4]
1000358a:	f7ff ffd9 	bl	10003540 <__wrap_vprintf>
1000358e:	b003      	add	sp, #12
10003590:	f85d eb04 	ldr.w	lr, [sp], #4
10003594:	b004      	add	sp, #16
10003596:	4770      	bx	lr

10003598 <stdio_uart_out_chars>:
10003598:	b530      	push	{r4, r5, lr}
1000359a:	b083      	sub	sp, #12
1000359c:	4686      	mov	lr, r0
1000359e:	460c      	mov	r4, r1
100035a0:	f04f 0c00 	mov.w	ip, #0
100035a4:	e013      	b.n	100035ce <stdio_uart_out_chars+0x36>
100035a6:	230d      	movs	r3, #13
100035a8:	f88d 3007 	strb.w	r3, [sp, #7]
100035ac:	2000      	movs	r0, #0
100035ae:	f10d 0107 	add.w	r1, sp, #7
100035b2:	b9e0      	cbnz	r0, 100035ee <stdio_uart_out_chars+0x56>
100035b4:	6993      	ldr	r3, [r2, #24]
100035b6:	f013 0f20 	tst.w	r3, #32
100035ba:	d1fb      	bne.n	100035b4 <stdio_uart_out_chars+0x1c>
100035bc:	460b      	mov	r3, r1
100035be:	f813 1b01 	ldrb.w	r1, [r3], #1
100035c2:	6011      	str	r1, [r2, #0]
100035c4:	3001      	adds	r0, #1
100035c6:	4619      	mov	r1, r3
100035c8:	e7f3      	b.n	100035b2 <stdio_uart_out_chars+0x1a>
100035ca:	f10c 0c01 	add.w	ip, ip, #1
100035ce:	45a4      	cmp	ip, r4
100035d0:	da1f      	bge.n	10003612 <stdio_uart_out_chars+0x7a>
100035d2:	4b11      	ldr	r3, [pc, #68]	; (10003618 <stdio_uart_out_chars+0x80>)
100035d4:	681a      	ldr	r2, [r3, #0]
100035d6:	f81e 500c 	ldrb.w	r5, [lr, ip]
100035da:	4b10      	ldr	r3, [pc, #64]	; (1000361c <stdio_uart_out_chars+0x84>)
100035dc:	429a      	cmp	r2, r3
100035de:	bf14      	ite	ne
100035e0:	2300      	movne	r3, #0
100035e2:	2301      	moveq	r3, #1
100035e4:	490e      	ldr	r1, [pc, #56]	; (10003620 <stdio_uart_out_chars+0x88>)
100035e6:	f931 3013 	ldrsh.w	r3, [r1, r3, lsl #1]
100035ea:	42ab      	cmp	r3, r5
100035ec:	d0db      	beq.n	100035a6 <stdio_uart_out_chars+0xe>
100035ee:	f88d 5007 	strb.w	r5, [sp, #7]
100035f2:	2000      	movs	r0, #0
100035f4:	f10d 0107 	add.w	r1, sp, #7
100035f8:	2800      	cmp	r0, #0
100035fa:	d1e6      	bne.n	100035ca <stdio_uart_out_chars+0x32>
100035fc:	6993      	ldr	r3, [r2, #24]
100035fe:	f013 0f20 	tst.w	r3, #32
10003602:	d1fb      	bne.n	100035fc <stdio_uart_out_chars+0x64>
10003604:	460b      	mov	r3, r1
10003606:	f813 1b01 	ldrb.w	r1, [r3], #1
1000360a:	6011      	str	r1, [r2, #0]
1000360c:	3001      	adds	r0, #1
1000360e:	4619      	mov	r1, r3
10003610:	e7f2      	b.n	100035f8 <stdio_uart_out_chars+0x60>
10003612:	b003      	add	sp, #12
10003614:	bd30      	pop	{r4, r5, pc}
10003616:	bf00      	nop
10003618:	200031cc 	.word	0x200031cc
1000361c:	40078000 	.word	0x40078000
10003620:	200031c8 	.word	0x200031c8

10003624 <stdio_uart_in_chars>:
10003624:	b570      	push	{r4, r5, r6, lr}
10003626:	b082      	sub	sp, #8
10003628:	4605      	mov	r5, r0
1000362a:	460e      	mov	r6, r1
1000362c:	2100      	movs	r1, #0
1000362e:	e004      	b.n	1000363a <stdio_uart_in_chars+0x16>
10003630:	f89d 3007 	ldrb.w	r3, [sp, #7]
10003634:	f88e 3000 	strb.w	r3, [lr]
10003638:	4661      	mov	r1, ip
1000363a:	42b1      	cmp	r1, r6
1000363c:	da18      	bge.n	10003670 <stdio_uart_in_chars+0x4c>
1000363e:	4b16      	ldr	r3, [pc, #88]	; (10003698 <stdio_uart_in_chars+0x74>)
10003640:	681a      	ldr	r2, [r3, #0]
10003642:	6990      	ldr	r0, [r2, #24]
10003644:	f010 0010 	ands.w	r0, r0, #16
10003648:	d112      	bne.n	10003670 <stdio_uart_in_chars+0x4c>
1000364a:	f101 0c01 	add.w	ip, r1, #1
1000364e:	eb05 0e01 	add.w	lr, r5, r1
10003652:	f10d 0107 	add.w	r1, sp, #7
10003656:	2800      	cmp	r0, #0
10003658:	d1ea      	bne.n	10003630 <stdio_uart_in_chars+0xc>
1000365a:	6993      	ldr	r3, [r2, #24]
1000365c:	f013 0f10 	tst.w	r3, #16
10003660:	d1fb      	bne.n	1000365a <stdio_uart_in_chars+0x36>
10003662:	6814      	ldr	r4, [r2, #0]
10003664:	460b      	mov	r3, r1
10003666:	f803 4b01 	strb.w	r4, [r3], #1
1000366a:	3001      	adds	r0, #1
1000366c:	4619      	mov	r1, r3
1000366e:	e7f2      	b.n	10003656 <stdio_uart_in_chars+0x32>
10003670:	4b0a      	ldr	r3, [pc, #40]	; (1000369c <stdio_uart_in_chars+0x78>)
10003672:	681b      	ldr	r3, [r3, #0]
10003674:	b14b      	cbz	r3, 1000368a <stdio_uart_in_chars+0x66>
10003676:	4b08      	ldr	r3, [pc, #32]	; (10003698 <stdio_uart_in_chars+0x74>)
10003678:	681b      	ldr	r3, [r3, #0]
1000367a:	2250      	movs	r2, #80	; 0x50
1000367c:	639a      	str	r2, [r3, #56]	; 0x38
1000367e:	6b5a      	ldr	r2, [r3, #52]	; 0x34
10003680:	f002 0238 	and.w	r2, r2, #56	; 0x38
10003684:	f503 5381 	add.w	r3, r3, #4128	; 0x1020
10003688:	615a      	str	r2, [r3, #20]
1000368a:	b111      	cbz	r1, 10003692 <stdio_uart_in_chars+0x6e>
1000368c:	4608      	mov	r0, r1
1000368e:	b002      	add	sp, #8
10003690:	bd70      	pop	{r4, r5, r6, pc}
10003692:	f06f 0102 	mvn.w	r1, #2
10003696:	e7f9      	b.n	1000368c <stdio_uart_in_chars+0x68>
10003698:	200031cc 	.word	0x200031cc
1000369c:	20002bb4 	.word	0x20002bb4

100036a0 <on_uart_rx>:
100036a0:	b508      	push	{r3, lr}
100036a2:	4b05      	ldr	r3, [pc, #20]	; (100036b8 <on_uart_rx+0x18>)
100036a4:	681b      	ldr	r3, [r3, #0]
100036a6:	b133      	cbz	r3, 100036b6 <on_uart_rx+0x16>
100036a8:	4a04      	ldr	r2, [pc, #16]	; (100036bc <on_uart_rx+0x1c>)
100036aa:	6812      	ldr	r2, [r2, #0]
100036ac:	2100      	movs	r1, #0
100036ae:	6391      	str	r1, [r2, #56]	; 0x38
100036b0:	4a03      	ldr	r2, [pc, #12]	; (100036c0 <on_uart_rx+0x20>)
100036b2:	6810      	ldr	r0, [r2, #0]
100036b4:	4798      	blx	r3
100036b6:	bd08      	pop	{r3, pc}
100036b8:	20002bb4 	.word	0x20002bb4
100036bc:	200031cc 	.word	0x200031cc
100036c0:	20002bbc 	.word	0x20002bbc

100036c4 <stdio_uart_out_flush>:
100036c4:	4b03      	ldr	r3, [pc, #12]	; (100036d4 <stdio_uart_out_flush+0x10>)
100036c6:	681a      	ldr	r2, [r3, #0]
100036c8:	6993      	ldr	r3, [r2, #24]
100036ca:	f013 0f08 	tst.w	r3, #8
100036ce:	d1fb      	bne.n	100036c8 <stdio_uart_out_flush+0x4>
100036d0:	4770      	bx	lr
100036d2:	bf00      	nop
100036d4:	200031cc 	.word	0x200031cc

100036d8 <stdio_uart_set_chars_available_callback>:
100036d8:	b538      	push	{r3, r4, r5, lr}
100036da:	4b1c      	ldr	r3, [pc, #112]	; (1000374c <stdio_uart_set_chars_available_callback+0x74>)
100036dc:	681b      	ldr	r3, [r3, #0]
100036de:	4a1c      	ldr	r2, [pc, #112]	; (10003750 <stdio_uart_set_chars_available_callback+0x78>)
100036e0:	4293      	cmp	r3, r2
100036e2:	d006      	beq.n	100036f2 <stdio_uart_set_chars_available_callback+0x1a>
100036e4:	2421      	movs	r4, #33	; 0x21
100036e6:	b110      	cbz	r0, 100036ee <stdio_uart_set_chars_available_callback+0x16>
100036e8:	4a1a      	ldr	r2, [pc, #104]	; (10003754 <stdio_uart_set_chars_available_callback+0x7c>)
100036ea:	6812      	ldr	r2, [r2, #0]
100036ec:	b11a      	cbz	r2, 100036f6 <stdio_uart_set_chars_available_callback+0x1e>
100036ee:	b1c8      	cbz	r0, 10003724 <stdio_uart_set_chars_available_callback+0x4c>
100036f0:	bd38      	pop	{r3, r4, r5, pc}
100036f2:	2422      	movs	r4, #34	; 0x22
100036f4:	e7f7      	b.n	100036e6 <stdio_uart_set_chars_available_callback+0xe>
100036f6:	4b17      	ldr	r3, [pc, #92]	; (10003754 <stdio_uart_set_chars_available_callback+0x7c>)
100036f8:	6018      	str	r0, [r3, #0]
100036fa:	4b17      	ldr	r3, [pc, #92]	; (10003758 <stdio_uart_set_chars_available_callback+0x80>)
100036fc:	6019      	str	r1, [r3, #0]
100036fe:	4917      	ldr	r1, [pc, #92]	; (1000375c <stdio_uart_set_chars_available_callback+0x84>)
10003700:	4620      	mov	r0, r4
10003702:	f7fd fc71 	bl	10000fe8 <irq_set_exclusive_handler>
10003706:	2101      	movs	r1, #1
10003708:	4620      	mov	r0, r4
1000370a:	f7fd fc43 	bl	10000f94 <irq_set_enabled>
1000370e:	4b0f      	ldr	r3, [pc, #60]	; (1000374c <stdio_uart_set_chars_available_callback+0x74>)
10003710:	681b      	ldr	r3, [r3, #0]
10003712:	2250      	movs	r2, #80	; 0x50
10003714:	639a      	str	r2, [r3, #56]	; 0x38
10003716:	6b5a      	ldr	r2, [r3, #52]	; 0x34
10003718:	f002 0238 	and.w	r2, r2, #56	; 0x38
1000371c:	f503 5381 	add.w	r3, r3, #4128	; 0x1020
10003720:	615a      	str	r2, [r3, #20]
10003722:	e7e5      	b.n	100036f0 <stdio_uart_set_chars_available_callback+0x18>
10003724:	4a0b      	ldr	r2, [pc, #44]	; (10003754 <stdio_uart_set_chars_available_callback+0x7c>)
10003726:	6812      	ldr	r2, [r2, #0]
10003728:	2a00      	cmp	r2, #0
1000372a:	d0e1      	beq.n	100036f0 <stdio_uart_set_chars_available_callback+0x18>
1000372c:	2500      	movs	r5, #0
1000372e:	639d      	str	r5, [r3, #56]	; 0x38
10003730:	4629      	mov	r1, r5
10003732:	4620      	mov	r0, r4
10003734:	f7fd fc2e 	bl	10000f94 <irq_set_enabled>
10003738:	4908      	ldr	r1, [pc, #32]	; (1000375c <stdio_uart_set_chars_available_callback+0x84>)
1000373a:	4620      	mov	r0, r4
1000373c:	f7fd fdb6 	bl	100012ac <irq_remove_handler>
10003740:	4b04      	ldr	r3, [pc, #16]	; (10003754 <stdio_uart_set_chars_available_callback+0x7c>)
10003742:	601d      	str	r5, [r3, #0]
10003744:	4b04      	ldr	r3, [pc, #16]	; (10003758 <stdio_uart_set_chars_available_callback+0x80>)
10003746:	601d      	str	r5, [r3, #0]
10003748:	e7d2      	b.n	100036f0 <stdio_uart_set_chars_available_callback+0x18>
1000374a:	bf00      	nop
1000374c:	200031cc 	.word	0x200031cc
10003750:	40078000 	.word	0x40078000
10003754:	20002bb4 	.word	0x20002bb4
10003758:	20002bbc 	.word	0x20002bbc
1000375c:	100036a1 	.word	0x100036a1

10003760 <stdio_uart_init_full>:
10003760:	b538      	push	{r3, r4, r5, lr}
10003762:	460d      	mov	r5, r1
10003764:	461c      	mov	r4, r3
10003766:	4b10      	ldr	r3, [pc, #64]	; (100037a8 <stdio_uart_init_full+0x48>)
10003768:	6018      	str	r0, [r3, #0]
1000376a:	1e10      	subs	r0, r2, #0
1000376c:	db05      	blt.n	1000377a <stdio_uart_init_full+0x1a>
1000376e:	f010 0f02 	tst.w	r0, #2
10003772:	d015      	beq.n	100037a0 <stdio_uart_init_full+0x40>
10003774:	210b      	movs	r1, #11
10003776:	f7fd ff1b 	bl	100015b0 <gpio_set_function>
1000377a:	2c00      	cmp	r4, #0
1000377c:	db06      	blt.n	1000378c <stdio_uart_init_full+0x2c>
1000377e:	f014 0f02 	tst.w	r4, #2
10003782:	d00f      	beq.n	100037a4 <stdio_uart_init_full+0x44>
10003784:	210b      	movs	r1, #11
10003786:	4620      	mov	r0, r4
10003788:	f7fd ff12 	bl	100015b0 <gpio_set_function>
1000378c:	4629      	mov	r1, r5
1000378e:	4b06      	ldr	r3, [pc, #24]	; (100037a8 <stdio_uart_init_full+0x48>)
10003790:	6818      	ldr	r0, [r3, #0]
10003792:	f7fd ff93 	bl	100016bc <uart_init>
10003796:	2101      	movs	r1, #1
10003798:	4804      	ldr	r0, [pc, #16]	; (100037ac <stdio_uart_init_full+0x4c>)
1000379a:	f7ff fe6f 	bl	1000347c <stdio_set_driver_enabled>
1000379e:	bd38      	pop	{r3, r4, r5, pc}
100037a0:	2102      	movs	r1, #2
100037a2:	e7e8      	b.n	10003776 <stdio_uart_init_full+0x16>
100037a4:	2102      	movs	r1, #2
100037a6:	e7ee      	b.n	10003786 <stdio_uart_init_full+0x26>
100037a8:	200031cc 	.word	0x200031cc
100037ac:	20001b4c 	.word	0x20001b4c

100037b0 <stdio_uart_init>:
100037b0:	b508      	push	{r3, lr}
100037b2:	4b07      	ldr	r3, [pc, #28]	; (100037d0 <stdio_uart_init+0x20>)
100037b4:	781b      	ldrb	r3, [r3, #0]
100037b6:	4b07      	ldr	r3, [pc, #28]	; (100037d4 <stdio_uart_init+0x24>)
100037b8:	781b      	ldrb	r3, [r3, #0]
100037ba:	4b07      	ldr	r3, [pc, #28]	; (100037d8 <stdio_uart_init+0x28>)
100037bc:	781b      	ldrb	r3, [r3, #0]
100037be:	2301      	movs	r3, #1
100037c0:	2200      	movs	r2, #0
100037c2:	f44f 31e1 	mov.w	r1, #115200	; 0x1c200
100037c6:	4805      	ldr	r0, [pc, #20]	; (100037dc <stdio_uart_init+0x2c>)
100037c8:	f7ff ffca 	bl	10003760 <stdio_uart_init_full>
100037cc:	bd08      	pop	{r3, pc}
100037ce:	bf00      	nop
100037d0:	10009038 	.word	0x10009038
100037d4:	1000903c 	.word	0x1000903c
100037d8:	10009040 	.word	0x10009040
100037dc:	40070000 	.word	0x40070000

100037e0 <resetd_init>:
100037e0:	4770      	bx	lr
	...

100037e4 <resetd_reset>:
100037e4:	4b01      	ldr	r3, [pc, #4]	; (100037ec <resetd_reset+0x8>)
100037e6:	2200      	movs	r2, #0
100037e8:	701a      	strb	r2, [r3, #0]
100037ea:	4770      	bx	lr
100037ec:	20003211 	.word	0x20003211

100037f0 <resetd_open>:
100037f0:	794b      	ldrb	r3, [r1, #5]
100037f2:	2bff      	cmp	r3, #255	; 0xff
100037f4:	d10b      	bne.n	1000380e <resetd_open+0x1e>
100037f6:	798b      	ldrb	r3, [r1, #6]
100037f8:	b95b      	cbnz	r3, 10003812 <resetd_open+0x22>
100037fa:	79cb      	ldrb	r3, [r1, #7]
100037fc:	2b01      	cmp	r3, #1
100037fe:	d10a      	bne.n	10003816 <resetd_open+0x26>
10003800:	2a08      	cmp	r2, #8
10003802:	d90a      	bls.n	1000381a <resetd_open+0x2a>
10003804:	788a      	ldrb	r2, [r1, #2]
10003806:	4b06      	ldr	r3, [pc, #24]	; (10003820 <resetd_open+0x30>)
10003808:	701a      	strb	r2, [r3, #0]
1000380a:	2009      	movs	r0, #9
1000380c:	4770      	bx	lr
1000380e:	2000      	movs	r0, #0
10003810:	4770      	bx	lr
10003812:	2000      	movs	r0, #0
10003814:	4770      	bx	lr
10003816:	2000      	movs	r0, #0
10003818:	4770      	bx	lr
1000381a:	2000      	movs	r0, #0
1000381c:	4770      	bx	lr
1000381e:	bf00      	nop
10003820:	20003211 	.word	0x20003211

10003824 <resetd_xfer_cb>:
10003824:	2001      	movs	r0, #1
10003826:	4770      	bx	lr

10003828 <resetd_control_xfer_cb>:
10003828:	2901      	cmp	r1, #1
1000382a:	d123      	bne.n	10003874 <resetd_control_xfer_cb+0x4c>
1000382c:	b508      	push	{r3, lr}
1000382e:	8891      	ldrh	r1, [r2, #4]
10003830:	4b11      	ldr	r3, [pc, #68]	; (10003878 <resetd_control_xfer_cb+0x50>)
10003832:	781b      	ldrb	r3, [r3, #0]
10003834:	4299      	cmp	r1, r3
10003836:	d001      	beq.n	1000383c <resetd_control_xfer_cb+0x14>
10003838:	2000      	movs	r0, #0
1000383a:	bd08      	pop	{r3, pc}
1000383c:	7853      	ldrb	r3, [r2, #1]
1000383e:	2b01      	cmp	r3, #1
10003840:	d003      	beq.n	1000384a <resetd_control_xfer_cb+0x22>
10003842:	2b02      	cmp	r3, #2
10003844:	d00f      	beq.n	10003866 <resetd_control_xfer_cb+0x3e>
10003846:	2000      	movs	r0, #0
10003848:	e7f7      	b.n	1000383a <resetd_control_xfer_cb+0x12>
1000384a:	8851      	ldrh	r1, [r2, #2]
1000384c:	f411 7f80 	tst.w	r1, #256	; 0x100
10003850:	d006      	beq.n	10003860 <resetd_control_xfer_cb+0x38>
10003852:	0a48      	lsrs	r0, r1, #9
10003854:	f3c1 2240 	ubfx	r2, r1, #9, #1
10003858:	f001 017f 	and.w	r1, r1, #127	; 0x7f
1000385c:	f7fe f8f9 	bl	10001a52 <rom_reset_usb_boot_extra>
10003860:	f04f 30ff 	mov.w	r0, #4294967295
10003864:	e7f6      	b.n	10003854 <resetd_control_xfer_cb+0x2c>
10003866:	2264      	movs	r2, #100	; 0x64
10003868:	2100      	movs	r1, #0
1000386a:	4608      	mov	r0, r1
1000386c:	f7fe f892 	bl	10001994 <watchdog_reboot>
10003870:	2001      	movs	r0, #1
10003872:	e7e2      	b.n	1000383a <resetd_control_xfer_cb+0x12>
10003874:	2001      	movs	r0, #1
10003876:	4770      	bx	lr
10003878:	20003211 	.word	0x20003211

1000387c <tud_descriptor_bos_cb>:
1000387c:	4800      	ldr	r0, [pc, #0]	; (10003880 <tud_descriptor_bos_cb+0x4>)
1000387e:	4770      	bx	lr
10003880:	10008660 	.word	0x10008660

10003884 <tud_vendor_control_xfer_cb>:
10003884:	2901      	cmp	r1, #1
10003886:	d10f      	bne.n	100038a8 <tud_vendor_control_xfer_cb+0x24>
10003888:	b508      	push	{r3, lr}
1000388a:	4694      	mov	ip, r2
1000388c:	7853      	ldrb	r3, [r2, #1]
1000388e:	2b01      	cmp	r3, #1
10003890:	d10c      	bne.n	100038ac <tud_vendor_control_xfer_cb+0x28>
10003892:	8893      	ldrh	r3, [r2, #4]
10003894:	2b07      	cmp	r3, #7
10003896:	d001      	beq.n	1000389c <tud_vendor_control_xfer_cb+0x18>
10003898:	2000      	movs	r0, #0
1000389a:	e008      	b.n	100038ae <tud_vendor_control_xfer_cb+0x2a>
1000389c:	23a6      	movs	r3, #166	; 0xa6
1000389e:	4a04      	ldr	r2, [pc, #16]	; (100038b0 <tud_vendor_control_xfer_cb+0x2c>)
100038a0:	4661      	mov	r1, ip
100038a2:	f001 fbe9 	bl	10005078 <tud_control_xfer>
100038a6:	e002      	b.n	100038ae <tud_vendor_control_xfer_cb+0x2a>
100038a8:	2001      	movs	r0, #1
100038aa:	4770      	bx	lr
100038ac:	2000      	movs	r0, #0
100038ae:	bd08      	pop	{r3, pc}
100038b0:	10008684 	.word	0x10008684

100038b4 <usbd_app_driver_get_cb>:
100038b4:	2301      	movs	r3, #1
100038b6:	7003      	strb	r3, [r0, #0]
100038b8:	4800      	ldr	r0, [pc, #0]	; (100038bc <usbd_app_driver_get_cb+0x8>)
100038ba:	4770      	bx	lr
100038bc:	10008640 	.word	0x10008640

100038c0 <tud_cdc_line_coding_cb>:
100038c0:	b508      	push	{r3, lr}
100038c2:	680b      	ldr	r3, [r1, #0]
100038c4:	f5b3 6f96 	cmp.w	r3, #1200	; 0x4b0
100038c8:	d000      	beq.n	100038cc <tud_cdc_line_coding_cb+0xc>
100038ca:	bd08      	pop	{r3, pc}
100038cc:	2200      	movs	r2, #0
100038ce:	4611      	mov	r1, r2
100038d0:	f04f 30ff 	mov.w	r0, #4294967295
100038d4:	f7fe f8bd 	bl	10001a52 <rom_reset_usb_boot_extra>

100038d8 <stdio_usb_set_chars_available_callback>:
100038d8:	4b02      	ldr	r3, [pc, #8]	; (100038e4 <stdio_usb_set_chars_available_callback+0xc>)
100038da:	6018      	str	r0, [r3, #0]
100038dc:	4b02      	ldr	r3, [pc, #8]	; (100038e8 <stdio_usb_set_chars_available_callback+0x10>)
100038de:	6019      	str	r1, [r3, #0]
100038e0:	4770      	bx	lr
100038e2:	bf00      	nop
100038e4:	20002bb8 	.word	0x20002bb8
100038e8:	20002bc0 	.word	0x20002bc0

100038ec <stdio_usb_out_flush>:
100038ec:	b508      	push	{r3, lr}
100038ee:	f7fd f9f1 	bl	10000cd4 <time_us_64>
100038f2:	4a0e      	ldr	r2, [pc, #56]	; (1000392c <stdio_usb_out_flush+0x40>)
100038f4:	1882      	adds	r2, r0, r2
100038f6:	f141 0300 	adc.w	r3, r1, #0
100038fa:	2b00      	cmp	r3, #0
100038fc:	db11      	blt.n	10003922 <stdio_usb_out_flush+0x36>
100038fe:	480c      	ldr	r0, [pc, #48]	; (10003930 <stdio_usb_out_flush+0x44>)
10003900:	f004 f986 	bl	10007c10 <__mutex_try_enter_block_until_veneer>
10003904:	b160      	cbz	r0, 10003920 <stdio_usb_out_flush+0x34>
10003906:	2100      	movs	r1, #0
10003908:	f04f 30ff 	mov.w	r0, #4294967295
1000390c:	f001 fa44 	bl	10004d98 <tud_task_ext>
10003910:	2000      	movs	r0, #0
10003912:	f001 fd4f 	bl	100053b4 <tud_cdc_n_write_flush>
10003916:	2800      	cmp	r0, #0
10003918:	d1f5      	bne.n	10003906 <stdio_usb_out_flush+0x1a>
1000391a:	4805      	ldr	r0, [pc, #20]	; (10003930 <stdio_usb_out_flush+0x44>)
1000391c:	f004 f940 	bl	10007ba0 <__mutex_exit_veneer>
10003920:	bd08      	pop	{r3, pc}
10003922:	f04f 32ff 	mov.w	r2, #4294967295
10003926:	f06f 4300 	mvn.w	r3, #2147483648	; 0x80000000
1000392a:	e7e8      	b.n	100038fe <stdio_usb_out_flush+0x12>
1000392c:	000f4240 	.word	0x000f4240
10003930:	20003184 	.word	0x20003184

10003934 <timer_task>:
10003934:	b538      	push	{r3, r4, r5, lr}
10003936:	4b18      	ldr	r3, [pc, #96]	; (10003998 <timer_task+0x64>)
10003938:	681b      	ldr	r3, [r3, #0]
1000393a:	b31b      	cbz	r3, 10003984 <timer_task+0x50>
1000393c:	f3ef 8210 	mrs	r2, PRIMASK
10003940:	b672      	cpsid	i
10003942:	e8d3 0fcf 	ldaexb	r0, [r3]
10003946:	2101      	movs	r1, #1
10003948:	2800      	cmp	r0, #0
1000394a:	d1fa      	bne.n	10003942 <timer_task+0xe>
1000394c:	e8c3 1f40 	strexb	r0, r1, [r3]
10003950:	2800      	cmp	r0, #0
10003952:	d1f6      	bne.n	10003942 <timer_task+0xe>
10003954:	f3bf 8f5f 	dmb	sy
10003958:	490f      	ldr	r1, [pc, #60]	; (10003998 <timer_task+0x64>)
1000395a:	604a      	str	r2, [r1, #4]
1000395c:	2300      	movs	r3, #0
1000395e:	480f      	ldr	r0, [pc, #60]	; (1000399c <timer_task+0x68>)
10003960:	7003      	strb	r3, [r0, #0]
10003962:	6809      	ldr	r1, [r1, #0]
10003964:	e8c1 3f8f 	stlb	r3, [r1]
10003968:	f382 8810 	msr	PRIMASK, r2
1000396c:	2400      	movs	r4, #0
1000396e:	2500      	movs	r5, #0
10003970:	4b0b      	ldr	r3, [pc, #44]	; (100039a0 <timer_task+0x6c>)
10003972:	7818      	ldrb	r0, [r3, #0]
10003974:	f7fd fae2 	bl	10000f3c <irq_is_enabled>
10003978:	b940      	cbnz	r0, 1000398c <timer_task+0x58>
1000397a:	2400      	movs	r4, #0
1000397c:	2500      	movs	r5, #0
1000397e:	4620      	mov	r0, r4
10003980:	4629      	mov	r1, r5
10003982:	bd38      	pop	{r3, r4, r5, pc}
10003984:	f44f 747a 	mov.w	r4, #1000	; 0x3e8
10003988:	2500      	movs	r5, #0
1000398a:	e7f1      	b.n	10003970 <timer_task+0x3c>
1000398c:	4b04      	ldr	r3, [pc, #16]	; (100039a0 <timer_task+0x6c>)
1000398e:	7818      	ldrb	r0, [r3, #0]
10003990:	f7fd fb0a 	bl	10000fa8 <irq_set_pending>
10003994:	e7f3      	b.n	1000397e <timer_task+0x4a>
10003996:	bf00      	nop
10003998:	2000304c 	.word	0x2000304c
1000399c:	20003213 	.word	0x20003213
100039a0:	20003212 	.word	0x20003212

100039a4 <usb_irq>:
100039a4:	b508      	push	{r3, lr}
100039a6:	4b02      	ldr	r3, [pc, #8]	; (100039b0 <usb_irq+0xc>)
100039a8:	7818      	ldrb	r0, [r3, #0]
100039aa:	f7fd fafd 	bl	10000fa8 <irq_set_pending>
100039ae:	bd08      	pop	{r3, pc}
100039b0:	20003212 	.word	0x20003212

100039b4 <low_priority_worker_irq>:
100039b4:	b510      	push	{r4, lr}
100039b6:	b084      	sub	sp, #16
100039b8:	2100      	movs	r1, #0
100039ba:	482b      	ldr	r0, [pc, #172]	; (10003a68 <low_priority_worker_irq+0xb4>)
100039bc:	f004 f908 	bl	10007bd0 <__mutex_try_enter_veneer>
100039c0:	bb08      	cbnz	r0, 10003a06 <low_priority_worker_irq+0x52>
100039c2:	4b2a      	ldr	r3, [pc, #168]	; (10003a6c <low_priority_worker_irq+0xb8>)
100039c4:	681b      	ldr	r3, [r3, #0]
100039c6:	b1e3      	cbz	r3, 10003a02 <low_priority_worker_irq+0x4e>
100039c8:	f3ef 8210 	mrs	r2, PRIMASK
100039cc:	b672      	cpsid	i
100039ce:	e8d3 0fcf 	ldaexb	r0, [r3]
100039d2:	2101      	movs	r1, #1
100039d4:	2800      	cmp	r0, #0
100039d6:	d1fa      	bne.n	100039ce <low_priority_worker_irq+0x1a>
100039d8:	e8c3 1f40 	strexb	r0, r1, [r3]
100039dc:	2800      	cmp	r0, #0
100039de:	d1f6      	bne.n	100039ce <low_priority_worker_irq+0x1a>
100039e0:	f3bf 8f5f 	dmb	sy
100039e4:	4921      	ldr	r1, [pc, #132]	; (10003a6c <low_priority_worker_irq+0xb8>)
100039e6:	604a      	str	r2, [r1, #4]
100039e8:	4821      	ldr	r0, [pc, #132]	; (10003a70 <low_priority_worker_irq+0xbc>)
100039ea:	7803      	ldrb	r3, [r0, #0]
100039ec:	f083 0301 	eor.w	r3, r3, #1
100039f0:	2401      	movs	r4, #1
100039f2:	7004      	strb	r4, [r0, #0]
100039f4:	6808      	ldr	r0, [r1, #0]
100039f6:	2100      	movs	r1, #0
100039f8:	e8c0 1f8f 	stlb	r1, [r0]
100039fc:	f382 8810 	msr	PRIMASK, r2
10003a00:	b9bb      	cbnz	r3, 10003a32 <low_priority_worker_irq+0x7e>
10003a02:	b004      	add	sp, #16
10003a04:	bd10      	pop	{r4, pc}
10003a06:	2100      	movs	r1, #0
10003a08:	f04f 30ff 	mov.w	r0, #4294967295
10003a0c:	f001 f9c4 	bl	10004d98 <tud_task_ext>
10003a10:	2000      	movs	r0, #0
10003a12:	f001 fca9 	bl	10005368 <tud_cdc_n_available>
10003a16:	4604      	mov	r4, r0
10003a18:	4813      	ldr	r0, [pc, #76]	; (10003a68 <low_priority_worker_irq+0xb4>)
10003a1a:	f004 f8c1 	bl	10007ba0 <__mutex_exit_veneer>
10003a1e:	2c00      	cmp	r4, #0
10003a20:	d0ef      	beq.n	10003a02 <low_priority_worker_irq+0x4e>
10003a22:	4b14      	ldr	r3, [pc, #80]	; (10003a74 <low_priority_worker_irq+0xc0>)
10003a24:	681b      	ldr	r3, [r3, #0]
10003a26:	2b00      	cmp	r3, #0
10003a28:	d0eb      	beq.n	10003a02 <low_priority_worker_irq+0x4e>
10003a2a:	4a13      	ldr	r2, [pc, #76]	; (10003a78 <low_priority_worker_irq+0xc4>)
10003a2c:	6810      	ldr	r0, [r2, #0]
10003a2e:	4798      	blx	r3
10003a30:	e7e7      	b.n	10003a02 <low_priority_worker_irq+0x4e>
10003a32:	f7fc ff9f 	bl	10000974 <alarm_pool_get_default>
10003a36:	4604      	mov	r4, r0
10003a38:	f7fd f94c 	bl	10000cd4 <time_us_64>
10003a3c:	f510 727a 	adds.w	r2, r0, #1000	; 0x3e8
10003a40:	f141 0300 	adc.w	r3, r1, #0
10003a44:	2b00      	cmp	r3, #0
10003a46:	db09      	blt.n	10003a5c <low_priority_worker_irq+0xa8>
10003a48:	2101      	movs	r1, #1
10003a4a:	9102      	str	r1, [sp, #8]
10003a4c:	2100      	movs	r1, #0
10003a4e:	9101      	str	r1, [sp, #4]
10003a50:	490a      	ldr	r1, [pc, #40]	; (10003a7c <low_priority_worker_irq+0xc8>)
10003a52:	9100      	str	r1, [sp, #0]
10003a54:	4620      	mov	r0, r4
10003a56:	f7fc fffe 	bl	10000a56 <alarm_pool_add_alarm_at>
10003a5a:	e7d2      	b.n	10003a02 <low_priority_worker_irq+0x4e>
10003a5c:	f04f 32ff 	mov.w	r2, #4294967295
10003a60:	f06f 4300 	mvn.w	r3, #2147483648	; 0x80000000
10003a64:	e7f0      	b.n	10003a48 <low_priority_worker_irq+0x94>
10003a66:	bf00      	nop
10003a68:	20003184 	.word	0x20003184
10003a6c:	2000304c 	.word	0x2000304c
10003a70:	20003213 	.word	0x20003213
10003a74:	20002bb8 	.word	0x20002bb8
10003a78:	20002bc0 	.word	0x20002bc0
10003a7c:	10003935 	.word	0x10003935

10003a80 <stdio_usb_init>:
10003a80:	b510      	push	{r4, lr}
10003a82:	b084      	sub	sp, #16
10003a84:	f04f 4350 	mov.w	r3, #3489660928	; 0xd0000000
10003a88:	681c      	ldr	r4, [r3, #0]
10003a8a:	f7fc ff73 	bl	10000974 <alarm_pool_get_default>
10003a8e:	f7fd f837 	bl	10000b00 <alarm_pool_core_num>
10003a92:	42a0      	cmp	r0, r4
10003a94:	d12d      	bne.n	10003af2 <stdio_usb_init+0x72>
10003a96:	4b2d      	ldr	r3, [pc, #180]	; (10003b4c <stdio_usb_init+0xcc>)
10003a98:	781b      	ldrb	r3, [r3, #0]
10003a9a:	2100      	movs	r1, #0
10003a9c:	4608      	mov	r0, r1
10003a9e:	f002 f93b 	bl	10005d18 <tusb_rhport_init>
10003aa2:	4b2b      	ldr	r3, [pc, #172]	; (10003b50 <stdio_usb_init+0xd0>)
10003aa4:	681b      	ldr	r3, [r3, #0]
10003aa6:	b353      	cbz	r3, 10003afe <stdio_usb_init+0x7e>
10003aa8:	2001      	movs	r0, #1
10003aaa:	f7fd fd6b 	bl	10001584 <user_irq_claim_unused>
10003aae:	b2c0      	uxtb	r0, r0
10003ab0:	4c28      	ldr	r4, [pc, #160]	; (10003b54 <stdio_usb_init+0xd4>)
10003ab2:	7020      	strb	r0, [r4, #0]
10003ab4:	4928      	ldr	r1, [pc, #160]	; (10003b58 <stdio_usb_init+0xd8>)
10003ab6:	f7fd fa97 	bl	10000fe8 <irq_set_exclusive_handler>
10003aba:	2101      	movs	r1, #1
10003abc:	7820      	ldrb	r0, [r4, #0]
10003abe:	f7fd fa69 	bl	10000f94 <irq_set_enabled>
10003ac2:	200e      	movs	r0, #14
10003ac4:	f7fd fa84 	bl	10000fd0 <irq_has_shared_handler>
10003ac8:	4604      	mov	r4, r0
10003aca:	b1e0      	cbz	r0, 10003b06 <stdio_usb_init+0x86>
10003acc:	2001      	movs	r0, #1
10003ace:	f7fd f995 	bl	10000dfc <spin_lock_claim_unused>
10003ad2:	4601      	mov	r1, r0
10003ad4:	4821      	ldr	r0, [pc, #132]	; (10003b5c <stdio_usb_init+0xdc>)
10003ad6:	f7fc fd41 	bl	1000055c <critical_section_init_with_lock_num>
10003ada:	2200      	movs	r2, #0
10003adc:	4920      	ldr	r1, [pc, #128]	; (10003b60 <stdio_usb_init+0xe0>)
10003ade:	200e      	movs	r0, #14
10003ae0:	f7fd fab2 	bl	10001048 <irq_add_shared_handler>
10003ae4:	2101      	movs	r1, #1
10003ae6:	481f      	ldr	r0, [pc, #124]	; (10003b64 <stdio_usb_init+0xe4>)
10003ae8:	f7ff fcc8 	bl	1000347c <stdio_set_driver_enabled>
10003aec:	4620      	mov	r0, r4
10003aee:	b004      	add	sp, #16
10003af0:	bd10      	pop	{r4, pc}
10003af2:	4b1d      	ldr	r3, [pc, #116]	; (10003b68 <stdio_usb_init+0xe8>)
10003af4:	4a1d      	ldr	r2, [pc, #116]	; (10003b6c <stdio_usb_init+0xec>)
10003af6:	21c6      	movs	r1, #198	; 0xc6
10003af8:	481d      	ldr	r0, [pc, #116]	; (10003b70 <stdio_usb_init+0xf0>)
10003afa:	f7ff fb77 	bl	100031ec <__assert_func>
10003afe:	4814      	ldr	r0, [pc, #80]	; (10003b50 <stdio_usb_init+0xd0>)
10003b00:	f7fc fcea 	bl	100004d8 <mutex_init>
10003b04:	e7d0      	b.n	10003aa8 <stdio_usb_init+0x28>
10003b06:	4b15      	ldr	r3, [pc, #84]	; (10003b5c <stdio_usb_init+0xdc>)
10003b08:	2200      	movs	r2, #0
10003b0a:	601a      	str	r2, [r3, #0]
10003b0c:	605a      	str	r2, [r3, #4]
10003b0e:	f7fc ff31 	bl	10000974 <alarm_pool_get_default>
10003b12:	4604      	mov	r4, r0
10003b14:	f7fd f8de 	bl	10000cd4 <time_us_64>
10003b18:	f510 727a 	adds.w	r2, r0, #1000	; 0x3e8
10003b1c:	f141 0300 	adc.w	r3, r1, #0
10003b20:	2b00      	cmp	r3, #0
10003b22:	db0d      	blt.n	10003b40 <stdio_usb_init+0xc0>
10003b24:	2101      	movs	r1, #1
10003b26:	9102      	str	r1, [sp, #8]
10003b28:	2100      	movs	r1, #0
10003b2a:	9101      	str	r1, [sp, #4]
10003b2c:	4911      	ldr	r1, [pc, #68]	; (10003b74 <stdio_usb_init+0xf4>)
10003b2e:	9100      	str	r1, [sp, #0]
10003b30:	4620      	mov	r0, r4
10003b32:	f7fc ff90 	bl	10000a56 <alarm_pool_add_alarm_at>
10003b36:	43c4      	mvns	r4, r0
10003b38:	0fe4      	lsrs	r4, r4, #31
10003b3a:	2c00      	cmp	r4, #0
10003b3c:	d0d6      	beq.n	10003aec <stdio_usb_init+0x6c>
10003b3e:	e7d1      	b.n	10003ae4 <stdio_usb_init+0x64>
10003b40:	f04f 32ff 	mov.w	r2, #4294967295
10003b44:	f06f 4300 	mvn.w	r3, #2147483648	; 0x80000000
10003b48:	e7ec      	b.n	10003b24 <stdio_usb_init+0xa4>
10003b4a:	bf00      	nop
10003b4c:	10009044 	.word	0x10009044
10003b50:	20003184 	.word	0x20003184
10003b54:	20003212 	.word	0x20003212
10003b58:	100039b5 	.word	0x100039b5
10003b5c:	2000304c 	.word	0x2000304c
10003b60:	100039a5 	.word	0x100039a5
10003b64:	20001b64 	.word	0x20001b64
10003b68:	10008248 	.word	0x10008248
10003b6c:	10008788 	.word	0x10008788
10003b70:	1000872c 	.word	0x1000872c
10003b74:	10003935 	.word	0x10003935

10003b78 <stdio_usb_connected>:
10003b78:	b508      	push	{r3, lr}
10003b7a:	2000      	movs	r0, #0
10003b7c:	f001 fbd6 	bl	1000532c <tud_cdc_n_connected>
10003b80:	bd08      	pop	{r3, pc}
	...

10003b84 <stdio_usb_in_chars>:
10003b84:	b538      	push	{r3, r4, r5, lr}
10003b86:	4604      	mov	r4, r0
10003b88:	460d      	mov	r5, r1
10003b8a:	f7ff fff5 	bl	10003b78 <stdio_usb_connected>
10003b8e:	b390      	cbz	r0, 10003bf6 <stdio_usb_in_chars+0x72>
10003b90:	2000      	movs	r0, #0
10003b92:	f001 fbe9 	bl	10005368 <tud_cdc_n_available>
10003b96:	b388      	cbz	r0, 10003bfc <stdio_usb_in_chars+0x78>
10003b98:	f7fd f89c 	bl	10000cd4 <time_us_64>
10003b9c:	4a1a      	ldr	r2, [pc, #104]	; (10003c08 <stdio_usb_in_chars+0x84>)
10003b9e:	1882      	adds	r2, r0, r2
10003ba0:	f141 0300 	adc.w	r3, r1, #0
10003ba4:	2b00      	cmp	r3, #0
10003ba6:	db16      	blt.n	10003bd6 <stdio_usb_in_chars+0x52>
10003ba8:	4818      	ldr	r0, [pc, #96]	; (10003c0c <stdio_usb_in_chars+0x88>)
10003baa:	f004 f831 	bl	10007c10 <__mutex_try_enter_block_until_veneer>
10003bae:	b340      	cbz	r0, 10003c02 <stdio_usb_in_chars+0x7e>
10003bb0:	f7ff ffe2 	bl	10003b78 <stdio_usb_connected>
10003bb4:	b118      	cbz	r0, 10003bbe <stdio_usb_in_chars+0x3a>
10003bb6:	2000      	movs	r0, #0
10003bb8:	f001 fbd6 	bl	10005368 <tud_cdc_n_available>
10003bbc:	b980      	cbnz	r0, 10003be0 <stdio_usb_in_chars+0x5c>
10003bbe:	2100      	movs	r1, #0
10003bc0:	f04f 30ff 	mov.w	r0, #4294967295
10003bc4:	f001 f8e8 	bl	10004d98 <tud_task_ext>
10003bc8:	f06f 0402 	mvn.w	r4, #2
10003bcc:	480f      	ldr	r0, [pc, #60]	; (10003c0c <stdio_usb_in_chars+0x88>)
10003bce:	f003 ffe7 	bl	10007ba0 <__mutex_exit_veneer>
10003bd2:	4620      	mov	r0, r4
10003bd4:	bd38      	pop	{r3, r4, r5, pc}
10003bd6:	f04f 32ff 	mov.w	r2, #4294967295
10003bda:	f06f 4300 	mvn.w	r3, #2147483648	; 0x80000000
10003bde:	e7e3      	b.n	10003ba8 <stdio_usb_in_chars+0x24>
10003be0:	462a      	mov	r2, r5
10003be2:	4621      	mov	r1, r4
10003be4:	2000      	movs	r0, #0
10003be6:	f001 fbcb 	bl	10005380 <tud_cdc_n_read>
10003bea:	4604      	mov	r4, r0
10003bec:	2800      	cmp	r0, #0
10003bee:	d1ed      	bne.n	10003bcc <stdio_usb_in_chars+0x48>
10003bf0:	f06f 0402 	mvn.w	r4, #2
10003bf4:	e7ea      	b.n	10003bcc <stdio_usb_in_chars+0x48>
10003bf6:	f06f 0402 	mvn.w	r4, #2
10003bfa:	e7ea      	b.n	10003bd2 <stdio_usb_in_chars+0x4e>
10003bfc:	f06f 0402 	mvn.w	r4, #2
10003c00:	e7e7      	b.n	10003bd2 <stdio_usb_in_chars+0x4e>
10003c02:	f06f 0402 	mvn.w	r4, #2
10003c06:	e7e4      	b.n	10003bd2 <stdio_usb_in_chars+0x4e>
10003c08:	000f4240 	.word	0x000f4240
10003c0c:	20003184 	.word	0x20003184

10003c10 <stdio_usb_out_chars>:
10003c10:	b5f8      	push	{r3, r4, r5, r6, r7, lr}
10003c12:	4607      	mov	r7, r0
10003c14:	460d      	mov	r5, r1
10003c16:	f7fd f85d 	bl	10000cd4 <time_us_64>
10003c1a:	4a2e      	ldr	r2, [pc, #184]	; (10003cd4 <stdio_usb_out_chars+0xc4>)
10003c1c:	1882      	adds	r2, r0, r2
10003c1e:	f141 0300 	adc.w	r3, r1, #0
10003c22:	2b00      	cmp	r3, #0
10003c24:	db04      	blt.n	10003c30 <stdio_usb_out_chars+0x20>
10003c26:	482c      	ldr	r0, [pc, #176]	; (10003cd8 <stdio_usb_out_chars+0xc8>)
10003c28:	f003 fff2 	bl	10007c10 <__mutex_try_enter_block_until_veneer>
10003c2c:	b928      	cbnz	r0, 10003c3a <stdio_usb_out_chars+0x2a>
10003c2e:	bdf8      	pop	{r3, r4, r5, r6, r7, pc}
10003c30:	f04f 32ff 	mov.w	r2, #4294967295
10003c34:	f06f 4300 	mvn.w	r3, #2147483648	; 0x80000000
10003c38:	e7f5      	b.n	10003c26 <stdio_usb_out_chars+0x16>
10003c3a:	f7ff ff9d 	bl	10003b78 <stdio_usb_connected>
10003c3e:	2800      	cmp	r0, #0
10003c40:	d146      	bne.n	10003cd0 <stdio_usb_out_chars+0xc0>
10003c42:	4b26      	ldr	r3, [pc, #152]	; (10003cdc <stdio_usb_out_chars+0xcc>)
10003c44:	2000      	movs	r0, #0
10003c46:	2100      	movs	r1, #0
10003c48:	e9c3 0100 	strd	r0, r1, [r3]
10003c4c:	4822      	ldr	r0, [pc, #136]	; (10003cd8 <stdio_usb_out_chars+0xc8>)
10003c4e:	f003 ffa7 	bl	10007ba0 <__mutex_exit_veneer>
10003c52:	e7ec      	b.n	10003c2e <stdio_usb_out_chars+0x1e>
10003c54:	2100      	movs	r1, #0
10003c56:	f04f 30ff 	mov.w	r0, #4294967295
10003c5a:	f001 f89d 	bl	10004d98 <tud_task_ext>
10003c5e:	2000      	movs	r0, #0
10003c60:	f001 fba8 	bl	100053b4 <tud_cdc_n_write_flush>
10003c64:	f7ff ff88 	bl	10003b78 <stdio_usb_connected>
10003c68:	2800      	cmp	r0, #0
10003c6a:	d0ef      	beq.n	10003c4c <stdio_usb_out_chars+0x3c>
10003c6c:	2000      	movs	r0, #0
10003c6e:	f001 fc27 	bl	100054c0 <tud_cdc_n_write_available>
10003c72:	b1f8      	cbz	r0, 10003cb4 <stdio_usb_out_chars+0xa4>
10003c74:	42ac      	cmp	r4, r5
10003c76:	dae9      	bge.n	10003c4c <stdio_usb_out_chars+0x3c>
10003c78:	1b2e      	subs	r6, r5, r4
10003c7a:	2000      	movs	r0, #0
10003c7c:	f001 fc20 	bl	100054c0 <tud_cdc_n_write_available>
10003c80:	4286      	cmp	r6, r0
10003c82:	dc00      	bgt.n	10003c86 <stdio_usb_out_chars+0x76>
10003c84:	4630      	mov	r0, r6
10003c86:	2800      	cmp	r0, #0
10003c88:	d0e4      	beq.n	10003c54 <stdio_usb_out_chars+0x44>
10003c8a:	4602      	mov	r2, r0
10003c8c:	1939      	adds	r1, r7, r4
10003c8e:	2000      	movs	r0, #0
10003c90:	f001 fbf2 	bl	10005478 <tud_cdc_n_write>
10003c94:	4606      	mov	r6, r0
10003c96:	2100      	movs	r1, #0
10003c98:	f04f 30ff 	mov.w	r0, #4294967295
10003c9c:	f001 f87c 	bl	10004d98 <tud_task_ext>
10003ca0:	2000      	movs	r0, #0
10003ca2:	f001 fb87 	bl	100053b4 <tud_cdc_n_write_flush>
10003ca6:	4434      	add	r4, r6
10003ca8:	f7fd f814 	bl	10000cd4 <time_us_64>
10003cac:	4b0b      	ldr	r3, [pc, #44]	; (10003cdc <stdio_usb_out_chars+0xcc>)
10003cae:	e9c3 0100 	strd	r0, r1, [r3]
10003cb2:	e7df      	b.n	10003c74 <stdio_usb_out_chars+0x64>
10003cb4:	f7fd f80e 	bl	10000cd4 <time_us_64>
10003cb8:	4a08      	ldr	r2, [pc, #32]	; (10003cdc <stdio_usb_out_chars+0xcc>)
10003cba:	6813      	ldr	r3, [r2, #0]
10003cbc:	6852      	ldr	r2, [r2, #4]
10003cbe:	4e08      	ldr	r6, [pc, #32]	; (10003ce0 <stdio_usb_out_chars+0xd0>)
10003cc0:	199b      	adds	r3, r3, r6
10003cc2:	f142 0200 	adc.w	r2, r2, #0
10003cc6:	4283      	cmp	r3, r0
10003cc8:	eb72 0301 	sbcs.w	r3, r2, r1
10003ccc:	d2d2      	bcs.n	10003c74 <stdio_usb_out_chars+0x64>
10003cce:	e7bd      	b.n	10003c4c <stdio_usb_out_chars+0x3c>
10003cd0:	2400      	movs	r4, #0
10003cd2:	e7cf      	b.n	10003c74 <stdio_usb_out_chars+0x64>
10003cd4:	000f4240 	.word	0x000f4240
10003cd8:	20003184 	.word	0x20003184
10003cdc:	20002578 	.word	0x20002578
10003ce0:	0007a120 	.word	0x0007a120

10003ce4 <tud_descriptor_device_cb>:
10003ce4:	4800      	ldr	r0, [pc, #0]	; (10003ce8 <tud_descriptor_device_cb+0x4>)
10003ce6:	4770      	bx	lr
10003ce8:	10008818 	.word	0x10008818

10003cec <tud_descriptor_configuration_cb>:
10003cec:	4800      	ldr	r0, [pc, #0]	; (10003cf0 <tud_descriptor_configuration_cb+0x4>)
10003cee:	4770      	bx	lr
10003cf0:	100087c4 	.word	0x100087c4

10003cf4 <tud_descriptor_string_cb>:
10003cf4:	b510      	push	{r4, lr}
10003cf6:	4604      	mov	r4, r0
10003cf8:	4b14      	ldr	r3, [pc, #80]	; (10003d4c <tud_descriptor_string_cb+0x58>)
10003cfa:	781b      	ldrb	r3, [r3, #0]
10003cfc:	b16b      	cbz	r3, 10003d1a <tud_descriptor_string_cb+0x26>
10003cfe:	b98c      	cbnz	r4, 10003d24 <tud_descriptor_string_cb+0x30>
10003d00:	4b13      	ldr	r3, [pc, #76]	; (10003d50 <tud_descriptor_string_cb+0x5c>)
10003d02:	f240 4209 	movw	r2, #1033	; 0x409
10003d06:	805a      	strh	r2, [r3, #2]
10003d08:	2301      	movs	r3, #1
10003d0a:	3301      	adds	r3, #1
10003d0c:	005b      	lsls	r3, r3, #1
10003d0e:	b21b      	sxth	r3, r3
10003d10:	f443 7340 	orr.w	r3, r3, #768	; 0x300
10003d14:	480e      	ldr	r0, [pc, #56]	; (10003d50 <tud_descriptor_string_cb+0x5c>)
10003d16:	8003      	strh	r3, [r0, #0]
10003d18:	bd10      	pop	{r4, pc}
10003d1a:	2111      	movs	r1, #17
10003d1c:	480b      	ldr	r0, [pc, #44]	; (10003d4c <tud_descriptor_string_cb+0x58>)
10003d1e:	f000 f847 	bl	10003db0 <pico_get_unique_board_id_string>
10003d22:	e7ec      	b.n	10003cfe <tud_descriptor_string_cb+0xa>
10003d24:	2c05      	cmp	r4, #5
10003d26:	d80e      	bhi.n	10003d46 <tud_descriptor_string_cb+0x52>
10003d28:	4b0a      	ldr	r3, [pc, #40]	; (10003d54 <tud_descriptor_string_cb+0x60>)
10003d2a:	f853 0024 	ldr.w	r0, [r3, r4, lsl #2]
10003d2e:	2300      	movs	r3, #0
10003d30:	2b12      	cmp	r3, #18
10003d32:	d8ea      	bhi.n	10003d0a <tud_descriptor_string_cb+0x16>
10003d34:	5cc2      	ldrb	r2, [r0, r3]
10003d36:	2a00      	cmp	r2, #0
10003d38:	d0e7      	beq.n	10003d0a <tud_descriptor_string_cb+0x16>
10003d3a:	3301      	adds	r3, #1
10003d3c:	4904      	ldr	r1, [pc, #16]	; (10003d50 <tud_descriptor_string_cb+0x5c>)
10003d3e:	f821 2013 	strh.w	r2, [r1, r3, lsl #1]
10003d42:	b2db      	uxtb	r3, r3
10003d44:	e7f4      	b.n	10003d30 <tud_descriptor_string_cb+0x3c>
10003d46:	2000      	movs	r0, #0
10003d48:	e7e6      	b.n	10003d18 <tud_descriptor_string_cb+0x24>
10003d4a:	bf00      	nop
10003d4c:	200031d0 	.word	0x200031d0
10003d50:	20002bf8 	.word	0x20002bf8
10003d54:	1000882c 	.word	0x1000882c

10003d58 <_retrieve_unique_id_on_boot>:
10003d58:	b500      	push	{lr}
10003d5a:	b08b      	sub	sp, #44	; 0x2c
10003d5c:	f245 3047 	movw	r0, #21319	; 0x5347
10003d60:	f7fd fe68 	bl	10001a34 <rom_func_lookup>
10003d64:	4603      	mov	r3, r0
10003d66:	2201      	movs	r2, #1
10003d68:	2109      	movs	r1, #9
10003d6a:	a801      	add	r0, sp, #4
10003d6c:	4798      	blx	r3
10003d6e:	2804      	cmp	r0, #4
10003d70:	d101      	bne.n	10003d76 <_retrieve_unique_id_on_boot+0x1e>
10003d72:	2300      	movs	r3, #0
10003d74:	e00e      	b.n	10003d94 <_retrieve_unique_id_on_boot+0x3c>
10003d76:	4b0a      	ldr	r3, [pc, #40]	; (10003da0 <_retrieve_unique_id_on_boot+0x48>)
10003d78:	4a0a      	ldr	r2, [pc, #40]	; (10003da4 <_retrieve_unique_id_on_boot+0x4c>)
10003d7a:	212f      	movs	r1, #47	; 0x2f
10003d7c:	480a      	ldr	r0, [pc, #40]	; (10003da8 <_retrieve_unique_id_on_boot+0x50>)
10003d7e:	f7ff fa35 	bl	100031ec <__assert_func>
10003d82:	f1c3 020f 	rsb	r2, r3, #15
10003d86:	3228      	adds	r2, #40	; 0x28
10003d88:	446a      	add	r2, sp
10003d8a:	f812 1c24 	ldrb.w	r1, [r2, #-36]
10003d8e:	4a07      	ldr	r2, [pc, #28]	; (10003dac <_retrieve_unique_id_on_boot+0x54>)
10003d90:	54d1      	strb	r1, [r2, r3]
10003d92:	3301      	adds	r3, #1
10003d94:	2b07      	cmp	r3, #7
10003d96:	ddf4      	ble.n	10003d82 <_retrieve_unique_id_on_boot+0x2a>
10003d98:	b00b      	add	sp, #44	; 0x2c
10003d9a:	f85d fb04 	ldr.w	pc, [sp], #4
10003d9e:	bf00      	nop
10003da0:	10008844 	.word	0x10008844
10003da4:	100088b0 	.word	0x100088b0
10003da8:	1000884c 	.word	0x1000884c
10003dac:	20003074 	.word	0x20003074

10003db0 <pico_get_unique_board_id_string>:
10003db0:	b508      	push	{r3, lr}
10003db2:	b111      	cbz	r1, 10003dba <pico_get_unique_board_id_string+0xa>
10003db4:	468c      	mov	ip, r1
10003db6:	2200      	movs	r2, #0
10003db8:	e00a      	b.n	10003dd0 <pico_get_unique_board_id_string+0x20>
10003dba:	4b11      	ldr	r3, [pc, #68]	; (10003e00 <pico_get_unique_board_id_string+0x50>)
10003dbc:	4a11      	ldr	r2, [pc, #68]	; (10003e04 <pico_get_unique_board_id_string+0x54>)
10003dbe:	213b      	movs	r1, #59	; 0x3b
10003dc0:	4811      	ldr	r0, [pc, #68]	; (10003e08 <pico_get_unique_board_id_string+0x58>)
10003dc2:	f7ff fa13 	bl	100031ec <__assert_func>
10003dc6:	2100      	movs	r1, #0
10003dc8:	e00f      	b.n	10003dea <pico_get_unique_board_id_string+0x3a>
10003dca:	3337      	adds	r3, #55	; 0x37
10003dcc:	5483      	strb	r3, [r0, r2]
10003dce:	3201      	adds	r2, #1
10003dd0:	f10c 33ff 	add.w	r3, ip, #4294967295
10003dd4:	4293      	cmp	r3, r2
10003dd6:	d90f      	bls.n	10003df8 <pico_get_unique_board_id_string+0x48>
10003dd8:	2a0f      	cmp	r2, #15
10003dda:	d80d      	bhi.n	10003df8 <pico_get_unique_board_id_string+0x48>
10003ddc:	0853      	lsrs	r3, r2, #1
10003dde:	490b      	ldr	r1, [pc, #44]	; (10003e0c <pico_get_unique_board_id_string+0x5c>)
10003de0:	5ccb      	ldrb	r3, [r1, r3]
10003de2:	f012 0f01 	tst.w	r2, #1
10003de6:	d1ee      	bne.n	10003dc6 <pico_get_unique_board_id_string+0x16>
10003de8:	2104      	movs	r1, #4
10003dea:	410b      	asrs	r3, r1
10003dec:	f003 030f 	and.w	r3, r3, #15
10003df0:	2b09      	cmp	r3, #9
10003df2:	dcea      	bgt.n	10003dca <pico_get_unique_board_id_string+0x1a>
10003df4:	3330      	adds	r3, #48	; 0x30
10003df6:	e7e9      	b.n	10003dcc <pico_get_unique_board_id_string+0x1c>
10003df8:	2300      	movs	r3, #0
10003dfa:	5483      	strb	r3, [r0, r2]
10003dfc:	bd08      	pop	{r3, pc}
10003dfe:	bf00      	nop
10003e00:	10008888 	.word	0x10008888
10003e04:	10008890 	.word	0x10008890
10003e08:	1000884c 	.word	0x1000884c
10003e0c:	20003074 	.word	0x20003074

10003e10 <hw_endpoint_init>:
10003e10:	b410      	push	{r4}
10003e12:	f000 047f 	and.w	r4, r0, #127	; 0x7f
10003e16:	0063      	lsls	r3, r4, #1
10003e18:	eb03 1cd0 	add.w	ip, r3, r0, lsr #7
10003e1c:	4b28      	ldr	r3, [pc, #160]	; (10003ec0 <hw_endpoint_init+0xb0>)
10003e1e:	eb03 134c 	add.w	r3, r3, ip, lsl #5
10003e22:	7098      	strb	r0, [r3, #2]
10003e24:	09c0      	lsrs	r0, r0, #7
10003e26:	bf0c      	ite	eq
10003e28:	f04f 0c01 	moveq.w	ip, #1
10003e2c:	f04f 0c00 	movne.w	ip, #0
10003e30:	f883 c001 	strb.w	ip, [r3, #1]
10003e34:	f04f 0c00 	mov.w	ip, #0
10003e38:	f883 c003 	strb.w	ip, [r3, #3]
10003e3c:	8319      	strh	r1, [r3, #24]
10003e3e:	76da      	strb	r2, [r3, #27]
10003e40:	b9e0      	cbnz	r0, 10003e7c <hw_endpoint_init+0x6c>
10003e42:	00e3      	lsls	r3, r4, #3
10003e44:	491f      	ldr	r1, [pc, #124]	; (10003ec4 <hw_endpoint_init+0xb4>)
10003e46:	4419      	add	r1, r3
10003e48:	eb00 0344 	add.w	r3, r0, r4, lsl #1
10003e4c:	4a1c      	ldr	r2, [pc, #112]	; (10003ec0 <hw_endpoint_init+0xb0>)
10003e4e:	eb02 1343 	add.w	r3, r2, r3, lsl #5
10003e52:	6099      	str	r1, [r3, #8]
10003e54:	eb00 0344 	add.w	r3, r0, r4, lsl #1
10003e58:	4a19      	ldr	r2, [pc, #100]	; (10003ec0 <hw_endpoint_init+0xb0>)
10003e5a:	eb02 1343 	add.w	r3, r2, r3, lsl #5
10003e5e:	689b      	ldr	r3, [r3, #8]
10003e60:	2200      	movs	r2, #0
10003e62:	601a      	str	r2, [r3, #0]
10003e64:	b9a4      	cbnz	r4, 10003e90 <hw_endpoint_init+0x80>
10003e66:	eb00 0044 	add.w	r0, r0, r4, lsl #1
10003e6a:	4b15      	ldr	r3, [pc, #84]	; (10003ec0 <hw_endpoint_init+0xb0>)
10003e6c:	eb03 1040 	add.w	r0, r3, r0, lsl #5
10003e70:	6042      	str	r2, [r0, #4]
10003e72:	4b15      	ldr	r3, [pc, #84]	; (10003ec8 <hw_endpoint_init+0xb8>)
10003e74:	60c3      	str	r3, [r0, #12]
10003e76:	f85d 4b04 	ldr.w	r4, [sp], #4
10003e7a:	4770      	bx	lr
10003e7c:	4913      	ldr	r1, [pc, #76]	; (10003ecc <hw_endpoint_init+0xbc>)
10003e7e:	eb01 01c4 	add.w	r1, r1, r4, lsl #3
10003e82:	eb00 0344 	add.w	r3, r0, r4, lsl #1
10003e86:	4a0e      	ldr	r2, [pc, #56]	; (10003ec0 <hw_endpoint_init+0xb0>)
10003e88:	eb02 1343 	add.w	r3, r2, r3, lsl #5
10003e8c:	6099      	str	r1, [r3, #8]
10003e8e:	e7e1      	b.n	10003e54 <hw_endpoint_init+0x44>
10003e90:	b950      	cbnz	r0, 10003ea8 <hw_endpoint_init+0x98>
10003e92:	1e63      	subs	r3, r4, #1
10003e94:	00db      	lsls	r3, r3, #3
10003e96:	4a0e      	ldr	r2, [pc, #56]	; (10003ed0 <hw_endpoint_init+0xc0>)
10003e98:	441a      	add	r2, r3
10003e9a:	eb00 0044 	add.w	r0, r0, r4, lsl #1
10003e9e:	4b08      	ldr	r3, [pc, #32]	; (10003ec0 <hw_endpoint_init+0xb0>)
10003ea0:	eb03 1040 	add.w	r0, r3, r0, lsl #5
10003ea4:	6042      	str	r2, [r0, #4]
10003ea6:	e7e6      	b.n	10003e76 <hw_endpoint_init+0x66>
10003ea8:	1e63      	subs	r3, r4, #1
10003eaa:	4a0a      	ldr	r2, [pc, #40]	; (10003ed4 <hw_endpoint_init+0xc4>)
10003eac:	eb02 02c3 	add.w	r2, r2, r3, lsl #3
10003eb0:	eb00 0044 	add.w	r0, r0, r4, lsl #1
10003eb4:	4b02      	ldr	r3, [pc, #8]	; (10003ec0 <hw_endpoint_init+0xb0>)
10003eb6:	eb03 1040 	add.w	r0, r3, r0, lsl #5
10003eba:	6042      	str	r2, [r0, #4]
10003ebc:	e7db      	b.n	10003e76 <hw_endpoint_init+0x66>
10003ebe:	bf00      	nop
10003ec0:	20002c44 	.word	0x20002c44
10003ec4:	50100084 	.word	0x50100084
10003ec8:	50100100 	.word	0x50100100
10003ecc:	50100080 	.word	0x50100080
10003ed0:	5010000c 	.word	0x5010000c
10003ed4:	50100008 	.word	0x50100008

10003ed8 <hw_endpoint_alloc>:
10003ed8:	b508      	push	{r3, lr}
10003eda:	8b03      	ldrh	r3, [r0, #24]
10003edc:	333f      	adds	r3, #63	; 0x3f
10003ede:	f023 033f 	bic.w	r3, r3, #63	; 0x3f
10003ee2:	7ec2      	ldrb	r2, [r0, #27]
10003ee4:	2a02      	cmp	r2, #2
10003ee6:	d008      	beq.n	10003efa <hw_endpoint_alloc+0x22>
10003ee8:	4908      	ldr	r1, [pc, #32]	; (10003f0c <hw_endpoint_alloc+0x34>)
10003eea:	680a      	ldr	r2, [r1, #0]
10003eec:	60c2      	str	r2, [r0, #12]
10003eee:	4413      	add	r3, r2
10003ef0:	600b      	str	r3, [r1, #0]
10003ef2:	4a07      	ldr	r2, [pc, #28]	; (10003f10 <hw_endpoint_alloc+0x38>)
10003ef4:	4293      	cmp	r3, r2
10003ef6:	d802      	bhi.n	10003efe <hw_endpoint_alloc+0x26>
10003ef8:	bd08      	pop	{r3, pc}
10003efa:	005b      	lsls	r3, r3, #1
10003efc:	e7f4      	b.n	10003ee8 <hw_endpoint_alloc+0x10>
10003efe:	4b05      	ldr	r3, [pc, #20]	; (10003f14 <hw_endpoint_alloc+0x3c>)
10003f00:	4a05      	ldr	r2, [pc, #20]	; (10003f18 <hw_endpoint_alloc+0x40>)
10003f02:	2152      	movs	r1, #82	; 0x52
10003f04:	4805      	ldr	r0, [pc, #20]	; (10003f1c <hw_endpoint_alloc+0x44>)
10003f06:	f7ff f971 	bl	100031ec <__assert_func>
10003f0a:	bf00      	nop
10003f0c:	20003048 	.word	0x20003048
10003f10:	50100fff 	.word	0x50100fff
10003f14:	100088cc 	.word	0x100088cc
10003f18:	100089ac 	.word	0x100089ac
10003f1c:	10008910 	.word	0x10008910

10003f20 <hw_endpoint_open>:
10003f20:	b570      	push	{r4, r5, r6, lr}
10003f22:	f000 057f 	and.w	r5, r0, #127	; 0x7f
10003f26:	ea4f 0c45 	mov.w	ip, r5, lsl #1
10003f2a:	eb0c 13d0 	add.w	r3, ip, r0, lsr #7
10003f2e:	4c0c      	ldr	r4, [pc, #48]	; (10003f60 <hw_endpoint_open+0x40>)
10003f30:	eb04 1443 	add.w	r4, r4, r3, lsl #5
10003f34:	f7ff ff6c 	bl	10003e10 <hw_endpoint_init>
10003f38:	b905      	cbnz	r5, 10003f3c <hw_endpoint_open+0x1c>
10003f3a:	bd70      	pop	{r4, r5, r6, pc}
10003f3c:	8b21      	ldrh	r1, [r4, #24]
10003f3e:	4620      	mov	r0, r4
10003f40:	f7ff ffca 	bl	10003ed8 <hw_endpoint_alloc>
10003f44:	7ee2      	ldrb	r2, [r4, #27]
10003f46:	68e3      	ldr	r3, [r4, #12]
10003f48:	f083 43a0 	eor.w	r3, r3, #1342177280	; 0x50000000
10003f4c:	f483 1380 	eor.w	r3, r3, #1048576	; 0x100000
10003f50:	ea43 6382 	orr.w	r3, r3, r2, lsl #26
10003f54:	f043 4300 	orr.w	r3, r3, #2147483648	; 0x80000000
10003f58:	6862      	ldr	r2, [r4, #4]
10003f5a:	6013      	str	r3, [r2, #0]
10003f5c:	e7ed      	b.n	10003f3a <hw_endpoint_open+0x1a>
10003f5e:	bf00      	nop
10003f60:	20002c44 	.word	0x20002c44

10003f64 <hw_endpoint_xfer>:
10003f64:	b508      	push	{r3, lr}
10003f66:	f000 037f 	and.w	r3, r0, #127	; 0x7f
10003f6a:	005b      	lsls	r3, r3, #1
10003f6c:	eb03 10d0 	add.w	r0, r3, r0, lsr #7
10003f70:	4b02      	ldr	r3, [pc, #8]	; (10003f7c <hw_endpoint_xfer+0x18>)
10003f72:	eb03 1040 	add.w	r0, r3, r0, lsl #5
10003f76:	f000 f91b 	bl	100041b0 <hw_endpoint_xfer_start>
10003f7a:	bd08      	pop	{r3, pc}
10003f7c:	20002c44 	.word	0x20002c44

10003f80 <dcd_int_enable>:
10003f80:	b508      	push	{r3, lr}
10003f82:	b920      	cbnz	r0, 10003f8e <dcd_int_enable+0xe>
10003f84:	2101      	movs	r1, #1
10003f86:	200e      	movs	r0, #14
10003f88:	f7fd f804 	bl	10000f94 <irq_set_enabled>
10003f8c:	bd08      	pop	{r3, pc}
10003f8e:	4b03      	ldr	r3, [pc, #12]	; (10003f9c <dcd_int_enable+0x1c>)
10003f90:	4a03      	ldr	r2, [pc, #12]	; (10003fa0 <dcd_int_enable+0x20>)
10003f92:	f240 1197 	movw	r1, #407	; 0x197
10003f96:	4803      	ldr	r0, [pc, #12]	; (10003fa4 <dcd_int_enable+0x24>)
10003f98:	f7ff f928 	bl	100031ec <__assert_func>
10003f9c:	10008970 	.word	0x10008970
10003fa0:	1000899c 	.word	0x1000899c
10003fa4:	10008910 	.word	0x10008910

10003fa8 <dcd_set_address>:
10003fa8:	b508      	push	{r3, lr}
10003faa:	b928      	cbnz	r0, 10003fb8 <dcd_set_address+0x10>
10003fac:	2200      	movs	r2, #0
10003fae:	4611      	mov	r1, r2
10003fb0:	2080      	movs	r0, #128	; 0x80
10003fb2:	f7ff ffd7 	bl	10003f64 <hw_endpoint_xfer>
10003fb6:	bd08      	pop	{r3, pc}
10003fb8:	4b03      	ldr	r3, [pc, #12]	; (10003fc8 <dcd_set_address+0x20>)
10003fba:	4a04      	ldr	r2, [pc, #16]	; (10003fcc <dcd_set_address+0x24>)
10003fbc:	f240 11a1 	movw	r1, #417	; 0x1a1
10003fc0:	4803      	ldr	r0, [pc, #12]	; (10003fd0 <dcd_set_address+0x28>)
10003fc2:	f7ff f913 	bl	100031ec <__assert_func>
10003fc6:	bf00      	nop
10003fc8:	10008970 	.word	0x10008970
10003fcc:	1000898c 	.word	0x1000898c
10003fd0:	10008910 	.word	0x10008910

10003fd4 <dcd_connect>:
10003fd4:	4b02      	ldr	r3, [pc, #8]	; (10003fe0 <dcd_connect+0xc>)
10003fd6:	f44f 3280 	mov.w	r2, #65536	; 0x10000
10003fda:	64da      	str	r2, [r3, #76]	; 0x4c
10003fdc:	4770      	bx	lr
10003fde:	bf00      	nop
10003fe0:	50112000 	.word	0x50112000

10003fe4 <dcd_init>:
10003fe4:	b570      	push	{r4, r5, r6, lr}
10003fe6:	bb48      	cbnz	r0, 1000403c <dcd_init+0x58>
10003fe8:	4606      	mov	r6, r0
10003fea:	f000 f8c1 	bl	10004170 <rp2040_usb_init>
10003fee:	4c17      	ldr	r4, [pc, #92]	; (1000404c <dcd_init+0x68>)
10003ff0:	230c      	movs	r3, #12
10003ff2:	67a3      	str	r3, [r4, #120]	; 0x78
10003ff4:	22ff      	movs	r2, #255	; 0xff
10003ff6:	4916      	ldr	r1, [pc, #88]	; (10004050 <dcd_init+0x6c>)
10003ff8:	200e      	movs	r0, #14
10003ffa:	f7fd f825 	bl	10001048 <irq_add_shared_handler>
10003ffe:	2540      	movs	r5, #64	; 0x40
10004000:	462a      	mov	r2, r5
10004002:	2100      	movs	r1, #0
10004004:	4813      	ldr	r0, [pc, #76]	; (10004054 <dcd_init+0x70>)
10004006:	f003 fbb9 	bl	1000777c <memset>
1000400a:	2200      	movs	r2, #0
1000400c:	4629      	mov	r1, r5
1000400e:	4610      	mov	r0, r2
10004010:	f7ff ff86 	bl	10003f20 <hw_endpoint_open>
10004014:	2200      	movs	r2, #0
10004016:	4629      	mov	r1, r5
10004018:	2080      	movs	r0, #128	; 0x80
1000401a:	f7ff ff81 	bl	10003f20 <hw_endpoint_open>
1000401e:	f003 fde7 	bl	10007bf0 <__reset_non_control_endpoints_veneer>
10004022:	2501      	movs	r5, #1
10004024:	6425      	str	r5, [r4, #64]	; 0x40
10004026:	f04f 5300 	mov.w	r3, #536870912	; 0x20000000
1000402a:	64e3      	str	r3, [r4, #76]	; 0x4c
1000402c:	4b0a      	ldr	r3, [pc, #40]	; (10004058 <dcd_init+0x74>)
1000402e:	f8c4 3090 	str.w	r3, [r4, #144]	; 0x90
10004032:	4630      	mov	r0, r6
10004034:	f7ff ffce 	bl	10003fd4 <dcd_connect>
10004038:	4628      	mov	r0, r5
1000403a:	bd70      	pop	{r4, r5, r6, pc}
1000403c:	4b07      	ldr	r3, [pc, #28]	; (1000405c <dcd_init+0x78>)
1000403e:	4a08      	ldr	r2, [pc, #32]	; (10004060 <dcd_init+0x7c>)
10004040:	f240 1163 	movw	r1, #355	; 0x163
10004044:	4807      	ldr	r0, [pc, #28]	; (10004064 <dcd_init+0x80>)
10004046:	f7ff f8d1 	bl	100031ec <__assert_func>
1000404a:	bf00      	nop
1000404c:	50110000 	.word	0x50110000
10004050:	20000491 	.word	0x20000491
10004054:	20002c44 	.word	0x20002c44
10004058:	0001d010 	.word	0x0001d010
1000405c:	10008970 	.word	0x10008970
10004060:	100089c0 	.word	0x100089c0
10004064:	10008910 	.word	0x10008910

10004068 <dcd_sof_enable>:
10004068:	4b04      	ldr	r3, [pc, #16]	; (1000407c <dcd_sof_enable+0x14>)
1000406a:	7019      	strb	r1, [r3, #0]
1000406c:	b121      	cbz	r1, 10004078 <dcd_sof_enable+0x10>
1000406e:	4b04      	ldr	r3, [pc, #16]	; (10004080 <dcd_sof_enable+0x18>)
10004070:	f44f 3200 	mov.w	r2, #131072	; 0x20000
10004074:	f8c3 2090 	str.w	r2, [r3, #144]	; 0x90
10004078:	4770      	bx	lr
1000407a:	bf00      	nop
1000407c:	2000320d 	.word	0x2000320d
10004080:	50112000 	.word	0x50112000

10004084 <dcd_edpt0_status_complete>:
10004084:	780b      	ldrb	r3, [r1, #0]
10004086:	f013 0f7f 	tst.w	r3, #127	; 0x7f
1000408a:	d102      	bne.n	10004092 <dcd_edpt0_status_complete+0xe>
1000408c:	784b      	ldrb	r3, [r1, #1]
1000408e:	2b05      	cmp	r3, #5
10004090:	d000      	beq.n	10004094 <dcd_edpt0_status_complete+0x10>
10004092:	4770      	bx	lr
10004094:	884b      	ldrh	r3, [r1, #2]
10004096:	b2db      	uxtb	r3, r3
10004098:	4a01      	ldr	r2, [pc, #4]	; (100040a0 <dcd_edpt0_status_complete+0x1c>)
1000409a:	6013      	str	r3, [r2, #0]
1000409c:	e7f9      	b.n	10004092 <dcd_edpt0_status_complete+0xe>
1000409e:	bf00      	nop
100040a0:	50110000 	.word	0x50110000

100040a4 <dcd_edpt_open>:
100040a4:	78ca      	ldrb	r2, [r1, #3]
100040a6:	f002 0203 	and.w	r2, r2, #3
100040aa:	2a01      	cmp	r2, #1
100040ac:	d009      	beq.n	100040c2 <dcd_edpt_open+0x1e>
100040ae:	b508      	push	{r3, lr}
100040b0:	460b      	mov	r3, r1
100040b2:	8889      	ldrh	r1, [r1, #4]
100040b4:	f3c1 010a 	ubfx	r1, r1, #0, #11
100040b8:	7898      	ldrb	r0, [r3, #2]
100040ba:	f7ff ff31 	bl	10003f20 <hw_endpoint_open>
100040be:	2001      	movs	r0, #1
100040c0:	bd08      	pop	{r3, pc}
100040c2:	2000      	movs	r0, #0
100040c4:	4770      	bx	lr

100040c6 <dcd_edpt_close_all>:
100040c6:	b508      	push	{r3, lr}
100040c8:	f003 fd92 	bl	10007bf0 <__reset_non_control_endpoints_veneer>
100040cc:	bd08      	pop	{r3, pc}
	...

100040d0 <dcd_edpt_xfer>:
100040d0:	b510      	push	{r4, lr}
100040d2:	b930      	cbnz	r0, 100040e2 <dcd_edpt_xfer+0x12>
100040d4:	4608      	mov	r0, r1
100040d6:	4611      	mov	r1, r2
100040d8:	461a      	mov	r2, r3
100040da:	f7ff ff43 	bl	10003f64 <hw_endpoint_xfer>
100040de:	2001      	movs	r0, #1
100040e0:	bd10      	pop	{r4, pc}
100040e2:	4b03      	ldr	r3, [pc, #12]	; (100040f0 <dcd_edpt_xfer+0x20>)
100040e4:	4a03      	ldr	r2, [pc, #12]	; (100040f4 <dcd_edpt_xfer+0x24>)
100040e6:	f44f 7101 	mov.w	r1, #516	; 0x204
100040ea:	4803      	ldr	r0, [pc, #12]	; (100040f8 <dcd_edpt_xfer+0x28>)
100040ec:	f7ff f87e 	bl	100031ec <__assert_func>
100040f0:	10008970 	.word	0x10008970
100040f4:	1000897c 	.word	0x1000897c
100040f8:	10008910 	.word	0x10008910

100040fc <dcd_edpt_stall>:
100040fc:	b508      	push	{r3, lr}
100040fe:	f011 007f 	ands.w	r0, r1, #127	; 0x7f
10004102:	d104      	bne.n	1000410e <dcd_edpt_stall+0x12>
10004104:	09cb      	lsrs	r3, r1, #7
10004106:	d10e      	bne.n	10004126 <dcd_edpt_stall+0x2a>
10004108:	2202      	movs	r2, #2
1000410a:	4b08      	ldr	r3, [pc, #32]	; (1000412c <dcd_edpt_stall+0x30>)
1000410c:	669a      	str	r2, [r3, #104]	; 0x68
1000410e:	0040      	lsls	r0, r0, #1
10004110:	eb00 10d1 	add.w	r0, r0, r1, lsr #7
10004114:	f44f 6200 	mov.w	r2, #2048	; 0x800
10004118:	2100      	movs	r1, #0
1000411a:	4b05      	ldr	r3, [pc, #20]	; (10004130 <dcd_edpt_stall+0x34>)
1000411c:	eb03 1040 	add.w	r0, r3, r0, lsl #5
10004120:	f003 fd96 	bl	10007c50 <___hw_endpoint_buffer_control_update32_veneer>
10004124:	bd08      	pop	{r3, pc}
10004126:	2201      	movs	r2, #1
10004128:	e7ef      	b.n	1000410a <dcd_edpt_stall+0xe>
1000412a:	bf00      	nop
1000412c:	50112000 	.word	0x50112000
10004130:	20002c44 	.word	0x20002c44

10004134 <dcd_edpt_clear_stall>:
10004134:	f011 007f 	ands.w	r0, r1, #127	; 0x7f
10004138:	d100      	bne.n	1000413c <dcd_edpt_clear_stall+0x8>
1000413a:	4770      	bx	lr
1000413c:	b508      	push	{r3, lr}
1000413e:	0040      	lsls	r0, r0, #1
10004140:	eb00 11d1 	add.w	r1, r0, r1, lsr #7
10004144:	4804      	ldr	r0, [pc, #16]	; (10004158 <dcd_edpt_clear_stall+0x24>)
10004146:	eb00 1041 	add.w	r0, r0, r1, lsl #5
1000414a:	2200      	movs	r2, #0
1000414c:	70c2      	strb	r2, [r0, #3]
1000414e:	f46f 6100 	mvn.w	r1, #2048	; 0x800
10004152:	f003 fd7d 	bl	10007c50 <___hw_endpoint_buffer_control_update32_veneer>
10004156:	bd08      	pop	{r3, pc}
10004158:	20002c44 	.word	0x20002c44

1000415c <unaligned_memcpy>:
1000415c:	e004      	b.n	10004168 <unaligned_memcpy+0xc>
1000415e:	f811 2b01 	ldrb.w	r2, [r1], #1
10004162:	f800 2b01 	strb.w	r2, [r0], #1
10004166:	461a      	mov	r2, r3
10004168:	1e53      	subs	r3, r2, #1
1000416a:	2a00      	cmp	r2, #0
1000416c:	d1f7      	bne.n	1000415e <unaligned_memcpy+0x2>
1000416e:	4770      	bx	lr

10004170 <rp2040_usb_init>:
10004170:	b508      	push	{r3, lr}
10004172:	f04f 5380 	mov.w	r3, #268435456	; 0x10000000
10004176:	4a0a      	ldr	r2, [pc, #40]	; (100041a0 <rp2040_usb_init+0x30>)
10004178:	6013      	str	r3, [r2, #0]
1000417a:	f502 5280 	add.w	r2, r2, #4096	; 0x1000
1000417e:	6013      	str	r3, [r2, #0]
10004180:	4b08      	ldr	r3, [pc, #32]	; (100041a4 <rp2040_usb_init+0x34>)
10004182:	689b      	ldr	r3, [r3, #8]
10004184:	f013 5f80 	tst.w	r3, #268435456	; 0x10000000
10004188:	d0fa      	beq.n	10004180 <rp2040_usb_init+0x10>
1000418a:	f44f 5280 	mov.w	r2, #4096	; 0x1000
1000418e:	2100      	movs	r1, #0
10004190:	4805      	ldr	r0, [pc, #20]	; (100041a8 <rp2040_usb_init+0x38>)
10004192:	f003 faf3 	bl	1000777c <memset>
10004196:	4b05      	ldr	r3, [pc, #20]	; (100041ac <rp2040_usb_init+0x3c>)
10004198:	2209      	movs	r2, #9
1000419a:	675a      	str	r2, [r3, #116]	; 0x74
1000419c:	bd08      	pop	{r3, pc}
1000419e:	bf00      	nop
100041a0:	40022000 	.word	0x40022000
100041a4:	40020000 	.word	0x40020000
100041a8:	50100000 	.word	0x50100000
100041ac:	50110000 	.word	0x50110000

100041b0 <hw_endpoint_xfer_start>:
100041b0:	b570      	push	{r4, r5, r6, lr}
100041b2:	4604      	mov	r4, r0
100041b4:	460d      	mov	r5, r1
100041b6:	4616      	mov	r6, r2
100041b8:	7e83      	ldrb	r3, [r0, #26]
100041ba:	b9ab      	cbnz	r3, 100041e8 <hw_endpoint_xfer_start+0x38>
100041bc:	82a6      	strh	r6, [r4, #20]
100041be:	2300      	movs	r3, #0
100041c0:	82e3      	strh	r3, [r4, #22]
100041c2:	2301      	movs	r3, #1
100041c4:	76a3      	strb	r3, [r4, #26]
100041c6:	6125      	str	r5, [r4, #16]
100041c8:	4620      	mov	r0, r4
100041ca:	f003 fd31 	bl	10007c30 <__e15_is_bulkin_ep_veneer>
100041ce:	b120      	cbz	r0, 100041da <hw_endpoint_xfer_start+0x2a>
100041d0:	4b0b      	ldr	r3, [pc, #44]	; (10004200 <hw_endpoint_xfer_start+0x50>)
100041d2:	f44f 3200 	mov.w	r2, #131072	; 0x20000
100041d6:	f8c3 2090 	str.w	r2, [r3, #144]	; 0x90
100041da:	4620      	mov	r0, r4
100041dc:	f003 fcd8 	bl	10007b90 <__e15_is_critical_frame_period_veneer>
100041e0:	b150      	cbz	r0, 100041f8 <hw_endpoint_xfer_start+0x48>
100041e2:	2301      	movs	r3, #1
100041e4:	7723      	strb	r3, [r4, #28]
100041e6:	bd70      	pop	{r4, r5, r6, pc}
100041e8:	7881      	ldrb	r1, [r0, #2]
100041ea:	4806      	ldr	r0, [pc, #24]	; (10004204 <hw_endpoint_xfer_start+0x54>)
100041ec:	f7ff f9c6 	bl	1000357c <__wrap_printf>
100041f0:	4620      	mov	r0, r4
100041f2:	f003 fd25 	bl	10007c40 <__hw_endpoint_reset_transfer_veneer>
100041f6:	e7e1      	b.n	100041bc <hw_endpoint_xfer_start+0xc>
100041f8:	4620      	mov	r0, r4
100041fa:	f003 fd11 	bl	10007c20 <__hw_endpoint_start_next_buffer_veneer>
100041fe:	e7f2      	b.n	100041e6 <hw_endpoint_xfer_start+0x36>
10004200:	50112000 	.word	0x50112000
10004204:	10008aa0 	.word	0x10008aa0

10004208 <configuration_reset>:
10004208:	b538      	push	{r3, r4, r5, lr}
1000420a:	4605      	mov	r5, r0
1000420c:	2400      	movs	r4, #0
1000420e:	e009      	b.n	10004224 <configuration_reset+0x1c>
10004210:	1ad2      	subs	r2, r2, r3
10004212:	4b1c      	ldr	r3, [pc, #112]	; (10004284 <configuration_reset+0x7c>)
10004214:	eb03 1342 	add.w	r3, r3, r2, lsl #5
10004218:	b18b      	cbz	r3, 1000423e <configuration_reset+0x36>
1000421a:	68db      	ldr	r3, [r3, #12]
1000421c:	4628      	mov	r0, r5
1000421e:	4798      	blx	r3
10004220:	3401      	adds	r4, #1
10004222:	b2e4      	uxtb	r4, r4
10004224:	4b18      	ldr	r3, [pc, #96]	; (10004288 <configuration_reset+0x80>)
10004226:	781b      	ldrb	r3, [r3, #0]
10004228:	1c59      	adds	r1, r3, #1
1000422a:	4622      	mov	r2, r4
1000422c:	42a1      	cmp	r1, r4
1000422e:	db15      	blt.n	1000425c <configuration_reset+0x54>
10004230:	42a3      	cmp	r3, r4
10004232:	d9ed      	bls.n	10004210 <configuration_reset+0x8>
10004234:	4b15      	ldr	r3, [pc, #84]	; (1000428c <configuration_reset+0x84>)
10004236:	681b      	ldr	r3, [r3, #0]
10004238:	eb03 1344 	add.w	r3, r3, r4, lsl #5
1000423c:	e7ec      	b.n	10004218 <configuration_reset+0x10>
1000423e:	f240 2225 	movw	r2, #549	; 0x225
10004242:	4913      	ldr	r1, [pc, #76]	; (10004290 <configuration_reset+0x88>)
10004244:	4813      	ldr	r0, [pc, #76]	; (10004294 <configuration_reset+0x8c>)
10004246:	f7ff f999 	bl	1000357c <__wrap_printf>
1000424a:	f04f 23e0 	mov.w	r3, #3758153728	; 0xe000e000
1000424e:	f8d3 3df0 	ldr.w	r3, [r3, #3568]	; 0xdf0
10004252:	f013 0f01 	tst.w	r3, #1
10004256:	d013      	beq.n	10004280 <configuration_reset+0x78>
10004258:	be00      	bkpt	0x0000
1000425a:	e011      	b.n	10004280 <configuration_reset+0x78>
1000425c:	4c0e      	ldr	r4, [pc, #56]	; (10004298 <configuration_reset+0x90>)
1000425e:	2254      	movs	r2, #84	; 0x54
10004260:	2100      	movs	r1, #0
10004262:	4620      	mov	r0, r4
10004264:	f003 fa8a 	bl	1000777c <memset>
10004268:	f04f 33ff 	mov.w	r3, #4294967295
1000426c:	6063      	str	r3, [r4, #4]
1000426e:	60a3      	str	r3, [r4, #8]
10004270:	60e3      	str	r3, [r4, #12]
10004272:	6123      	str	r3, [r4, #16]
10004274:	2220      	movs	r2, #32
10004276:	21ff      	movs	r1, #255	; 0xff
10004278:	f104 0014 	add.w	r0, r4, #20
1000427c:	f003 fa7e 	bl	1000777c <memset>
10004280:	bd38      	pop	{r3, r4, r5, pc}
10004282:	bf00      	nop
10004284:	10008bb8 	.word	0x10008bb8
10004288:	2000320c 	.word	0x2000320c
1000428c:	200025d4 	.word	0x200025d4
10004290:	10008b00 	.word	0x10008b00
10004294:	10008ae8 	.word	0x10008ae8
10004298:	200027c0 	.word	0x200027c0

1000429c <usbd_reset>:
1000429c:	b508      	push	{r3, lr}
1000429e:	f7ff ffb3 	bl	10004208 <configuration_reset>
100042a2:	f000 ff47 	bl	10005134 <usbd_control_reset>
100042a6:	bd08      	pop	{r3, pc}

100042a8 <invoke_class_control>:
100042a8:	b570      	push	{r4, r5, r6, lr}
100042aa:	4605      	mov	r5, r0
100042ac:	460c      	mov	r4, r1
100042ae:	4616      	mov	r6, r2
100042b0:	6948      	ldr	r0, [r1, #20]
100042b2:	f000 ff49 	bl	10005148 <usbd_control_set_complete_callback>
100042b6:	6963      	ldr	r3, [r4, #20]
100042b8:	4632      	mov	r2, r6
100042ba:	2101      	movs	r1, #1
100042bc:	4628      	mov	r0, r5
100042be:	4798      	blx	r3
100042c0:	bd70      	pop	{r4, r5, r6, pc}
	...

100042c4 <process_set_config>:
100042c4:	e92d 4ff0 	stmdb	sp!, {r4, r5, r6, r7, r8, r9, sl, fp, lr}
100042c8:	b083      	sub	sp, #12
100042ca:	4682      	mov	sl, r0
100042cc:	1e48      	subs	r0, r1, #1
100042ce:	b2c0      	uxtb	r0, r0
100042d0:	f7ff fd0c 	bl	10003cec <tud_descriptor_configuration_cb>
100042d4:	b120      	cbz	r0, 100042e0 <process_set_config+0x1c>
100042d6:	4603      	mov	r3, r0
100042d8:	7842      	ldrb	r2, [r0, #1]
100042da:	9201      	str	r2, [sp, #4]
100042dc:	2a02      	cmp	r2, #2
100042de:	d011      	beq.n	10004304 <process_set_config+0x40>
100042e0:	f240 32d6 	movw	r2, #982	; 0x3d6
100042e4:	4963      	ldr	r1, [pc, #396]	; (10004474 <process_set_config+0x1b0>)
100042e6:	4864      	ldr	r0, [pc, #400]	; (10004478 <process_set_config+0x1b4>)
100042e8:	f7ff f948 	bl	1000357c <__wrap_printf>
100042ec:	f04f 23e0 	mov.w	r3, #3758153728	; 0xe000e000
100042f0:	f8d3 3df0 	ldr.w	r3, [r3, #3568]	; 0xdf0
100042f4:	f013 0f01 	tst.w	r3, #1
100042f8:	d000      	beq.n	100042fc <process_set_config+0x38>
100042fa:	be00      	bkpt	0x0000
100042fc:	2000      	movs	r0, #0
100042fe:	b003      	add	sp, #12
10004300:	e8bd 8ff0 	ldmia.w	sp!, {r4, r5, r6, r7, r8, r9, sl, fp, pc}
10004304:	79c1      	ldrb	r1, [r0, #7]
10004306:	f3c1 1440 	ubfx	r4, r1, #5, #1
1000430a:	4a5c      	ldr	r2, [pc, #368]	; (1000447c <process_set_config+0x1b8>)
1000430c:	7810      	ldrb	r0, [r2, #0]
1000430e:	f364 1004 	bfi	r0, r4, #4, #1
10004312:	7010      	strb	r0, [r2, #0]
10004314:	f3c1 1180 	ubfx	r1, r1, #6, #1
10004318:	b2c0      	uxtb	r0, r0
1000431a:	f361 1045 	bfi	r0, r1, #5, #1
1000431e:	7010      	strb	r0, [r2, #0]
10004320:	f103 0809 	add.w	r8, r3, #9
10004324:	885a      	ldrh	r2, [r3, #2]
10004326:	4413      	add	r3, r2
10004328:	9300      	str	r3, [sp, #0]
1000432a:	9b00      	ldr	r3, [sp, #0]
1000432c:	4598      	cmp	r8, r3
1000432e:	f080 809e 	bcs.w	1000446e <process_set_config+0x1aa>
10004332:	f898 3001 	ldrb.w	r3, [r8, #1]
10004336:	2b0b      	cmp	r3, #11
10004338:	d00b      	beq.n	10004352 <process_set_config+0x8e>
1000433a:	f04f 0b01 	mov.w	fp, #1
1000433e:	f898 3001 	ldrb.w	r3, [r8, #1]
10004342:	2b04      	cmp	r3, #4
10004344:	d10b      	bne.n	1000435e <process_set_config+0x9a>
10004346:	9b00      	ldr	r3, [sp, #0]
10004348:	eba3 0708 	sub.w	r7, r3, r8
1000434c:	b2bf      	uxth	r7, r7
1000434e:	2400      	movs	r4, #0
10004350:	e060      	b.n	10004414 <process_set_config+0x150>
10004352:	f898 b003 	ldrb.w	fp, [r8, #3]
10004356:	f898 3000 	ldrb.w	r3, [r8]
1000435a:	4498      	add	r8, r3
1000435c:	e7ef      	b.n	1000433e <process_set_config+0x7a>
1000435e:	f240 32f1 	movw	r2, #1009	; 0x3f1
10004362:	4944      	ldr	r1, [pc, #272]	; (10004474 <process_set_config+0x1b0>)
10004364:	4844      	ldr	r0, [pc, #272]	; (10004478 <process_set_config+0x1b4>)
10004366:	f7ff f909 	bl	1000357c <__wrap_printf>
1000436a:	f04f 23e0 	mov.w	r3, #3758153728	; 0xe000e000
1000436e:	f8d3 3df0 	ldr.w	r3, [r3, #3568]	; 0xdf0
10004372:	f013 0f01 	tst.w	r3, #1
10004376:	d000      	beq.n	1000437a <process_set_config+0xb6>
10004378:	be00      	bkpt	0x0000
1000437a:	2000      	movs	r0, #0
1000437c:	e7bf      	b.n	100042fe <process_set_config+0x3a>
1000437e:	eba9 0505 	sub.w	r5, r9, r5
10004382:	4b3f      	ldr	r3, [pc, #252]	; (10004480 <process_set_config+0x1bc>)
10004384:	eb03 1545 	add.w	r5, r3, r5, lsl #5
10004388:	e050      	b.n	1000442c <process_set_config+0x168>
1000438a:	f240 32fa 	movw	r2, #1018	; 0x3fa
1000438e:	4939      	ldr	r1, [pc, #228]	; (10004474 <process_set_config+0x1b0>)
10004390:	4839      	ldr	r0, [pc, #228]	; (10004478 <process_set_config+0x1b4>)
10004392:	f7ff f8f3 	bl	1000357c <__wrap_printf>
10004396:	f04f 23e0 	mov.w	r3, #3758153728	; 0xe000e000
1000439a:	f8d3 3df0 	ldr.w	r3, [r3, #3568]	; 0xdf0
1000439e:	f013 0f01 	tst.w	r3, #1
100043a2:	d000      	beq.n	100043a6 <process_set_config+0xe2>
100043a4:	be00      	bkpt	0x0000
100043a6:	2000      	movs	r0, #0
100043a8:	e7a9      	b.n	100042fe <process_set_config+0x3a>
100043aa:	692a      	ldr	r2, [r5, #16]
100043ac:	4b35      	ldr	r3, [pc, #212]	; (10004484 <process_set_config+0x1c0>)
100043ae:	429a      	cmp	r2, r3
100043b0:	d14b      	bne.n	1000444a <process_set_config+0x186>
100043b2:	f8dd b004 	ldr.w	fp, [sp, #4]
100043b6:	e048      	b.n	1000444a <process_set_config+0x186>
100043b8:	f240 4219 	movw	r2, #1049	; 0x419
100043bc:	492d      	ldr	r1, [pc, #180]	; (10004474 <process_set_config+0x1b0>)
100043be:	482e      	ldr	r0, [pc, #184]	; (10004478 <process_set_config+0x1b4>)
100043c0:	f7ff f8dc 	bl	1000357c <__wrap_printf>
100043c4:	f04f 23e0 	mov.w	r3, #3758153728	; 0xe000e000
100043c8:	f8d3 3df0 	ldr.w	r3, [r3, #3568]	; 0xdf0
100043cc:	f013 0f01 	tst.w	r3, #1
100043d0:	d000      	beq.n	100043d4 <process_set_config+0x110>
100043d2:	be00      	bkpt	0x0000
100043d4:	2000      	movs	r0, #0
100043d6:	e792      	b.n	100042fe <process_set_config+0x3a>
100043d8:	4623      	mov	r3, r4
100043da:	4632      	mov	r2, r6
100043dc:	4641      	mov	r1, r8
100043de:	482a      	ldr	r0, [pc, #168]	; (10004488 <process_set_config+0x1c4>)
100043e0:	f001 fdaa 	bl	10005f38 <tu_edpt_bind_driver>
100043e4:	44b0      	add	r8, r6
100043e6:	4b29      	ldr	r3, [pc, #164]	; (1000448c <process_set_config+0x1c8>)
100043e8:	781b      	ldrb	r3, [r3, #0]
100043ea:	3301      	adds	r3, #1
100043ec:	4599      	cmp	r9, r3
100043ee:	dd9c      	ble.n	1000432a <process_set_config+0x66>
100043f0:	f44f 6285 	mov.w	r2, #1064	; 0x428
100043f4:	491f      	ldr	r1, [pc, #124]	; (10004474 <process_set_config+0x1b0>)
100043f6:	4820      	ldr	r0, [pc, #128]	; (10004478 <process_set_config+0x1b4>)
100043f8:	f7ff f8c0 	bl	1000357c <__wrap_printf>
100043fc:	f04f 23e0 	mov.w	r3, #3758153728	; 0xe000e000
10004400:	f8d3 3df0 	ldr.w	r3, [r3, #3568]	; 0xdf0
10004404:	f013 0f01 	tst.w	r3, #1
10004408:	d000      	beq.n	1000440c <process_set_config+0x148>
1000440a:	be00      	bkpt	0x0000
1000440c:	2000      	movs	r0, #0
1000440e:	e776      	b.n	100042fe <process_set_config+0x3a>
10004410:	3401      	adds	r4, #1
10004412:	b2e4      	uxtb	r4, r4
10004414:	4b1d      	ldr	r3, [pc, #116]	; (1000448c <process_set_config+0x1c8>)
10004416:	781d      	ldrb	r5, [r3, #0]
10004418:	1c6b      	adds	r3, r5, #1
1000441a:	46a1      	mov	r9, r4
1000441c:	42a3      	cmp	r3, r4
1000441e:	dbe2      	blt.n	100043e6 <process_set_config+0x122>
10004420:	42a5      	cmp	r5, r4
10004422:	d9ac      	bls.n	1000437e <process_set_config+0xba>
10004424:	4b1a      	ldr	r3, [pc, #104]	; (10004490 <process_set_config+0x1cc>)
10004426:	681d      	ldr	r5, [r3, #0]
10004428:	eb05 1544 	add.w	r5, r5, r4, lsl #5
1000442c:	2d00      	cmp	r5, #0
1000442e:	d0ac      	beq.n	1000438a <process_set_config+0xc6>
10004430:	692b      	ldr	r3, [r5, #16]
10004432:	463a      	mov	r2, r7
10004434:	4641      	mov	r1, r8
10004436:	4650      	mov	r0, sl
10004438:	4798      	blx	r3
1000443a:	2808      	cmp	r0, #8
1000443c:	d9e8      	bls.n	10004410 <process_set_config+0x14c>
1000443e:	4287      	cmp	r7, r0
10004440:	d3e6      	bcc.n	10004410 <process_set_config+0x14c>
10004442:	4606      	mov	r6, r0
10004444:	f1bb 0f01 	cmp.w	fp, #1
10004448:	d0af      	beq.n	100043aa <process_set_config+0xe6>
1000444a:	2200      	movs	r2, #0
1000444c:	4593      	cmp	fp, r2
1000444e:	d9c3      	bls.n	100043d8 <process_set_config+0x114>
10004450:	f898 3002 	ldrb.w	r3, [r8, #2]
10004454:	4413      	add	r3, r2
10004456:	b2db      	uxtb	r3, r3
10004458:	4908      	ldr	r1, [pc, #32]	; (1000447c <process_set_config+0x1b8>)
1000445a:	4419      	add	r1, r3
1000445c:	7909      	ldrb	r1, [r1, #4]
1000445e:	29ff      	cmp	r1, #255	; 0xff
10004460:	d1aa      	bne.n	100043b8 <process_set_config+0xf4>
10004462:	4906      	ldr	r1, [pc, #24]	; (1000447c <process_set_config+0x1b8>)
10004464:	440b      	add	r3, r1
10004466:	711c      	strb	r4, [r3, #4]
10004468:	3201      	adds	r2, #1
1000446a:	b2d2      	uxtb	r2, r2
1000446c:	e7ee      	b.n	1000444c <process_set_config+0x188>
1000446e:	2001      	movs	r0, #1
10004470:	e745      	b.n	100042fe <process_set_config+0x3a>
10004472:	bf00      	nop
10004474:	10008b8c 	.word	0x10008b8c
10004478:	10008ae8 	.word	0x10008ae8
1000447c:	200027c0 	.word	0x200027c0
10004480:	10008bb8 	.word	0x10008bb8
10004484:	10005645 	.word	0x10005645
10004488:	200027d4 	.word	0x200027d4
1000448c:	2000320c 	.word	0x2000320c
10004490:	200025d4 	.word	0x200025d4

10004494 <tud_event_hook_cb>:
10004494:	4770      	bx	lr

10004496 <tud_sof_cb>:
10004496:	4770      	bx	lr

10004498 <tud_descriptor_device_qualifier_cb>:
10004498:	2000      	movs	r0, #0
1000449a:	4770      	bx	lr

1000449c <tud_descriptor_other_speed_configuration_cb>:
1000449c:	2000      	movs	r0, #0
1000449e:	4770      	bx	lr

100044a0 <process_get_descriptor>:
100044a0:	b538      	push	{r3, r4, r5, lr}
100044a2:	4605      	mov	r5, r0
100044a4:	460c      	mov	r4, r1
100044a6:	884b      	ldrh	r3, [r1, #2]
100044a8:	0a1a      	lsrs	r2, r3, #8
100044aa:	b2d8      	uxtb	r0, r3
100044ac:	1e53      	subs	r3, r2, #1
100044ae:	2b0e      	cmp	r3, #14
100044b0:	d864      	bhi.n	1000457c <process_get_descriptor+0xdc>
100044b2:	e8df f003 	tbb	[pc, r3]
100044b6:	2d08      	.short	0x2d08
100044b8:	5963634e 	.word	0x5963634e
100044bc:	6363632d 	.word	0x6363632d
100044c0:	63636363 	.word	0x63636363
100044c4:	22          	.byte	0x22
100044c5:	00          	.byte	0x00
100044c6:	f7ff fc0d 	bl	10003ce4 <tud_descriptor_device_cb>
100044ca:	4602      	mov	r2, r0
100044cc:	b128      	cbz	r0, 100044da <process_get_descriptor+0x3a>
100044ce:	2312      	movs	r3, #18
100044d0:	4621      	mov	r1, r4
100044d2:	4628      	mov	r0, r5
100044d4:	f000 fdd0 	bl	10005078 <tud_control_xfer>
100044d8:	e051      	b.n	1000457e <process_get_descriptor+0xde>
100044da:	f240 423a 	movw	r2, #1082	; 0x43a
100044de:	492c      	ldr	r1, [pc, #176]	; (10004590 <process_get_descriptor+0xf0>)
100044e0:	482c      	ldr	r0, [pc, #176]	; (10004594 <process_get_descriptor+0xf4>)
100044e2:	f7ff f84b 	bl	1000357c <__wrap_printf>
100044e6:	f04f 23e0 	mov.w	r3, #3758153728	; 0xe000e000
100044ea:	f8d3 3df0 	ldr.w	r3, [r3, #3568]	; 0xdf0
100044ee:	f013 0f01 	tst.w	r3, #1
100044f2:	d000      	beq.n	100044f6 <process_get_descriptor+0x56>
100044f4:	be00      	bkpt	0x0000
100044f6:	2000      	movs	r0, #0
100044f8:	e041      	b.n	1000457e <process_get_descriptor+0xde>
100044fa:	f7ff f9bf 	bl	1000387c <tud_descriptor_bos_cb>
100044fe:	4602      	mov	r2, r0
10004500:	2800      	cmp	r0, #0
10004502:	d03d      	beq.n	10004580 <process_get_descriptor+0xe0>
10004504:	8843      	ldrh	r3, [r0, #2]
10004506:	4621      	mov	r1, r4
10004508:	4628      	mov	r0, r5
1000450a:	f000 fdb5 	bl	10005078 <tud_control_xfer>
1000450e:	e036      	b.n	1000457e <process_get_descriptor+0xde>
10004510:	2a02      	cmp	r2, #2
10004512:	d009      	beq.n	10004528 <process_get_descriptor+0x88>
10004514:	f7ff ffc2 	bl	1000449c <tud_descriptor_other_speed_configuration_cb>
10004518:	4602      	mov	r2, r0
1000451a:	b398      	cbz	r0, 10004584 <process_get_descriptor+0xe4>
1000451c:	8853      	ldrh	r3, [r2, #2]
1000451e:	4621      	mov	r1, r4
10004520:	4628      	mov	r0, r5
10004522:	f000 fda9 	bl	10005078 <tud_control_xfer>
10004526:	e02a      	b.n	1000457e <process_get_descriptor+0xde>
10004528:	f7ff fbe0 	bl	10003cec <tud_descriptor_configuration_cb>
1000452c:	4602      	mov	r2, r0
1000452e:	2800      	cmp	r0, #0
10004530:	d1f4      	bne.n	1000451c <process_get_descriptor+0x7c>
10004532:	f240 4261 	movw	r2, #1121	; 0x461
10004536:	4916      	ldr	r1, [pc, #88]	; (10004590 <process_get_descriptor+0xf0>)
10004538:	4816      	ldr	r0, [pc, #88]	; (10004594 <process_get_descriptor+0xf4>)
1000453a:	f7ff f81f 	bl	1000357c <__wrap_printf>
1000453e:	f04f 23e0 	mov.w	r3, #3758153728	; 0xe000e000
10004542:	f8d3 3df0 	ldr.w	r3, [r3, #3568]	; 0xdf0
10004546:	f013 0f01 	tst.w	r3, #1
1000454a:	d000      	beq.n	1000454e <process_get_descriptor+0xae>
1000454c:	be00      	bkpt	0x0000
1000454e:	2000      	movs	r0, #0
10004550:	e015      	b.n	1000457e <process_get_descriptor+0xde>
10004552:	88a1      	ldrh	r1, [r4, #4]
10004554:	f7ff fbce 	bl	10003cf4 <tud_descriptor_string_cb>
10004558:	4602      	mov	r2, r0
1000455a:	b1a8      	cbz	r0, 10004588 <process_get_descriptor+0xe8>
1000455c:	7803      	ldrb	r3, [r0, #0]
1000455e:	4621      	mov	r1, r4
10004560:	4628      	mov	r0, r5
10004562:	f000 fd89 	bl	10005078 <tud_control_xfer>
10004566:	e00a      	b.n	1000457e <process_get_descriptor+0xde>
10004568:	f7ff ff96 	bl	10004498 <tud_descriptor_device_qualifier_cb>
1000456c:	4602      	mov	r2, r0
1000456e:	b168      	cbz	r0, 1000458c <process_get_descriptor+0xec>
10004570:	7803      	ldrb	r3, [r0, #0]
10004572:	4621      	mov	r1, r4
10004574:	4628      	mov	r0, r5
10004576:	f000 fd7f 	bl	10005078 <tud_control_xfer>
1000457a:	e000      	b.n	1000457e <process_get_descriptor+0xde>
1000457c:	2000      	movs	r0, #0
1000457e:	bd38      	pop	{r3, r4, r5, pc}
10004580:	2000      	movs	r0, #0
10004582:	e7fc      	b.n	1000457e <process_get_descriptor+0xde>
10004584:	2000      	movs	r0, #0
10004586:	e7fa      	b.n	1000457e <process_get_descriptor+0xde>
10004588:	2000      	movs	r0, #0
1000458a:	e7f8      	b.n	1000457e <process_get_descriptor+0xde>
1000458c:	2000      	movs	r0, #0
1000458e:	e7f6      	b.n	1000457e <process_get_descriptor+0xde>
10004590:	10008b74 	.word	0x10008b74
10004594:	10008ae8 	.word	0x10008ae8

10004598 <tud_mount_cb>:
10004598:	4770      	bx	lr

1000459a <tud_umount_cb>:
1000459a:	4770      	bx	lr

1000459c <tud_suspend_cb>:
1000459c:	4770      	bx	lr

1000459e <tud_resume_cb>:
1000459e:	4770      	bx	lr

100045a0 <tud_mounted>:
100045a0:	4b02      	ldr	r3, [pc, #8]	; (100045ac <tud_mounted+0xc>)
100045a2:	7858      	ldrb	r0, [r3, #1]
100045a4:	3800      	subs	r0, #0
100045a6:	bf18      	it	ne
100045a8:	2001      	movne	r0, #1
100045aa:	4770      	bx	lr
100045ac:	200027c0 	.word	0x200027c0

100045b0 <tud_suspended>:
100045b0:	4b02      	ldr	r3, [pc, #8]	; (100045bc <tud_suspended+0xc>)
100045b2:	7818      	ldrb	r0, [r3, #0]
100045b4:	f3c0 0080 	ubfx	r0, r0, #2, #1
100045b8:	4770      	bx	lr
100045ba:	bf00      	nop
100045bc:	200027c0 	.word	0x200027c0

100045c0 <tud_inited>:
100045c0:	4b02      	ldr	r3, [pc, #8]	; (100045cc <tud_inited+0xc>)
100045c2:	7818      	ldrb	r0, [r3, #0]
100045c4:	38ff      	subs	r0, #255	; 0xff
100045c6:	bf18      	it	ne
100045c8:	2001      	movne	r0, #1
100045ca:	4770      	bx	lr
100045cc:	20001b98 	.word	0x20001b98

100045d0 <tud_rhport_init>:
100045d0:	b5f8      	push	{r3, r4, r5, r6, r7, lr}
100045d2:	4606      	mov	r6, r0
100045d4:	460d      	mov	r5, r1
100045d6:	f7ff fff3 	bl	100045c0 <tud_inited>
100045da:	4607      	mov	r7, r0
100045dc:	2800      	cmp	r0, #0
100045de:	d155      	bne.n	1000468c <tud_rhport_init+0xbc>
100045e0:	b305      	cbz	r5, 10004624 <tud_rhport_init+0x54>
100045e2:	2254      	movs	r2, #84	; 0x54
100045e4:	2100      	movs	r1, #0
100045e6:	4838      	ldr	r0, [pc, #224]	; (100046c8 <tud_rhport_init+0xf8>)
100045e8:	f003 f8c8 	bl	1000777c <memset>
100045ec:	4b37      	ldr	r3, [pc, #220]	; (100046cc <tud_rhport_init+0xfc>)
100045ee:	2200      	movs	r2, #0
100045f0:	701a      	strb	r2, [r3, #0]
100045f2:	4c37      	ldr	r4, [pc, #220]	; (100046d0 <tud_rhport_init+0x100>)
100045f4:	4620      	mov	r0, r4
100045f6:	f7fb ff6f 	bl	100004d8 <mutex_init>
100045fa:	4b36      	ldr	r3, [pc, #216]	; (100046d4 <tud_rhport_init+0x104>)
100045fc:	601c      	str	r4, [r3, #0]
100045fe:	4c36      	ldr	r4, [pc, #216]	; (100046d8 <tud_rhport_init+0x108>)
10004600:	f104 0014 	add.w	r0, r4, #20
10004604:	f7fb ffb2 	bl	1000056c <critical_section_init>
10004608:	4620      	mov	r0, r4
1000460a:	f002 f847 	bl	1000669c <tu_fifo_clear>
1000460e:	4b33      	ldr	r3, [pc, #204]	; (100046dc <tud_rhport_init+0x10c>)
10004610:	601c      	str	r4, [r3, #0]
10004612:	4b33      	ldr	r3, [pc, #204]	; (100046e0 <tud_rhport_init+0x110>)
10004614:	b123      	cbz	r3, 10004620 <tud_rhport_init+0x50>
10004616:	4833      	ldr	r0, [pc, #204]	; (100046e4 <tud_rhport_init+0x114>)
10004618:	f7ff f94c 	bl	100038b4 <usbd_app_driver_get_cb>
1000461c:	4b32      	ldr	r3, [pc, #200]	; (100046e8 <tud_rhport_init+0x118>)
1000461e:	6018      	str	r0, [r3, #0]
10004620:	2400      	movs	r4, #0
10004622:	e018      	b.n	10004656 <tud_rhport_init+0x86>
10004624:	f44f 72e9 	mov.w	r2, #466	; 0x1d2
10004628:	4930      	ldr	r1, [pc, #192]	; (100046ec <tud_rhport_init+0x11c>)
1000462a:	4831      	ldr	r0, [pc, #196]	; (100046f0 <tud_rhport_init+0x120>)
1000462c:	f7fe ffa6 	bl	1000357c <__wrap_printf>
10004630:	f04f 23e0 	mov.w	r3, #3758153728	; 0xe000e000
10004634:	f8d3 3df0 	ldr.w	r3, [r3, #3568]	; 0xdf0
10004638:	f013 0f01 	tst.w	r3, #1
1000463c:	d026      	beq.n	1000468c <tud_rhport_init+0xbc>
1000463e:	be00      	bkpt	0x0000
10004640:	e024      	b.n	1000468c <tud_rhport_init+0xbc>
10004642:	1ad2      	subs	r2, r2, r3
10004644:	4b2b      	ldr	r3, [pc, #172]	; (100046f4 <tud_rhport_init+0x124>)
10004646:	eb03 1342 	add.w	r3, r3, r2, lsl #5
1000464a:	b18b      	cbz	r3, 10004670 <tud_rhport_init+0xa0>
1000464c:	685b      	ldr	r3, [r3, #4]
1000464e:	b17b      	cbz	r3, 10004670 <tud_rhport_init+0xa0>
10004650:	4798      	blx	r3
10004652:	3401      	adds	r4, #1
10004654:	b2e4      	uxtb	r4, r4
10004656:	4b23      	ldr	r3, [pc, #140]	; (100046e4 <tud_rhport_init+0x114>)
10004658:	781b      	ldrb	r3, [r3, #0]
1000465a:	1c59      	adds	r1, r3, #1
1000465c:	4622      	mov	r2, r4
1000465e:	42a1      	cmp	r1, r4
10004660:	db16      	blt.n	10004690 <tud_rhport_init+0xc0>
10004662:	42a3      	cmp	r3, r4
10004664:	d9ed      	bls.n	10004642 <tud_rhport_init+0x72>
10004666:	4b20      	ldr	r3, [pc, #128]	; (100046e8 <tud_rhport_init+0x118>)
10004668:	681b      	ldr	r3, [r3, #0]
1000466a:	eb03 1344 	add.w	r3, r3, r4, lsl #5
1000466e:	e7ec      	b.n	1000464a <tud_rhport_init+0x7a>
10004670:	f44f 72f8 	mov.w	r2, #496	; 0x1f0
10004674:	491d      	ldr	r1, [pc, #116]	; (100046ec <tud_rhport_init+0x11c>)
10004676:	481e      	ldr	r0, [pc, #120]	; (100046f0 <tud_rhport_init+0x120>)
10004678:	f7fe ff80 	bl	1000357c <__wrap_printf>
1000467c:	f04f 23e0 	mov.w	r3, #3758153728	; 0xe000e000
10004680:	f8d3 3df0 	ldr.w	r3, [r3, #3568]	; 0xdf0
10004684:	f013 0f01 	tst.w	r3, #1
10004688:	d000      	beq.n	1000468c <tud_rhport_init+0xbc>
1000468a:	be00      	bkpt	0x0000
1000468c:	4638      	mov	r0, r7
1000468e:	bdf8      	pop	{r3, r4, r5, r6, r7, pc}
10004690:	4b19      	ldr	r3, [pc, #100]	; (100046f8 <tud_rhport_init+0x128>)
10004692:	701e      	strb	r6, [r3, #0]
10004694:	4629      	mov	r1, r5
10004696:	4630      	mov	r0, r6
10004698:	f7ff fca4 	bl	10003fe4 <dcd_init>
1000469c:	4607      	mov	r7, r0
1000469e:	b118      	cbz	r0, 100046a8 <tud_rhport_init+0xd8>
100046a0:	4630      	mov	r0, r6
100046a2:	f7ff fc6d 	bl	10003f80 <dcd_int_enable>
100046a6:	e7f1      	b.n	1000468c <tud_rhport_init+0xbc>
100046a8:	f44f 72fc 	mov.w	r2, #504	; 0x1f8
100046ac:	490f      	ldr	r1, [pc, #60]	; (100046ec <tud_rhport_init+0x11c>)
100046ae:	4810      	ldr	r0, [pc, #64]	; (100046f0 <tud_rhport_init+0x120>)
100046b0:	f7fe ff64 	bl	1000357c <__wrap_printf>
100046b4:	f04f 23e0 	mov.w	r3, #3758153728	; 0xe000e000
100046b8:	f8d3 3df0 	ldr.w	r3, [r3, #3568]	; 0xdf0
100046bc:	f013 0f01 	tst.w	r3, #1
100046c0:	d0e4      	beq.n	1000468c <tud_rhport_init+0xbc>
100046c2:	be00      	bkpt	0x0000
100046c4:	e7e2      	b.n	1000468c <tud_rhport_init+0xbc>
100046c6:	bf00      	nop
100046c8:	200027c0 	.word	0x200027c0
100046cc:	2000320e 	.word	0x2000320e
100046d0:	200027b8 	.word	0x200027b8
100046d4:	20002814 	.word	0x20002814
100046d8:	20001b7c 	.word	0x20001b7c
100046dc:	20002818 	.word	0x20002818
100046e0:	100038b5 	.word	0x100038b5
100046e4:	2000320c 	.word	0x2000320c
100046e8:	200025d4 	.word	0x200025d4
100046ec:	10008b24 	.word	0x10008b24
100046f0:	10008ae8 	.word	0x10008ae8
100046f4:	10008bb8 	.word	0x10008bb8
100046f8:	20001b98 	.word	0x20001b98

100046fc <usbd_edpt_open>:
100046fc:	b570      	push	{r4, r5, r6, lr}
100046fe:	4b1a      	ldr	r3, [pc, #104]	; (10004768 <usbd_edpt_open+0x6c>)
10004700:	781e      	ldrb	r6, [r3, #0]
10004702:	788b      	ldrb	r3, [r1, #2]
10004704:	f013 0f70 	tst.w	r3, #112	; 0x70
10004708:	d10e      	bne.n	10004728 <usbd_edpt_open+0x2c>
1000470a:	460c      	mov	r4, r1
1000470c:	4b17      	ldr	r3, [pc, #92]	; (1000476c <usbd_edpt_open+0x70>)
1000470e:	7899      	ldrb	r1, [r3, #2]
10004710:	4620      	mov	r0, r4
10004712:	f001 fba1 	bl	10005e58 <tu_edpt_validate>
10004716:	4605      	mov	r5, r0
10004718:	b1b0      	cbz	r0, 10004748 <usbd_edpt_open+0x4c>
1000471a:	4621      	mov	r1, r4
1000471c:	4630      	mov	r0, r6
1000471e:	f7ff fcc1 	bl	100040a4 <dcd_edpt_open>
10004722:	4605      	mov	r5, r0
10004724:	4628      	mov	r0, r5
10004726:	bd70      	pop	{r4, r5, r6, pc}
10004728:	f240 520b 	movw	r2, #1291	; 0x50b
1000472c:	4910      	ldr	r1, [pc, #64]	; (10004770 <usbd_edpt_open+0x74>)
1000472e:	4811      	ldr	r0, [pc, #68]	; (10004774 <usbd_edpt_open+0x78>)
10004730:	f7fe ff24 	bl	1000357c <__wrap_printf>
10004734:	f04f 23e0 	mov.w	r3, #3758153728	; 0xe000e000
10004738:	f8d3 3df0 	ldr.w	r3, [r3, #3568]	; 0xdf0
1000473c:	f013 0f01 	tst.w	r3, #1
10004740:	d000      	beq.n	10004744 <usbd_edpt_open+0x48>
10004742:	be00      	bkpt	0x0000
10004744:	2500      	movs	r5, #0
10004746:	e7ed      	b.n	10004724 <usbd_edpt_open+0x28>
10004748:	f240 520c 	movw	r2, #1292	; 0x50c
1000474c:	4908      	ldr	r1, [pc, #32]	; (10004770 <usbd_edpt_open+0x74>)
1000474e:	4809      	ldr	r0, [pc, #36]	; (10004774 <usbd_edpt_open+0x78>)
10004750:	f7fe ff14 	bl	1000357c <__wrap_printf>
10004754:	f04f 23e0 	mov.w	r3, #3758153728	; 0xe000e000
10004758:	f8d3 3df0 	ldr.w	r3, [r3, #3568]	; 0xdf0
1000475c:	f013 0f01 	tst.w	r3, #1
10004760:	d0e0      	beq.n	10004724 <usbd_edpt_open+0x28>
10004762:	be00      	bkpt	0x0000
10004764:	e7de      	b.n	10004724 <usbd_edpt_open+0x28>
10004766:	bf00      	nop
10004768:	20001b98 	.word	0x20001b98
1000476c:	200027c0 	.word	0x200027c0
10004770:	10008b44 	.word	0x10008b44
10004774:	10008ae8 	.word	0x10008ae8

10004778 <usbd_open_edpt_pair>:
10004778:	e92d 4ff8 	stmdb	sp!, {r3, r4, r5, r6, r7, r8, r9, sl, fp, lr}
1000477c:	4680      	mov	r8, r0
1000477e:	460c      	mov	r4, r1
10004780:	4616      	mov	r6, r2
10004782:	461f      	mov	r7, r3
10004784:	f8dd 9028 	ldr.w	r9, [sp, #40]	; 0x28
10004788:	f8dd a02c 	ldr.w	sl, [sp, #44]	; 0x2c
1000478c:	2500      	movs	r5, #0
1000478e:	e026      	b.n	100047de <usbd_open_edpt_pair+0x66>
10004790:	f240 42e7 	movw	r2, #1255	; 0x4e7
10004794:	491f      	ldr	r1, [pc, #124]	; (10004814 <usbd_open_edpt_pair+0x9c>)
10004796:	4820      	ldr	r0, [pc, #128]	; (10004818 <usbd_open_edpt_pair+0xa0>)
10004798:	f7fe fef0 	bl	1000357c <__wrap_printf>
1000479c:	f04f 23e0 	mov.w	r3, #3758153728	; 0xe000e000
100047a0:	f8d3 3df0 	ldr.w	r3, [r3, #3568]	; 0xdf0
100047a4:	f013 0f01 	tst.w	r3, #1
100047a8:	d000      	beq.n	100047ac <usbd_open_edpt_pair+0x34>
100047aa:	be00      	bkpt	0x0000
100047ac:	f04f 0b00 	mov.w	fp, #0
100047b0:	4658      	mov	r0, fp
100047b2:	e8bd 8ff8 	ldmia.w	sp!, {r3, r4, r5, r6, r7, r8, r9, sl, fp, pc}
100047b6:	f44f 629d 	mov.w	r2, #1256	; 0x4e8
100047ba:	4916      	ldr	r1, [pc, #88]	; (10004814 <usbd_open_edpt_pair+0x9c>)
100047bc:	4816      	ldr	r0, [pc, #88]	; (10004818 <usbd_open_edpt_pair+0xa0>)
100047be:	f7fe fedd 	bl	1000357c <__wrap_printf>
100047c2:	f04f 23e0 	mov.w	r3, #3758153728	; 0xe000e000
100047c6:	f8d3 3df0 	ldr.w	r3, [r3, #3568]	; 0xdf0
100047ca:	f013 0f01 	tst.w	r3, #1
100047ce:	d0ef      	beq.n	100047b0 <usbd_open_edpt_pair+0x38>
100047d0:	be00      	bkpt	0x0000
100047d2:	e7ed      	b.n	100047b0 <usbd_open_edpt_pair+0x38>
100047d4:	f88a 3000 	strb.w	r3, [sl]
100047d8:	7823      	ldrb	r3, [r4, #0]
100047da:	441c      	add	r4, r3
100047dc:	3501      	adds	r5, #1
100047de:	42ae      	cmp	r6, r5
100047e0:	dd14      	ble.n	1000480c <usbd_open_edpt_pair+0x94>
100047e2:	7863      	ldrb	r3, [r4, #1]
100047e4:	2b05      	cmp	r3, #5
100047e6:	d1d3      	bne.n	10004790 <usbd_open_edpt_pair+0x18>
100047e8:	78e1      	ldrb	r1, [r4, #3]
100047ea:	f001 0103 	and.w	r1, r1, #3
100047ee:	42b9      	cmp	r1, r7
100047f0:	d1ce      	bne.n	10004790 <usbd_open_edpt_pair+0x18>
100047f2:	4621      	mov	r1, r4
100047f4:	4640      	mov	r0, r8
100047f6:	f7ff ff81 	bl	100046fc <usbd_edpt_open>
100047fa:	4683      	mov	fp, r0
100047fc:	2800      	cmp	r0, #0
100047fe:	d0da      	beq.n	100047b6 <usbd_open_edpt_pair+0x3e>
10004800:	78a3      	ldrb	r3, [r4, #2]
10004802:	09da      	lsrs	r2, r3, #7
10004804:	d1e6      	bne.n	100047d4 <usbd_open_edpt_pair+0x5c>
10004806:	f889 3000 	strb.w	r3, [r9]
1000480a:	e7e5      	b.n	100047d8 <usbd_open_edpt_pair+0x60>
1000480c:	f04f 0b01 	mov.w	fp, #1
10004810:	e7ce      	b.n	100047b0 <usbd_open_edpt_pair+0x38>
10004812:	bf00      	nop
10004814:	10008b54 	.word	0x10008b54
10004818:	10008ae8 	.word	0x10008ae8

1000481c <usbd_edpt_claim>:
1000481c:	b508      	push	{r3, lr}
1000481e:	f001 007f 	and.w	r0, r1, #127	; 0x7f
10004822:	0040      	lsls	r0, r0, #1
10004824:	eb00 10d1 	add.w	r0, r0, r1, lsr #7
10004828:	3030      	adds	r0, #48	; 0x30
1000482a:	4b04      	ldr	r3, [pc, #16]	; (1000483c <usbd_edpt_claim+0x20>)
1000482c:	4418      	add	r0, r3
1000482e:	4b04      	ldr	r3, [pc, #16]	; (10004840 <usbd_edpt_claim+0x24>)
10004830:	6819      	ldr	r1, [r3, #0]
10004832:	3004      	adds	r0, #4
10004834:	f001 fac6 	bl	10005dc4 <tu_edpt_claim>
10004838:	bd08      	pop	{r3, pc}
1000483a:	bf00      	nop
1000483c:	200027c0 	.word	0x200027c0
10004840:	20002814 	.word	0x20002814

10004844 <usbd_edpt_release>:
10004844:	b508      	push	{r3, lr}
10004846:	f001 007f 	and.w	r0, r1, #127	; 0x7f
1000484a:	0040      	lsls	r0, r0, #1
1000484c:	eb00 10d1 	add.w	r0, r0, r1, lsr #7
10004850:	3030      	adds	r0, #48	; 0x30
10004852:	4b04      	ldr	r3, [pc, #16]	; (10004864 <usbd_edpt_release+0x20>)
10004854:	4418      	add	r0, r3
10004856:	4b04      	ldr	r3, [pc, #16]	; (10004868 <usbd_edpt_release+0x24>)
10004858:	6819      	ldr	r1, [r3, #0]
1000485a:	3004      	adds	r0, #4
1000485c:	f001 fadc 	bl	10005e18 <tu_edpt_release>
10004860:	bd08      	pop	{r3, pc}
10004862:	bf00      	nop
10004864:	200027c0 	.word	0x200027c0
10004868:	20002814 	.word	0x20002814

1000486c <usbd_edpt_xfer>:
1000486c:	b570      	push	{r4, r5, r6, lr}
1000486e:	481f      	ldr	r0, [pc, #124]	; (100048ec <usbd_edpt_xfer+0x80>)
10004870:	7800      	ldrb	r0, [r0, #0]
10004872:	f001 057f 	and.w	r5, r1, #127	; 0x7f
10004876:	4c1e      	ldr	r4, [pc, #120]	; (100048f0 <usbd_edpt_xfer+0x84>)
10004878:	eb04 0c45 	add.w	ip, r4, r5, lsl #1
1000487c:	eb0c 1cd1 	add.w	ip, ip, r1, lsr #7
10004880:	f89c 4034 	ldrb.w	r4, [ip, #52]	; 0x34
10004884:	f014 0f01 	tst.w	r4, #1
10004888:	d11f      	bne.n	100048ca <usbd_edpt_xfer+0x5e>
1000488a:	09ce      	lsrs	r6, r1, #7
1000488c:	4c18      	ldr	r4, [pc, #96]	; (100048f0 <usbd_edpt_xfer+0x84>)
1000488e:	eb04 0445 	add.w	r4, r4, r5, lsl #1
10004892:	4434      	add	r4, r6
10004894:	f894 c034 	ldrb.w	ip, [r4, #52]	; 0x34
10004898:	f04c 0c01 	orr.w	ip, ip, #1
1000489c:	f884 c034 	strb.w	ip, [r4, #52]	; 0x34
100048a0:	3430      	adds	r4, #48	; 0x30
100048a2:	f7ff fc15 	bl	100040d0 <dcd_edpt_xfer>
100048a6:	b9f8      	cbnz	r0, 100048e8 <usbd_edpt_xfer+0x7c>
100048a8:	7923      	ldrb	r3, [r4, #4]
100048aa:	f36f 0300 	bfc	r3, #0, #1
100048ae:	7123      	strb	r3, [r4, #4]
100048b0:	7923      	ldrb	r3, [r4, #4]
100048b2:	f36f 0382 	bfc	r3, #2, #1
100048b6:	7123      	strb	r3, [r4, #4]
100048b8:	f04f 23e0 	mov.w	r3, #3758153728	; 0xe000e000
100048bc:	f8d3 3df0 	ldr.w	r3, [r3, #3568]	; 0xdf0
100048c0:	f013 0f01 	tst.w	r3, #1
100048c4:	d010      	beq.n	100048e8 <usbd_edpt_xfer+0x7c>
100048c6:	be00      	bkpt	0x0000
100048c8:	e00e      	b.n	100048e8 <usbd_edpt_xfer+0x7c>
100048ca:	f240 5239 	movw	r2, #1337	; 0x539
100048ce:	4909      	ldr	r1, [pc, #36]	; (100048f4 <usbd_edpt_xfer+0x88>)
100048d0:	4809      	ldr	r0, [pc, #36]	; (100048f8 <usbd_edpt_xfer+0x8c>)
100048d2:	f7fe fe53 	bl	1000357c <__wrap_printf>
100048d6:	f04f 23e0 	mov.w	r3, #3758153728	; 0xe000e000
100048da:	f8d3 3df0 	ldr.w	r3, [r3, #3568]	; 0xdf0
100048de:	f013 0f01 	tst.w	r3, #1
100048e2:	d000      	beq.n	100048e6 <usbd_edpt_xfer+0x7a>
100048e4:	be00      	bkpt	0x0000
100048e6:	2000      	movs	r0, #0
100048e8:	bd70      	pop	{r4, r5, r6, pc}
100048ea:	bf00      	nop
100048ec:	20001b98 	.word	0x20001b98
100048f0:	200027c0 	.word	0x200027c0
100048f4:	10008b34 	.word	0x10008b34
100048f8:	10008ae8 	.word	0x10008ae8

100048fc <usbd_edpt_stall>:
100048fc:	b538      	push	{r3, r4, r5, lr}
100048fe:	f001 057f 	and.w	r5, r1, #127	; 0x7f
10004902:	09cc      	lsrs	r4, r1, #7
10004904:	4b0a      	ldr	r3, [pc, #40]	; (10004930 <usbd_edpt_stall+0x34>)
10004906:	7818      	ldrb	r0, [r3, #0]
10004908:	f7ff fbf8 	bl	100040fc <dcd_edpt_stall>
1000490c:	4b09      	ldr	r3, [pc, #36]	; (10004934 <usbd_edpt_stall+0x38>)
1000490e:	eb03 0345 	add.w	r3, r3, r5, lsl #1
10004912:	4423      	add	r3, r4
10004914:	f893 2034 	ldrb.w	r2, [r3, #52]	; 0x34
10004918:	f042 0202 	orr.w	r2, r2, #2
1000491c:	f883 2034 	strb.w	r2, [r3, #52]	; 0x34
10004920:	f893 2034 	ldrb.w	r2, [r3, #52]	; 0x34
10004924:	f042 0201 	orr.w	r2, r2, #1
10004928:	f883 2034 	strb.w	r2, [r3, #52]	; 0x34
1000492c:	bd38      	pop	{r3, r4, r5, pc}
1000492e:	bf00      	nop
10004930:	20001b98 	.word	0x20001b98
10004934:	200027c0 	.word	0x200027c0

10004938 <usbd_edpt_clear_stall>:
10004938:	b538      	push	{r3, r4, r5, lr}
1000493a:	f001 057f 	and.w	r5, r1, #127	; 0x7f
1000493e:	09cc      	lsrs	r4, r1, #7
10004940:	4b0a      	ldr	r3, [pc, #40]	; (1000496c <usbd_edpt_clear_stall+0x34>)
10004942:	7818      	ldrb	r0, [r3, #0]
10004944:	f7ff fbf6 	bl	10004134 <dcd_edpt_clear_stall>
10004948:	4b09      	ldr	r3, [pc, #36]	; (10004970 <usbd_edpt_clear_stall+0x38>)
1000494a:	eb03 0345 	add.w	r3, r3, r5, lsl #1
1000494e:	4423      	add	r3, r4
10004950:	f893 2034 	ldrb.w	r2, [r3, #52]	; 0x34
10004954:	f36f 0241 	bfc	r2, #1, #1
10004958:	f883 2034 	strb.w	r2, [r3, #52]	; 0x34
1000495c:	f893 2034 	ldrb.w	r2, [r3, #52]	; 0x34
10004960:	f36f 0200 	bfc	r2, #0, #1
10004964:	f883 2034 	strb.w	r2, [r3, #52]	; 0x34
10004968:	bd38      	pop	{r3, r4, r5, pc}
1000496a:	bf00      	nop
1000496c:	20001b98 	.word	0x20001b98
10004970:	200027c0 	.word	0x200027c0

10004974 <usbd_edpt_stalled>:
10004974:	f001 027f 	and.w	r2, r1, #127	; 0x7f
10004978:	4b04      	ldr	r3, [pc, #16]	; (1000498c <usbd_edpt_stalled+0x18>)
1000497a:	eb03 0342 	add.w	r3, r3, r2, lsl #1
1000497e:	eb03 11d1 	add.w	r1, r3, r1, lsr #7
10004982:	f891 0034 	ldrb.w	r0, [r1, #52]	; 0x34
10004986:	f3c0 0040 	ubfx	r0, r0, #1, #1
1000498a:	4770      	bx	lr
1000498c:	200027c0 	.word	0x200027c0

10004990 <process_control_request>:
10004990:	e92d 41f0 	stmdb	sp!, {r4, r5, r6, r7, r8, lr}
10004994:	b082      	sub	sp, #8
10004996:	4606      	mov	r6, r0
10004998:	460c      	mov	r4, r1
1000499a:	2000      	movs	r0, #0
1000499c:	f000 fbd4 	bl	10005148 <usbd_control_set_complete_callback>
100049a0:	7823      	ldrb	r3, [r4, #0]
100049a2:	f003 0360 	and.w	r3, r3, #96	; 0x60
100049a6:	2b60      	cmp	r3, #96	; 0x60
100049a8:	d016      	beq.n	100049d8 <process_control_request+0x48>
100049aa:	2b40      	cmp	r3, #64	; 0x40
100049ac:	d027      	beq.n	100049fe <process_control_request+0x6e>
100049ae:	7822      	ldrb	r2, [r4, #0]
100049b0:	f002 021f 	and.w	r2, r2, #31
100049b4:	2a01      	cmp	r2, #1
100049b6:	f000 8106 	beq.w	10004bc6 <process_control_request+0x236>
100049ba:	2a02      	cmp	r2, #2
100049bc:	f000 8148 	beq.w	10004c50 <process_control_request+0x2c0>
100049c0:	b33a      	cbz	r2, 10004a12 <process_control_request+0x82>
100049c2:	f04f 23e0 	mov.w	r3, #3758153728	; 0xe000e000
100049c6:	f8d3 3df0 	ldr.w	r3, [r3, #3568]	; 0xdf0
100049ca:	f013 0f01 	tst.w	r3, #1
100049ce:	f000 81d8 	beq.w	10004d82 <process_control_request+0x3f2>
100049d2:	be00      	bkpt	0x0000
100049d4:	2500      	movs	r5, #0
100049d6:	e00e      	b.n	100049f6 <process_control_request+0x66>
100049d8:	f44f 7235 	mov.w	r2, #724	; 0x2d4
100049dc:	49ac      	ldr	r1, [pc, #688]	; (10004c90 <process_control_request+0x300>)
100049de:	48ad      	ldr	r0, [pc, #692]	; (10004c94 <process_control_request+0x304>)
100049e0:	f7fe fdcc 	bl	1000357c <__wrap_printf>
100049e4:	f04f 23e0 	mov.w	r3, #3758153728	; 0xe000e000
100049e8:	f8d3 3df0 	ldr.w	r3, [r3, #3568]	; 0xdf0
100049ec:	f013 0f01 	tst.w	r3, #1
100049f0:	d000      	beq.n	100049f4 <process_control_request+0x64>
100049f2:	be00      	bkpt	0x0000
100049f4:	2500      	movs	r5, #0
100049f6:	4628      	mov	r0, r5
100049f8:	b002      	add	sp, #8
100049fa:	e8bd 81f0 	ldmia.w	sp!, {r4, r5, r6, r7, r8, pc}
100049fe:	48a6      	ldr	r0, [pc, #664]	; (10004c98 <process_control_request+0x308>)
10004a00:	f000 fba2 	bl	10005148 <usbd_control_set_complete_callback>
10004a04:	4622      	mov	r2, r4
10004a06:	2101      	movs	r1, #1
10004a08:	4630      	mov	r0, r6
10004a0a:	f7fe ff3b 	bl	10003884 <tud_vendor_control_xfer_cb>
10004a0e:	4605      	mov	r5, r0
10004a10:	e7f1      	b.n	100049f6 <process_control_request+0x66>
10004a12:	2b20      	cmp	r3, #32
10004a14:	d00b      	beq.n	10004a2e <process_control_request+0x9e>
10004a16:	bb63      	cbnz	r3, 10004a72 <process_control_request+0xe2>
10004a18:	7863      	ldrb	r3, [r4, #1]
10004a1a:	2b09      	cmp	r3, #9
10004a1c:	f200 80c8 	bhi.w	10004bb0 <process_control_request+0x220>
10004a20:	e8df f003 	tbb	[pc, r3]
10004a24:	93c6a3b3 	.word	0x93c6a3b3
10004a28:	c68d31c6 	.word	0xc68d31c6
10004a2c:	4d40      	.short	0x4d40
10004a2e:	88a3      	ldrh	r3, [r4, #4]
10004a30:	b2db      	uxtb	r3, r3
10004a32:	2b0f      	cmp	r3, #15
10004a34:	f200 8193 	bhi.w	10004d5e <process_control_request+0x3ce>
10004a38:	4a98      	ldr	r2, [pc, #608]	; (10004c9c <process_control_request+0x30c>)
10004a3a:	4413      	add	r3, r2
10004a3c:	7919      	ldrb	r1, [r3, #4]
10004a3e:	4b98      	ldr	r3, [pc, #608]	; (10004ca0 <process_control_request+0x310>)
10004a40:	781b      	ldrb	r3, [r3, #0]
10004a42:	4299      	cmp	r1, r3
10004a44:	d20c      	bcs.n	10004a60 <process_control_request+0xd0>
10004a46:	4b97      	ldr	r3, [pc, #604]	; (10004ca4 <process_control_request+0x314>)
10004a48:	681b      	ldr	r3, [r3, #0]
10004a4a:	eb03 1141 	add.w	r1, r3, r1, lsl #5
10004a4e:	2900      	cmp	r1, #0
10004a50:	f000 8189 	beq.w	10004d66 <process_control_request+0x3d6>
10004a54:	4622      	mov	r2, r4
10004a56:	4630      	mov	r0, r6
10004a58:	f7ff fc26 	bl	100042a8 <invoke_class_control>
10004a5c:	4605      	mov	r5, r0
10004a5e:	e7ca      	b.n	100049f6 <process_control_request+0x66>
10004a60:	1c5a      	adds	r2, r3, #1
10004a62:	428a      	cmp	r2, r1
10004a64:	f2c0 817d 	blt.w	10004d62 <process_control_request+0x3d2>
10004a68:	1ac9      	subs	r1, r1, r3
10004a6a:	4b8f      	ldr	r3, [pc, #572]	; (10004ca8 <process_control_request+0x318>)
10004a6c:	eb03 1141 	add.w	r1, r3, r1, lsl #5
10004a70:	e7ed      	b.n	10004a4e <process_control_request+0xbe>
10004a72:	f04f 23e0 	mov.w	r3, #3758153728	; 0xe000e000
10004a76:	f8d3 3df0 	ldr.w	r3, [r3, #3568]	; 0xdf0
10004a7a:	f013 0f01 	tst.w	r3, #1
10004a7e:	d000      	beq.n	10004a82 <process_control_request+0xf2>
10004a80:	be00      	bkpt	0x0000
10004a82:	2500      	movs	r5, #0
10004a84:	e7b7      	b.n	100049f6 <process_control_request+0x66>
10004a86:	4620      	mov	r0, r4
10004a88:	f000 fb64 	bl	10005154 <usbd_control_set_request>
10004a8c:	8861      	ldrh	r1, [r4, #2]
10004a8e:	b2c9      	uxtb	r1, r1
10004a90:	4630      	mov	r0, r6
10004a92:	f7ff fa89 	bl	10003fa8 <dcd_set_address>
10004a96:	4a81      	ldr	r2, [pc, #516]	; (10004c9c <process_control_request+0x30c>)
10004a98:	7813      	ldrb	r3, [r2, #0]
10004a9a:	f043 0302 	orr.w	r3, r3, #2
10004a9e:	7013      	strb	r3, [r2, #0]
10004aa0:	2501      	movs	r5, #1
10004aa2:	e7a8      	b.n	100049f6 <process_control_request+0x66>
10004aa4:	4b7d      	ldr	r3, [pc, #500]	; (10004c9c <process_control_request+0x30c>)
10004aa6:	785b      	ldrb	r3, [r3, #1]
10004aa8:	f88d 3006 	strb.w	r3, [sp, #6]
10004aac:	2301      	movs	r3, #1
10004aae:	f10d 0206 	add.w	r2, sp, #6
10004ab2:	4621      	mov	r1, r4
10004ab4:	4630      	mov	r0, r6
10004ab6:	f000 fadf 	bl	10005078 <tud_control_xfer>
10004aba:	2501      	movs	r5, #1
10004abc:	e79b      	b.n	100049f6 <process_control_request+0x66>
10004abe:	8865      	ldrh	r5, [r4, #2]
10004ac0:	b2ed      	uxtb	r5, r5
10004ac2:	4b76      	ldr	r3, [pc, #472]	; (10004c9c <process_control_request+0x30c>)
10004ac4:	785b      	ldrb	r3, [r3, #1]
10004ac6:	b2db      	uxtb	r3, r3
10004ac8:	42ab      	cmp	r3, r5
10004aca:	d032      	beq.n	10004b32 <process_control_request+0x1a2>
10004acc:	4b73      	ldr	r3, [pc, #460]	; (10004c9c <process_control_request+0x30c>)
10004ace:	785b      	ldrb	r3, [r3, #1]
10004ad0:	b95b      	cbnz	r3, 10004aea <process_control_request+0x15a>
10004ad2:	4b72      	ldr	r3, [pc, #456]	; (10004c9c <process_control_request+0x30c>)
10004ad4:	705d      	strb	r5, [r3, #1]
10004ad6:	b355      	cbz	r5, 10004b2e <process_control_request+0x19e>
10004ad8:	4629      	mov	r1, r5
10004ada:	4630      	mov	r0, r6
10004adc:	f7ff fbf2 	bl	100042c4 <process_set_config>
10004ae0:	4605      	mov	r5, r0
10004ae2:	b190      	cbz	r0, 10004b0a <process_control_request+0x17a>
10004ae4:	f7ff fd58 	bl	10004598 <tud_mount_cb>
10004ae8:	e023      	b.n	10004b32 <process_control_request+0x1a2>
10004aea:	2100      	movs	r1, #0
10004aec:	4630      	mov	r0, r6
10004aee:	f7ff fabb 	bl	10004068 <dcd_sof_enable>
10004af2:	4630      	mov	r0, r6
10004af4:	f7ff fae7 	bl	100040c6 <dcd_edpt_close_all>
10004af8:	4f68      	ldr	r7, [pc, #416]	; (10004c9c <process_control_request+0x30c>)
10004afa:	f897 8002 	ldrb.w	r8, [r7, #2]
10004afe:	4630      	mov	r0, r6
10004b00:	f7ff fb82 	bl	10004208 <configuration_reset>
10004b04:	f887 8002 	strb.w	r8, [r7, #2]
10004b08:	e7e3      	b.n	10004ad2 <process_control_request+0x142>
10004b0a:	f44f 7249 	mov.w	r2, #804	; 0x324
10004b0e:	4960      	ldr	r1, [pc, #384]	; (10004c90 <process_control_request+0x300>)
10004b10:	4860      	ldr	r0, [pc, #384]	; (10004c94 <process_control_request+0x304>)
10004b12:	f7fe fd33 	bl	1000357c <__wrap_printf>
10004b16:	f04f 23e0 	mov.w	r3, #3758153728	; 0xe000e000
10004b1a:	f8d3 3df0 	ldr.w	r3, [r3, #3568]	; 0xdf0
10004b1e:	f013 0f01 	tst.w	r3, #1
10004b22:	d000      	beq.n	10004b26 <process_control_request+0x196>
10004b24:	be00      	bkpt	0x0000
10004b26:	4b5d      	ldr	r3, [pc, #372]	; (10004c9c <process_control_request+0x30c>)
10004b28:	2200      	movs	r2, #0
10004b2a:	705a      	strb	r2, [r3, #1]
10004b2c:	e763      	b.n	100049f6 <process_control_request+0x66>
10004b2e:	f7ff fd34 	bl	1000459a <tud_umount_cb>
10004b32:	4621      	mov	r1, r4
10004b34:	4630      	mov	r0, r6
10004b36:	f000 fa85 	bl	10005044 <tud_control_status>
10004b3a:	2501      	movs	r5, #1
10004b3c:	e75b      	b.n	100049f6 <process_control_request+0x66>
10004b3e:	4621      	mov	r1, r4
10004b40:	4630      	mov	r0, r6
10004b42:	f7ff fcad 	bl	100044a0 <process_get_descriptor>
10004b46:	4605      	mov	r5, r0
10004b48:	e755      	b.n	100049f6 <process_control_request+0x66>
10004b4a:	8863      	ldrh	r3, [r4, #2]
10004b4c:	2b01      	cmp	r3, #1
10004b4e:	d001      	beq.n	10004b54 <process_control_request+0x1c4>
10004b50:	2500      	movs	r5, #0
10004b52:	e750      	b.n	100049f6 <process_control_request+0x66>
10004b54:	4a51      	ldr	r2, [pc, #324]	; (10004c9c <process_control_request+0x30c>)
10004b56:	7813      	ldrb	r3, [r2, #0]
10004b58:	f043 0308 	orr.w	r3, r3, #8
10004b5c:	7013      	strb	r3, [r2, #0]
10004b5e:	4621      	mov	r1, r4
10004b60:	4630      	mov	r0, r6
10004b62:	f000 fa6f 	bl	10005044 <tud_control_status>
10004b66:	2501      	movs	r5, #1
10004b68:	e745      	b.n	100049f6 <process_control_request+0x66>
10004b6a:	8863      	ldrh	r3, [r4, #2]
10004b6c:	2b01      	cmp	r3, #1
10004b6e:	d001      	beq.n	10004b74 <process_control_request+0x1e4>
10004b70:	2500      	movs	r5, #0
10004b72:	e740      	b.n	100049f6 <process_control_request+0x66>
10004b74:	4b49      	ldr	r3, [pc, #292]	; (10004c9c <process_control_request+0x30c>)
10004b76:	781a      	ldrb	r2, [r3, #0]
10004b78:	f36f 02c3 	bfc	r2, #3, #1
10004b7c:	701a      	strb	r2, [r3, #0]
10004b7e:	4621      	mov	r1, r4
10004b80:	4630      	mov	r0, r6
10004b82:	f000 fa5f 	bl	10005044 <tud_control_status>
10004b86:	2501      	movs	r5, #1
10004b88:	e735      	b.n	100049f6 <process_control_request+0x66>
10004b8a:	4b44      	ldr	r3, [pc, #272]	; (10004c9c <process_control_request+0x30c>)
10004b8c:	781b      	ldrb	r3, [r3, #0]
10004b8e:	089a      	lsrs	r2, r3, #2
10004b90:	f3c3 1340 	ubfx	r3, r3, #5, #1
10004b94:	f002 0202 	and.w	r2, r2, #2
10004b98:	4313      	orrs	r3, r2
10004b9a:	f8ad 3006 	strh.w	r3, [sp, #6]
10004b9e:	2302      	movs	r3, #2
10004ba0:	f10d 0206 	add.w	r2, sp, #6
10004ba4:	4621      	mov	r1, r4
10004ba6:	4630      	mov	r0, r6
10004ba8:	f000 fa66 	bl	10005078 <tud_control_xfer>
10004bac:	2501      	movs	r5, #1
10004bae:	e722      	b.n	100049f6 <process_control_request+0x66>
10004bb0:	f04f 23e0 	mov.w	r3, #3758153728	; 0xe000e000
10004bb4:	f8d3 3df0 	ldr.w	r3, [r3, #3568]	; 0xdf0
10004bb8:	f013 0f01 	tst.w	r3, #1
10004bbc:	f000 80d5 	beq.w	10004d6a <process_control_request+0x3da>
10004bc0:	be00      	bkpt	0x0000
10004bc2:	2500      	movs	r5, #0
10004bc4:	e717      	b.n	100049f6 <process_control_request+0x66>
10004bc6:	88a3      	ldrh	r3, [r4, #4]
10004bc8:	b2db      	uxtb	r3, r3
10004bca:	2b0f      	cmp	r3, #15
10004bcc:	f200 80cf 	bhi.w	10004d6e <process_control_request+0x3de>
10004bd0:	4a32      	ldr	r2, [pc, #200]	; (10004c9c <process_control_request+0x30c>)
10004bd2:	4413      	add	r3, r2
10004bd4:	7919      	ldrb	r1, [r3, #4]
10004bd6:	4b32      	ldr	r3, [pc, #200]	; (10004ca0 <process_control_request+0x310>)
10004bd8:	781b      	ldrb	r3, [r3, #0]
10004bda:	4299      	cmp	r1, r3
10004bdc:	d223      	bcs.n	10004c26 <process_control_request+0x296>
10004bde:	4b31      	ldr	r3, [pc, #196]	; (10004ca4 <process_control_request+0x314>)
10004be0:	681b      	ldr	r3, [r3, #0]
10004be2:	eb03 1141 	add.w	r1, r3, r1, lsl #5
10004be6:	2900      	cmp	r1, #0
10004be8:	f000 80c5 	beq.w	10004d76 <process_control_request+0x3e6>
10004bec:	4622      	mov	r2, r4
10004bee:	4630      	mov	r0, r6
10004bf0:	f7ff fb5a 	bl	100042a8 <invoke_class_control>
10004bf4:	4605      	mov	r5, r0
10004bf6:	2800      	cmp	r0, #0
10004bf8:	f47f aefd 	bne.w	100049f6 <process_control_request+0x66>
10004bfc:	7823      	ldrb	r3, [r4, #0]
10004bfe:	f013 0f60 	tst.w	r3, #96	; 0x60
10004c02:	f47f aef8 	bne.w	100049f6 <process_control_request+0x66>
10004c06:	7863      	ldrb	r3, [r4, #1]
10004c08:	3b0a      	subs	r3, #10
10004c0a:	2b01      	cmp	r3, #1
10004c0c:	f63f aef3 	bhi.w	100049f6 <process_control_request+0x66>
10004c10:	f000 fa9a 	bl	10005148 <usbd_control_set_complete_callback>
10004c14:	7863      	ldrb	r3, [r4, #1]
10004c16:	2b0a      	cmp	r3, #10
10004c18:	d00e      	beq.n	10004c38 <process_control_request+0x2a8>
10004c1a:	4621      	mov	r1, r4
10004c1c:	4630      	mov	r0, r6
10004c1e:	f000 fa11 	bl	10005044 <tud_control_status>
10004c22:	2501      	movs	r5, #1
10004c24:	e6e7      	b.n	100049f6 <process_control_request+0x66>
10004c26:	1c5a      	adds	r2, r3, #1
10004c28:	428a      	cmp	r2, r1
10004c2a:	f2c0 80a2 	blt.w	10004d72 <process_control_request+0x3e2>
10004c2e:	1ac9      	subs	r1, r1, r3
10004c30:	4b1d      	ldr	r3, [pc, #116]	; (10004ca8 <process_control_request+0x318>)
10004c32:	eb03 1141 	add.w	r1, r3, r1, lsl #5
10004c36:	e7d6      	b.n	10004be6 <process_control_request+0x256>
10004c38:	2300      	movs	r3, #0
10004c3a:	f88d 3006 	strb.w	r3, [sp, #6]
10004c3e:	2301      	movs	r3, #1
10004c40:	f10d 0206 	add.w	r2, sp, #6
10004c44:	4621      	mov	r1, r4
10004c46:	4630      	mov	r0, r6
10004c48:	f000 fa16 	bl	10005078 <tud_control_xfer>
10004c4c:	2501      	movs	r5, #1
10004c4e:	e6d2      	b.n	100049f6 <process_control_request+0x66>
10004c50:	88a2      	ldrh	r2, [r4, #4]
10004c52:	b2d1      	uxtb	r1, r2
10004c54:	f002 057f 	and.w	r5, r2, #127	; 0x7f
10004c58:	f3c2 10c0 	ubfx	r0, r2, #7, #1
10004c5c:	f012 0f70 	tst.w	r2, #112	; 0x70
10004c60:	d124      	bne.n	10004cac <process_control_request+0x31c>
10004c62:	4a0e      	ldr	r2, [pc, #56]	; (10004c9c <process_control_request+0x30c>)
10004c64:	eb02 0245 	add.w	r2, r2, r5, lsl #1
10004c68:	4402      	add	r2, r0
10004c6a:	7d12      	ldrb	r2, [r2, #20]
10004c6c:	480c      	ldr	r0, [pc, #48]	; (10004ca0 <process_control_request+0x310>)
10004c6e:	7800      	ldrb	r0, [r0, #0]
10004c70:	4282      	cmp	r2, r0
10004c72:	d22b      	bcs.n	10004ccc <process_control_request+0x33c>
10004c74:	480b      	ldr	r0, [pc, #44]	; (10004ca4 <process_control_request+0x314>)
10004c76:	6805      	ldr	r5, [r0, #0]
10004c78:	eb05 1542 	add.w	r5, r5, r2, lsl #5
10004c7c:	b383      	cbz	r3, 10004ce0 <process_control_request+0x350>
10004c7e:	2d00      	cmp	r5, #0
10004c80:	d07b      	beq.n	10004d7a <process_control_request+0x3ea>
10004c82:	4622      	mov	r2, r4
10004c84:	4629      	mov	r1, r5
10004c86:	4630      	mov	r0, r6
10004c88:	f7ff fb0e 	bl	100042a8 <invoke_class_control>
10004c8c:	4605      	mov	r5, r0
10004c8e:	e6b2      	b.n	100049f6 <process_control_request+0x66>
10004c90:	10008ba0 	.word	0x10008ba0
10004c94:	10008ae8 	.word	0x10008ae8
10004c98:	10003885 	.word	0x10003885
10004c9c:	200027c0 	.word	0x200027c0
10004ca0:	2000320c 	.word	0x2000320c
10004ca4:	200025d4 	.word	0x200025d4
10004ca8:	10008bb8 	.word	0x10008bb8
10004cac:	f240 3295 	movw	r2, #917	; 0x395
10004cb0:	4935      	ldr	r1, [pc, #212]	; (10004d88 <process_control_request+0x3f8>)
10004cb2:	4836      	ldr	r0, [pc, #216]	; (10004d8c <process_control_request+0x3fc>)
10004cb4:	f7fe fc62 	bl	1000357c <__wrap_printf>
10004cb8:	f04f 23e0 	mov.w	r3, #3758153728	; 0xe000e000
10004cbc:	f8d3 3df0 	ldr.w	r3, [r3, #3568]	; 0xdf0
10004cc0:	f013 0f01 	tst.w	r3, #1
10004cc4:	d000      	beq.n	10004cc8 <process_control_request+0x338>
10004cc6:	be00      	bkpt	0x0000
10004cc8:	2500      	movs	r5, #0
10004cca:	e694      	b.n	100049f6 <process_control_request+0x66>
10004ccc:	1c45      	adds	r5, r0, #1
10004cce:	4295      	cmp	r5, r2
10004cd0:	db04      	blt.n	10004cdc <process_control_request+0x34c>
10004cd2:	1a12      	subs	r2, r2, r0
10004cd4:	4d2e      	ldr	r5, [pc, #184]	; (10004d90 <process_control_request+0x400>)
10004cd6:	eb05 1542 	add.w	r5, r5, r2, lsl #5
10004cda:	e7cf      	b.n	10004c7c <process_control_request+0x2ec>
10004cdc:	2500      	movs	r5, #0
10004cde:	e7cd      	b.n	10004c7c <process_control_request+0x2ec>
10004ce0:	7863      	ldrb	r3, [r4, #1]
10004ce2:	2b01      	cmp	r3, #1
10004ce4:	d01a      	beq.n	10004d1c <process_control_request+0x38c>
10004ce6:	2b03      	cmp	r3, #3
10004ce8:	d018      	beq.n	10004d1c <process_control_request+0x38c>
10004cea:	b14b      	cbz	r3, 10004d00 <process_control_request+0x370>
10004cec:	f04f 23e0 	mov.w	r3, #3758153728	; 0xe000e000
10004cf0:	f8d3 3df0 	ldr.w	r3, [r3, #3568]	; 0xdf0
10004cf4:	f013 0f01 	tst.w	r3, #1
10004cf8:	d000      	beq.n	10004cfc <process_control_request+0x36c>
10004cfa:	be00      	bkpt	0x0000
10004cfc:	2500      	movs	r5, #0
10004cfe:	e67a      	b.n	100049f6 <process_control_request+0x66>
10004d00:	4630      	mov	r0, r6
10004d02:	f7ff fe37 	bl	10004974 <usbd_edpt_stalled>
10004d06:	f8ad 0006 	strh.w	r0, [sp, #6]
10004d0a:	2302      	movs	r3, #2
10004d0c:	f10d 0206 	add.w	r2, sp, #6
10004d10:	4621      	mov	r1, r4
10004d12:	4630      	mov	r0, r6
10004d14:	f000 f9b0 	bl	10005078 <tud_control_xfer>
10004d18:	2501      	movs	r5, #1
10004d1a:	e66c      	b.n	100049f6 <process_control_request+0x66>
10004d1c:	8862      	ldrh	r2, [r4, #2]
10004d1e:	b922      	cbnz	r2, 10004d2a <process_control_request+0x39a>
10004d20:	2b01      	cmp	r3, #1
10004d22:	d018      	beq.n	10004d56 <process_control_request+0x3c6>
10004d24:	4630      	mov	r0, r6
10004d26:	f7ff fde9 	bl	100048fc <usbd_edpt_stall>
10004d2a:	b345      	cbz	r5, 10004d7e <process_control_request+0x3ee>
10004d2c:	4622      	mov	r2, r4
10004d2e:	4629      	mov	r1, r5
10004d30:	4630      	mov	r0, r6
10004d32:	f7ff fab9 	bl	100042a8 <invoke_class_control>
10004d36:	2000      	movs	r0, #0
10004d38:	f000 fa06 	bl	10005148 <usbd_control_set_complete_callback>
10004d3c:	4b15      	ldr	r3, [pc, #84]	; (10004d94 <process_control_request+0x404>)
10004d3e:	f893 5035 	ldrb.w	r5, [r3, #53]	; 0x35
10004d42:	f015 0501 	ands.w	r5, r5, #1
10004d46:	f47f ae56 	bne.w	100049f6 <process_control_request+0x66>
10004d4a:	4621      	mov	r1, r4
10004d4c:	4630      	mov	r0, r6
10004d4e:	f000 f979 	bl	10005044 <tud_control_status>
10004d52:	2501      	movs	r5, #1
10004d54:	e64f      	b.n	100049f6 <process_control_request+0x66>
10004d56:	4630      	mov	r0, r6
10004d58:	f7ff fdee 	bl	10004938 <usbd_edpt_clear_stall>
10004d5c:	e7e5      	b.n	10004d2a <process_control_request+0x39a>
10004d5e:	2500      	movs	r5, #0
10004d60:	e649      	b.n	100049f6 <process_control_request+0x66>
10004d62:	2500      	movs	r5, #0
10004d64:	e647      	b.n	100049f6 <process_control_request+0x66>
10004d66:	2500      	movs	r5, #0
10004d68:	e645      	b.n	100049f6 <process_control_request+0x66>
10004d6a:	2500      	movs	r5, #0
10004d6c:	e643      	b.n	100049f6 <process_control_request+0x66>
10004d6e:	2500      	movs	r5, #0
10004d70:	e641      	b.n	100049f6 <process_control_request+0x66>
10004d72:	2500      	movs	r5, #0
10004d74:	e63f      	b.n	100049f6 <process_control_request+0x66>
10004d76:	2500      	movs	r5, #0
10004d78:	e63d      	b.n	100049f6 <process_control_request+0x66>
10004d7a:	2500      	movs	r5, #0
10004d7c:	e63b      	b.n	100049f6 <process_control_request+0x66>
10004d7e:	2501      	movs	r5, #1
10004d80:	e639      	b.n	100049f6 <process_control_request+0x66>
10004d82:	2500      	movs	r5, #0
10004d84:	e637      	b.n	100049f6 <process_control_request+0x66>
10004d86:	bf00      	nop
10004d88:	10008ba0 	.word	0x10008ba0
10004d8c:	10008ae8 	.word	0x10008ae8
10004d90:	10008bb8 	.word	0x10008bb8
10004d94:	200027c0 	.word	0x200027c0

10004d98 <tud_task_ext>:
10004d98:	b510      	push	{r4, lr}
10004d9a:	b084      	sub	sp, #16
10004d9c:	f7ff fc10 	bl	100045c0 <tud_inited>
10004da0:	b948      	cbnz	r0, 10004db6 <tud_task_ext+0x1e>
10004da2:	b004      	add	sp, #16
10004da4:	bd10      	pop	{r4, pc}
10004da6:	f89d 0004 	ldrb.w	r0, [sp, #4]
10004daa:	f7ff fa77 	bl	1000429c <usbd_reset>
10004dae:	f89d 2008 	ldrb.w	r2, [sp, #8]
10004db2:	4b85      	ldr	r3, [pc, #532]	; (10004fc8 <tud_task_ext+0x230>)
10004db4:	709a      	strb	r2, [r3, #2]
10004db6:	4b85      	ldr	r3, [pc, #532]	; (10004fcc <tud_task_ext+0x234>)
10004db8:	681c      	ldr	r4, [r3, #0]
10004dba:	6963      	ldr	r3, [r4, #20]
10004dbc:	f3ef 8210 	mrs	r2, PRIMASK
10004dc0:	b672      	cpsid	i
10004dc2:	e8d3 0fcf 	ldaexb	r0, [r3]
10004dc6:	2101      	movs	r1, #1
10004dc8:	2800      	cmp	r0, #0
10004dca:	d1fa      	bne.n	10004dc2 <tud_task_ext+0x2a>
10004dcc:	e8c3 1f40 	strexb	r0, r1, [r3]
10004dd0:	2800      	cmp	r0, #0
10004dd2:	d1f6      	bne.n	10004dc2 <tud_task_ext+0x2a>
10004dd4:	f3bf 8f5f 	dmb	sy
10004dd8:	61a2      	str	r2, [r4, #24]
10004dda:	a901      	add	r1, sp, #4
10004ddc:	4620      	mov	r0, r4
10004dde:	f001 fc05 	bl	100065ec <tu_fifo_read>
10004de2:	6961      	ldr	r1, [r4, #20]
10004de4:	69a3      	ldr	r3, [r4, #24]
10004de6:	2200      	movs	r2, #0
10004de8:	e8c1 2f8f 	stlb	r2, [r1]
10004dec:	f383 8810 	msr	PRIMASK, r3
10004df0:	2800      	cmp	r0, #0
10004df2:	d0d6      	beq.n	10004da2 <tud_task_ext+0xa>
10004df4:	f89d 3005 	ldrb.w	r3, [sp, #5]
10004df8:	3b01      	subs	r3, #1
10004dfa:	2b07      	cmp	r3, #7
10004dfc:	f200 80da 	bhi.w	10004fb4 <tud_task_ext+0x21c>
10004e00:	a201      	add	r2, pc, #4	; (adr r2, 10004e08 <tud_task_ext+0x70>)
10004e02:	f852 f023 	ldr.w	pc, [r2, r3, lsl #2]
10004e06:	bf00      	nop
10004e08:	10004da7 	.word	0x10004da7
10004e0c:	10004e29 	.word	0x10004e29
10004e10:	10004fa1 	.word	0x10004fa1
10004e14:	10004f67 	.word	0x10004f67
10004e18:	10004f81 	.word	0x10004f81
10004e1c:	10004e37 	.word	0x10004e37
10004e20:	10004ecd 	.word	0x10004ecd
10004e24:	10004f93 	.word	0x10004f93
10004e28:	f89d 0004 	ldrb.w	r0, [sp, #4]
10004e2c:	f7ff fa36 	bl	1000429c <usbd_reset>
10004e30:	f7ff fbb3 	bl	1000459a <tud_umount_cb>
10004e34:	e7bf      	b.n	10004db6 <tud_task_ext+0x1e>
10004e36:	4b66      	ldr	r3, [pc, #408]	; (10004fd0 <tud_task_ext+0x238>)
10004e38:	781b      	ldrb	r3, [r3, #0]
10004e3a:	2b00      	cmp	r3, #0
10004e3c:	d036      	beq.n	10004eac <tud_task_ext+0x114>
10004e3e:	4a64      	ldr	r2, [pc, #400]	; (10004fd0 <tud_task_ext+0x238>)
10004e40:	7813      	ldrb	r3, [r2, #0]
10004e42:	3b01      	subs	r3, #1
10004e44:	b2db      	uxtb	r3, r3
10004e46:	7013      	strb	r3, [r2, #0]
10004e48:	7813      	ldrb	r3, [r2, #0]
10004e4a:	2b00      	cmp	r3, #0
10004e4c:	d1b3      	bne.n	10004db6 <tud_task_ext+0x1e>
10004e4e:	4b5e      	ldr	r3, [pc, #376]	; (10004fc8 <tud_task_ext+0x230>)
10004e50:	781a      	ldrb	r2, [r3, #0]
10004e52:	f042 0201 	orr.w	r2, r2, #1
10004e56:	701a      	strb	r2, [r3, #0]
10004e58:	f893 2034 	ldrb.w	r2, [r3, #52]	; 0x34
10004e5c:	f36f 0200 	bfc	r2, #0, #1
10004e60:	f883 2034 	strb.w	r2, [r3, #52]	; 0x34
10004e64:	f893 2034 	ldrb.w	r2, [r3, #52]	; 0x34
10004e68:	f36f 0282 	bfc	r2, #2, #1
10004e6c:	f883 2034 	strb.w	r2, [r3, #52]	; 0x34
10004e70:	f893 2035 	ldrb.w	r2, [r3, #53]	; 0x35
10004e74:	f36f 0200 	bfc	r2, #0, #1
10004e78:	f883 2035 	strb.w	r2, [r3, #53]	; 0x35
10004e7c:	f893 2035 	ldrb.w	r2, [r3, #53]	; 0x35
10004e80:	f36f 0282 	bfc	r2, #2, #1
10004e84:	f883 2035 	strb.w	r2, [r3, #53]	; 0x35
10004e88:	a902      	add	r1, sp, #8
10004e8a:	f89d 0004 	ldrb.w	r0, [sp, #4]
10004e8e:	f7ff fd7f 	bl	10004990 <process_control_request>
10004e92:	2800      	cmp	r0, #0
10004e94:	d18f      	bne.n	10004db6 <tud_task_ext+0x1e>
10004e96:	2100      	movs	r1, #0
10004e98:	f89d 0004 	ldrb.w	r0, [sp, #4]
10004e9c:	f7ff f92e 	bl	100040fc <dcd_edpt_stall>
10004ea0:	2180      	movs	r1, #128	; 0x80
10004ea2:	f89d 0004 	ldrb.w	r0, [sp, #4]
10004ea6:	f7ff f929 	bl	100040fc <dcd_edpt_stall>
10004eaa:	e784      	b.n	10004db6 <tud_task_ext+0x1e>
10004eac:	f240 2265 	movw	r2, #613	; 0x265
10004eb0:	4948      	ldr	r1, [pc, #288]	; (10004fd4 <tud_task_ext+0x23c>)
10004eb2:	4849      	ldr	r0, [pc, #292]	; (10004fd8 <tud_task_ext+0x240>)
10004eb4:	f7fe fb62 	bl	1000357c <__wrap_printf>
10004eb8:	f04f 23e0 	mov.w	r3, #3758153728	; 0xe000e000
10004ebc:	f8d3 3df0 	ldr.w	r3, [r3, #3568]	; 0xdf0
10004ec0:	f013 0f01 	tst.w	r3, #1
10004ec4:	f43f af6d 	beq.w	10004da2 <tud_task_ext+0xa>
10004ec8:	be00      	bkpt	0x0000
10004eca:	e76a      	b.n	10004da2 <tud_task_ext+0xa>
10004ecc:	f89d 1008 	ldrb.w	r1, [sp, #8]
10004ed0:	f001 007f 	and.w	r0, r1, #127	; 0x7f
10004ed4:	09cc      	lsrs	r4, r1, #7
10004ed6:	4b3c      	ldr	r3, [pc, #240]	; (10004fc8 <tud_task_ext+0x230>)
10004ed8:	eb03 0340 	add.w	r3, r3, r0, lsl #1
10004edc:	eb03 13d1 	add.w	r3, r3, r1, lsr #7
10004ee0:	f893 2034 	ldrb.w	r2, [r3, #52]	; 0x34
10004ee4:	f36f 0200 	bfc	r2, #0, #1
10004ee8:	f883 2034 	strb.w	r2, [r3, #52]	; 0x34
10004eec:	f893 2034 	ldrb.w	r2, [r3, #52]	; 0x34
10004ef0:	f36f 0282 	bfc	r2, #2, #1
10004ef4:	f883 2034 	strb.w	r2, [r3, #52]	; 0x34
10004ef8:	b1a8      	cbz	r0, 10004f26 <tud_task_ext+0x18e>
10004efa:	4b33      	ldr	r3, [pc, #204]	; (10004fc8 <tud_task_ext+0x230>)
10004efc:	eb03 0340 	add.w	r3, r3, r0, lsl #1
10004f00:	4423      	add	r3, r4
10004f02:	7d1a      	ldrb	r2, [r3, #20]
10004f04:	4b35      	ldr	r3, [pc, #212]	; (10004fdc <tud_task_ext+0x244>)
10004f06:	781b      	ldrb	r3, [r3, #0]
10004f08:	429a      	cmp	r2, r3
10004f0a:	d214      	bcs.n	10004f36 <tud_task_ext+0x19e>
10004f0c:	4b34      	ldr	r3, [pc, #208]	; (10004fe0 <tud_task_ext+0x248>)
10004f0e:	681b      	ldr	r3, [r3, #0]
10004f10:	eb03 1342 	add.w	r3, r3, r2, lsl #5
10004f14:	b1bb      	cbz	r3, 10004f46 <tud_task_ext+0x1ae>
10004f16:	699c      	ldr	r4, [r3, #24]
10004f18:	9b03      	ldr	r3, [sp, #12]
10004f1a:	f89d 2009 	ldrb.w	r2, [sp, #9]
10004f1e:	f89d 0004 	ldrb.w	r0, [sp, #4]
10004f22:	47a0      	blx	r4
10004f24:	e747      	b.n	10004db6 <tud_task_ext+0x1e>
10004f26:	9b03      	ldr	r3, [sp, #12]
10004f28:	f89d 2009 	ldrb.w	r2, [sp, #9]
10004f2c:	f89d 0004 	ldrb.w	r0, [sp, #4]
10004f30:	f000 f91e 	bl	10005170 <usbd_control_xfer_cb>
10004f34:	e73f      	b.n	10004db6 <tud_task_ext+0x1e>
10004f36:	1c58      	adds	r0, r3, #1
10004f38:	4290      	cmp	r0, r2
10004f3a:	db04      	blt.n	10004f46 <tud_task_ext+0x1ae>
10004f3c:	1ad2      	subs	r2, r2, r3
10004f3e:	4b29      	ldr	r3, [pc, #164]	; (10004fe4 <tud_task_ext+0x24c>)
10004f40:	eb03 1342 	add.w	r3, r3, r2, lsl #5
10004f44:	e7e6      	b.n	10004f14 <tud_task_ext+0x17c>
10004f46:	f44f 7224 	mov.w	r2, #656	; 0x290
10004f4a:	4922      	ldr	r1, [pc, #136]	; (10004fd4 <tud_task_ext+0x23c>)
10004f4c:	4822      	ldr	r0, [pc, #136]	; (10004fd8 <tud_task_ext+0x240>)
10004f4e:	f7fe fb15 	bl	1000357c <__wrap_printf>
10004f52:	f04f 23e0 	mov.w	r3, #3758153728	; 0xe000e000
10004f56:	f8d3 3df0 	ldr.w	r3, [r3, #3568]	; 0xdf0
10004f5a:	f013 0f01 	tst.w	r3, #1
10004f5e:	f43f af20 	beq.w	10004da2 <tud_task_ext+0xa>
10004f62:	be00      	bkpt	0x0000
10004f64:	e71d      	b.n	10004da2 <tud_task_ext+0xa>
10004f66:	4b18      	ldr	r3, [pc, #96]	; (10004fc8 <tud_task_ext+0x230>)
10004f68:	781b      	ldrb	r3, [r3, #0]
10004f6a:	f013 0f01 	tst.w	r3, #1
10004f6e:	f43f af22 	beq.w	10004db6 <tud_task_ext+0x1e>
10004f72:	4b15      	ldr	r3, [pc, #84]	; (10004fc8 <tud_task_ext+0x230>)
10004f74:	7818      	ldrb	r0, [r3, #0]
10004f76:	f3c0 00c0 	ubfx	r0, r0, #3, #1
10004f7a:	f7ff fb0f 	bl	1000459c <tud_suspend_cb>
10004f7e:	e71a      	b.n	10004db6 <tud_task_ext+0x1e>
10004f80:	4b11      	ldr	r3, [pc, #68]	; (10004fc8 <tud_task_ext+0x230>)
10004f82:	781b      	ldrb	r3, [r3, #0]
10004f84:	f013 0f01 	tst.w	r3, #1
10004f88:	f43f af15 	beq.w	10004db6 <tud_task_ext+0x1e>
10004f8c:	f7ff fb07 	bl	1000459e <tud_resume_cb>
10004f90:	e711      	b.n	10004db6 <tud_task_ext+0x1e>
10004f92:	9b02      	ldr	r3, [sp, #8]
10004f94:	2b00      	cmp	r3, #0
10004f96:	f43f af0e 	beq.w	10004db6 <tud_task_ext+0x1e>
10004f9a:	9803      	ldr	r0, [sp, #12]
10004f9c:	4798      	blx	r3
10004f9e:	e70a      	b.n	10004db6 <tud_task_ext+0x1e>
10004fa0:	4b09      	ldr	r3, [pc, #36]	; (10004fc8 <tud_task_ext+0x230>)
10004fa2:	78db      	ldrb	r3, [r3, #3]
10004fa4:	f013 0f01 	tst.w	r3, #1
10004fa8:	f43f af05 	beq.w	10004db6 <tud_task_ext+0x1e>
10004fac:	9802      	ldr	r0, [sp, #8]
10004fae:	f7ff fa72 	bl	10004496 <tud_sof_cb>
10004fb2:	e700      	b.n	10004db6 <tud_task_ext+0x1e>
10004fb4:	f04f 23e0 	mov.w	r3, #3758153728	; 0xe000e000
10004fb8:	f8d3 3df0 	ldr.w	r3, [r3, #3568]	; 0xdf0
10004fbc:	f013 0f01 	tst.w	r3, #1
10004fc0:	f43f aef9 	beq.w	10004db6 <tud_task_ext+0x1e>
10004fc4:	be00      	bkpt	0x0000
10004fc6:	e6f6      	b.n	10004db6 <tud_task_ext+0x1e>
10004fc8:	200027c0 	.word	0x200027c0
10004fcc:	20002818 	.word	0x20002818
10004fd0:	2000320e 	.word	0x2000320e
10004fd4:	10008b14 	.word	0x10008b14
10004fd8:	10008ae8 	.word	0x10008ae8
10004fdc:	2000320c 	.word	0x2000320c
10004fe0:	200025d4 	.word	0x200025d4
10004fe4:	10008bb8 	.word	0x10008bb8

10004fe8 <data_stage_xact>:
10004fe8:	b5f8      	push	{r3, r4, r5, r6, r7, lr}
10004fea:	4607      	mov	r7, r0
10004fec:	4b13      	ldr	r3, [pc, #76]	; (1000503c <data_stage_xact+0x54>)
10004fee:	899e      	ldrh	r6, [r3, #12]
10004ff0:	89dd      	ldrh	r5, [r3, #14]
10004ff2:	1b74      	subs	r4, r6, r5
10004ff4:	b2a4      	uxth	r4, r4
10004ff6:	2c40      	cmp	r4, #64	; 0x40
10004ff8:	bf28      	it	cs
10004ffa:	2440      	movcs	r4, #64	; 0x40
10004ffc:	f993 3000 	ldrsb.w	r3, [r3]
10005000:	2b00      	cmp	r3, #0
10005002:	db08      	blt.n	10005016 <data_stage_xact+0x2e>
10005004:	2100      	movs	r1, #0
10005006:	42ae      	cmp	r6, r5
10005008:	d013      	beq.n	10005032 <data_stage_xact+0x4a>
1000500a:	4a0d      	ldr	r2, [pc, #52]	; (10005040 <data_stage_xact+0x58>)
1000500c:	4623      	mov	r3, r4
1000500e:	4638      	mov	r0, r7
10005010:	f7ff fc2c 	bl	1000486c <usbd_edpt_xfer>
10005014:	bdf8      	pop	{r3, r4, r5, r6, r7, pc}
10005016:	42ae      	cmp	r6, r5
10005018:	d009      	beq.n	1000502e <data_stage_xact+0x46>
1000501a:	4b08      	ldr	r3, [pc, #32]	; (1000503c <data_stage_xact+0x54>)
1000501c:	6899      	ldr	r1, [r3, #8]
1000501e:	2c40      	cmp	r4, #64	; 0x40
10005020:	d809      	bhi.n	10005036 <data_stage_xact+0x4e>
10005022:	4622      	mov	r2, r4
10005024:	4806      	ldr	r0, [pc, #24]	; (10005040 <data_stage_xact+0x58>)
10005026:	f002 fb33 	bl	10007690 <memcpy>
1000502a:	2180      	movs	r1, #128	; 0x80
1000502c:	e7eb      	b.n	10005006 <data_stage_xact+0x1e>
1000502e:	2180      	movs	r1, #128	; 0x80
10005030:	e7e9      	b.n	10005006 <data_stage_xact+0x1e>
10005032:	2200      	movs	r2, #0
10005034:	e7ea      	b.n	1000500c <data_stage_xact+0x24>
10005036:	2000      	movs	r0, #0
10005038:	e7ec      	b.n	10005014 <data_stage_xact+0x2c>
1000503a:	bf00      	nop
1000503c:	20002764 	.word	0x20002764
10005040:	20002724 	.word	0x20002724

10005044 <tud_control_status>:
10005044:	b508      	push	{r3, lr}
10005046:	4686      	mov	lr, r0
10005048:	460b      	mov	r3, r1
1000504a:	4a0a      	ldr	r2, [pc, #40]	; (10005074 <tud_control_status+0x30>)
1000504c:	4694      	mov	ip, r2
1000504e:	6808      	ldr	r0, [r1, #0]
10005050:	6849      	ldr	r1, [r1, #4]
10005052:	e8ac 0003 	stmia.w	ip!, {r0, r1}
10005056:	2100      	movs	r1, #0
10005058:	6091      	str	r1, [r2, #8]
1000505a:	81d1      	strh	r1, [r2, #14]
1000505c:	8191      	strh	r1, [r2, #12]
1000505e:	f993 3000 	ldrsb.w	r3, [r3]
10005062:	428b      	cmp	r3, r1
10005064:	db00      	blt.n	10005068 <tud_control_status+0x24>
10005066:	2180      	movs	r1, #128	; 0x80
10005068:	2300      	movs	r3, #0
1000506a:	461a      	mov	r2, r3
1000506c:	4670      	mov	r0, lr
1000506e:	f7ff fbfd 	bl	1000486c <usbd_edpt_xfer>
10005072:	bd08      	pop	{r3, pc}
10005074:	20002764 	.word	0x20002764

10005078 <tud_control_xfer>:
10005078:	b538      	push	{r3, r4, r5, lr}
1000507a:	4605      	mov	r5, r0
1000507c:	468c      	mov	ip, r1
1000507e:	4c2a      	ldr	r4, [pc, #168]	; (10005128 <tud_control_xfer+0xb0>)
10005080:	46a6      	mov	lr, r4
10005082:	6808      	ldr	r0, [r1, #0]
10005084:	6849      	ldr	r1, [r1, #4]
10005086:	e8ae 0003 	stmia.w	lr!, {r0, r1}
1000508a:	60a2      	str	r2, [r4, #8]
1000508c:	2100      	movs	r1, #0
1000508e:	81e1      	strh	r1, [r4, #14]
10005090:	f8bc 1006 	ldrh.w	r1, [ip, #6]
10005094:	428b      	cmp	r3, r1
10005096:	bf28      	it	cs
10005098:	460b      	movcs	r3, r1
1000509a:	81a3      	strh	r3, [r4, #12]
1000509c:	f8bc 1006 	ldrh.w	r1, [ip, #6]
100050a0:	b329      	cbz	r1, 100050ee <tud_control_xfer+0x76>
100050a2:	b103      	cbz	r3, 100050a6 <tud_control_xfer+0x2e>
100050a4:	b132      	cbz	r2, 100050b4 <tud_control_xfer+0x3c>
100050a6:	4628      	mov	r0, r5
100050a8:	f7ff ff9e 	bl	10004fe8 <data_stage_xact>
100050ac:	4604      	mov	r4, r0
100050ae:	b180      	cbz	r0, 100050d2 <tud_control_xfer+0x5a>
100050b0:	4620      	mov	r0, r4
100050b2:	bd38      	pop	{r3, r4, r5, pc}
100050b4:	2272      	movs	r2, #114	; 0x72
100050b6:	491d      	ldr	r1, [pc, #116]	; (1000512c <tud_control_xfer+0xb4>)
100050b8:	481d      	ldr	r0, [pc, #116]	; (10005130 <tud_control_xfer+0xb8>)
100050ba:	f7fe fa5f 	bl	1000357c <__wrap_printf>
100050be:	f04f 23e0 	mov.w	r3, #3758153728	; 0xe000e000
100050c2:	f8d3 3df0 	ldr.w	r3, [r3, #3568]	; 0xdf0
100050c6:	f013 0f01 	tst.w	r3, #1
100050ca:	d000      	beq.n	100050ce <tud_control_xfer+0x56>
100050cc:	be00      	bkpt	0x0000
100050ce:	2400      	movs	r4, #0
100050d0:	e7ee      	b.n	100050b0 <tud_control_xfer+0x38>
100050d2:	2274      	movs	r2, #116	; 0x74
100050d4:	4915      	ldr	r1, [pc, #84]	; (1000512c <tud_control_xfer+0xb4>)
100050d6:	4816      	ldr	r0, [pc, #88]	; (10005130 <tud_control_xfer+0xb8>)
100050d8:	f7fe fa50 	bl	1000357c <__wrap_printf>
100050dc:	f04f 23e0 	mov.w	r3, #3758153728	; 0xe000e000
100050e0:	f8d3 3df0 	ldr.w	r3, [r3, #3568]	; 0xdf0
100050e4:	f013 0f01 	tst.w	r3, #1
100050e8:	d0e2      	beq.n	100050b0 <tud_control_xfer+0x38>
100050ea:	be00      	bkpt	0x0000
100050ec:	e7e0      	b.n	100050b0 <tud_control_xfer+0x38>
100050ee:	f99c 3000 	ldrsb.w	r3, [ip]
100050f2:	2b00      	cmp	r3, #0
100050f4:	db16      	blt.n	10005124 <tud_control_xfer+0xac>
100050f6:	2180      	movs	r1, #128	; 0x80
100050f8:	2300      	movs	r3, #0
100050fa:	461a      	mov	r2, r3
100050fc:	4628      	mov	r0, r5
100050fe:	f7ff fbb5 	bl	1000486c <usbd_edpt_xfer>
10005102:	4604      	mov	r4, r0
10005104:	2800      	cmp	r0, #0
10005106:	d1d3      	bne.n	100050b0 <tud_control_xfer+0x38>
10005108:	2276      	movs	r2, #118	; 0x76
1000510a:	4908      	ldr	r1, [pc, #32]	; (1000512c <tud_control_xfer+0xb4>)
1000510c:	4808      	ldr	r0, [pc, #32]	; (10005130 <tud_control_xfer+0xb8>)
1000510e:	f7fe fa35 	bl	1000357c <__wrap_printf>
10005112:	f04f 23e0 	mov.w	r3, #3758153728	; 0xe000e000
10005116:	f8d3 3df0 	ldr.w	r3, [r3, #3568]	; 0xdf0
1000511a:	f013 0f01 	tst.w	r3, #1
1000511e:	d0c7      	beq.n	100050b0 <tud_control_xfer+0x38>
10005120:	be00      	bkpt	0x0000
10005122:	e7c5      	b.n	100050b0 <tud_control_xfer+0x38>
10005124:	2100      	movs	r1, #0
10005126:	e7e7      	b.n	100050f8 <tud_control_xfer+0x80>
10005128:	20002764 	.word	0x20002764
1000512c:	10008c10 	.word	0x10008c10
10005130:	10008ae8 	.word	0x10008ae8

10005134 <usbd_control_reset>:
10005134:	4b03      	ldr	r3, [pc, #12]	; (10005144 <usbd_control_reset+0x10>)
10005136:	2200      	movs	r2, #0
10005138:	601a      	str	r2, [r3, #0]
1000513a:	605a      	str	r2, [r3, #4]
1000513c:	609a      	str	r2, [r3, #8]
1000513e:	60da      	str	r2, [r3, #12]
10005140:	611a      	str	r2, [r3, #16]
10005142:	4770      	bx	lr
10005144:	20002764 	.word	0x20002764

10005148 <usbd_control_set_complete_callback>:
10005148:	4b01      	ldr	r3, [pc, #4]	; (10005150 <usbd_control_set_complete_callback+0x8>)
1000514a:	6118      	str	r0, [r3, #16]
1000514c:	4770      	bx	lr
1000514e:	bf00      	nop
10005150:	20002764 	.word	0x20002764

10005154 <usbd_control_set_request>:
10005154:	4601      	mov	r1, r0
10005156:	4b05      	ldr	r3, [pc, #20]	; (1000516c <usbd_control_set_request+0x18>)
10005158:	461a      	mov	r2, r3
1000515a:	6800      	ldr	r0, [r0, #0]
1000515c:	6849      	ldr	r1, [r1, #4]
1000515e:	c203      	stmia	r2!, {r0, r1}
10005160:	2200      	movs	r2, #0
10005162:	609a      	str	r2, [r3, #8]
10005164:	81da      	strh	r2, [r3, #14]
10005166:	819a      	strh	r2, [r3, #12]
10005168:	4770      	bx	lr
1000516a:	bf00      	nop
1000516c:	20002764 	.word	0x20002764

10005170 <usbd_control_xfer_cb>:
10005170:	b538      	push	{r3, r4, r5, lr}
10005172:	4605      	mov	r5, r0
10005174:	461c      	mov	r4, r3
10005176:	4b42      	ldr	r3, [pc, #264]	; (10005280 <usbd_control_xfer_cb+0x110>)
10005178:	781b      	ldrb	r3, [r3, #0]
1000517a:	09db      	lsrs	r3, r3, #7
1000517c:	ebb3 1fd1 	cmp.w	r3, r1, lsr #7
10005180:	d01c      	beq.n	100051bc <usbd_control_xfer_cb+0x4c>
10005182:	b17c      	cbz	r4, 100051a4 <usbd_control_xfer_cb+0x34>
10005184:	229d      	movs	r2, #157	; 0x9d
10005186:	493f      	ldr	r1, [pc, #252]	; (10005284 <usbd_control_xfer_cb+0x114>)
10005188:	483f      	ldr	r0, [pc, #252]	; (10005288 <usbd_control_xfer_cb+0x118>)
1000518a:	f7fe f9f7 	bl	1000357c <__wrap_printf>
1000518e:	f04f 23e0 	mov.w	r3, #3758153728	; 0xe000e000
10005192:	f8d3 3df0 	ldr.w	r3, [r3, #3568]	; 0xdf0
10005196:	f013 0f01 	tst.w	r3, #1
1000519a:	d000      	beq.n	1000519e <usbd_control_xfer_cb+0x2e>
1000519c:	be00      	bkpt	0x0000
1000519e:	2400      	movs	r4, #0
100051a0:	4620      	mov	r0, r4
100051a2:	bd38      	pop	{r3, r4, r5, pc}
100051a4:	4c36      	ldr	r4, [pc, #216]	; (10005280 <usbd_control_xfer_cb+0x110>)
100051a6:	4621      	mov	r1, r4
100051a8:	f7fe ff6c 	bl	10004084 <dcd_edpt0_status_complete>
100051ac:	6923      	ldr	r3, [r4, #16]
100051ae:	b11b      	cbz	r3, 100051b8 <usbd_control_xfer_cb+0x48>
100051b0:	4622      	mov	r2, r4
100051b2:	2103      	movs	r1, #3
100051b4:	4628      	mov	r0, r5
100051b6:	4798      	blx	r3
100051b8:	2401      	movs	r4, #1
100051ba:	e7f1      	b.n	100051a0 <usbd_control_xfer_cb+0x30>
100051bc:	4b30      	ldr	r3, [pc, #192]	; (10005280 <usbd_control_xfer_cb+0x110>)
100051be:	f993 3000 	ldrsb.w	r3, [r3]
100051c2:	2b00      	cmp	r3, #0
100051c4:	db07      	blt.n	100051d6 <usbd_control_xfer_cb+0x66>
100051c6:	4b2e      	ldr	r3, [pc, #184]	; (10005280 <usbd_control_xfer_cb+0x110>)
100051c8:	6898      	ldr	r0, [r3, #8]
100051ca:	2800      	cmp	r0, #0
100051cc:	d055      	beq.n	1000527a <usbd_control_xfer_cb+0x10a>
100051ce:	4622      	mov	r2, r4
100051d0:	492e      	ldr	r1, [pc, #184]	; (1000528c <usbd_control_xfer_cb+0x11c>)
100051d2:	f002 fa5d 	bl	10007690 <memcpy>
100051d6:	4a2a      	ldr	r2, [pc, #168]	; (10005280 <usbd_control_xfer_cb+0x110>)
100051d8:	89d3      	ldrh	r3, [r2, #14]
100051da:	fa13 f384 	uxtah	r3, r3, r4
100051de:	b29b      	uxth	r3, r3
100051e0:	81d3      	strh	r3, [r2, #14]
100051e2:	6891      	ldr	r1, [r2, #8]
100051e4:	4421      	add	r1, r4
100051e6:	6091      	str	r1, [r2, #8]
100051e8:	88d2      	ldrh	r2, [r2, #6]
100051ea:	4293      	cmp	r3, r2
100051ec:	d001      	beq.n	100051f2 <usbd_control_xfer_cb+0x82>
100051ee:	2c3f      	cmp	r4, #63	; 0x3f
100051f0:	d82f      	bhi.n	10005252 <usbd_control_xfer_cb+0xe2>
100051f2:	4b23      	ldr	r3, [pc, #140]	; (10005280 <usbd_control_xfer_cb+0x110>)
100051f4:	691b      	ldr	r3, [r3, #16]
100051f6:	b123      	cbz	r3, 10005202 <usbd_control_xfer_cb+0x92>
100051f8:	4a21      	ldr	r2, [pc, #132]	; (10005280 <usbd_control_xfer_cb+0x110>)
100051fa:	2102      	movs	r1, #2
100051fc:	4628      	mov	r0, r5
100051fe:	4798      	blx	r3
10005200:	b1e8      	cbz	r0, 1000523e <usbd_control_xfer_cb+0xce>
10005202:	4b1f      	ldr	r3, [pc, #124]	; (10005280 <usbd_control_xfer_cb+0x110>)
10005204:	f993 3000 	ldrsb.w	r3, [r3]
10005208:	2b00      	cmp	r3, #0
1000520a:	db16      	blt.n	1000523a <usbd_control_xfer_cb+0xca>
1000520c:	2180      	movs	r1, #128	; 0x80
1000520e:	2300      	movs	r3, #0
10005210:	461a      	mov	r2, r3
10005212:	4628      	mov	r0, r5
10005214:	f7ff fb2a 	bl	1000486c <usbd_edpt_xfer>
10005218:	4604      	mov	r4, r0
1000521a:	2800      	cmp	r0, #0
1000521c:	d1c0      	bne.n	100051a0 <usbd_control_xfer_cb+0x30>
1000521e:	22c5      	movs	r2, #197	; 0xc5
10005220:	4918      	ldr	r1, [pc, #96]	; (10005284 <usbd_control_xfer_cb+0x114>)
10005222:	4819      	ldr	r0, [pc, #100]	; (10005288 <usbd_control_xfer_cb+0x118>)
10005224:	f7fe f9aa 	bl	1000357c <__wrap_printf>
10005228:	f04f 23e0 	mov.w	r3, #3758153728	; 0xe000e000
1000522c:	f8d3 3df0 	ldr.w	r3, [r3, #3568]	; 0xdf0
10005230:	f013 0f01 	tst.w	r3, #1
10005234:	d0b4      	beq.n	100051a0 <usbd_control_xfer_cb+0x30>
10005236:	be00      	bkpt	0x0000
10005238:	e7b2      	b.n	100051a0 <usbd_control_xfer_cb+0x30>
1000523a:	2100      	movs	r1, #0
1000523c:	e7e7      	b.n	1000520e <usbd_control_xfer_cb+0x9e>
1000523e:	2100      	movs	r1, #0
10005240:	4628      	mov	r0, r5
10005242:	f7fe ff5b 	bl	100040fc <dcd_edpt_stall>
10005246:	2180      	movs	r1, #128	; 0x80
10005248:	4628      	mov	r0, r5
1000524a:	f7fe ff57 	bl	100040fc <dcd_edpt_stall>
1000524e:	2401      	movs	r4, #1
10005250:	e7a6      	b.n	100051a0 <usbd_control_xfer_cb+0x30>
10005252:	4628      	mov	r0, r5
10005254:	f7ff fec8 	bl	10004fe8 <data_stage_xact>
10005258:	4604      	mov	r4, r0
1000525a:	2800      	cmp	r0, #0
1000525c:	d1a0      	bne.n	100051a0 <usbd_control_xfer_cb+0x30>
1000525e:	22cd      	movs	r2, #205	; 0xcd
10005260:	4908      	ldr	r1, [pc, #32]	; (10005284 <usbd_control_xfer_cb+0x114>)
10005262:	4809      	ldr	r0, [pc, #36]	; (10005288 <usbd_control_xfer_cb+0x118>)
10005264:	f7fe f98a 	bl	1000357c <__wrap_printf>
10005268:	f04f 23e0 	mov.w	r3, #3758153728	; 0xe000e000
1000526c:	f8d3 3df0 	ldr.w	r3, [r3, #3568]	; 0xdf0
10005270:	f013 0f01 	tst.w	r3, #1
10005274:	d094      	beq.n	100051a0 <usbd_control_xfer_cb+0x30>
10005276:	be00      	bkpt	0x0000
10005278:	e792      	b.n	100051a0 <usbd_control_xfer_cb+0x30>
1000527a:	2400      	movs	r4, #0
1000527c:	e790      	b.n	100051a0 <usbd_control_xfer_cb+0x30>
1000527e:	bf00      	nop
10005280:	20002764 	.word	0x20002764
10005284:	10008bf8 	.word	0x10008bf8
10005288:	10008ae8 	.word	0x10008ae8
1000528c:	20002724 	.word	0x20002724

10005290 <_prep_out_transaction>:
10005290:	b538      	push	{r3, r4, r5, lr}
10005292:	4604      	mov	r4, r0
10005294:	f7ff f984 	bl	100045a0 <tud_mounted>
10005298:	b950      	cbnz	r0, 100052b0 <_prep_out_transaction+0x20>
1000529a:	2300      	movs	r3, #0
1000529c:	4618      	mov	r0, r3
1000529e:	b133      	cbz	r3, 100052ae <_prep_out_transaction+0x1e>
100052a0:	4b20      	ldr	r3, [pc, #128]	; (10005324 <_prep_out_transaction+0x94>)
100052a2:	22c8      	movs	r2, #200	; 0xc8
100052a4:	fb02 3304 	mla	r3, r2, r4, r3
100052a8:	78db      	ldrb	r3, [r3, #3]
100052aa:	b943      	cbnz	r3, 100052be <_prep_out_transaction+0x2e>
100052ac:	2000      	movs	r0, #0
100052ae:	bd38      	pop	{r3, r4, r5, pc}
100052b0:	f7ff f97e 	bl	100045b0 <tud_suspended>
100052b4:	b908      	cbnz	r0, 100052ba <_prep_out_transaction+0x2a>
100052b6:	2301      	movs	r3, #1
100052b8:	e7f0      	b.n	1000529c <_prep_out_transaction+0xc>
100052ba:	2300      	movs	r3, #0
100052bc:	e7ee      	b.n	1000529c <_prep_out_transaction+0xc>
100052be:	4613      	mov	r3, r2
100052c0:	fb04 f303 	mul.w	r3, r4, r3
100052c4:	3310      	adds	r3, #16
100052c6:	4d17      	ldr	r5, [pc, #92]	; (10005324 <_prep_out_transaction+0x94>)
100052c8:	441d      	add	r5, r3
100052ca:	4628      	mov	r0, r5
100052cc:	f001 f978 	bl	100065c0 <tu_fifo_remaining>
100052d0:	283f      	cmp	r0, #63	; 0x3f
100052d2:	d801      	bhi.n	100052d8 <_prep_out_transaction+0x48>
100052d4:	2000      	movs	r0, #0
100052d6:	e7ea      	b.n	100052ae <_prep_out_transaction+0x1e>
100052d8:	4b12      	ldr	r3, [pc, #72]	; (10005324 <_prep_out_transaction+0x94>)
100052da:	22c8      	movs	r2, #200	; 0xc8
100052dc:	fb02 3304 	mla	r3, r2, r4, r3
100052e0:	78d9      	ldrb	r1, [r3, #3]
100052e2:	2000      	movs	r0, #0
100052e4:	f7ff fa9a 	bl	1000481c <usbd_edpt_claim>
100052e8:	2800      	cmp	r0, #0
100052ea:	d0e0      	beq.n	100052ae <_prep_out_transaction+0x1e>
100052ec:	4628      	mov	r0, r5
100052ee:	f001 f967 	bl	100065c0 <tu_fifo_remaining>
100052f2:	283f      	cmp	r0, #63	; 0x3f
100052f4:	d90c      	bls.n	10005310 <_prep_out_transaction+0x80>
100052f6:	490b      	ldr	r1, [pc, #44]	; (10005324 <_prep_out_transaction+0x94>)
100052f8:	23c8      	movs	r3, #200	; 0xc8
100052fa:	fb03 1104 	mla	r1, r3, r4, r1
100052fe:	2340      	movs	r3, #64	; 0x40
10005300:	4a09      	ldr	r2, [pc, #36]	; (10005328 <_prep_out_transaction+0x98>)
10005302:	eb02 12c4 	add.w	r2, r2, r4, lsl #7
10005306:	78c9      	ldrb	r1, [r1, #3]
10005308:	2000      	movs	r0, #0
1000530a:	f7ff faaf 	bl	1000486c <usbd_edpt_xfer>
1000530e:	e7ce      	b.n	100052ae <_prep_out_transaction+0x1e>
10005310:	4b04      	ldr	r3, [pc, #16]	; (10005324 <_prep_out_transaction+0x94>)
10005312:	22c8      	movs	r2, #200	; 0xc8
10005314:	fb02 3404 	mla	r4, r2, r4, r3
10005318:	78e1      	ldrb	r1, [r4, #3]
1000531a:	2000      	movs	r0, #0
1000531c:	f7ff fa92 	bl	10004844 <usbd_edpt_release>
10005320:	2000      	movs	r0, #0
10005322:	e7c4      	b.n	100052ae <_prep_out_transaction+0x1e>
10005324:	2000265c 	.word	0x2000265c
10005328:	200025d8 	.word	0x200025d8

1000532c <tud_cdc_n_connected>:
1000532c:	b510      	push	{r4, lr}
1000532e:	4604      	mov	r4, r0
10005330:	f7ff f936 	bl	100045a0 <tud_mounted>
10005334:	b958      	cbnz	r0, 1000534e <tud_cdc_n_connected+0x22>
10005336:	2300      	movs	r3, #0
10005338:	b183      	cbz	r3, 1000535c <tud_cdc_n_connected+0x30>
1000533a:	480a      	ldr	r0, [pc, #40]	; (10005364 <tud_cdc_n_connected+0x38>)
1000533c:	23c8      	movs	r3, #200	; 0xc8
1000533e:	fb03 0004 	mla	r0, r3, r4, r0
10005342:	7903      	ldrb	r3, [r0, #4]
10005344:	f013 0f01 	tst.w	r3, #1
10005348:	d00a      	beq.n	10005360 <tud_cdc_n_connected+0x34>
1000534a:	2001      	movs	r0, #1
1000534c:	e007      	b.n	1000535e <tud_cdc_n_connected+0x32>
1000534e:	f7ff f92f 	bl	100045b0 <tud_suspended>
10005352:	b908      	cbnz	r0, 10005358 <tud_cdc_n_connected+0x2c>
10005354:	2301      	movs	r3, #1
10005356:	e7ef      	b.n	10005338 <tud_cdc_n_connected+0xc>
10005358:	2300      	movs	r3, #0
1000535a:	e7ed      	b.n	10005338 <tud_cdc_n_connected+0xc>
1000535c:	2000      	movs	r0, #0
1000535e:	bd10      	pop	{r4, pc}
10005360:	2000      	movs	r0, #0
10005362:	e7fc      	b.n	1000535e <tud_cdc_n_connected+0x32>
10005364:	2000265c 	.word	0x2000265c

10005368 <tud_cdc_n_available>:
10005368:	b508      	push	{r3, lr}
1000536a:	23c8      	movs	r3, #200	; 0xc8
1000536c:	fb03 f000 	mul.w	r0, r3, r0
10005370:	3010      	adds	r0, #16
10005372:	4b02      	ldr	r3, [pc, #8]	; (1000537c <tud_cdc_n_available+0x14>)
10005374:	4418      	add	r0, r3
10005376:	f001 f8f2 	bl	1000655e <tu_fifo_count>
1000537a:	bd08      	pop	{r3, pc}
1000537c:	2000265c 	.word	0x2000265c

10005380 <tud_cdc_n_read>:
10005380:	b538      	push	{r3, r4, r5, lr}
10005382:	4604      	mov	r4, r0
10005384:	23c8      	movs	r3, #200	; 0xc8
10005386:	fb00 f303 	mul.w	r3, r0, r3
1000538a:	3310      	adds	r3, #16
1000538c:	4808      	ldr	r0, [pc, #32]	; (100053b0 <tud_cdc_n_read+0x30>)
1000538e:	4418      	add	r0, r3
10005390:	f64f 73fe 	movw	r3, #65534	; 0xfffe
10005394:	429a      	cmp	r2, r3
10005396:	d808      	bhi.n	100053aa <tud_cdc_n_read+0x2a>
10005398:	b292      	uxth	r2, r2
1000539a:	f001 f946 	bl	1000662a <tu_fifo_read_n>
1000539e:	4605      	mov	r5, r0
100053a0:	4620      	mov	r0, r4
100053a2:	f7ff ff75 	bl	10005290 <_prep_out_transaction>
100053a6:	4628      	mov	r0, r5
100053a8:	bd38      	pop	{r3, r4, r5, pc}
100053aa:	f64f 72ff 	movw	r2, #65535	; 0xffff
100053ae:	e7f4      	b.n	1000539a <tud_cdc_n_read+0x1a>
100053b0:	2000265c 	.word	0x2000265c

100053b4 <tud_cdc_n_write_flush>:
100053b4:	b570      	push	{r4, r5, r6, lr}
100053b6:	4605      	mov	r5, r0
100053b8:	f7ff f8f2 	bl	100045a0 <tud_mounted>
100053bc:	b918      	cbnz	r0, 100053c6 <tud_cdc_n_write_flush+0x12>
100053be:	2300      	movs	r3, #0
100053c0:	b943      	cbnz	r3, 100053d4 <tud_cdc_n_write_flush+0x20>
100053c2:	2000      	movs	r0, #0
100053c4:	bd70      	pop	{r4, r5, r6, pc}
100053c6:	f7ff f8f3 	bl	100045b0 <tud_suspended>
100053ca:	b908      	cbnz	r0, 100053d0 <tud_cdc_n_write_flush+0x1c>
100053cc:	2301      	movs	r3, #1
100053ce:	e7f7      	b.n	100053c0 <tud_cdc_n_write_flush+0xc>
100053d0:	2300      	movs	r3, #0
100053d2:	e7f5      	b.n	100053c0 <tud_cdc_n_write_flush+0xc>
100053d4:	23c8      	movs	r3, #200	; 0xc8
100053d6:	fb05 f303 	mul.w	r3, r5, r3
100053da:	3320      	adds	r3, #32
100053dc:	4c22      	ldr	r4, [pc, #136]	; (10005468 <tud_cdc_n_write_flush+0xb4>)
100053de:	441c      	add	r4, r3
100053e0:	3404      	adds	r4, #4
100053e2:	4620      	mov	r0, r4
100053e4:	f001 f8bb 	bl	1000655e <tu_fifo_count>
100053e8:	b908      	cbnz	r0, 100053ee <tud_cdc_n_write_flush+0x3a>
100053ea:	2000      	movs	r0, #0
100053ec:	e7ea      	b.n	100053c4 <tud_cdc_n_write_flush+0x10>
100053ee:	4b1e      	ldr	r3, [pc, #120]	; (10005468 <tud_cdc_n_write_flush+0xb4>)
100053f0:	22c8      	movs	r2, #200	; 0xc8
100053f2:	fb02 3305 	mla	r3, r2, r5, r3
100053f6:	7899      	ldrb	r1, [r3, #2]
100053f8:	2000      	movs	r0, #0
100053fa:	f7ff fa0f 	bl	1000481c <usbd_edpt_claim>
100053fe:	b908      	cbnz	r0, 10005404 <tud_cdc_n_write_flush+0x50>
10005400:	2000      	movs	r0, #0
10005402:	e7df      	b.n	100053c4 <tud_cdc_n_write_flush+0x10>
10005404:	01ee      	lsls	r6, r5, #7
10005406:	f106 0340 	add.w	r3, r6, #64	; 0x40
1000540a:	4e18      	ldr	r6, [pc, #96]	; (1000546c <tud_cdc_n_write_flush+0xb8>)
1000540c:	441e      	add	r6, r3
1000540e:	2240      	movs	r2, #64	; 0x40
10005410:	4631      	mov	r1, r6
10005412:	4620      	mov	r0, r4
10005414:	f001 f909 	bl	1000662a <tu_fifo_read_n>
10005418:	4604      	mov	r4, r0
1000541a:	b1d8      	cbz	r0, 10005454 <tud_cdc_n_write_flush+0xa0>
1000541c:	4812      	ldr	r0, [pc, #72]	; (10005468 <tud_cdc_n_write_flush+0xb4>)
1000541e:	23c8      	movs	r3, #200	; 0xc8
10005420:	fb03 0005 	mla	r0, r3, r5, r0
10005424:	4623      	mov	r3, r4
10005426:	4632      	mov	r2, r6
10005428:	7881      	ldrb	r1, [r0, #2]
1000542a:	2000      	movs	r0, #0
1000542c:	f7ff fa1e 	bl	1000486c <usbd_edpt_xfer>
10005430:	b108      	cbz	r0, 10005436 <tud_cdc_n_write_flush+0x82>
10005432:	4620      	mov	r0, r4
10005434:	e7c6      	b.n	100053c4 <tud_cdc_n_write_flush+0x10>
10005436:	22d5      	movs	r2, #213	; 0xd5
10005438:	490d      	ldr	r1, [pc, #52]	; (10005470 <tud_cdc_n_write_flush+0xbc>)
1000543a:	480e      	ldr	r0, [pc, #56]	; (10005474 <tud_cdc_n_write_flush+0xc0>)
1000543c:	f7fe f89e 	bl	1000357c <__wrap_printf>
10005440:	f04f 23e0 	mov.w	r3, #3758153728	; 0xe000e000
10005444:	f8d3 3df0 	ldr.w	r3, [r3, #3568]	; 0xdf0
10005448:	f013 0f01 	tst.w	r3, #1
1000544c:	d000      	beq.n	10005450 <tud_cdc_n_write_flush+0x9c>
1000544e:	be00      	bkpt	0x0000
10005450:	2000      	movs	r0, #0
10005452:	e7b7      	b.n	100053c4 <tud_cdc_n_write_flush+0x10>
10005454:	4804      	ldr	r0, [pc, #16]	; (10005468 <tud_cdc_n_write_flush+0xb4>)
10005456:	23c8      	movs	r3, #200	; 0xc8
10005458:	fb03 0005 	mla	r0, r3, r5, r0
1000545c:	7881      	ldrb	r1, [r0, #2]
1000545e:	2000      	movs	r0, #0
10005460:	f7ff f9f0 	bl	10004844 <usbd_edpt_release>
10005464:	2000      	movs	r0, #0
10005466:	e7ad      	b.n	100053c4 <tud_cdc_n_write_flush+0x10>
10005468:	2000265c 	.word	0x2000265c
1000546c:	200025d8 	.word	0x200025d8
10005470:	10008c40 	.word	0x10008c40
10005474:	10008ae8 	.word	0x10008ae8

10005478 <tud_cdc_n_write>:
10005478:	b570      	push	{r4, r5, r6, lr}
1000547a:	4605      	mov	r5, r0
1000547c:	24c8      	movs	r4, #200	; 0xc8
1000547e:	fb00 f404 	mul.w	r4, r0, r4
10005482:	f104 0320 	add.w	r3, r4, #32
10005486:	4c0d      	ldr	r4, [pc, #52]	; (100054bc <tud_cdc_n_write+0x44>)
10005488:	441c      	add	r4, r3
1000548a:	3404      	adds	r4, #4
1000548c:	f64f 73fe 	movw	r3, #65534	; 0xfffe
10005490:	429a      	cmp	r2, r3
10005492:	d80b      	bhi.n	100054ac <tud_cdc_n_write+0x34>
10005494:	b292      	uxth	r2, r2
10005496:	4620      	mov	r0, r4
10005498:	f001 f8fb 	bl	10006692 <tu_fifo_write_n>
1000549c:	4606      	mov	r6, r0
1000549e:	4620      	mov	r0, r4
100054a0:	f001 f85d 	bl	1000655e <tu_fifo_count>
100054a4:	283f      	cmp	r0, #63	; 0x3f
100054a6:	d804      	bhi.n	100054b2 <tud_cdc_n_write+0x3a>
100054a8:	4630      	mov	r0, r6
100054aa:	bd70      	pop	{r4, r5, r6, pc}
100054ac:	f64f 72ff 	movw	r2, #65535	; 0xffff
100054b0:	e7f1      	b.n	10005496 <tud_cdc_n_write+0x1e>
100054b2:	4628      	mov	r0, r5
100054b4:	f7ff ff7e 	bl	100053b4 <tud_cdc_n_write_flush>
100054b8:	e7f6      	b.n	100054a8 <tud_cdc_n_write+0x30>
100054ba:	bf00      	nop
100054bc:	2000265c 	.word	0x2000265c

100054c0 <tud_cdc_n_write_available>:
100054c0:	b508      	push	{r3, lr}
100054c2:	23c8      	movs	r3, #200	; 0xc8
100054c4:	fb03 f000 	mul.w	r0, r3, r0
100054c8:	3020      	adds	r0, #32
100054ca:	4b03      	ldr	r3, [pc, #12]	; (100054d8 <tud_cdc_n_write_available+0x18>)
100054cc:	4418      	add	r0, r3
100054ce:	3004      	adds	r0, #4
100054d0:	f001 f876 	bl	100065c0 <tu_fifo_remaining>
100054d4:	bd08      	pop	{r3, pc}
100054d6:	bf00      	nop
100054d8:	2000265c 	.word	0x2000265c

100054dc <cdcd_init>:
100054dc:	e92d 43f0 	stmdb	sp!, {r4, r5, r6, r7, r8, r9, lr}
100054e0:	b083      	sub	sp, #12
100054e2:	22c8      	movs	r2, #200	; 0xc8
100054e4:	2100      	movs	r1, #0
100054e6:	4824      	ldr	r0, [pc, #144]	; (10005578 <cdcd_init+0x9c>)
100054e8:	f002 f948 	bl	1000777c <memset>
100054ec:	2500      	movs	r5, #0
100054ee:	4b23      	ldr	r3, [pc, #140]	; (1000557c <cdcd_init+0xa0>)
100054f0:	701d      	strb	r5, [r3, #0]
100054f2:	b115      	cbz	r5, 100054fa <cdcd_init+0x1e>
100054f4:	b003      	add	sp, #12
100054f6:	e8bd 83f0 	ldmia.w	sp!, {r4, r5, r6, r7, r8, r9, pc}
100054fa:	4e1f      	ldr	r6, [pc, #124]	; (10005578 <cdcd_init+0x9c>)
100054fc:	24c8      	movs	r4, #200	; 0xc8
100054fe:	fb05 f404 	mul.w	r4, r5, r4
10005502:	1937      	adds	r7, r6, r4
10005504:	23ff      	movs	r3, #255	; 0xff
10005506:	717b      	strb	r3, [r7, #5]
10005508:	f44f 33e1 	mov.w	r3, #115200	; 0x1c200
1000550c:	60bb      	str	r3, [r7, #8]
1000550e:	f04f 0800 	mov.w	r8, #0
10005512:	f887 800c 	strb.w	r8, [r7, #12]
10005516:	f887 800d 	strb.w	r8, [r7, #13]
1000551a:	2308      	movs	r3, #8
1000551c:	73bb      	strb	r3, [r7, #14]
1000551e:	f104 0138 	add.w	r1, r4, #56	; 0x38
10005522:	f104 0010 	add.w	r0, r4, #16
10005526:	f8cd 8000 	str.w	r8, [sp]
1000552a:	2301      	movs	r3, #1
1000552c:	2240      	movs	r2, #64	; 0x40
1000552e:	4431      	add	r1, r6
10005530:	4430      	add	r0, r6
10005532:	f000 ffe3 	bl	100064fc <tu_fifo_config>
10005536:	f104 0178 	add.w	r1, r4, #120	; 0x78
1000553a:	f104 0020 	add.w	r0, r4, #32
1000553e:	4430      	add	r0, r6
10005540:	2301      	movs	r3, #1
10005542:	9300      	str	r3, [sp, #0]
10005544:	2240      	movs	r2, #64	; 0x40
10005546:	4431      	add	r1, r6
10005548:	3004      	adds	r0, #4
1000554a:	f000 ffd7 	bl	100064fc <tu_fifo_config>
1000554e:	f104 09b8 	add.w	r9, r4, #184	; 0xb8
10005552:	44b1      	add	r9, r6
10005554:	4648      	mov	r0, r9
10005556:	f7fa ffbf 	bl	100004d8 <mutex_init>
1000555a:	34c0      	adds	r4, #192	; 0xc0
1000555c:	4434      	add	r4, r6
1000555e:	4620      	mov	r0, r4
10005560:	f7fa ffba 	bl	100004d8 <mutex_init>
10005564:	f8c7 801c 	str.w	r8, [r7, #28]
10005568:	f8c7 9020 	str.w	r9, [r7, #32]
1000556c:	633c      	str	r4, [r7, #48]	; 0x30
1000556e:	f8c7 8034 	str.w	r8, [r7, #52]	; 0x34
10005572:	3501      	adds	r5, #1
10005574:	b2ed      	uxtb	r5, r5
10005576:	e7bc      	b.n	100054f2 <cdcd_init+0x16>
10005578:	2000265c 	.word	0x2000265c
1000557c:	20002658 	.word	0x20002658

10005580 <cdcd_deinit>:
10005580:	2300      	movs	r3, #0
10005582:	b10b      	cbz	r3, 10005588 <cdcd_deinit+0x8>
10005584:	2001      	movs	r0, #1
10005586:	4770      	bx	lr
10005588:	b410      	push	{r4}
1000558a:	469c      	mov	ip, r3
1000558c:	4a0e      	ldr	r2, [pc, #56]	; (100055c8 <cdcd_deinit+0x48>)
1000558e:	21c8      	movs	r1, #200	; 0xc8
10005590:	fb01 2203 	mla	r2, r1, r3, r2
10005594:	6a11      	ldr	r1, [r2, #32]
10005596:	6b14      	ldr	r4, [r2, #48]	; 0x30
10005598:	b131      	cbz	r1, 100055a8 <cdcd_deinit+0x28>
1000559a:	490b      	ldr	r1, [pc, #44]	; (100055c8 <cdcd_deinit+0x48>)
1000559c:	22c8      	movs	r2, #200	; 0xc8
1000559e:	fb02 1103 	mla	r1, r2, r3, r1
100055a2:	2000      	movs	r0, #0
100055a4:	61c8      	str	r0, [r1, #28]
100055a6:	6208      	str	r0, [r1, #32]
100055a8:	b134      	cbz	r4, 100055b8 <cdcd_deinit+0x38>
100055aa:	4a07      	ldr	r2, [pc, #28]	; (100055c8 <cdcd_deinit+0x48>)
100055ac:	21c8      	movs	r1, #200	; 0xc8
100055ae:	fb01 220c 	mla	r2, r1, ip, r2
100055b2:	2100      	movs	r1, #0
100055b4:	6311      	str	r1, [r2, #48]	; 0x30
100055b6:	6351      	str	r1, [r2, #52]	; 0x34
100055b8:	3301      	adds	r3, #1
100055ba:	b2db      	uxtb	r3, r3
100055bc:	2b00      	cmp	r3, #0
100055be:	d0e4      	beq.n	1000558a <cdcd_deinit+0xa>
100055c0:	2001      	movs	r0, #1
100055c2:	f85d 4b04 	ldr.w	r4, [sp], #4
100055c6:	4770      	bx	lr
100055c8:	2000265c 	.word	0x2000265c

100055cc <cdcd_reset>:
100055cc:	b538      	push	{r3, r4, r5, lr}
100055ce:	2400      	movs	r4, #0
100055d0:	b104      	cbz	r4, 100055d4 <cdcd_reset+0x8>
100055d2:	bd38      	pop	{r3, r4, r5, pc}
100055d4:	4625      	mov	r5, r4
100055d6:	4919      	ldr	r1, [pc, #100]	; (1000563c <cdcd_reset+0x70>)
100055d8:	23c8      	movs	r3, #200	; 0xc8
100055da:	fb04 f303 	mul.w	r3, r4, r3
100055de:	18c8      	adds	r0, r1, r3
100055e0:	2200      	movs	r2, #0
100055e2:	50ca      	str	r2, [r1, r3]
100055e4:	7102      	strb	r2, [r0, #4]
100055e6:	4b16      	ldr	r3, [pc, #88]	; (10005640 <cdcd_reset+0x74>)
100055e8:	781b      	ldrb	r3, [r3, #0]
100055ea:	f013 0f01 	tst.w	r3, #1
100055ee:	d011      	beq.n	10005614 <cdcd_reset+0x48>
100055f0:	4b13      	ldr	r3, [pc, #76]	; (10005640 <cdcd_reset+0x74>)
100055f2:	781b      	ldrb	r3, [r3, #0]
100055f4:	f013 0f02 	tst.w	r3, #2
100055f8:	d015      	beq.n	10005626 <cdcd_reset+0x5a>
100055fa:	20c8      	movs	r0, #200	; 0xc8
100055fc:	fb05 f000 	mul.w	r0, r5, r0
10005600:	3020      	adds	r0, #32
10005602:	4d0e      	ldr	r5, [pc, #56]	; (1000563c <cdcd_reset+0x70>)
10005604:	4428      	add	r0, r5
10005606:	2101      	movs	r1, #1
10005608:	3004      	adds	r0, #4
1000560a:	f001 f862 	bl	100066d2 <tu_fifo_set_overwritable>
1000560e:	3401      	adds	r4, #1
10005610:	b2e4      	uxtb	r4, r4
10005612:	e7dd      	b.n	100055d0 <cdcd_reset+0x4>
10005614:	23c8      	movs	r3, #200	; 0xc8
10005616:	fb04 f303 	mul.w	r3, r4, r3
1000561a:	3310      	adds	r3, #16
1000561c:	4608      	mov	r0, r1
1000561e:	4418      	add	r0, r3
10005620:	f001 f83c 	bl	1000669c <tu_fifo_clear>
10005624:	e7e4      	b.n	100055f0 <cdcd_reset+0x24>
10005626:	20c8      	movs	r0, #200	; 0xc8
10005628:	fb05 f000 	mul.w	r0, r5, r0
1000562c:	3020      	adds	r0, #32
1000562e:	4b03      	ldr	r3, [pc, #12]	; (1000563c <cdcd_reset+0x70>)
10005630:	4418      	add	r0, r3
10005632:	3004      	adds	r0, #4
10005634:	f001 f832 	bl	1000669c <tu_fifo_clear>
10005638:	e7df      	b.n	100055fa <cdcd_reset+0x2e>
1000563a:	bf00      	nop
1000563c:	2000265c 	.word	0x2000265c
10005640:	20002658 	.word	0x20002658

10005644 <cdcd_open>:
10005644:	e92d 41f0 	stmdb	sp!, {r4, r5, r6, r7, r8, lr}
10005648:	b082      	sub	sp, #8
1000564a:	794b      	ldrb	r3, [r1, #5]
1000564c:	2b02      	cmp	r3, #2
1000564e:	d17e      	bne.n	1000574e <cdcd_open+0x10a>
10005650:	4606      	mov	r6, r0
10005652:	798b      	ldrb	r3, [r1, #6]
10005654:	2b02      	cmp	r3, #2
10005656:	d17f      	bne.n	10005758 <cdcd_open+0x114>
10005658:	2700      	movs	r7, #0
1000565a:	b13f      	cbz	r7, 1000566c <cdcd_open+0x28>
1000565c:	b997      	cbnz	r7, 10005684 <cdcd_open+0x40>
1000565e:	788b      	ldrb	r3, [r1, #2]
10005660:	f888 3000 	strb.w	r3, [r8]
10005664:	780c      	ldrb	r4, [r1, #0]
10005666:	440c      	add	r4, r1
10005668:	2509      	movs	r5, #9
1000566a:	e01f      	b.n	100056ac <cdcd_open+0x68>
1000566c:	4b3b      	ldr	r3, [pc, #236]	; (1000575c <cdcd_open+0x118>)
1000566e:	f04f 08c8 	mov.w	r8, #200	; 0xc8
10005672:	fb08 3807 	mla	r8, r8, r7, r3
10005676:	f898 3002 	ldrb.w	r3, [r8, #2]
1000567a:	2b00      	cmp	r3, #0
1000567c:	d0ee      	beq.n	1000565c <cdcd_open+0x18>
1000567e:	3701      	adds	r7, #1
10005680:	b2ff      	uxtb	r7, r7
10005682:	e7ea      	b.n	1000565a <cdcd_open+0x16>
10005684:	f240 1241 	movw	r2, #321	; 0x141
10005688:	4935      	ldr	r1, [pc, #212]	; (10005760 <cdcd_open+0x11c>)
1000568a:	4836      	ldr	r0, [pc, #216]	; (10005764 <cdcd_open+0x120>)
1000568c:	f7fd ff76 	bl	1000357c <__wrap_printf>
10005690:	f04f 23e0 	mov.w	r3, #3758153728	; 0xe000e000
10005694:	f8d3 3df0 	ldr.w	r3, [r3, #3568]	; 0xdf0
10005698:	f013 0f01 	tst.w	r3, #1
1000569c:	d000      	beq.n	100056a0 <cdcd_open+0x5c>
1000569e:	be00      	bkpt	0x0000
100056a0:	2500      	movs	r5, #0
100056a2:	e055      	b.n	10005750 <cdcd_open+0x10c>
100056a4:	7823      	ldrb	r3, [r4, #0]
100056a6:	441d      	add	r5, r3
100056a8:	b2ad      	uxth	r5, r5
100056aa:	441c      	add	r4, r3
100056ac:	7863      	ldrb	r3, [r4, #1]
100056ae:	2b24      	cmp	r3, #36	; 0x24
100056b0:	d101      	bne.n	100056b6 <cdcd_open+0x72>
100056b2:	4295      	cmp	r5, r2
100056b4:	d9f6      	bls.n	100056a4 <cdcd_open+0x60>
100056b6:	2b05      	cmp	r3, #5
100056b8:	d009      	beq.n	100056ce <cdcd_open+0x8a>
100056ba:	7863      	ldrb	r3, [r4, #1]
100056bc:	2b04      	cmp	r3, #4
100056be:	d102      	bne.n	100056c6 <cdcd_open+0x82>
100056c0:	7963      	ldrb	r3, [r4, #5]
100056c2:	2b0a      	cmp	r3, #10
100056c4:	d020      	beq.n	10005708 <cdcd_open+0xc4>
100056c6:	4638      	mov	r0, r7
100056c8:	f7ff fde2 	bl	10005290 <_prep_out_transaction>
100056cc:	e040      	b.n	10005750 <cdcd_open+0x10c>
100056ce:	4621      	mov	r1, r4
100056d0:	4630      	mov	r0, r6
100056d2:	f7ff f813 	bl	100046fc <usbd_edpt_open>
100056d6:	b138      	cbz	r0, 100056e8 <cdcd_open+0xa4>
100056d8:	78a3      	ldrb	r3, [r4, #2]
100056da:	f888 3001 	strb.w	r3, [r8, #1]
100056de:	7823      	ldrb	r3, [r4, #0]
100056e0:	441d      	add	r5, r3
100056e2:	b2ad      	uxth	r5, r5
100056e4:	441c      	add	r4, r3
100056e6:	e7e8      	b.n	100056ba <cdcd_open+0x76>
100056e8:	f240 1253 	movw	r2, #339	; 0x153
100056ec:	491c      	ldr	r1, [pc, #112]	; (10005760 <cdcd_open+0x11c>)
100056ee:	481d      	ldr	r0, [pc, #116]	; (10005764 <cdcd_open+0x120>)
100056f0:	f7fd ff44 	bl	1000357c <__wrap_printf>
100056f4:	f04f 23e0 	mov.w	r3, #3758153728	; 0xe000e000
100056f8:	f8d3 3df0 	ldr.w	r3, [r3, #3568]	; 0xdf0
100056fc:	f013 0f01 	tst.w	r3, #1
10005700:	d000      	beq.n	10005704 <cdcd_open+0xc0>
10005702:	be00      	bkpt	0x0000
10005704:	2500      	movs	r5, #0
10005706:	e023      	b.n	10005750 <cdcd_open+0x10c>
10005708:	7821      	ldrb	r1, [r4, #0]
1000570a:	440d      	add	r5, r1
1000570c:	b2ad      	uxth	r5, r5
1000570e:	f108 0302 	add.w	r3, r8, #2
10005712:	9301      	str	r3, [sp, #4]
10005714:	f108 0303 	add.w	r3, r8, #3
10005718:	9300      	str	r3, [sp, #0]
1000571a:	2302      	movs	r3, #2
1000571c:	461a      	mov	r2, r3
1000571e:	4421      	add	r1, r4
10005720:	4630      	mov	r0, r6
10005722:	f7ff f829 	bl	10004778 <usbd_open_edpt_pair>
10005726:	b110      	cbz	r0, 1000572e <cdcd_open+0xea>
10005728:	350e      	adds	r5, #14
1000572a:	b2ad      	uxth	r5, r5
1000572c:	e7cb      	b.n	100056c6 <cdcd_open+0x82>
1000572e:	f44f 72b1 	mov.w	r2, #354	; 0x162
10005732:	490b      	ldr	r1, [pc, #44]	; (10005760 <cdcd_open+0x11c>)
10005734:	480b      	ldr	r0, [pc, #44]	; (10005764 <cdcd_open+0x120>)
10005736:	f7fd ff21 	bl	1000357c <__wrap_printf>
1000573a:	f04f 23e0 	mov.w	r3, #3758153728	; 0xe000e000
1000573e:	f8d3 3df0 	ldr.w	r3, [r3, #3568]	; 0xdf0
10005742:	f013 0f01 	tst.w	r3, #1
10005746:	d000      	beq.n	1000574a <cdcd_open+0x106>
10005748:	be00      	bkpt	0x0000
1000574a:	2500      	movs	r5, #0
1000574c:	e000      	b.n	10005750 <cdcd_open+0x10c>
1000574e:	2500      	movs	r5, #0
10005750:	4628      	mov	r0, r5
10005752:	b002      	add	sp, #8
10005754:	e8bd 81f0 	ldmia.w	sp!, {r4, r5, r6, r7, r8, pc}
10005758:	2500      	movs	r5, #0
1000575a:	e7f9      	b.n	10005750 <cdcd_open+0x10c>
1000575c:	2000265c 	.word	0x2000265c
10005760:	10008c34 	.word	0x10008c34
10005764:	10008ae8 	.word	0x10008ae8

10005768 <cdcd_control_xfer_cb>:
10005768:	7813      	ldrb	r3, [r2, #0]
1000576a:	f003 0360 	and.w	r3, r3, #96	; 0x60
1000576e:	2b20      	cmp	r3, #32
10005770:	d178      	bne.n	10005864 <cdcd_control_xfer_cb+0xfc>
10005772:	b570      	push	{r4, r5, r6, lr}
10005774:	4694      	mov	ip, r2
10005776:	2400      	movs	r4, #0
10005778:	b154      	cbz	r4, 10005790 <cdcd_control_xfer_cb+0x28>
1000577a:	2c00      	cmp	r4, #0
1000577c:	d174      	bne.n	10005868 <cdcd_control_xfer_cb+0x100>
1000577e:	f89c 3001 	ldrb.w	r3, [ip, #1]
10005782:	3b20      	subs	r3, #32
10005784:	2b03      	cmp	r3, #3
10005786:	d871      	bhi.n	1000586c <cdcd_control_xfer_cb+0x104>
10005788:	e8df f003 	tbb	[pc, r3]
1000578c:	58342810 	.word	0x58342810
10005790:	4a3a      	ldr	r2, [pc, #232]	; (1000587c <cdcd_control_xfer_cb+0x114>)
10005792:	23c8      	movs	r3, #200	; 0xc8
10005794:	fb04 f303 	mul.w	r3, r4, r3
10005798:	eb02 0e03 	add.w	lr, r2, r3
1000579c:	5cd2      	ldrb	r2, [r2, r3]
1000579e:	f8bc 3004 	ldrh.w	r3, [ip, #4]
100057a2:	429a      	cmp	r2, r3
100057a4:	d0e9      	beq.n	1000577a <cdcd_control_xfer_cb+0x12>
100057a6:	3401      	adds	r4, #1
100057a8:	b2e4      	uxtb	r4, r4
100057aa:	e7e5      	b.n	10005778 <cdcd_control_xfer_cb+0x10>
100057ac:	2901      	cmp	r1, #1
100057ae:	d003      	beq.n	100057b8 <cdcd_control_xfer_cb+0x50>
100057b0:	2903      	cmp	r1, #3
100057b2:	d009      	beq.n	100057c8 <cdcd_control_xfer_cb+0x60>
100057b4:	2001      	movs	r0, #1
100057b6:	e058      	b.n	1000586a <cdcd_control_xfer_cb+0x102>
100057b8:	2307      	movs	r3, #7
100057ba:	f10e 0208 	add.w	r2, lr, #8
100057be:	4661      	mov	r1, ip
100057c0:	f7ff fc5a 	bl	10005078 <tud_control_xfer>
100057c4:	2001      	movs	r0, #1
100057c6:	e050      	b.n	1000586a <cdcd_control_xfer_cb+0x102>
100057c8:	4b2d      	ldr	r3, [pc, #180]	; (10005880 <cdcd_control_xfer_cb+0x118>)
100057ca:	2b00      	cmp	r3, #0
100057cc:	d050      	beq.n	10005870 <cdcd_control_xfer_cb+0x108>
100057ce:	f10e 0108 	add.w	r1, lr, #8
100057d2:	4620      	mov	r0, r4
100057d4:	f7fe f874 	bl	100038c0 <tud_cdc_line_coding_cb>
100057d8:	2001      	movs	r0, #1
100057da:	e046      	b.n	1000586a <cdcd_control_xfer_cb+0x102>
100057dc:	2901      	cmp	r1, #1
100057de:	d001      	beq.n	100057e4 <cdcd_control_xfer_cb+0x7c>
100057e0:	2001      	movs	r0, #1
100057e2:	e042      	b.n	1000586a <cdcd_control_xfer_cb+0x102>
100057e4:	2307      	movs	r3, #7
100057e6:	f10e 0208 	add.w	r2, lr, #8
100057ea:	4661      	mov	r1, ip
100057ec:	f7ff fc44 	bl	10005078 <tud_control_xfer>
100057f0:	2001      	movs	r0, #1
100057f2:	e03a      	b.n	1000586a <cdcd_control_xfer_cb+0x102>
100057f4:	2901      	cmp	r1, #1
100057f6:	d003      	beq.n	10005800 <cdcd_control_xfer_cb+0x98>
100057f8:	2903      	cmp	r1, #3
100057fa:	d006      	beq.n	1000580a <cdcd_control_xfer_cb+0xa2>
100057fc:	2001      	movs	r0, #1
100057fe:	e034      	b.n	1000586a <cdcd_control_xfer_cb+0x102>
10005800:	4661      	mov	r1, ip
10005802:	f7ff fc1f 	bl	10005044 <tud_control_status>
10005806:	2001      	movs	r0, #1
10005808:	e02f      	b.n	1000586a <cdcd_control_xfer_cb+0x102>
1000580a:	f8bc 3002 	ldrh.w	r3, [ip, #2]
1000580e:	f013 0101 	ands.w	r1, r3, #1
10005812:	460d      	mov	r5, r1
10005814:	f3c3 0640 	ubfx	r6, r3, #1, #1
10005818:	f88e 3004 	strb.w	r3, [lr, #4]
1000581c:	bf0c      	ite	eq
1000581e:	2101      	moveq	r1, #1
10005820:	2100      	movne	r1, #0
10005822:	f10e 0024 	add.w	r0, lr, #36	; 0x24
10005826:	f000 ff54 	bl	100066d2 <tu_fifo_set_overwritable>
1000582a:	4b16      	ldr	r3, [pc, #88]	; (10005884 <cdcd_control_xfer_cb+0x11c>)
1000582c:	b313      	cbz	r3, 10005874 <cdcd_control_xfer_cb+0x10c>
1000582e:	4632      	mov	r2, r6
10005830:	4629      	mov	r1, r5
10005832:	4620      	mov	r0, r4
10005834:	e000      	b.n	10005838 <cdcd_control_xfer_cb+0xd0>
10005836:	bf00      	nop
10005838:	2001      	movs	r0, #1
1000583a:	e016      	b.n	1000586a <cdcd_control_xfer_cb+0x102>
1000583c:	2901      	cmp	r1, #1
1000583e:	d003      	beq.n	10005848 <cdcd_control_xfer_cb+0xe0>
10005840:	2903      	cmp	r1, #3
10005842:	d006      	beq.n	10005852 <cdcd_control_xfer_cb+0xea>
10005844:	2001      	movs	r0, #1
10005846:	e010      	b.n	1000586a <cdcd_control_xfer_cb+0x102>
10005848:	4661      	mov	r1, ip
1000584a:	f7ff fbfb 	bl	10005044 <tud_control_status>
1000584e:	2001      	movs	r0, #1
10005850:	e00b      	b.n	1000586a <cdcd_control_xfer_cb+0x102>
10005852:	4b0d      	ldr	r3, [pc, #52]	; (10005888 <cdcd_control_xfer_cb+0x120>)
10005854:	b183      	cbz	r3, 10005878 <cdcd_control_xfer_cb+0x110>
10005856:	f8bc 1002 	ldrh.w	r1, [ip, #2]
1000585a:	4620      	mov	r0, r4
1000585c:	e000      	b.n	10005860 <cdcd_control_xfer_cb+0xf8>
1000585e:	bf00      	nop
10005860:	2001      	movs	r0, #1
10005862:	e002      	b.n	1000586a <cdcd_control_xfer_cb+0x102>
10005864:	2000      	movs	r0, #0
10005866:	4770      	bx	lr
10005868:	2000      	movs	r0, #0
1000586a:	bd70      	pop	{r4, r5, r6, pc}
1000586c:	2000      	movs	r0, #0
1000586e:	e7fc      	b.n	1000586a <cdcd_control_xfer_cb+0x102>
10005870:	2001      	movs	r0, #1
10005872:	e7fa      	b.n	1000586a <cdcd_control_xfer_cb+0x102>
10005874:	2001      	movs	r0, #1
10005876:	e7f8      	b.n	1000586a <cdcd_control_xfer_cb+0x102>
10005878:	2001      	movs	r0, #1
1000587a:	e7f6      	b.n	1000586a <cdcd_control_xfer_cb+0x102>
1000587c:	2000265c 	.word	0x2000265c
10005880:	100038c1 	.word	0x100038c1
	...

1000588c <cdcd_xfer_cb>:
1000588c:	e92d 4ff8 	stmdb	sp!, {r3, r4, r5, r6, r7, r8, r9, sl, fp, lr}
10005890:	4680      	mov	r8, r0
10005892:	460d      	mov	r5, r1
10005894:	461f      	mov	r7, r3
10005896:	2400      	movs	r4, #0
10005898:	b15c      	cbz	r4, 100058b2 <cdcd_xfer_cb+0x26>
1000589a:	b9bc      	cbnz	r4, 100058cc <cdcd_xfer_cb+0x40>
1000589c:	46a2      	mov	sl, r4
1000589e:	78f3      	ldrb	r3, [r6, #3]
100058a0:	42ab      	cmp	r3, r5
100058a2:	d023      	beq.n	100058ec <cdcd_xfer_cb+0x60>
100058a4:	78b3      	ldrb	r3, [r6, #2]
100058a6:	42ab      	cmp	r3, r5
100058a8:	d055      	beq.n	10005956 <cdcd_xfer_cb+0xca>
100058aa:	2401      	movs	r4, #1
100058ac:	4620      	mov	r0, r4
100058ae:	e8bd 8ff8 	ldmia.w	sp!, {r3, r4, r5, r6, r7, r8, r9, sl, fp, pc}
100058b2:	4e3d      	ldr	r6, [pc, #244]	; (100059a8 <cdcd_xfer_cb+0x11c>)
100058b4:	23c8      	movs	r3, #200	; 0xc8
100058b6:	fb03 6604 	mla	r6, r3, r4, r6
100058ba:	78f3      	ldrb	r3, [r6, #3]
100058bc:	42ab      	cmp	r3, r5
100058be:	d0ec      	beq.n	1000589a <cdcd_xfer_cb+0xe>
100058c0:	78b3      	ldrb	r3, [r6, #2]
100058c2:	42ab      	cmp	r3, r5
100058c4:	d0e9      	beq.n	1000589a <cdcd_xfer_cb+0xe>
100058c6:	3401      	adds	r4, #1
100058c8:	b2e4      	uxtb	r4, r4
100058ca:	e7e5      	b.n	10005898 <cdcd_xfer_cb+0xc>
100058cc:	f44f 72e6 	mov.w	r2, #460	; 0x1cc
100058d0:	4936      	ldr	r1, [pc, #216]	; (100059ac <cdcd_xfer_cb+0x120>)
100058d2:	4837      	ldr	r0, [pc, #220]	; (100059b0 <cdcd_xfer_cb+0x124>)
100058d4:	f7fd fe52 	bl	1000357c <__wrap_printf>
100058d8:	f04f 23e0 	mov.w	r3, #3758153728	; 0xe000e000
100058dc:	f8d3 3df0 	ldr.w	r3, [r3, #3568]	; 0xdf0
100058e0:	f013 0f01 	tst.w	r3, #1
100058e4:	d000      	beq.n	100058e8 <cdcd_xfer_cb+0x5c>
100058e6:	be00      	bkpt	0x0000
100058e8:	2400      	movs	r4, #0
100058ea:	e7df      	b.n	100058ac <cdcd_xfer_cb+0x20>
100058ec:	f106 0b10 	add.w	fp, r6, #16
100058f0:	b2ba      	uxth	r2, r7
100058f2:	4930      	ldr	r1, [pc, #192]	; (100059b4 <cdcd_xfer_cb+0x128>)
100058f4:	eb01 11c4 	add.w	r1, r1, r4, lsl #7
100058f8:	4658      	mov	r0, fp
100058fa:	f000 feca 	bl	10006692 <tu_fifo_write_n>
100058fe:	4b2e      	ldr	r3, [pc, #184]	; (100059b8 <cdcd_xfer_cb+0x12c>)
10005900:	b1db      	cbz	r3, 1000593a <cdcd_xfer_cb+0xae>
10005902:	7973      	ldrb	r3, [r6, #5]
10005904:	2bff      	cmp	r3, #255	; 0xff
10005906:	d018      	beq.n	1000593a <cdcd_xfer_cb+0xae>
10005908:	f04f 0900 	mov.w	r9, #0
1000590c:	e001      	b.n	10005912 <cdcd_xfer_cb+0x86>
1000590e:	f109 0901 	add.w	r9, r9, #1
10005912:	45b9      	cmp	r9, r7
10005914:	d211      	bcs.n	1000593a <cdcd_xfer_cb+0xae>
10005916:	7972      	ldrb	r2, [r6, #5]
10005918:	4b26      	ldr	r3, [pc, #152]	; (100059b4 <cdcd_xfer_cb+0x128>)
1000591a:	eb03 13ca 	add.w	r3, r3, sl, lsl #7
1000591e:	f813 3009 	ldrb.w	r3, [r3, r9]
10005922:	429a      	cmp	r2, r3
10005924:	d1f3      	bne.n	1000590e <cdcd_xfer_cb+0x82>
10005926:	4658      	mov	r0, fp
10005928:	f000 fe2d 	bl	10006586 <tu_fifo_empty>
1000592c:	2800      	cmp	r0, #0
1000592e:	d1ee      	bne.n	1000590e <cdcd_xfer_cb+0x82>
10005930:	7971      	ldrb	r1, [r6, #5]
10005932:	4620      	mov	r0, r4
10005934:	e000      	b.n	10005938 <cdcd_xfer_cb+0xac>
10005936:	bf00      	nop
10005938:	e7e9      	b.n	1000590e <cdcd_xfer_cb+0x82>
1000593a:	4b20      	ldr	r3, [pc, #128]	; (100059bc <cdcd_xfer_cb+0x130>)
1000593c:	b11b      	cbz	r3, 10005946 <cdcd_xfer_cb+0xba>
1000593e:	4658      	mov	r0, fp
10005940:	f000 fe21 	bl	10006586 <tu_fifo_empty>
10005944:	b118      	cbz	r0, 1000594e <cdcd_xfer_cb+0xc2>
10005946:	4620      	mov	r0, r4
10005948:	f7ff fca2 	bl	10005290 <_prep_out_transaction>
1000594c:	e7aa      	b.n	100058a4 <cdcd_xfer_cb+0x18>
1000594e:	4620      	mov	r0, r4
10005950:	e000      	b.n	10005954 <cdcd_xfer_cb+0xc8>
10005952:	bf00      	nop
10005954:	e7f7      	b.n	10005946 <cdcd_xfer_cb+0xba>
10005956:	4b1a      	ldr	r3, [pc, #104]	; (100059c0 <cdcd_xfer_cb+0x134>)
10005958:	b113      	cbz	r3, 10005960 <cdcd_xfer_cb+0xd4>
1000595a:	4620      	mov	r0, r4
1000595c:	e000      	b.n	10005960 <cdcd_xfer_cb+0xd4>
1000595e:	bf00      	nop
10005960:	4620      	mov	r0, r4
10005962:	f7ff fd27 	bl	100053b4 <tud_cdc_n_write_flush>
10005966:	b108      	cbz	r0, 1000596c <cdcd_xfer_cb+0xe0>
10005968:	2401      	movs	r4, #1
1000596a:	e79f      	b.n	100058ac <cdcd_xfer_cb+0x20>
1000596c:	f106 0024 	add.w	r0, r6, #36	; 0x24
10005970:	f000 fdf5 	bl	1000655e <tu_fifo_count>
10005974:	b9a0      	cbnz	r0, 100059a0 <cdcd_xfer_cb+0x114>
10005976:	b1af      	cbz	r7, 100059a4 <cdcd_xfer_cb+0x118>
10005978:	f017 0f3f 	tst.w	r7, #63	; 0x3f
1000597c:	d001      	beq.n	10005982 <cdcd_xfer_cb+0xf6>
1000597e:	2401      	movs	r4, #1
10005980:	e794      	b.n	100058ac <cdcd_xfer_cb+0x20>
10005982:	78b1      	ldrb	r1, [r6, #2]
10005984:	4640      	mov	r0, r8
10005986:	f7fe ff49 	bl	1000481c <usbd_edpt_claim>
1000598a:	4604      	mov	r4, r0
1000598c:	b908      	cbnz	r0, 10005992 <cdcd_xfer_cb+0x106>
1000598e:	2401      	movs	r4, #1
10005990:	e78c      	b.n	100058ac <cdcd_xfer_cb+0x20>
10005992:	2300      	movs	r3, #0
10005994:	461a      	mov	r2, r3
10005996:	78b1      	ldrb	r1, [r6, #2]
10005998:	4640      	mov	r0, r8
1000599a:	f7fe ff67 	bl	1000486c <usbd_edpt_xfer>
1000599e:	e785      	b.n	100058ac <cdcd_xfer_cb+0x20>
100059a0:	2401      	movs	r4, #1
100059a2:	e783      	b.n	100058ac <cdcd_xfer_cb+0x20>
100059a4:	2401      	movs	r4, #1
100059a6:	e781      	b.n	100058ac <cdcd_xfer_cb+0x20>
100059a8:	2000265c 	.word	0x2000265c
100059ac:	10008c24 	.word	0x10008c24
100059b0:	10008ae8 	.word	0x10008ae8
100059b4:	200025d8 	.word	0x200025d8
	...

100059c4 <tud_vendor_n_mounted>:
100059c4:	b990      	cbnz	r0, 100059ec <tud_vendor_n_mounted+0x28>
100059c6:	4b0a      	ldr	r3, [pc, #40]	; (100059f0 <tud_vendor_n_mounted+0x2c>)
100059c8:	f44f 7113 	mov.w	r1, #588	; 0x24c
100059cc:	fb01 3300 	mla	r3, r1, r0, r3
100059d0:	f893 3129 	ldrb.w	r3, [r3, #297]	; 0x129
100059d4:	b933      	cbnz	r3, 100059e4 <tud_vendor_n_mounted+0x20>
100059d6:	4b06      	ldr	r3, [pc, #24]	; (100059f0 <tud_vendor_n_mounted+0x2c>)
100059d8:	fb01 3200 	mla	r2, r1, r0, r3
100059dc:	7953      	ldrb	r3, [r2, #5]
100059de:	b11b      	cbz	r3, 100059e8 <tud_vendor_n_mounted+0x24>
100059e0:	2001      	movs	r0, #1
100059e2:	4770      	bx	lr
100059e4:	2001      	movs	r0, #1
100059e6:	4770      	bx	lr
100059e8:	2000      	movs	r0, #0
100059ea:	4770      	bx	lr
100059ec:	2000      	movs	r0, #0
100059ee:	4770      	bx	lr
100059f0:	20002968 	.word	0x20002968

100059f4 <tud_vendor_n_write_flush>:
100059f4:	b108      	cbz	r0, 100059fa <tud_vendor_n_write_flush+0x6>
100059f6:	2000      	movs	r0, #0
100059f8:	4770      	bx	lr
100059fa:	b508      	push	{r3, lr}
100059fc:	4904      	ldr	r1, [pc, #16]	; (10005a10 <tud_vendor_n_write_flush+0x1c>)
100059fe:	f44f 7213 	mov.w	r2, #588	; 0x24c
10005a02:	fb02 1100 	mla	r1, r2, r0, r1
10005a06:	3104      	adds	r1, #4
10005a08:	f000 fb30 	bl	1000606c <tu_edpt_stream_write_xfer>
10005a0c:	bd08      	pop	{r3, pc}
10005a0e:	bf00      	nop
10005a10:	20002968 	.word	0x20002968

10005a14 <vendord_init>:
10005a14:	e92d 47f0 	stmdb	sp!, {r4, r5, r6, r7, r8, r9, sl, lr}
10005a18:	b084      	sub	sp, #16
10005a1a:	f44f 7213 	mov.w	r2, #588	; 0x24c
10005a1e:	2100      	movs	r1, #0
10005a20:	481e      	ldr	r0, [pc, #120]	; (10005a9c <vendord_init+0x88>)
10005a22:	f001 feab 	bl	1000777c <memset>
10005a26:	2400      	movs	r4, #0
10005a28:	b114      	cbz	r4, 10005a30 <vendord_init+0x1c>
10005a2a:	b004      	add	sp, #16
10005a2c:	e8bd 87f0 	ldmia.w	sp!, {r4, r5, r6, r7, r8, r9, sl, pc}
10005a30:	4d1a      	ldr	r5, [pc, #104]	; (10005a9c <vendord_init+0x88>)
10005a32:	f44f 7013 	mov.w	r0, #588	; 0x24c
10005a36:	fb00 f604 	mul.w	r6, r0, r4
10005a3a:	f506 73a4 	add.w	r3, r6, #328	; 0x148
10005a3e:	442b      	add	r3, r5
10005a40:	3304      	adds	r3, #4
10005a42:	4f17      	ldr	r7, [pc, #92]	; (10005aa0 <vendord_init+0x8c>)
10005a44:	ea4f 1ac4 	mov.w	sl, r4, lsl #7
10005a48:	eb07 12c4 	add.w	r2, r7, r4, lsl #7
10005a4c:	f506 7094 	add.w	r0, r6, #296	; 0x128
10005a50:	f04f 0940 	mov.w	r9, #64	; 0x40
10005a54:	f8cd 900c 	str.w	r9, [sp, #12]
10005a58:	9202      	str	r2, [sp, #8]
10005a5a:	f44f 7880 	mov.w	r8, #256	; 0x100
10005a5e:	f8cd 8004 	str.w	r8, [sp, #4]
10005a62:	9300      	str	r3, [sp, #0]
10005a64:	2300      	movs	r3, #0
10005a66:	461a      	mov	r2, r3
10005a68:	4619      	mov	r1, r3
10005a6a:	4428      	add	r0, r5
10005a6c:	f000 fa89 	bl	10005f82 <tu_edpt_stream_init>
10005a70:	f106 0320 	add.w	r3, r6, #32
10005a74:	442b      	add	r3, r5
10005a76:	3308      	adds	r3, #8
10005a78:	44ca      	add	sl, r9
10005a7a:	4457      	add	r7, sl
10005a7c:	19a8      	adds	r0, r5, r6
10005a7e:	f8cd 900c 	str.w	r9, [sp, #12]
10005a82:	9702      	str	r7, [sp, #8]
10005a84:	f8cd 8004 	str.w	r8, [sp, #4]
10005a88:	9300      	str	r3, [sp, #0]
10005a8a:	2300      	movs	r3, #0
10005a8c:	2201      	movs	r2, #1
10005a8e:	4619      	mov	r1, r3
10005a90:	3004      	adds	r0, #4
10005a92:	f000 fa76 	bl	10005f82 <tu_edpt_stream_init>
10005a96:	3401      	adds	r4, #1
10005a98:	b2e4      	uxtb	r4, r4
10005a9a:	e7c5      	b.n	10005a28 <vendord_init+0x14>
10005a9c:	20002968 	.word	0x20002968
10005aa0:	200028e8 	.word	0x200028e8

10005aa4 <vendord_deinit>:
10005aa4:	b570      	push	{r4, r5, r6, lr}
10005aa6:	2400      	movs	r4, #0
10005aa8:	b10c      	cbz	r4, 10005aae <vendord_deinit+0xa>
10005aaa:	2001      	movs	r0, #1
10005aac:	bd70      	pop	{r4, r5, r6, pc}
10005aae:	4d08      	ldr	r5, [pc, #32]	; (10005ad0 <vendord_deinit+0x2c>)
10005ab0:	f44f 7013 	mov.w	r0, #588	; 0x24c
10005ab4:	fb00 f604 	mul.w	r6, r0, r4
10005ab8:	f506 7094 	add.w	r0, r6, #296	; 0x128
10005abc:	4428      	add	r0, r5
10005abe:	f000 fa8b 	bl	10005fd8 <tu_edpt_stream_deinit>
10005ac2:	19a8      	adds	r0, r5, r6
10005ac4:	3004      	adds	r0, #4
10005ac6:	f000 fa87 	bl	10005fd8 <tu_edpt_stream_deinit>
10005aca:	3401      	adds	r4, #1
10005acc:	b2e4      	uxtb	r4, r4
10005ace:	e7eb      	b.n	10005aa8 <vendord_deinit+0x4>
10005ad0:	20002968 	.word	0x20002968

10005ad4 <vendord_reset>:
10005ad4:	e92d 41f0 	stmdb	sp!, {r4, r5, r6, r7, r8, lr}
10005ad8:	2500      	movs	r5, #0
10005ada:	b10d      	cbz	r5, 10005ae0 <vendord_reset+0xc>
10005adc:	e8bd 81f0 	ldmia.w	sp!, {r4, r5, r6, r7, r8, pc}
10005ae0:	4e0c      	ldr	r6, [pc, #48]	; (10005b14 <vendord_reset+0x40>)
10005ae2:	f44f 7413 	mov.w	r4, #588	; 0x24c
10005ae6:	fb05 f404 	mul.w	r4, r5, r4
10005aea:	eb06 0804 	add.w	r8, r6, r4
10005aee:	2700      	movs	r7, #0
10005af0:	5537      	strb	r7, [r6, r4]
10005af2:	f504 7098 	add.w	r0, r4, #304	; 0x130
10005af6:	4430      	add	r0, r6
10005af8:	f000 fdd0 	bl	1000669c <tu_fifo_clear>
10005afc:	3408      	adds	r4, #8
10005afe:	4434      	add	r4, r6
10005b00:	1d20      	adds	r0, r4, #4
10005b02:	f000 fdcb 	bl	1000669c <tu_fifo_clear>
10005b06:	f888 7129 	strb.w	r7, [r8, #297]	; 0x129
10005b0a:	f888 7005 	strb.w	r7, [r8, #5]
10005b0e:	3501      	adds	r5, #1
10005b10:	b2ed      	uxtb	r5, r5
10005b12:	e7e2      	b.n	10005ada <vendord_reset+0x6>
10005b14:	20002968 	.word	0x20002968

10005b18 <vendord_open>:
10005b18:	794b      	ldrb	r3, [r1, #5]
10005b1a:	2bff      	cmp	r3, #255	; 0xff
10005b1c:	f040 8094 	bne.w	10005c48 <vendord_open+0x130>
10005b20:	e92d 47f0 	stmdb	sp!, {r4, r5, r6, r7, r8, r9, sl, lr}
10005b24:	4681      	mov	r9, r0
10005b26:	4688      	mov	r8, r1
10005b28:	780c      	ldrb	r4, [r1, #0]
10005b2a:	440c      	add	r4, r1
10005b2c:	18a5      	adds	r5, r4, r2
10005b2e:	2600      	movs	r6, #0
10005b30:	b146      	cbz	r6, 10005b44 <vendord_open+0x2c>
10005b32:	2600      	movs	r6, #0
10005b34:	2e00      	cmp	r6, #0
10005b36:	f000 8089 	beq.w	10005c4c <vendord_open+0x134>
10005b3a:	f898 3002 	ldrb.w	r3, [r8, #2]
10005b3e:	7033      	strb	r3, [r6, #0]
10005b40:	2700      	movs	r7, #0
10005b42:	e03e      	b.n	10005bc2 <vendord_open+0xaa>
10005b44:	4630      	mov	r0, r6
10005b46:	f7ff ff3d 	bl	100059c4 <tud_vendor_n_mounted>
10005b4a:	b110      	cbz	r0, 10005b52 <vendord_open+0x3a>
10005b4c:	3601      	adds	r6, #1
10005b4e:	b2f6      	uxtb	r6, r6
10005b50:	e7ee      	b.n	10005b30 <vendord_open+0x18>
10005b52:	4b3f      	ldr	r3, [pc, #252]	; (10005c50 <vendord_open+0x138>)
10005b54:	f44f 7213 	mov.w	r2, #588	; 0x24c
10005b58:	fb02 3606 	mla	r6, r2, r6, r3
10005b5c:	e7ea      	b.n	10005b34 <vendord_open+0x1c>
10005b5e:	7823      	ldrb	r3, [r4, #0]
10005b60:	441c      	add	r4, r3
10005b62:	7863      	ldrb	r3, [r4, #1]
10005b64:	2b05      	cmp	r3, #5
10005b66:	d001      	beq.n	10005b6c <vendord_open+0x54>
10005b68:	42ac      	cmp	r4, r5
10005b6a:	d3f8      	bcc.n	10005b5e <vendord_open+0x46>
10005b6c:	42ac      	cmp	r4, r5
10005b6e:	d22c      	bcs.n	10005bca <vendord_open+0xb2>
10005b70:	4621      	mov	r1, r4
10005b72:	4648      	mov	r0, r9
10005b74:	f7fe fdc2 	bl	100046fc <usbd_edpt_open>
10005b78:	b360      	cbz	r0, 10005bd4 <vendord_open+0xbc>
10005b7a:	3701      	adds	r7, #1
10005b7c:	b2ff      	uxtb	r7, r7
10005b7e:	78a3      	ldrb	r3, [r4, #2]
10005b80:	09db      	lsrs	r3, r3, #7
10005b82:	d136      	bne.n	10005bf2 <vendord_open+0xda>
10005b84:	f506 7a94 	add.w	sl, r6, #296	; 0x128
10005b88:	f506 7098 	add.w	r0, r6, #304	; 0x130
10005b8c:	f000 fd86 	bl	1000669c <tu_fifo_clear>
10005b90:	78a3      	ldrb	r3, [r4, #2]
10005b92:	f886 3129 	strb.w	r3, [r6, #297]	; 0x129
10005b96:	88a3      	ldrh	r3, [r4, #4]
10005b98:	f3c3 030a 	ubfx	r3, r3, #0, #11
10005b9c:	f5b3 7f00 	cmp.w	r3, #512	; 0x200
10005ba0:	bf14      	ite	ne
10005ba2:	2300      	movne	r3, #0
10005ba4:	2301      	moveq	r3, #1
10005ba6:	f896 2128 	ldrb.w	r2, [r6, #296]	; 0x128
10005baa:	f363 0241 	bfi	r2, r3, #1, #1
10005bae:	f886 2128 	strb.w	r2, [r6, #296]	; 0x128
10005bb2:	4651      	mov	r1, sl
10005bb4:	4648      	mov	r0, r9
10005bb6:	f000 faa5 	bl	10006104 <tu_edpt_stream_read_xfer>
10005bba:	2800      	cmp	r0, #0
10005bbc:	d035      	beq.n	10005c2a <vendord_open+0x112>
10005bbe:	7823      	ldrb	r3, [r4, #0]
10005bc0:	441c      	add	r4, r3
10005bc2:	f898 3004 	ldrb.w	r3, [r8, #4]
10005bc6:	42bb      	cmp	r3, r7
10005bc8:	d8cb      	bhi.n	10005b62 <vendord_open+0x4a>
10005bca:	eba4 0008 	sub.w	r0, r4, r8
10005bce:	b280      	uxth	r0, r0
10005bd0:	e8bd 87f0 	ldmia.w	sp!, {r4, r5, r6, r7, r8, r9, sl, pc}
10005bd4:	22e0      	movs	r2, #224	; 0xe0
10005bd6:	491f      	ldr	r1, [pc, #124]	; (10005c54 <vendord_open+0x13c>)
10005bd8:	481f      	ldr	r0, [pc, #124]	; (10005c58 <vendord_open+0x140>)
10005bda:	f7fd fccf 	bl	1000357c <__wrap_printf>
10005bde:	f04f 23e0 	mov.w	r3, #3758153728	; 0xe000e000
10005be2:	f8d3 3df0 	ldr.w	r3, [r3, #3568]	; 0xdf0
10005be6:	f013 0f01 	tst.w	r3, #1
10005bea:	d000      	beq.n	10005bee <vendord_open+0xd6>
10005bec:	be00      	bkpt	0x0000
10005bee:	2000      	movs	r0, #0
10005bf0:	e7ee      	b.n	10005bd0 <vendord_open+0xb8>
10005bf2:	f106 000c 	add.w	r0, r6, #12
10005bf6:	f000 fd51 	bl	1000669c <tu_fifo_clear>
10005bfa:	78a3      	ldrb	r3, [r4, #2]
10005bfc:	7173      	strb	r3, [r6, #5]
10005bfe:	88a3      	ldrh	r3, [r4, #4]
10005c00:	f3c3 030a 	ubfx	r3, r3, #0, #11
10005c04:	f5b3 7f00 	cmp.w	r3, #512	; 0x200
10005c08:	bf14      	ite	ne
10005c0a:	2300      	movne	r3, #0
10005c0c:	2301      	moveq	r3, #1
10005c0e:	7932      	ldrb	r2, [r6, #4]
10005c10:	f363 0241 	bfi	r2, r3, #1, #1
10005c14:	7132      	strb	r2, [r6, #4]
10005c16:	480e      	ldr	r0, [pc, #56]	; (10005c50 <vendord_open+0x138>)
10005c18:	1a30      	subs	r0, r6, r0
10005c1a:	1080      	asrs	r0, r0, #2
10005c1c:	4b0f      	ldr	r3, [pc, #60]	; (10005c5c <vendord_open+0x144>)
10005c1e:	fb03 f000 	mul.w	r0, r3, r0
10005c22:	b2c0      	uxtb	r0, r0
10005c24:	f7ff fee6 	bl	100059f4 <tud_vendor_n_write_flush>
10005c28:	e7c9      	b.n	10005bbe <vendord_open+0xa6>
10005c2a:	22e8      	movs	r2, #232	; 0xe8
10005c2c:	4909      	ldr	r1, [pc, #36]	; (10005c54 <vendord_open+0x13c>)
10005c2e:	480a      	ldr	r0, [pc, #40]	; (10005c58 <vendord_open+0x140>)
10005c30:	f7fd fca4 	bl	1000357c <__wrap_printf>
10005c34:	f04f 23e0 	mov.w	r3, #3758153728	; 0xe000e000
10005c38:	f8d3 3df0 	ldr.w	r3, [r3, #3568]	; 0xdf0
10005c3c:	f013 0f01 	tst.w	r3, #1
10005c40:	d000      	beq.n	10005c44 <vendord_open+0x12c>
10005c42:	be00      	bkpt	0x0000
10005c44:	2000      	movs	r0, #0
10005c46:	e7c3      	b.n	10005bd0 <vendord_open+0xb8>
10005c48:	2000      	movs	r0, #0
10005c4a:	4770      	bx	lr
10005c4c:	2000      	movs	r0, #0
10005c4e:	e7bf      	b.n	10005bd0 <vendord_open+0xb8>
10005c50:	20002968 	.word	0x20002968
10005c54:	10008c58 	.word	0x10008c58
10005c58:	10008ae8 	.word	0x10008ae8
10005c5c:	08b51d9b 	.word	0x08b51d9b

10005c60 <vendord_xfer_cb>:
10005c60:	e92d 41f0 	stmdb	sp!, {r4, r5, r6, r7, r8, lr}
10005c64:	4605      	mov	r5, r0
10005c66:	461f      	mov	r7, r3
10005c68:	2400      	movs	r4, #0
10005c6a:	b15c      	cbz	r4, 10005c84 <vendord_xfer_cb+0x24>
10005c6c:	2c00      	cmp	r4, #0
10005c6e:	d148      	bne.n	10005d02 <vendord_xfer_cb+0xa2>
10005c70:	46a0      	mov	r8, r4
10005c72:	f896 3129 	ldrb.w	r3, [r6, #297]	; 0x129
10005c76:	428b      	cmp	r3, r1
10005c78:	d013      	beq.n	10005ca2 <vendord_xfer_cb+0x42>
10005c7a:	7973      	ldrb	r3, [r6, #5]
10005c7c:	428b      	cmp	r3, r1
10005c7e:	d02b      	beq.n	10005cd8 <vendord_xfer_cb+0x78>
10005c80:	2001      	movs	r0, #1
10005c82:	e03f      	b.n	10005d04 <vendord_xfer_cb+0xa4>
10005c84:	4e20      	ldr	r6, [pc, #128]	; (10005d08 <vendord_xfer_cb+0xa8>)
10005c86:	f44f 7313 	mov.w	r3, #588	; 0x24c
10005c8a:	fb03 6604 	mla	r6, r3, r4, r6
10005c8e:	f896 3129 	ldrb.w	r3, [r6, #297]	; 0x129
10005c92:	428b      	cmp	r3, r1
10005c94:	d0ea      	beq.n	10005c6c <vendord_xfer_cb+0xc>
10005c96:	7973      	ldrb	r3, [r6, #5]
10005c98:	428b      	cmp	r3, r1
10005c9a:	d0e7      	beq.n	10005c6c <vendord_xfer_cb+0xc>
10005c9c:	3401      	adds	r4, #1
10005c9e:	b2e4      	uxtb	r4, r4
10005ca0:	e7e3      	b.n	10005c6a <vendord_xfer_cb+0xa>
10005ca2:	f8b6 3134 	ldrh.w	r3, [r6, #308]	; 0x134
10005ca6:	b97b      	cbnz	r3, 10005cc8 <vendord_xfer_cb+0x68>
10005ca8:	4b18      	ldr	r3, [pc, #96]	; (10005d0c <vendord_xfer_cb+0xac>)
10005caa:	b133      	cbz	r3, 10005cba <vendord_xfer_cb+0x5a>
10005cac:	b2ba      	uxth	r2, r7
10005cae:	4918      	ldr	r1, [pc, #96]	; (10005d10 <vendord_xfer_cb+0xb0>)
10005cb0:	eb01 11c8 	add.w	r1, r1, r8, lsl #7
10005cb4:	4620      	mov	r0, r4
10005cb6:	e000      	b.n	10005cba <vendord_xfer_cb+0x5a>
10005cb8:	bf00      	nop
10005cba:	f506 7194 	add.w	r1, r6, #296	; 0x128
10005cbe:	4628      	mov	r0, r5
10005cc0:	f000 fa20 	bl	10006104 <tu_edpt_stream_read_xfer>
10005cc4:	2001      	movs	r0, #1
10005cc6:	e01d      	b.n	10005d04 <vendord_xfer_cb+0xa4>
10005cc8:	b2ba      	uxth	r2, r7
10005cca:	f8d6 112c 	ldr.w	r1, [r6, #300]	; 0x12c
10005cce:	f506 7098 	add.w	r0, r6, #304	; 0x130
10005cd2:	f000 fcde 	bl	10006692 <tu_fifo_write_n>
10005cd6:	e7e7      	b.n	10005ca8 <vendord_xfer_cb+0x48>
10005cd8:	4b0e      	ldr	r3, [pc, #56]	; (10005d14 <vendord_xfer_cb+0xb4>)
10005cda:	b11b      	cbz	r3, 10005ce4 <vendord_xfer_cb+0x84>
10005cdc:	b2b9      	uxth	r1, r7
10005cde:	4620      	mov	r0, r4
10005ce0:	e000      	b.n	10005ce4 <vendord_xfer_cb+0x84>
10005ce2:	bf00      	nop
10005ce4:	3604      	adds	r6, #4
10005ce6:	4631      	mov	r1, r6
10005ce8:	4628      	mov	r0, r5
10005cea:	f000 f9bf 	bl	1000606c <tu_edpt_stream_write_xfer>
10005cee:	b108      	cbz	r0, 10005cf4 <vendord_xfer_cb+0x94>
10005cf0:	2001      	movs	r0, #1
10005cf2:	e007      	b.n	10005d04 <vendord_xfer_cb+0xa4>
10005cf4:	463a      	mov	r2, r7
10005cf6:	4631      	mov	r1, r6
10005cf8:	4628      	mov	r0, r5
10005cfa:	f000 f96f 	bl	10005fdc <tu_edpt_stream_write_zlp_if_needed>
10005cfe:	2001      	movs	r0, #1
10005d00:	e000      	b.n	10005d04 <vendord_xfer_cb+0xa4>
10005d02:	2000      	movs	r0, #0
10005d04:	e8bd 81f0 	ldmia.w	sp!, {r4, r5, r6, r7, r8, pc}
10005d08:	20002968 	.word	0x20002968
10005d0c:	00000000 	.word	0x00000000
10005d10:	200028e8 	.word	0x200028e8
10005d14:	00000000 	.word	0x00000000

10005d18 <tusb_rhport_init>:
10005d18:	b510      	push	{r4, lr}
10005d1a:	b082      	sub	sp, #8
10005d1c:	b151      	cbz	r1, 10005d34 <tusb_rhport_init+0x1c>
10005d1e:	460a      	mov	r2, r1
10005d20:	2801      	cmp	r0, #1
10005d22:	d824      	bhi.n	10005d6e <tusb_rhport_init+0x56>
10005d24:	780b      	ldrb	r3, [r1, #0]
10005d26:	b313      	cbz	r3, 10005d6e <tusb_rhport_init+0x56>
10005d28:	4923      	ldr	r1, [pc, #140]	; (10005db8 <tusb_rhport_init+0xa0>)
10005d2a:	540b      	strb	r3, [r1, r0]
10005d2c:	2b01      	cmp	r3, #1
10005d2e:	d02f      	beq.n	10005d90 <tusb_rhport_init+0x78>
10005d30:	2401      	movs	r4, #1
10005d32:	e02a      	b.n	10005d8a <tusb_rhport_init+0x72>
10005d34:	2301      	movs	r3, #1
10005d36:	f88d 3004 	strb.w	r3, [sp, #4]
10005d3a:	2000      	movs	r0, #0
10005d3c:	f88d 0005 	strb.w	r0, [sp, #5]
10005d40:	a901      	add	r1, sp, #4
10005d42:	f7fe fc45 	bl	100045d0 <tud_rhport_init>
10005d46:	4604      	mov	r4, r0
10005d48:	b118      	cbz	r0, 10005d52 <tusb_rhport_init+0x3a>
10005d4a:	4b1b      	ldr	r3, [pc, #108]	; (10005db8 <tusb_rhport_init+0xa0>)
10005d4c:	2201      	movs	r2, #1
10005d4e:	701a      	strb	r2, [r3, #0]
10005d50:	e01b      	b.n	10005d8a <tusb_rhport_init+0x72>
10005d52:	2247      	movs	r2, #71	; 0x47
10005d54:	4919      	ldr	r1, [pc, #100]	; (10005dbc <tusb_rhport_init+0xa4>)
10005d56:	481a      	ldr	r0, [pc, #104]	; (10005dc0 <tusb_rhport_init+0xa8>)
10005d58:	f7fd fc10 	bl	1000357c <__wrap_printf>
10005d5c:	f04f 23e0 	mov.w	r3, #3758153728	; 0xe000e000
10005d60:	f8d3 3df0 	ldr.w	r3, [r3, #3568]	; 0xdf0
10005d64:	f013 0f01 	tst.w	r3, #1
10005d68:	d00f      	beq.n	10005d8a <tusb_rhport_init+0x72>
10005d6a:	be00      	bkpt	0x0000
10005d6c:	e00d      	b.n	10005d8a <tusb_rhport_init+0x72>
10005d6e:	225a      	movs	r2, #90	; 0x5a
10005d70:	4912      	ldr	r1, [pc, #72]	; (10005dbc <tusb_rhport_init+0xa4>)
10005d72:	4813      	ldr	r0, [pc, #76]	; (10005dc0 <tusb_rhport_init+0xa8>)
10005d74:	f7fd fc02 	bl	1000357c <__wrap_printf>
10005d78:	f04f 23e0 	mov.w	r3, #3758153728	; 0xe000e000
10005d7c:	f8d3 3df0 	ldr.w	r3, [r3, #3568]	; 0xdf0
10005d80:	f013 0f01 	tst.w	r3, #1
10005d84:	d000      	beq.n	10005d88 <tusb_rhport_init+0x70>
10005d86:	be00      	bkpt	0x0000
10005d88:	2400      	movs	r4, #0
10005d8a:	4620      	mov	r0, r4
10005d8c:	b002      	add	sp, #8
10005d8e:	bd10      	pop	{r4, pc}
10005d90:	4611      	mov	r1, r2
10005d92:	f7fe fc1d 	bl	100045d0 <tud_rhport_init>
10005d96:	4604      	mov	r4, r0
10005d98:	2800      	cmp	r0, #0
10005d9a:	d1f6      	bne.n	10005d8a <tusb_rhport_init+0x72>
10005d9c:	225f      	movs	r2, #95	; 0x5f
10005d9e:	4907      	ldr	r1, [pc, #28]	; (10005dbc <tusb_rhport_init+0xa4>)
10005da0:	4807      	ldr	r0, [pc, #28]	; (10005dc0 <tusb_rhport_init+0xa8>)
10005da2:	f7fd fbeb 	bl	1000357c <__wrap_printf>
10005da6:	f04f 23e0 	mov.w	r3, #3758153728	; 0xe000e000
10005daa:	f8d3 3df0 	ldr.w	r3, [r3, #3568]	; 0xdf0
10005dae:	f013 0f01 	tst.w	r3, #1
10005db2:	d0ea      	beq.n	10005d8a <tusb_rhport_init+0x72>
10005db4:	be00      	bkpt	0x0000
10005db6:	e7e8      	b.n	10005d8a <tusb_rhport_init+0x72>
10005db8:	200027b4 	.word	0x200027b4
10005dbc:	10008cd8 	.word	0x10008cd8
10005dc0:	10008ae8 	.word	0x10008ae8

10005dc4 <tu_edpt_claim>:
10005dc4:	b570      	push	{r4, r5, r6, lr}
10005dc6:	7803      	ldrb	r3, [r0, #0]
10005dc8:	f013 0401 	ands.w	r4, r3, #1
10005dcc:	d121      	bne.n	10005e12 <tu_edpt_claim+0x4e>
10005dce:	4605      	mov	r5, r0
10005dd0:	460e      	mov	r6, r1
10005dd2:	7803      	ldrb	r3, [r0, #0]
10005dd4:	f013 0f04 	tst.w	r3, #4
10005dd8:	d11c      	bne.n	10005e14 <tu_edpt_claim+0x50>
10005dda:	f04f 31ff 	mov.w	r1, #4294967295
10005dde:	4630      	mov	r0, r6
10005de0:	f001 fefe 	bl	10007be0 <__mutex_enter_timeout_ms_veneer>
10005de4:	782b      	ldrb	r3, [r5, #0]
10005de6:	f013 0f01 	tst.w	r3, #1
10005dea:	d105      	bne.n	10005df8 <tu_edpt_claim+0x34>
10005dec:	782b      	ldrb	r3, [r5, #0]
10005dee:	f013 0f04 	tst.w	r3, #4
10005df2:	d00c      	beq.n	10005e0e <tu_edpt_claim+0x4a>
10005df4:	2300      	movs	r3, #0
10005df6:	e000      	b.n	10005dfa <tu_edpt_claim+0x36>
10005df8:	2300      	movs	r3, #0
10005dfa:	461c      	mov	r4, r3
10005dfc:	b11b      	cbz	r3, 10005e06 <tu_edpt_claim+0x42>
10005dfe:	782b      	ldrb	r3, [r5, #0]
10005e00:	f043 0304 	orr.w	r3, r3, #4
10005e04:	702b      	strb	r3, [r5, #0]
10005e06:	4630      	mov	r0, r6
10005e08:	f001 feca 	bl	10007ba0 <__mutex_exit_veneer>
10005e0c:	e002      	b.n	10005e14 <tu_edpt_claim+0x50>
10005e0e:	2301      	movs	r3, #1
10005e10:	e7f3      	b.n	10005dfa <tu_edpt_claim+0x36>
10005e12:	2400      	movs	r4, #0
10005e14:	4620      	mov	r0, r4
10005e16:	bd70      	pop	{r4, r5, r6, pc}

10005e18 <tu_edpt_release>:
10005e18:	b570      	push	{r4, r5, r6, lr}
10005e1a:	4604      	mov	r4, r0
10005e1c:	460d      	mov	r5, r1
10005e1e:	f04f 31ff 	mov.w	r1, #4294967295
10005e22:	4628      	mov	r0, r5
10005e24:	f001 fedc 	bl	10007be0 <__mutex_enter_timeout_ms_veneer>
10005e28:	7823      	ldrb	r3, [r4, #0]
10005e2a:	f013 0f04 	tst.w	r3, #4
10005e2e:	d10b      	bne.n	10005e48 <tu_edpt_release+0x30>
10005e30:	2300      	movs	r3, #0
10005e32:	461e      	mov	r6, r3
10005e34:	b11b      	cbz	r3, 10005e3e <tu_edpt_release+0x26>
10005e36:	7823      	ldrb	r3, [r4, #0]
10005e38:	f36f 0382 	bfc	r3, #2, #1
10005e3c:	7023      	strb	r3, [r4, #0]
10005e3e:	4628      	mov	r0, r5
10005e40:	f001 feae 	bl	10007ba0 <__mutex_exit_veneer>
10005e44:	4630      	mov	r0, r6
10005e46:	bd70      	pop	{r4, r5, r6, pc}
10005e48:	7823      	ldrb	r3, [r4, #0]
10005e4a:	f013 0f01 	tst.w	r3, #1
10005e4e:	d001      	beq.n	10005e54 <tu_edpt_release+0x3c>
10005e50:	2300      	movs	r3, #0
10005e52:	e7ee      	b.n	10005e32 <tu_edpt_release+0x1a>
10005e54:	2301      	movs	r3, #1
10005e56:	e7ec      	b.n	10005e32 <tu_edpt_release+0x1a>

10005e58 <tu_edpt_validate>:
10005e58:	b508      	push	{r3, lr}
10005e5a:	8883      	ldrh	r3, [r0, #4]
10005e5c:	f3c3 020a 	ubfx	r2, r3, #0, #11
10005e60:	78c3      	ldrb	r3, [r0, #3]
10005e62:	f003 0303 	and.w	r3, r3, #3
10005e66:	2b02      	cmp	r3, #2
10005e68:	d01f      	beq.n	10005eaa <tu_edpt_validate+0x52>
10005e6a:	2b03      	cmp	r3, #3
10005e6c:	d046      	beq.n	10005efc <tu_edpt_validate+0xa4>
10005e6e:	2b01      	cmp	r3, #1
10005e70:	d001      	beq.n	10005e76 <tu_edpt_validate+0x1e>
10005e72:	2000      	movs	r0, #0
10005e74:	bd08      	pop	{r3, pc}
10005e76:	2902      	cmp	r1, #2
10005e78:	d005      	beq.n	10005e86 <tu_edpt_validate+0x2e>
10005e7a:	f240 33ff 	movw	r3, #1023	; 0x3ff
10005e7e:	4293      	cmp	r3, r2
10005e80:	d304      	bcc.n	10005e8c <tu_edpt_validate+0x34>
10005e82:	2001      	movs	r0, #1
10005e84:	e7f6      	b.n	10005e74 <tu_edpt_validate+0x1c>
10005e86:	f44f 6380 	mov.w	r3, #1024	; 0x400
10005e8a:	e7f8      	b.n	10005e7e <tu_edpt_validate+0x26>
10005e8c:	22d1      	movs	r2, #209	; 0xd1
10005e8e:	4928      	ldr	r1, [pc, #160]	; (10005f30 <tu_edpt_validate+0xd8>)
10005e90:	4828      	ldr	r0, [pc, #160]	; (10005f34 <tu_edpt_validate+0xdc>)
10005e92:	f7fd fb73 	bl	1000357c <__wrap_printf>
10005e96:	f04f 23e0 	mov.w	r3, #3758153728	; 0xe000e000
10005e9a:	f8d3 3df0 	ldr.w	r3, [r3, #3568]	; 0xdf0
10005e9e:	f013 0f01 	tst.w	r3, #1
10005ea2:	d000      	beq.n	10005ea6 <tu_edpt_validate+0x4e>
10005ea4:	be00      	bkpt	0x0000
10005ea6:	2000      	movs	r0, #0
10005ea8:	e7e4      	b.n	10005e74 <tu_edpt_validate+0x1c>
10005eaa:	2902      	cmp	r1, #2
10005eac:	d003      	beq.n	10005eb6 <tu_edpt_validate+0x5e>
10005eae:	2a40      	cmp	r2, #64	; 0x40
10005eb0:	d815      	bhi.n	10005ede <tu_edpt_validate+0x86>
10005eb2:	2001      	movs	r0, #1
10005eb4:	e7de      	b.n	10005e74 <tu_edpt_validate+0x1c>
10005eb6:	f5b2 7f00 	cmp.w	r2, #512	; 0x200
10005eba:	d101      	bne.n	10005ec0 <tu_edpt_validate+0x68>
10005ebc:	2001      	movs	r0, #1
10005ebe:	e7d9      	b.n	10005e74 <tu_edpt_validate+0x1c>
10005ec0:	22d8      	movs	r2, #216	; 0xd8
10005ec2:	491b      	ldr	r1, [pc, #108]	; (10005f30 <tu_edpt_validate+0xd8>)
10005ec4:	481b      	ldr	r0, [pc, #108]	; (10005f34 <tu_edpt_validate+0xdc>)
10005ec6:	f7fd fb59 	bl	1000357c <__wrap_printf>
10005eca:	f04f 23e0 	mov.w	r3, #3758153728	; 0xe000e000
10005ece:	f8d3 3df0 	ldr.w	r3, [r3, #3568]	; 0xdf0
10005ed2:	f013 0f01 	tst.w	r3, #1
10005ed6:	d000      	beq.n	10005eda <tu_edpt_validate+0x82>
10005ed8:	be00      	bkpt	0x0000
10005eda:	2000      	movs	r0, #0
10005edc:	e7ca      	b.n	10005e74 <tu_edpt_validate+0x1c>
10005ede:	22db      	movs	r2, #219	; 0xdb
10005ee0:	4913      	ldr	r1, [pc, #76]	; (10005f30 <tu_edpt_validate+0xd8>)
10005ee2:	4814      	ldr	r0, [pc, #80]	; (10005f34 <tu_edpt_validate+0xdc>)
10005ee4:	f7fd fb4a 	bl	1000357c <__wrap_printf>
10005ee8:	f04f 23e0 	mov.w	r3, #3758153728	; 0xe000e000
10005eec:	f8d3 3df0 	ldr.w	r3, [r3, #3568]	; 0xdf0
10005ef0:	f013 0f01 	tst.w	r3, #1
10005ef4:	d000      	beq.n	10005ef8 <tu_edpt_validate+0xa0>
10005ef6:	be00      	bkpt	0x0000
10005ef8:	2000      	movs	r0, #0
10005efa:	e7bb      	b.n	10005e74 <tu_edpt_validate+0x1c>
10005efc:	2902      	cmp	r1, #2
10005efe:	d004      	beq.n	10005f0a <tu_edpt_validate+0xb2>
10005f00:	2340      	movs	r3, #64	; 0x40
10005f02:	4293      	cmp	r3, r2
10005f04:	d304      	bcc.n	10005f10 <tu_edpt_validate+0xb8>
10005f06:	2001      	movs	r0, #1
10005f08:	e7b4      	b.n	10005e74 <tu_edpt_validate+0x1c>
10005f0a:	f44f 6380 	mov.w	r3, #1024	; 0x400
10005f0e:	e7f8      	b.n	10005f02 <tu_edpt_validate+0xaa>
10005f10:	22e1      	movs	r2, #225	; 0xe1
10005f12:	4907      	ldr	r1, [pc, #28]	; (10005f30 <tu_edpt_validate+0xd8>)
10005f14:	4807      	ldr	r0, [pc, #28]	; (10005f34 <tu_edpt_validate+0xdc>)
10005f16:	f7fd fb31 	bl	1000357c <__wrap_printf>
10005f1a:	f04f 23e0 	mov.w	r3, #3758153728	; 0xe000e000
10005f1e:	f8d3 3df0 	ldr.w	r3, [r3, #3568]	; 0xdf0
10005f22:	f013 0f01 	tst.w	r3, #1
10005f26:	d000      	beq.n	10005f2a <tu_edpt_validate+0xd2>
10005f28:	be00      	bkpt	0x0000
10005f2a:	2000      	movs	r0, #0
10005f2c:	e7a2      	b.n	10005e74 <tu_edpt_validate+0x1c>
10005f2e:	bf00      	nop
10005f30:	10008cc4 	.word	0x10008cc4
10005f34:	10008ae8 	.word	0x10008ae8

10005f38 <tu_edpt_bind_driver>:
10005f38:	440a      	add	r2, r1
10005f3a:	e004      	b.n	10005f46 <tu_edpt_bind_driver+0xe>
10005f3c:	f85d fb04 	ldr.w	pc, [sp], #4
10005f40:	f891 c000 	ldrb.w	ip, [r1]
10005f44:	4461      	add	r1, ip
10005f46:	4291      	cmp	r1, r2
10005f48:	d21a      	bcs.n	10005f80 <tu_edpt_bind_driver+0x48>
10005f4a:	f891 c001 	ldrb.w	ip, [r1, #1]
10005f4e:	f1bc 0f05 	cmp.w	ip, #5
10005f52:	d1f5      	bne.n	10005f40 <tu_edpt_bind_driver+0x8>
10005f54:	b500      	push	{lr}
10005f56:	f891 c002 	ldrb.w	ip, [r1, #2]
10005f5a:	f00c 0e7f 	and.w	lr, ip, #127	; 0x7f
10005f5e:	eb00 0e4e 	add.w	lr, r0, lr, lsl #1
10005f62:	ea4f 1cdc 	mov.w	ip, ip, lsr #7
10005f66:	f80e 300c 	strb.w	r3, [lr, ip]
10005f6a:	f891 c000 	ldrb.w	ip, [r1]
10005f6e:	4461      	add	r1, ip
10005f70:	4291      	cmp	r1, r2
10005f72:	d2e3      	bcs.n	10005f3c <tu_edpt_bind_driver+0x4>
10005f74:	f891 c001 	ldrb.w	ip, [r1, #1]
10005f78:	f1bc 0f05 	cmp.w	ip, #5
10005f7c:	d1f5      	bne.n	10005f6a <tu_edpt_bind_driver+0x32>
10005f7e:	e7ea      	b.n	10005f56 <tu_edpt_bind_driver+0x1e>
10005f80:	4770      	bx	lr

10005f82 <tu_edpt_stream_init>:
10005f82:	b5f0      	push	{r4, r5, r6, r7, lr}
10005f84:	b083      	sub	sp, #12
10005f86:	4604      	mov	r4, r0
10005f88:	4617      	mov	r7, r2
10005f8a:	9d08      	ldr	r5, [sp, #32]
10005f8c:	f8bd 6024 	ldrh.w	r6, [sp, #36]	; 0x24
10005f90:	f890 c000 	ldrb.w	ip, [r0]
10005f94:	f361 0c00 	bfi	ip, r1, #0, #1
10005f98:	f800 cb08 	strb.w	ip, [r0], #8
10005f9c:	9300      	str	r3, [sp, #0]
10005f9e:	2301      	movs	r3, #1
10005fa0:	4632      	mov	r2, r6
10005fa2:	4629      	mov	r1, r5
10005fa4:	f000 faaa 	bl	100064fc <tu_fifo_config>
10005fa8:	b105      	cbz	r5, 10005fac <tu_edpt_stream_init+0x2a>
10005faa:	b93e      	cbnz	r6, 10005fbc <tu_edpt_stream_init+0x3a>
10005fac:	9b0a      	ldr	r3, [sp, #40]	; 0x28
10005fae:	6063      	str	r3, [r4, #4]
10005fb0:	f8bd 302c 	ldrh.w	r3, [sp, #44]	; 0x2c
10005fb4:	8063      	strh	r3, [r4, #2]
10005fb6:	2001      	movs	r0, #1
10005fb8:	b003      	add	sp, #12
10005fba:	bdf0      	pop	{r4, r5, r6, r7, pc}
10005fbc:	f104 051c 	add.w	r5, r4, #28
10005fc0:	4628      	mov	r0, r5
10005fc2:	f7fa fa89 	bl	100004d8 <mutex_init>
10005fc6:	b12f      	cbz	r7, 10005fd4 <tu_edpt_stream_init+0x52>
10005fc8:	462b      	mov	r3, r5
10005fca:	b107      	cbz	r7, 10005fce <tu_edpt_stream_init+0x4c>
10005fcc:	2500      	movs	r5, #0
10005fce:	6163      	str	r3, [r4, #20]
10005fd0:	61a5      	str	r5, [r4, #24]
10005fd2:	e7eb      	b.n	10005fac <tu_edpt_stream_init+0x2a>
10005fd4:	2300      	movs	r3, #0
10005fd6:	e7f8      	b.n	10005fca <tu_edpt_stream_init+0x48>

10005fd8 <tu_edpt_stream_deinit>:
10005fd8:	2001      	movs	r0, #1
10005fda:	4770      	bx	lr

10005fdc <tu_edpt_stream_write_zlp_if_needed>:
10005fdc:	b5f8      	push	{r3, r4, r5, r6, r7, lr}
10005fde:	4606      	mov	r6, r0
10005fe0:	460c      	mov	r4, r1
10005fe2:	4615      	mov	r5, r2
10005fe4:	780b      	ldrb	r3, [r1, #0]
10005fe6:	f013 0f02 	tst.w	r3, #2
10005fea:	d010      	beq.n	1000600e <tu_edpt_stream_write_zlp_if_needed+0x32>
10005fec:	f44f 7700 	mov.w	r7, #512	; 0x200
10005ff0:	f104 0008 	add.w	r0, r4, #8
10005ff4:	f000 fab3 	bl	1000655e <tu_fifo_count>
10005ff8:	bb68      	cbnz	r0, 10006056 <tu_edpt_stream_write_zlp_if_needed+0x7a>
10005ffa:	b375      	cbz	r5, 1000605a <tu_edpt_stream_write_zlp_if_needed+0x7e>
10005ffc:	3f01      	subs	r7, #1
10005ffe:	422f      	tst	r7, r5
10006000:	d12d      	bne.n	1000605e <tu_edpt_stream_write_zlp_if_needed+0x82>
10006002:	7823      	ldrb	r3, [r4, #0]
10006004:	f013 0f01 	tst.w	r3, #1
10006008:	d003      	beq.n	10006012 <tu_edpt_stream_write_zlp_if_needed+0x36>
1000600a:	2000      	movs	r0, #0
1000600c:	e024      	b.n	10006058 <tu_edpt_stream_write_zlp_if_needed+0x7c>
1000600e:	2740      	movs	r7, #64	; 0x40
10006010:	e7ee      	b.n	10005ff0 <tu_edpt_stream_write_zlp_if_needed+0x14>
10006012:	7861      	ldrb	r1, [r4, #1]
10006014:	4630      	mov	r0, r6
10006016:	f7fe fc01 	bl	1000481c <usbd_edpt_claim>
1000601a:	2800      	cmp	r0, #0
1000601c:	d0f5      	beq.n	1000600a <tu_edpt_stream_write_zlp_if_needed+0x2e>
1000601e:	7823      	ldrb	r3, [r4, #0]
10006020:	f013 0f01 	tst.w	r3, #1
10006024:	d00f      	beq.n	10006046 <tu_edpt_stream_write_zlp_if_needed+0x6a>
10006026:	f44f 72b5 	mov.w	r2, #362	; 0x16a
1000602a:	490e      	ldr	r1, [pc, #56]	; (10006064 <tu_edpt_stream_write_zlp_if_needed+0x88>)
1000602c:	480e      	ldr	r0, [pc, #56]	; (10006068 <tu_edpt_stream_write_zlp_if_needed+0x8c>)
1000602e:	f7fd faa5 	bl	1000357c <__wrap_printf>
10006032:	f04f 23e0 	mov.w	r3, #3758153728	; 0xe000e000
10006036:	f8d3 3df0 	ldr.w	r3, [r3, #3568]	; 0xdf0
1000603a:	f013 0f01 	tst.w	r3, #1
1000603e:	d000      	beq.n	10006042 <tu_edpt_stream_write_zlp_if_needed+0x66>
10006040:	be00      	bkpt	0x0000
10006042:	2000      	movs	r0, #0
10006044:	e008      	b.n	10006058 <tu_edpt_stream_write_zlp_if_needed+0x7c>
10006046:	2300      	movs	r3, #0
10006048:	461a      	mov	r2, r3
1000604a:	7861      	ldrb	r1, [r4, #1]
1000604c:	4630      	mov	r0, r6
1000604e:	f7fe fc0d 	bl	1000486c <usbd_edpt_xfer>
10006052:	b908      	cbnz	r0, 10006058 <tu_edpt_stream_write_zlp_if_needed+0x7c>
10006054:	e7e7      	b.n	10006026 <tu_edpt_stream_write_zlp_if_needed+0x4a>
10006056:	2000      	movs	r0, #0
10006058:	bdf8      	pop	{r3, r4, r5, r6, r7, pc}
1000605a:	2000      	movs	r0, #0
1000605c:	e7fc      	b.n	10006058 <tu_edpt_stream_write_zlp_if_needed+0x7c>
1000605e:	2000      	movs	r0, #0
10006060:	e7fa      	b.n	10006058 <tu_edpt_stream_write_zlp_if_needed+0x7c>
10006062:	bf00      	nop
10006064:	10008ca0 	.word	0x10008ca0
10006068:	10008ae8 	.word	0x10008ae8

1000606c <tu_edpt_stream_write_xfer>:
1000606c:	b570      	push	{r4, r5, r6, lr}
1000606e:	4606      	mov	r6, r0
10006070:	460c      	mov	r4, r1
10006072:	f101 0508 	add.w	r5, r1, #8
10006076:	4628      	mov	r0, r5
10006078:	f000 fa71 	bl	1000655e <tu_fifo_count>
1000607c:	2800      	cmp	r0, #0
1000607e:	d03b      	beq.n	100060f8 <tu_edpt_stream_write_xfer+0x8c>
10006080:	7823      	ldrb	r3, [r4, #0]
10006082:	f013 0f01 	tst.w	r3, #1
10006086:	d001      	beq.n	1000608c <tu_edpt_stream_write_xfer+0x20>
10006088:	2000      	movs	r0, #0
1000608a:	bd70      	pop	{r4, r5, r6, pc}
1000608c:	7861      	ldrb	r1, [r4, #1]
1000608e:	4630      	mov	r0, r6
10006090:	f7fe fbc4 	bl	1000481c <usbd_edpt_claim>
10006094:	2800      	cmp	r0, #0
10006096:	d0f7      	beq.n	10006088 <tu_edpt_stream_write_xfer+0x1c>
10006098:	8862      	ldrh	r2, [r4, #2]
1000609a:	6861      	ldr	r1, [r4, #4]
1000609c:	4628      	mov	r0, r5
1000609e:	f000 fac4 	bl	1000662a <tu_fifo_read_n>
100060a2:	4605      	mov	r5, r0
100060a4:	b1e8      	cbz	r0, 100060e2 <tu_edpt_stream_write_xfer+0x76>
100060a6:	7823      	ldrb	r3, [r4, #0]
100060a8:	f013 0f01 	tst.w	r3, #1
100060ac:	d00f      	beq.n	100060ce <tu_edpt_stream_write_xfer+0x62>
100060ae:	f44f 72bc 	mov.w	r2, #376	; 0x178
100060b2:	4912      	ldr	r1, [pc, #72]	; (100060fc <tu_edpt_stream_write_xfer+0x90>)
100060b4:	4812      	ldr	r0, [pc, #72]	; (10006100 <tu_edpt_stream_write_xfer+0x94>)
100060b6:	f7fd fa61 	bl	1000357c <__wrap_printf>
100060ba:	f04f 23e0 	mov.w	r3, #3758153728	; 0xe000e000
100060be:	f8d3 3df0 	ldr.w	r3, [r3, #3568]	; 0xdf0
100060c2:	f013 0f01 	tst.w	r3, #1
100060c6:	d000      	beq.n	100060ca <tu_edpt_stream_write_xfer+0x5e>
100060c8:	be00      	bkpt	0x0000
100060ca:	2000      	movs	r0, #0
100060cc:	e7dd      	b.n	1000608a <tu_edpt_stream_write_xfer+0x1e>
100060ce:	4603      	mov	r3, r0
100060d0:	6862      	ldr	r2, [r4, #4]
100060d2:	7861      	ldrb	r1, [r4, #1]
100060d4:	4630      	mov	r0, r6
100060d6:	f7fe fbc9 	bl	1000486c <usbd_edpt_xfer>
100060da:	2800      	cmp	r0, #0
100060dc:	d0e7      	beq.n	100060ae <tu_edpt_stream_write_xfer+0x42>
100060de:	4628      	mov	r0, r5
100060e0:	e7d3      	b.n	1000608a <tu_edpt_stream_write_xfer+0x1e>
100060e2:	7823      	ldrb	r3, [r4, #0]
100060e4:	f013 0f01 	tst.w	r3, #1
100060e8:	d001      	beq.n	100060ee <tu_edpt_stream_write_xfer+0x82>
100060ea:	2000      	movs	r0, #0
100060ec:	e7cd      	b.n	1000608a <tu_edpt_stream_write_xfer+0x1e>
100060ee:	7861      	ldrb	r1, [r4, #1]
100060f0:	4630      	mov	r0, r6
100060f2:	f7fe fba7 	bl	10004844 <usbd_edpt_release>
100060f6:	e7f8      	b.n	100060ea <tu_edpt_stream_write_xfer+0x7e>
100060f8:	2000      	movs	r0, #0
100060fa:	e7c6      	b.n	1000608a <tu_edpt_stream_write_xfer+0x1e>
100060fc:	10008c84 	.word	0x10008c84
10006100:	10008ae8 	.word	0x10008ae8

10006104 <tu_edpt_stream_read_xfer>:
10006104:	b5f8      	push	{r3, r4, r5, r6, r7, lr}
10006106:	4606      	mov	r6, r0
10006108:	460c      	mov	r4, r1
1000610a:	898b      	ldrh	r3, [r1, #12]
1000610c:	bb5b      	cbnz	r3, 10006166 <tu_edpt_stream_read_xfer+0x62>
1000610e:	780b      	ldrb	r3, [r1, #0]
10006110:	f013 0f01 	tst.w	r3, #1
10006114:	d001      	beq.n	1000611a <tu_edpt_stream_read_xfer+0x16>
10006116:	2000      	movs	r0, #0
10006118:	bdf8      	pop	{r3, r4, r5, r6, r7, pc}
1000611a:	7849      	ldrb	r1, [r1, #1]
1000611c:	f7fe fb7e 	bl	1000481c <usbd_edpt_claim>
10006120:	2800      	cmp	r0, #0
10006122:	d0f8      	beq.n	10006116 <tu_edpt_stream_read_xfer+0x12>
10006124:	8863      	ldrh	r3, [r4, #2]
10006126:	7822      	ldrb	r2, [r4, #0]
10006128:	f012 0f01 	tst.w	r2, #1
1000612c:	d00f      	beq.n	1000614e <tu_edpt_stream_read_xfer+0x4a>
1000612e:	f44f 72d9 	mov.w	r2, #434	; 0x1b2
10006132:	4938      	ldr	r1, [pc, #224]	; (10006214 <tu_edpt_stream_read_xfer+0x110>)
10006134:	4838      	ldr	r0, [pc, #224]	; (10006218 <tu_edpt_stream_read_xfer+0x114>)
10006136:	f7fd fa21 	bl	1000357c <__wrap_printf>
1000613a:	f04f 23e0 	mov.w	r3, #3758153728	; 0xe000e000
1000613e:	f8d3 3df0 	ldr.w	r3, [r3, #3568]	; 0xdf0
10006142:	f013 0f01 	tst.w	r3, #1
10006146:	d000      	beq.n	1000614a <tu_edpt_stream_read_xfer+0x46>
10006148:	be00      	bkpt	0x0000
1000614a:	2000      	movs	r0, #0
1000614c:	e7e4      	b.n	10006118 <tu_edpt_stream_read_xfer+0x14>
1000614e:	7861      	ldrb	r1, [r4, #1]
10006150:	b13b      	cbz	r3, 10006162 <tu_edpt_stream_read_xfer+0x5e>
10006152:	6862      	ldr	r2, [r4, #4]
10006154:	4630      	mov	r0, r6
10006156:	f7fe fb89 	bl	1000486c <usbd_edpt_xfer>
1000615a:	2800      	cmp	r0, #0
1000615c:	d0e7      	beq.n	1000612e <tu_edpt_stream_read_xfer+0x2a>
1000615e:	8860      	ldrh	r0, [r4, #2]
10006160:	e7da      	b.n	10006118 <tu_edpt_stream_read_xfer+0x14>
10006162:	2200      	movs	r2, #0
10006164:	e7f6      	b.n	10006154 <tu_edpt_stream_read_xfer+0x50>
10006166:	780b      	ldrb	r3, [r1, #0]
10006168:	f013 0f02 	tst.w	r3, #2
1000616c:	d00e      	beq.n	1000618c <tu_edpt_stream_read_xfer+0x88>
1000616e:	f44f 7500 	mov.w	r5, #512	; 0x200
10006172:	f104 0708 	add.w	r7, r4, #8
10006176:	4638      	mov	r0, r7
10006178:	f000 fa22 	bl	100065c0 <tu_fifo_remaining>
1000617c:	4285      	cmp	r5, r0
1000617e:	d846      	bhi.n	1000620e <tu_edpt_stream_read_xfer+0x10a>
10006180:	7823      	ldrb	r3, [r4, #0]
10006182:	f013 0f01 	tst.w	r3, #1
10006186:	d003      	beq.n	10006190 <tu_edpt_stream_read_xfer+0x8c>
10006188:	2000      	movs	r0, #0
1000618a:	e7c5      	b.n	10006118 <tu_edpt_stream_read_xfer+0x14>
1000618c:	2540      	movs	r5, #64	; 0x40
1000618e:	e7f0      	b.n	10006172 <tu_edpt_stream_read_xfer+0x6e>
10006190:	7861      	ldrb	r1, [r4, #1]
10006192:	4630      	mov	r0, r6
10006194:	f7fe fb42 	bl	1000481c <usbd_edpt_claim>
10006198:	2800      	cmp	r0, #0
1000619a:	d0f5      	beq.n	10006188 <tu_edpt_stream_read_xfer+0x84>
1000619c:	4638      	mov	r0, r7
1000619e:	f000 fa0f 	bl	100065c0 <tu_fifo_remaining>
100061a2:	4285      	cmp	r5, r0
100061a4:	d828      	bhi.n	100061f8 <tu_edpt_stream_read_xfer+0xf4>
100061a6:	426d      	negs	r5, r5
100061a8:	4005      	ands	r5, r0
100061aa:	b2a8      	uxth	r0, r5
100061ac:	8863      	ldrh	r3, [r4, #2]
100061ae:	4283      	cmp	r3, r0
100061b0:	bf28      	it	cs
100061b2:	4603      	movcs	r3, r0
100061b4:	461d      	mov	r5, r3
100061b6:	7823      	ldrb	r3, [r4, #0]
100061b8:	f013 0f01 	tst.w	r3, #1
100061bc:	d00f      	beq.n	100061de <tu_edpt_stream_read_xfer+0xda>
100061be:	f240 12c7 	movw	r2, #455	; 0x1c7
100061c2:	4914      	ldr	r1, [pc, #80]	; (10006214 <tu_edpt_stream_read_xfer+0x110>)
100061c4:	4814      	ldr	r0, [pc, #80]	; (10006218 <tu_edpt_stream_read_xfer+0x114>)
100061c6:	f7fd f9d9 	bl	1000357c <__wrap_printf>
100061ca:	f04f 23e0 	mov.w	r3, #3758153728	; 0xe000e000
100061ce:	f8d3 3df0 	ldr.w	r3, [r3, #3568]	; 0xdf0
100061d2:	f013 0f01 	tst.w	r3, #1
100061d6:	d000      	beq.n	100061da <tu_edpt_stream_read_xfer+0xd6>
100061d8:	be00      	bkpt	0x0000
100061da:	2000      	movs	r0, #0
100061dc:	e79c      	b.n	10006118 <tu_edpt_stream_read_xfer+0x14>
100061de:	7861      	ldrb	r1, [r4, #1]
100061e0:	b145      	cbz	r5, 100061f4 <tu_edpt_stream_read_xfer+0xf0>
100061e2:	6862      	ldr	r2, [r4, #4]
100061e4:	462b      	mov	r3, r5
100061e6:	4630      	mov	r0, r6
100061e8:	f7fe fb40 	bl	1000486c <usbd_edpt_xfer>
100061ec:	2800      	cmp	r0, #0
100061ee:	d0e6      	beq.n	100061be <tu_edpt_stream_read_xfer+0xba>
100061f0:	4628      	mov	r0, r5
100061f2:	e791      	b.n	10006118 <tu_edpt_stream_read_xfer+0x14>
100061f4:	2200      	movs	r2, #0
100061f6:	e7f5      	b.n	100061e4 <tu_edpt_stream_read_xfer+0xe0>
100061f8:	7823      	ldrb	r3, [r4, #0]
100061fa:	f013 0f01 	tst.w	r3, #1
100061fe:	d001      	beq.n	10006204 <tu_edpt_stream_read_xfer+0x100>
10006200:	2000      	movs	r0, #0
10006202:	e789      	b.n	10006118 <tu_edpt_stream_read_xfer+0x14>
10006204:	7861      	ldrb	r1, [r4, #1]
10006206:	4630      	mov	r0, r6
10006208:	f7fe fb1c 	bl	10004844 <usbd_edpt_release>
1000620c:	e7f8      	b.n	10006200 <tu_edpt_stream_read_xfer+0xfc>
1000620e:	2000      	movs	r0, #0
10006210:	e782      	b.n	10006118 <tu_edpt_stream_read_xfer+0x14>
10006212:	bf00      	nop
10006214:	10008c68 	.word	0x10008c68
10006218:	10008ae8 	.word	0x10008ae8

1000621c <advance_index>:
1000621c:	4603      	mov	r3, r0
1000621e:	440a      	add	r2, r1
10006220:	b290      	uxth	r0, r2
10006222:	4281      	cmp	r1, r0
10006224:	d802      	bhi.n	1000622c <advance_index+0x10>
10006226:	ebb0 0f43 	cmp.w	r0, r3, lsl #1
1000622a:	db03      	blt.n	10006234 <advance_index+0x18>
1000622c:	005b      	lsls	r3, r3, #1
1000622e:	b29b      	uxth	r3, r3
10006230:	1ac0      	subs	r0, r0, r3
10006232:	b280      	uxth	r0, r0
10006234:	4770      	bx	lr

10006236 <_tu_fifo_peek>:
10006236:	b510      	push	{r4, lr}
10006238:	4686      	mov	lr, r0
1000623a:	4608      	mov	r0, r1
1000623c:	f8be c004 	ldrh.w	ip, [lr, #4]
10006240:	429a      	cmp	r2, r3
10006242:	d30c      	bcc.n	1000625e <_tu_fifo_peek+0x28>
10006244:	1ad4      	subs	r4, r2, r3
10006246:	b2a4      	uxth	r4, r4
10006248:	b32c      	cbz	r4, 10006296 <_tu_fifo_peek+0x60>
1000624a:	45a4      	cmp	ip, r4
1000624c:	d215      	bcs.n	1000627a <_tu_fifo_peek+0x44>
1000624e:	4594      	cmp	ip, r2
10006250:	d80c      	bhi.n	1000626c <_tu_fifo_peek+0x36>
10006252:	eba2 030c 	sub.w	r3, r2, ip
10006256:	b29b      	uxth	r3, r3
10006258:	f8ae 300a 	strh.w	r3, [lr, #10]
1000625c:	e00d      	b.n	1000627a <_tu_fifo_peek+0x44>
1000625e:	1ad4      	subs	r4, r2, r3
10006260:	ea4f 014c 	mov.w	r1, ip, lsl #1
10006264:	fa11 f484 	uxtah	r4, r1, r4
10006268:	b2a4      	uxth	r4, r4
1000626a:	e7ed      	b.n	10006248 <_tu_fifo_peek+0x12>
1000626c:	eb0c 0302 	add.w	r3, ip, r2
10006270:	b29b      	uxth	r3, r3
10006272:	e7f1      	b.n	10006258 <_tu_fifo_peek+0x22>
10006274:	eba3 030c 	sub.w	r3, r3, ip
10006278:	b29b      	uxth	r3, r3
1000627a:	459c      	cmp	ip, r3
1000627c:	d9fa      	bls.n	10006274 <_tu_fifo_peek+0x3e>
1000627e:	f8de 1000 	ldr.w	r1, [lr]
10006282:	f8be 2006 	ldrh.w	r2, [lr, #6]
10006286:	f3c2 020e 	ubfx	r2, r2, #0, #15
1000628a:	fb02 1103 	mla	r1, r2, r3, r1
1000628e:	f001 f9ff 	bl	10007690 <memcpy>
10006292:	2001      	movs	r0, #1
10006294:	bd10      	pop	{r4, pc}
10006296:	2000      	movs	r0, #0
10006298:	e7fc      	b.n	10006294 <_tu_fifo_peek+0x5e>

1000629a <_ff_pull_n>:
1000629a:	e92d 41f0 	stmdb	sp!, {r4, r5, r6, r7, r8, lr}
1000629e:	4606      	mov	r6, r0
100062a0:	460f      	mov	r7, r1
100062a2:	f89d e018 	ldrb.w	lr, [sp, #24]
100062a6:	f8b0 c004 	ldrh.w	ip, [r0, #4]
100062aa:	ebac 0503 	sub.w	r5, ip, r3
100062ae:	fa1f f885 	uxth.w	r8, r5
100062b2:	eba3 0c0c 	sub.w	ip, r3, ip
100062b6:	4494      	add	ip, r2
100062b8:	88c0      	ldrh	r0, [r0, #6]
100062ba:	f3c0 010e 	ubfx	r1, r0, #0, #15
100062be:	4608      	mov	r0, r1
100062c0:	fb15 f501 	smulbb	r5, r5, r1
100062c4:	fb1c fc01 	smulbb	ip, ip, r1
100062c8:	6831      	ldr	r1, [r6, #0]
100062ca:	fb00 1103 	mla	r1, r0, r3, r1
100062ce:	f1be 0f00 	cmp.w	lr, #0
100062d2:	d109      	bne.n	100062e8 <_ff_pull_n+0x4e>
100062d4:	b2ad      	uxth	r5, r5
100062d6:	fa1f f48c 	uxth.w	r4, ip
100062da:	4590      	cmp	r8, r2
100062dc:	d306      	bcc.n	100062ec <_ff_pull_n+0x52>
100062de:	fb00 f202 	mul.w	r2, r0, r2
100062e2:	4638      	mov	r0, r7
100062e4:	f001 f9d4 	bl	10007690 <memcpy>
100062e8:	e8bd 81f0 	ldmia.w	sp!, {r4, r5, r6, r7, r8, pc}
100062ec:	462a      	mov	r2, r5
100062ee:	4638      	mov	r0, r7
100062f0:	f001 f9ce 	bl	10007690 <memcpy>
100062f4:	4622      	mov	r2, r4
100062f6:	6831      	ldr	r1, [r6, #0]
100062f8:	1978      	adds	r0, r7, r5
100062fa:	f001 f9c9 	bl	10007690 <memcpy>
100062fe:	e7f3      	b.n	100062e8 <_ff_pull_n+0x4e>

10006300 <_tu_fifo_peek_n>:
10006300:	b530      	push	{r4, r5, lr}
10006302:	b083      	sub	sp, #12
10006304:	469e      	mov	lr, r3
10006306:	f8bd 3018 	ldrh.w	r3, [sp, #24]
1000630a:	f8b0 c004 	ldrh.w	ip, [r0, #4]
1000630e:	459e      	cmp	lr, r3
10006310:	d310      	bcc.n	10006334 <_tu_fifo_peek_n+0x34>
10006312:	ebae 0403 	sub.w	r4, lr, r3
10006316:	b2a4      	uxth	r4, r4
10006318:	b31c      	cbz	r4, 10006362 <_tu_fifo_peek_n+0x62>
1000631a:	45a4      	cmp	ip, r4
1000631c:	d206      	bcs.n	1000632c <_tu_fifo_peek_n+0x2c>
1000631e:	45f4      	cmp	ip, lr
10006320:	d810      	bhi.n	10006344 <_tu_fifo_peek_n+0x44>
10006322:	ebae 030c 	sub.w	r3, lr, ip
10006326:	b29b      	uxth	r3, r3
10006328:	8143      	strh	r3, [r0, #10]
1000632a:	4664      	mov	r4, ip
1000632c:	4294      	cmp	r4, r2
1000632e:	d310      	bcc.n	10006352 <_tu_fifo_peek_n+0x52>
10006330:	4614      	mov	r4, r2
10006332:	e00e      	b.n	10006352 <_tu_fifo_peek_n+0x52>
10006334:	ebae 0403 	sub.w	r4, lr, r3
10006338:	ea4f 054c 	mov.w	r5, ip, lsl #1
1000633c:	fa15 f484 	uxtah	r4, r5, r4
10006340:	b2a4      	uxth	r4, r4
10006342:	e7e9      	b.n	10006318 <_tu_fifo_peek_n+0x18>
10006344:	eb0c 030e 	add.w	r3, ip, lr
10006348:	b29b      	uxth	r3, r3
1000634a:	e7ed      	b.n	10006328 <_tu_fifo_peek_n+0x28>
1000634c:	eba3 030c 	sub.w	r3, r3, ip
10006350:	b29b      	uxth	r3, r3
10006352:	459c      	cmp	ip, r3
10006354:	d9fa      	bls.n	1000634c <_tu_fifo_peek_n+0x4c>
10006356:	f89d 201c 	ldrb.w	r2, [sp, #28]
1000635a:	9200      	str	r2, [sp, #0]
1000635c:	4622      	mov	r2, r4
1000635e:	f7ff ff9c 	bl	1000629a <_ff_pull_n>
10006362:	4620      	mov	r0, r4
10006364:	b003      	add	sp, #12
10006366:	bd30      	pop	{r4, r5, pc}

10006368 <_tu_fifo_read_n>:
10006368:	b5f0      	push	{r4, r5, r6, r7, lr}
1000636a:	b083      	sub	sp, #12
1000636c:	4604      	mov	r4, r0
1000636e:	460d      	mov	r5, r1
10006370:	4616      	mov	r6, r2
10006372:	461f      	mov	r7, r3
10006374:	6900      	ldr	r0, [r0, #16]
10006376:	b118      	cbz	r0, 10006380 <_tu_fifo_read_n+0x18>
10006378:	f04f 31ff 	mov.w	r1, #4294967295
1000637c:	f001 fc30 	bl	10007be0 <__mutex_enter_timeout_ms_veneer>
10006380:	8923      	ldrh	r3, [r4, #8]
10006382:	8962      	ldrh	r2, [r4, #10]
10006384:	b292      	uxth	r2, r2
10006386:	9701      	str	r7, [sp, #4]
10006388:	9200      	str	r2, [sp, #0]
1000638a:	b29b      	uxth	r3, r3
1000638c:	4632      	mov	r2, r6
1000638e:	4629      	mov	r1, r5
10006390:	4620      	mov	r0, r4
10006392:	f7ff ffb5 	bl	10006300 <_tu_fifo_peek_n>
10006396:	4605      	mov	r5, r0
10006398:	8961      	ldrh	r1, [r4, #10]
1000639a:	4602      	mov	r2, r0
1000639c:	b289      	uxth	r1, r1
1000639e:	88a0      	ldrh	r0, [r4, #4]
100063a0:	f7ff ff3c 	bl	1000621c <advance_index>
100063a4:	8160      	strh	r0, [r4, #10]
100063a6:	6920      	ldr	r0, [r4, #16]
100063a8:	b108      	cbz	r0, 100063ae <_tu_fifo_read_n+0x46>
100063aa:	f001 fbf9 	bl	10007ba0 <__mutex_exit_veneer>
100063ae:	4628      	mov	r0, r5
100063b0:	b003      	add	sp, #12
100063b2:	bdf0      	pop	{r4, r5, r6, r7, pc}

100063b4 <_ff_push_n>:
100063b4:	e92d 41f0 	stmdb	sp!, {r4, r5, r6, r7, r8, lr}
100063b8:	4606      	mov	r6, r0
100063ba:	460f      	mov	r7, r1
100063bc:	f89d e018 	ldrb.w	lr, [sp, #24]
100063c0:	f8b0 c004 	ldrh.w	ip, [r0, #4]
100063c4:	ebac 0503 	sub.w	r5, ip, r3
100063c8:	fa1f f885 	uxth.w	r8, r5
100063cc:	eba3 0c0c 	sub.w	ip, r3, ip
100063d0:	4494      	add	ip, r2
100063d2:	88c1      	ldrh	r1, [r0, #6]
100063d4:	f3c1 000e 	ubfx	r0, r1, #0, #15
100063d8:	4601      	mov	r1, r0
100063da:	fb15 f500 	smulbb	r5, r5, r0
100063de:	fb1c fc00 	smulbb	ip, ip, r0
100063e2:	6830      	ldr	r0, [r6, #0]
100063e4:	fb01 0003 	mla	r0, r1, r3, r0
100063e8:	f1be 0f00 	cmp.w	lr, #0
100063ec:	d109      	bne.n	10006402 <_ff_push_n+0x4e>
100063ee:	b2ad      	uxth	r5, r5
100063f0:	fa1f f48c 	uxth.w	r4, ip
100063f4:	4590      	cmp	r8, r2
100063f6:	d306      	bcc.n	10006406 <_ff_push_n+0x52>
100063f8:	fb01 f202 	mul.w	r2, r1, r2
100063fc:	4639      	mov	r1, r7
100063fe:	f001 f947 	bl	10007690 <memcpy>
10006402:	e8bd 81f0 	ldmia.w	sp!, {r4, r5, r6, r7, r8, pc}
10006406:	462a      	mov	r2, r5
10006408:	4639      	mov	r1, r7
1000640a:	f001 f941 	bl	10007690 <memcpy>
1000640e:	4622      	mov	r2, r4
10006410:	1979      	adds	r1, r7, r5
10006412:	6830      	ldr	r0, [r6, #0]
10006414:	f001 f93c 	bl	10007690 <memcpy>
10006418:	e7f3      	b.n	10006402 <_ff_push_n+0x4e>

1000641a <_tu_fifo_write_n>:
1000641a:	e92d 43f0 	stmdb	sp!, {r4, r5, r6, r7, r8, r9, lr}
1000641e:	b083      	sub	sp, #12
10006420:	4691      	mov	r9, r2
10006422:	2a00      	cmp	r2, #0
10006424:	d068      	beq.n	100064f8 <_tu_fifo_write_n+0xde>
10006426:	4604      	mov	r4, r0
10006428:	4688      	mov	r8, r1
1000642a:	461f      	mov	r7, r3
1000642c:	68c0      	ldr	r0, [r0, #12]
1000642e:	b118      	cbz	r0, 10006438 <_tu_fifo_write_n+0x1e>
10006430:	f04f 31ff 	mov.w	r1, #4294967295
10006434:	f001 fbd4 	bl	10007be0 <__mutex_enter_timeout_ms_veneer>
10006438:	8926      	ldrh	r6, [r4, #8]
1000643a:	b2b6      	uxth	r6, r6
1000643c:	8961      	ldrh	r1, [r4, #10]
1000643e:	b289      	uxth	r1, r1
10006440:	79e3      	ldrb	r3, [r4, #7]
10006442:	09db      	lsrs	r3, r3, #7
10006444:	d118      	bne.n	10006478 <_tu_fifo_write_n+0x5e>
10006446:	88a3      	ldrh	r3, [r4, #4]
10006448:	428e      	cmp	r6, r1
1000644a:	d30d      	bcc.n	10006468 <_tu_fifo_write_n+0x4e>
1000644c:	1a75      	subs	r5, r6, r1
1000644e:	b2ad      	uxth	r5, r5
10006450:	42ab      	cmp	r3, r5
10006452:	d90f      	bls.n	10006474 <_tu_fifo_write_n+0x5a>
10006454:	1b5d      	subs	r5, r3, r5
10006456:	b2ad      	uxth	r5, r5
10006458:	454d      	cmp	r5, r9
1000645a:	bf28      	it	cs
1000645c:	464d      	movcs	r5, r9
1000645e:	2d00      	cmp	r5, #0
10006460:	d042      	beq.n	100064e8 <_tu_fifo_write_n+0xce>
10006462:	88a2      	ldrh	r2, [r4, #4]
10006464:	4633      	mov	r3, r6
10006466:	e031      	b.n	100064cc <_tu_fifo_write_n+0xb2>
10006468:	1a75      	subs	r5, r6, r1
1000646a:	0059      	lsls	r1, r3, #1
1000646c:	fa11 f585 	uxtah	r5, r1, r5
10006470:	b2ad      	uxth	r5, r5
10006472:	e7ed      	b.n	10006450 <_tu_fifo_write_n+0x36>
10006474:	2500      	movs	r5, #0
10006476:	e7ef      	b.n	10006458 <_tu_fifo_write_n+0x3e>
10006478:	88a5      	ldrh	r5, [r4, #4]
1000647a:	454d      	cmp	r5, r9
1000647c:	d809      	bhi.n	10006492 <_tu_fifo_write_n+0x78>
1000647e:	b9ff      	cbnz	r7, 100064c0 <_tu_fifo_write_n+0xa6>
10006480:	eba9 0905 	sub.w	r9, r9, r5
10006484:	88e3      	ldrh	r3, [r4, #6]
10006486:	f3c3 030e 	ubfx	r3, r3, #0, #15
1000648a:	fb03 8809 	mla	r8, r3, r9, r8
1000648e:	460e      	mov	r6, r1
10006490:	e7e5      	b.n	1000645e <_tu_fifo_write_n+0x44>
10006492:	428e      	cmp	r6, r1
10006494:	d30e      	bcc.n	100064b4 <_tu_fifo_write_n+0x9a>
10006496:	1a73      	subs	r3, r6, r1
10006498:	b29b      	uxth	r3, r3
1000649a:	444b      	add	r3, r9
1000649c:	ebb3 0f45 	cmp.w	r3, r5, lsl #1
100064a0:	db10      	blt.n	100064c4 <_tu_fifo_write_n+0xaa>
100064a2:	eba5 0209 	sub.w	r2, r5, r9
100064a6:	b292      	uxth	r2, r2
100064a8:	4628      	mov	r0, r5
100064aa:	f7ff feb7 	bl	1000621c <advance_index>
100064ae:	4606      	mov	r6, r0
100064b0:	464d      	mov	r5, r9
100064b2:	e7d4      	b.n	1000645e <_tu_fifo_write_n+0x44>
100064b4:	1a73      	subs	r3, r6, r1
100064b6:	006a      	lsls	r2, r5, #1
100064b8:	fa12 f383 	uxtah	r3, r2, r3
100064bc:	b29b      	uxth	r3, r3
100064be:	e7ec      	b.n	1000649a <_tu_fifo_write_n+0x80>
100064c0:	460e      	mov	r6, r1
100064c2:	e7cc      	b.n	1000645e <_tu_fifo_write_n+0x44>
100064c4:	464d      	mov	r5, r9
100064c6:	e7ca      	b.n	1000645e <_tu_fifo_write_n+0x44>
100064c8:	1a9b      	subs	r3, r3, r2
100064ca:	b29b      	uxth	r3, r3
100064cc:	429a      	cmp	r2, r3
100064ce:	d9fb      	bls.n	100064c8 <_tu_fifo_write_n+0xae>
100064d0:	9700      	str	r7, [sp, #0]
100064d2:	462a      	mov	r2, r5
100064d4:	4641      	mov	r1, r8
100064d6:	4620      	mov	r0, r4
100064d8:	f7ff ff6c 	bl	100063b4 <_ff_push_n>
100064dc:	462a      	mov	r2, r5
100064de:	4631      	mov	r1, r6
100064e0:	88a0      	ldrh	r0, [r4, #4]
100064e2:	f7ff fe9b 	bl	1000621c <advance_index>
100064e6:	8120      	strh	r0, [r4, #8]
100064e8:	68e0      	ldr	r0, [r4, #12]
100064ea:	b108      	cbz	r0, 100064f0 <_tu_fifo_write_n+0xd6>
100064ec:	f001 fb58 	bl	10007ba0 <__mutex_exit_veneer>
100064f0:	4628      	mov	r0, r5
100064f2:	b003      	add	sp, #12
100064f4:	e8bd 83f0 	ldmia.w	sp!, {r4, r5, r6, r7, r8, r9, pc}
100064f8:	4615      	mov	r5, r2
100064fa:	e7f9      	b.n	100064f0 <_tu_fifo_write_n+0xd6>

100064fc <tu_fifo_config>:
100064fc:	f5b2 4f00 	cmp.w	r2, #32768	; 0x8000
10006500:	d829      	bhi.n	10006556 <tu_fifo_config+0x5a>
10006502:	b5f8      	push	{r3, r4, r5, r6, r7, lr}
10006504:	4604      	mov	r4, r0
10006506:	460f      	mov	r7, r1
10006508:	4615      	mov	r5, r2
1000650a:	461e      	mov	r6, r3
1000650c:	68c0      	ldr	r0, [r0, #12]
1000650e:	b118      	cbz	r0, 10006518 <tu_fifo_config+0x1c>
10006510:	f04f 31ff 	mov.w	r1, #4294967295
10006514:	f001 fb64 	bl	10007be0 <__mutex_enter_timeout_ms_veneer>
10006518:	6920      	ldr	r0, [r4, #16]
1000651a:	b118      	cbz	r0, 10006524 <tu_fifo_config+0x28>
1000651c:	f04f 31ff 	mov.w	r1, #4294967295
10006520:	f001 fb5e 	bl	10007be0 <__mutex_enter_timeout_ms_veneer>
10006524:	6027      	str	r7, [r4, #0]
10006526:	80a5      	strh	r5, [r4, #4]
10006528:	88e3      	ldrh	r3, [r4, #6]
1000652a:	f366 030e 	bfi	r3, r6, #0, #15
1000652e:	80e3      	strh	r3, [r4, #6]
10006530:	79e3      	ldrb	r3, [r4, #7]
10006532:	f89d 2018 	ldrb.w	r2, [sp, #24]
10006536:	f362 13c7 	bfi	r3, r2, #7, #1
1000653a:	71e3      	strb	r3, [r4, #7]
1000653c:	2300      	movs	r3, #0
1000653e:	8163      	strh	r3, [r4, #10]
10006540:	8123      	strh	r3, [r4, #8]
10006542:	68e0      	ldr	r0, [r4, #12]
10006544:	b108      	cbz	r0, 1000654a <tu_fifo_config+0x4e>
10006546:	f001 fb2b 	bl	10007ba0 <__mutex_exit_veneer>
1000654a:	6920      	ldr	r0, [r4, #16]
1000654c:	b128      	cbz	r0, 1000655a <tu_fifo_config+0x5e>
1000654e:	f001 fb27 	bl	10007ba0 <__mutex_exit_veneer>
10006552:	2001      	movs	r0, #1
10006554:	bdf8      	pop	{r3, r4, r5, r6, r7, pc}
10006556:	2000      	movs	r0, #0
10006558:	4770      	bx	lr
1000655a:	2001      	movs	r0, #1
1000655c:	e7fa      	b.n	10006554 <tu_fifo_config+0x58>

1000655e <tu_fifo_count>:
1000655e:	4602      	mov	r2, r0
10006560:	8880      	ldrh	r0, [r0, #4]
10006562:	8913      	ldrh	r3, [r2, #8]
10006564:	b29b      	uxth	r3, r3
10006566:	8952      	ldrh	r2, [r2, #10]
10006568:	b292      	uxth	r2, r2
1000656a:	4293      	cmp	r3, r2
1000656c:	d305      	bcc.n	1000657a <tu_fifo_count+0x1c>
1000656e:	1a9b      	subs	r3, r3, r2
10006570:	b29b      	uxth	r3, r3
10006572:	4298      	cmp	r0, r3
10006574:	bf28      	it	cs
10006576:	4618      	movcs	r0, r3
10006578:	4770      	bx	lr
1000657a:	1a9b      	subs	r3, r3, r2
1000657c:	0042      	lsls	r2, r0, #1
1000657e:	fa12 f383 	uxtah	r3, r2, r3
10006582:	b29b      	uxth	r3, r3
10006584:	e7f5      	b.n	10006572 <tu_fifo_count+0x14>

10006586 <tu_fifo_empty>:
10006586:	8902      	ldrh	r2, [r0, #8]
10006588:	b292      	uxth	r2, r2
1000658a:	8943      	ldrh	r3, [r0, #10]
1000658c:	b29b      	uxth	r3, r3
1000658e:	429a      	cmp	r2, r3
10006590:	bf14      	ite	ne
10006592:	2000      	movne	r0, #0
10006594:	2001      	moveq	r0, #1
10006596:	4770      	bx	lr

10006598 <tu_fifo_full>:
10006598:	8881      	ldrh	r1, [r0, #4]
1000659a:	8903      	ldrh	r3, [r0, #8]
1000659c:	b29b      	uxth	r3, r3
1000659e:	8942      	ldrh	r2, [r0, #10]
100065a0:	b292      	uxth	r2, r2
100065a2:	4293      	cmp	r3, r2
100065a4:	d306      	bcc.n	100065b4 <tu_fifo_full+0x1c>
100065a6:	1a9b      	subs	r3, r3, r2
100065a8:	b298      	uxth	r0, r3
100065aa:	4281      	cmp	r1, r0
100065ac:	bf8c      	ite	hi
100065ae:	2000      	movhi	r0, #0
100065b0:	2001      	movls	r0, #1
100065b2:	4770      	bx	lr
100065b4:	1a9b      	subs	r3, r3, r2
100065b6:	0048      	lsls	r0, r1, #1
100065b8:	fa10 f383 	uxtah	r3, r0, r3
100065bc:	b298      	uxth	r0, r3
100065be:	e7f4      	b.n	100065aa <tu_fifo_full+0x12>

100065c0 <tu_fifo_remaining>:
100065c0:	8882      	ldrh	r2, [r0, #4]
100065c2:	8903      	ldrh	r3, [r0, #8]
100065c4:	b29b      	uxth	r3, r3
100065c6:	8940      	ldrh	r0, [r0, #10]
100065c8:	b280      	uxth	r0, r0
100065ca:	4283      	cmp	r3, r0
100065cc:	d306      	bcc.n	100065dc <tu_fifo_remaining+0x1c>
100065ce:	1a1b      	subs	r3, r3, r0
100065d0:	b29b      	uxth	r3, r3
100065d2:	429a      	cmp	r2, r3
100065d4:	d908      	bls.n	100065e8 <tu_fifo_remaining+0x28>
100065d6:	1ad3      	subs	r3, r2, r3
100065d8:	b298      	uxth	r0, r3
100065da:	4770      	bx	lr
100065dc:	1a1b      	subs	r3, r3, r0
100065de:	0050      	lsls	r0, r2, #1
100065e0:	fa10 f383 	uxtah	r3, r0, r3
100065e4:	b29b      	uxth	r3, r3
100065e6:	e7f4      	b.n	100065d2 <tu_fifo_remaining+0x12>
100065e8:	2000      	movs	r0, #0
100065ea:	4770      	bx	lr

100065ec <tu_fifo_read>:
100065ec:	b538      	push	{r3, r4, r5, lr}
100065ee:	4604      	mov	r4, r0
100065f0:	460d      	mov	r5, r1
100065f2:	6900      	ldr	r0, [r0, #16]
100065f4:	b118      	cbz	r0, 100065fe <tu_fifo_read+0x12>
100065f6:	f04f 31ff 	mov.w	r1, #4294967295
100065fa:	f001 faf1 	bl	10007be0 <__mutex_enter_timeout_ms_veneer>
100065fe:	8922      	ldrh	r2, [r4, #8]
10006600:	8963      	ldrh	r3, [r4, #10]
10006602:	b29b      	uxth	r3, r3
10006604:	b292      	uxth	r2, r2
10006606:	4629      	mov	r1, r5
10006608:	4620      	mov	r0, r4
1000660a:	f7ff fe14 	bl	10006236 <_tu_fifo_peek>
1000660e:	4605      	mov	r5, r0
10006610:	8961      	ldrh	r1, [r4, #10]
10006612:	b282      	uxth	r2, r0
10006614:	b289      	uxth	r1, r1
10006616:	88a0      	ldrh	r0, [r4, #4]
10006618:	f7ff fe00 	bl	1000621c <advance_index>
1000661c:	8160      	strh	r0, [r4, #10]
1000661e:	6920      	ldr	r0, [r4, #16]
10006620:	b108      	cbz	r0, 10006626 <tu_fifo_read+0x3a>
10006622:	f001 fabd 	bl	10007ba0 <__mutex_exit_veneer>
10006626:	4628      	mov	r0, r5
10006628:	bd38      	pop	{r3, r4, r5, pc}

1000662a <tu_fifo_read_n>:
1000662a:	b508      	push	{r3, lr}
1000662c:	2300      	movs	r3, #0
1000662e:	f7ff fe9b 	bl	10006368 <_tu_fifo_read_n>
10006632:	bd08      	pop	{r3, pc}

10006634 <tu_fifo_write>:
10006634:	b5f8      	push	{r3, r4, r5, r6, r7, lr}
10006636:	4604      	mov	r4, r0
10006638:	460e      	mov	r6, r1
1000663a:	68c0      	ldr	r0, [r0, #12]
1000663c:	b118      	cbz	r0, 10006646 <tu_fifo_write+0x12>
1000663e:	f04f 31ff 	mov.w	r1, #4294967295
10006642:	f001 facd 	bl	10007be0 <__mutex_enter_timeout_ms_veneer>
10006646:	8925      	ldrh	r5, [r4, #8]
10006648:	b2ad      	uxth	r5, r5
1000664a:	4620      	mov	r0, r4
1000664c:	f7ff ffa4 	bl	10006598 <tu_fifo_full>
10006650:	b110      	cbz	r0, 10006658 <tu_fifo_write+0x24>
10006652:	79e7      	ldrb	r7, [r4, #7]
10006654:	09ff      	lsrs	r7, r7, #7
10006656:	d016      	beq.n	10006686 <tu_fifo_write+0x52>
10006658:	88a2      	ldrh	r2, [r4, #4]
1000665a:	462b      	mov	r3, r5
1000665c:	e001      	b.n	10006662 <tu_fifo_write+0x2e>
1000665e:	1a9b      	subs	r3, r3, r2
10006660:	b29b      	uxth	r3, r3
10006662:	429a      	cmp	r2, r3
10006664:	d9fb      	bls.n	1000665e <tu_fifo_write+0x2a>
10006666:	6820      	ldr	r0, [r4, #0]
10006668:	88e2      	ldrh	r2, [r4, #6]
1000666a:	f3c2 020e 	ubfx	r2, r2, #0, #15
1000666e:	4631      	mov	r1, r6
10006670:	fb02 0003 	mla	r0, r2, r3, r0
10006674:	f001 f80c 	bl	10007690 <memcpy>
10006678:	2201      	movs	r2, #1
1000667a:	4629      	mov	r1, r5
1000667c:	88a0      	ldrh	r0, [r4, #4]
1000667e:	f7ff fdcd 	bl	1000621c <advance_index>
10006682:	8120      	strh	r0, [r4, #8]
10006684:	2701      	movs	r7, #1
10006686:	68e0      	ldr	r0, [r4, #12]
10006688:	b108      	cbz	r0, 1000668e <tu_fifo_write+0x5a>
1000668a:	f001 fa89 	bl	10007ba0 <__mutex_exit_veneer>
1000668e:	4638      	mov	r0, r7
10006690:	bdf8      	pop	{r3, r4, r5, r6, r7, pc}

10006692 <tu_fifo_write_n>:
10006692:	b508      	push	{r3, lr}
10006694:	2300      	movs	r3, #0
10006696:	f7ff fec0 	bl	1000641a <_tu_fifo_write_n>
1000669a:	bd08      	pop	{r3, pc}

1000669c <tu_fifo_clear>:
1000669c:	b510      	push	{r4, lr}
1000669e:	4604      	mov	r4, r0
100066a0:	68c0      	ldr	r0, [r0, #12]
100066a2:	b118      	cbz	r0, 100066ac <tu_fifo_clear+0x10>
100066a4:	f04f 31ff 	mov.w	r1, #4294967295
100066a8:	f001 fa9a 	bl	10007be0 <__mutex_enter_timeout_ms_veneer>
100066ac:	6920      	ldr	r0, [r4, #16]
100066ae:	b118      	cbz	r0, 100066b8 <tu_fifo_clear+0x1c>
100066b0:	f04f 31ff 	mov.w	r1, #4294967295
100066b4:	f001 fa94 	bl	10007be0 <__mutex_enter_timeout_ms_veneer>
100066b8:	2300      	movs	r3, #0
100066ba:	8163      	strh	r3, [r4, #10]
100066bc:	8123      	strh	r3, [r4, #8]
100066be:	68e0      	ldr	r0, [r4, #12]
100066c0:	b108      	cbz	r0, 100066c6 <tu_fifo_clear+0x2a>
100066c2:	f001 fa6d 	bl	10007ba0 <__mutex_exit_veneer>
100066c6:	6920      	ldr	r0, [r4, #16]
100066c8:	b108      	cbz	r0, 100066ce <tu_fifo_clear+0x32>
100066ca:	f001 fa69 	bl	10007ba0 <__mutex_exit_veneer>
100066ce:	2001      	movs	r0, #1
100066d0:	bd10      	pop	{r4, pc}

100066d2 <tu_fifo_set_overwritable>:
100066d2:	b538      	push	{r3, r4, r5, lr}
100066d4:	4604      	mov	r4, r0
100066d6:	460d      	mov	r5, r1
100066d8:	68c0      	ldr	r0, [r0, #12]
100066da:	b118      	cbz	r0, 100066e4 <tu_fifo_set_overwritable+0x12>
100066dc:	f04f 31ff 	mov.w	r1, #4294967295
100066e0:	f001 fa7e 	bl	10007be0 <__mutex_enter_timeout_ms_veneer>
100066e4:	6920      	ldr	r0, [r4, #16]
100066e6:	b118      	cbz	r0, 100066f0 <tu_fifo_set_overwritable+0x1e>
100066e8:	f04f 31ff 	mov.w	r1, #4294967295
100066ec:	f001 fa78 	bl	10007be0 <__mutex_enter_timeout_ms_veneer>
100066f0:	79e3      	ldrb	r3, [r4, #7]
100066f2:	f365 13c7 	bfi	r3, r5, #7, #1
100066f6:	71e3      	strb	r3, [r4, #7]
100066f8:	68e0      	ldr	r0, [r4, #12]
100066fa:	b108      	cbz	r0, 10006700 <tu_fifo_set_overwritable+0x2e>
100066fc:	f001 fa50 	bl	10007ba0 <__mutex_exit_veneer>
10006700:	6920      	ldr	r0, [r4, #16]
10006702:	b108      	cbz	r0, 10006708 <tu_fifo_set_overwritable+0x36>
10006704:	f001 fa4c 	bl	10007ba0 <__mutex_exit_veneer>
10006708:	2001      	movs	r0, #1
1000670a:	bd38      	pop	{r3, r4, r5, pc}

1000670c <abort_all_dma_channels_assuming_no_irq_preemption>:
1000670c:	f04f 42a0 	mov.w	r2, #1342177280	; 0x50000000
10006710:	2301      	movs	r3, #1
10006712:	f8c2 3464 	str.w	r3, [r2, #1124]	; 0x464
10006716:	f8d2 3464 	ldr.w	r3, [r2, #1124]	; 0x464
1000671a:	07db      	lsls	r3, r3, #31
1000671c:	d4fb      	bmi.n	10006716 <abort_all_dma_channels_assuming_no_irq_preemption+0xa>
1000671e:	2301      	movs	r3, #1
10006720:	f8c2 340c 	str.w	r3, [r2, #1036]	; 0x40c
10006724:	4770      	bx	lr
10006726:	bf00      	nop

10006728 <video_24mhz_composable_adapt_for_mode>:
10006728:	2001      	movs	r0, #1
1000672a:	b530      	push	{r4, r5, lr}
1000672c:	f04f 1403 	mov.w	r4, #196611	; 0x30003
10006730:	7b09      	ldrb	r1, [r1, #12]
10006732:	f8b3 e00a 	ldrh.w	lr, [r3, #10]
10006736:	3901      	subs	r1, #1
10006738:	fa01 fc00 	lsl.w	ip, r1, r0
1000673c:	4484      	add	ip, r0
1000673e:	ea4f 2c0c 	mov.w	ip, ip, lsl #8
10006742:	fa1f fc8c 	uxth.w	ip, ip
10006746:	ea4c 0e0e 	orr.w	lr, ip, lr
1000674a:	f8a3 e00a 	strh.w	lr, [r3, #10]
1000674e:	f8b3 e00c 	ldrh.w	lr, [r3, #12]
10006752:	0249      	lsls	r1, r1, #9
10006754:	ea4c 0e0e 	orr.w	lr, ip, lr
10006758:	f8a3 e00c 	strh.w	lr, [r3, #12]
1000675c:	f8b3 e00e 	ldrh.w	lr, [r3, #14]
10006760:	b289      	uxth	r1, r1
10006762:	ea41 0e0e 	orr.w	lr, r1, lr
10006766:	f8a3 e00e 	strh.w	lr, [r3, #14]
1000676a:	f8b3 e012 	ldrh.w	lr, [r3, #18]
1000676e:	4d0f      	ldr	r5, [pc, #60]	; (100067ac <video_24mhz_composable_adapt_for_mode+0x84>)
10006770:	ea41 0e0e 	orr.w	lr, r1, lr
10006774:	f8a3 e012 	strh.w	lr, [r3, #18]
10006778:	f8b3 e016 	ldrh.w	lr, [r3, #22]
1000677c:	ea41 0e0e 	orr.w	lr, r1, lr
10006780:	f8a3 e016 	strh.w	lr, [r3, #22]
10006784:	f8b3 e01a 	ldrh.w	lr, [r3, #26]
10006788:	ea4c 0c0e 	orr.w	ip, ip, lr
1000678c:	f8a3 c01a 	strh.w	ip, [r3, #26]
10006790:	f8b3 c01e 	ldrh.w	ip, [r3, #30]
10006794:	ea41 0c0c 	orr.w	ip, r1, ip
10006798:	f8a3 c01e 	strh.w	ip, [r3, #30]
1000679c:	f8b3 c006 	ldrh.w	ip, [r3, #6]
100067a0:	ea41 010c 	orr.w	r1, r1, ip
100067a4:	80d9      	strh	r1, [r3, #6]
100067a6:	e9c2 5401 	strd	r5, r4, [r2, #4]
100067aa:	bd30      	pop	{r4, r5, pc}
100067ac:	20001b9c 	.word	0x20001b9c

100067b0 <update_dma_transfer_state_irqs_enabled.part.0>:
100067b0:	b508      	push	{r3, lr}
100067b2:	f44f 7115 	mov.w	r1, #596	; 0x254
100067b6:	4b02      	ldr	r3, [pc, #8]	; (100067c0 <update_dma_transfer_state_irqs_enabled.part.0+0x10>)
100067b8:	4a02      	ldr	r2, [pc, #8]	; (100067c4 <update_dma_transfer_state_irqs_enabled.part.0+0x14>)
100067ba:	4803      	ldr	r0, [pc, #12]	; (100067c8 <update_dma_transfer_state_irqs_enabled.part.0+0x18>)
100067bc:	f7fc fd16 	bl	100031ec <__assert_func>
100067c0:	10008cec 	.word	0x10008cec
100067c4:	10008e68 	.word	0x10008e68
100067c8:	10008d14 	.word	0x10008d14

100067cc <copy_program.part.0>:
100067cc:	b508      	push	{r3, lr}
100067ce:	f240 511d 	movw	r1, #1309	; 0x51d
100067d2:	4b02      	ldr	r3, [pc, #8]	; (100067dc <copy_program.part.0+0x10>)
100067d4:	4a02      	ldr	r2, [pc, #8]	; (100067e0 <copy_program.part.0+0x14>)
100067d6:	4803      	ldr	r0, [pc, #12]	; (100067e4 <copy_program.part.0+0x18>)
100067d8:	f7fc fd08 	bl	100031ec <__assert_func>
100067dc:	10008d58 	.word	0x10008d58
100067e0:	10008e90 	.word	0x10008e90
100067e4:	10008d14 	.word	0x10008d14

100067e8 <video_24mhz_composable_configure_pio>:
100067e8:	b570      	push	{r4, r5, r6, lr}
100067ea:	469c      	mov	ip, r3
100067ec:	2401      	movs	r4, #1
100067ee:	4616      	mov	r6, r2
100067f0:	b082      	sub	sp, #8
100067f2:	9400      	str	r4, [sp, #0]
100067f4:	f10c 040d 	add.w	r4, ip, #13
100067f8:	4605      	mov	r5, r0
100067fa:	0324      	lsls	r4, r4, #12
100067fc:	4608      	mov	r0, r1
100067fe:	f10c 010b 	add.w	r1, ip, #11
10006802:	ea44 14c1 	orr.w	r4, r4, r1, lsl #7
10006806:	2310      	movs	r3, #16
10006808:	2200      	movs	r2, #0
1000680a:	4631      	mov	r1, r6
1000680c:	f000 fb85 	bl	10006f1a <pio_sm_set_consecutive_pindirs>
10006810:	f424 047e 	bic.w	r4, r4, #16646144	; 0xfe0000
10006814:	b16e      	cbz	r6, 10006832 <video_24mhz_composable_configure_pio+0x4a>
10006816:	f444 1438 	orr.w	r4, r4, #3014656	; 0x2e0000
1000681a:	f44f 3280 	mov.w	r2, #65536	; 0x10000
1000681e:	f04f 7380 	mov.w	r3, #16777216	; 0x1000000
10006822:	4628      	mov	r0, r5
10006824:	4904      	ldr	r1, [pc, #16]	; (10006838 <video_24mhz_composable_configure_pio+0x50>)
10006826:	602a      	str	r2, [r5, #0]
10006828:	e9c5 4101 	strd	r4, r1, [r5, #4]
1000682c:	60eb      	str	r3, [r5, #12]
1000682e:	b002      	add	sp, #8
10006830:	bd70      	pop	{r4, r5, r6, pc}
10006832:	f444 3400 	orr.w	r4, r4, #131072	; 0x20000
10006836:	e7f0      	b.n	1000681a <video_24mhz_composable_configure_pio+0x32>
10006838:	400e0000 	.word	0x400e0000
1000683c:	00000000 	.word	0x00000000

10006840 <scanvideo_setup_with_timing>:
10006840:	e92d 4ff0 	stmdb	sp!, {r4, r5, r6, r7, r8, r9, sl, fp, lr}
10006844:	4f33      	ldr	r7, [pc, #204]	; (10006914 <scanvideo_setup_with_timing+0xd4>)
10006846:	2244      	movs	r2, #68	; 0x44
10006848:	b09b      	sub	sp, #108	; 0x6c
1000684a:	4681      	mov	r9, r0
1000684c:	460c      	mov	r4, r1
1000684e:	4638      	mov	r0, r7
10006850:	2100      	movs	r1, #0
10006852:	f000 ff93 	bl	1000777c <memset>
10006856:	2002      	movs	r0, #2
10006858:	f7fa faf8 	bl	10000e4c <spin_lock_init>
1000685c:	4603      	mov	r3, r0
1000685e:	2004      	movs	r0, #4
10006860:	60fb      	str	r3, [r7, #12]
10006862:	f7fa faf3 	bl	10000e4c <spin_lock_init>
10006866:	6378      	str	r0, [r7, #52]	; 0x34
10006868:	2003      	movs	r0, #3
1000686a:	f7fa faef 	bl	10000e4c <spin_lock_init>
1000686e:	4603      	mov	r3, r0
10006870:	f8df 80c0 	ldr.w	r8, [pc, #192]	; 10006934 <scanvideo_setup_with_timing+0xf4>
10006874:	2005      	movs	r0, #5
10006876:	62fb      	str	r3, [r7, #44]	; 0x2c
10006878:	4645      	mov	r5, r8
1000687a:	f7fa fae7 	bl	10000e4c <spin_lock_init>
1000687e:	464e      	mov	r6, r9
10006880:	f04f 33ff 	mov.w	r3, #4294967295
10006884:	6038      	str	r0, [r7, #0]
10006886:	617b      	str	r3, [r7, #20]
10006888:	ce0f      	ldmia	r6!, {r0, r1, r2, r3}
1000688a:	c50f      	stmia	r5!, {r0, r1, r2, r3}
1000688c:	6833      	ldr	r3, [r6, #0]
1000688e:	f8c8 4000 	str.w	r4, [r8]
10006892:	602b      	str	r3, [r5, #0]
10006894:	b29b      	uxth	r3, r3
10006896:	b913      	cbnz	r3, 1000689e <scanvideo_setup_with_timing+0x5e>
10006898:	2301      	movs	r3, #1
1000689a:	f8a8 3010 	strh.w	r3, [r8, #16]
1000689e:	f8b9 3008 	ldrh.w	r3, [r9, #8]
100068a2:	4a1d      	ldr	r2, [pc, #116]	; (10006918 <scanvideo_setup_with_timing+0xd8>)
100068a4:	085b      	lsrs	r3, r3, #1
100068a6:	3b03      	subs	r3, #3
100068a8:	8093      	strh	r3, [r2, #4]
100068aa:	2100      	movs	r1, #0
100068ac:	2201      	movs	r2, #1
100068ae:	481b      	ldr	r0, [pc, #108]	; (1000691c <scanvideo_setup_with_timing+0xdc>)
100068b0:	f7f9 fdfc 	bl	100004ac <sem_init>
100068b4:	f44f 7134 	mov.w	r1, #720	; 0x2d0
100068b8:	2001      	movs	r0, #1
100068ba:	f7fb fb83 	bl	10001fc4 <__wrap_calloc>
100068be:	26b4      	movs	r6, #180	; 0xb4
100068c0:	f8df b074 	ldr.w	fp, [pc, #116]	; 10006938 <scanvideo_setup_with_timing+0xf8>
100068c4:	f8cb 0004 	str.w	r0, [fp, #4]
100068c8:	f8ab 600a 	strh.w	r6, [fp, #10]
100068cc:	f10b 0518 	add.w	r5, fp, #24
100068d0:	f10b 0ac0 	add.w	sl, fp, #192	; 0xc0
100068d4:	f845 5c04 	str.w	r5, [r5, #-4]
100068d8:	f44f 7134 	mov.w	r1, #720	; 0x2d0
100068dc:	2001      	movs	r0, #1
100068de:	f7fb fb71 	bl	10001fc4 <__wrap_calloc>
100068e2:	3518      	adds	r5, #24
100068e4:	f825 6c0e 	strh.w	r6, [r5, #-14]
100068e8:	4555      	cmp	r5, sl
100068ea:	f845 0c14 	str.w	r0, [r5, #-20]
100068ee:	d1f1      	bne.n	100068d4 <scanvideo_setup_with_timing+0x94>
100068f0:	2500      	movs	r5, #0
100068f2:	f8c7 b030 	str.w	fp, [r7, #48]	; 0x30
100068f6:	f8cb 50bc 	str.w	r5, [fp, #188]	; 0xbc
100068fa:	f3bf 8f5f 	dmb	sy
100068fe:	4b08      	ldr	r3, [pc, #32]	; (10006920 <scanvideo_setup_with_timing+0xe0>)
10006900:	4e08      	ldr	r6, [pc, #32]	; (10006924 <scanvideo_setup_with_timing+0xe4>)
10006902:	781b      	ldrb	r3, [r3, #0]
10006904:	4b08      	ldr	r3, [pc, #32]	; (10006928 <scanvideo_setup_with_timing+0xe8>)
10006906:	781b      	ldrb	r3, [r3, #0]
10006908:	4b08      	ldr	r3, [pc, #32]	; (1000692c <scanvideo_setup_with_timing+0xec>)
1000690a:	781b      	ldrb	r3, [r3, #0]
1000690c:	4b08      	ldr	r3, [pc, #32]	; (10006930 <scanvideo_setup_with_timing+0xf0>)
1000690e:	781b      	ldrb	r3, [r3, #0]
10006910:	e019      	b.n	10006946 <scanvideo_setup_with_timing+0x106>
10006912:	bf00      	nop
10006914:	2000313c 	.word	0x2000313c
10006918:	20001b9c 	.word	0x20001b9c
1000691c:	200031e4 	.word	0x200031e4
10006920:	10009048 	.word	0x10009048
10006924:	0003ffdf 	.word	0x0003ffdf
10006928:	1000904c 	.word	0x1000904c
1000692c:	10009050 	.word	0x10009050
10006930:	10009054 	.word	0x10009054
10006934:	200031f4 	.word	0x200031f4
10006938:	2000307c 	.word	0x2000307c
1000693c:	3501      	adds	r5, #1
1000693e:	2d12      	cmp	r5, #18
10006940:	ea4f 0656 	mov.w	r6, r6, lsr #1
10006944:	d00a      	beq.n	1000695c <scanvideo_setup_with_timing+0x11c>
10006946:	07f0      	lsls	r0, r6, #31
10006948:	d5f8      	bpl.n	1000693c <scanvideo_setup_with_timing+0xfc>
1000694a:	4628      	mov	r0, r5
1000694c:	2106      	movs	r1, #6
1000694e:	3501      	adds	r5, #1
10006950:	f7fa fe2e 	bl	100015b0 <gpio_set_function>
10006954:	2d12      	cmp	r5, #18
10006956:	ea4f 0656 	mov.w	r6, r6, lsr #1
1000695a:	d1f4      	bne.n	10006946 <scanvideo_setup_with_timing+0x106>
1000695c:	2005      	movs	r0, #5
1000695e:	f7fa ff4f 	bl	10001800 <clock_get_hz>
10006962:	6822      	ldr	r2, [r4, #0]
10006964:	f8df b2e8 	ldr.w	fp, [pc, #744]	; 10006c50 <scanvideo_setup_with_timing+0x410>
10006968:	fbb0 f3f2 	udiv	r3, r0, r2
1000696c:	f8ab 3000 	strh.w	r3, [fp]
10006970:	b29b      	uxth	r3, r3
10006972:	fb02 f303 	mul.w	r3, r2, r3
10006976:	4283      	cmp	r3, r0
10006978:	f040 813d 	bne.w	10006bf6 <scanvideo_setup_with_timing+0x3b6>
1000697c:	f8d9 5004 	ldr.w	r5, [r9, #4]
10006980:	682b      	ldr	r3, [r5, #0]
10006982:	791a      	ldrb	r2, [r3, #4]
10006984:	2a20      	cmp	r2, #32
10006986:	f200 813a 	bhi.w	10006bfe <scanvideo_setup_with_timing+0x3be>
1000698a:	e9d3 1a00 	ldrd	r1, sl, [r3]
1000698e:	ae0a      	add	r6, sp, #40	; 0x28
10006990:	0052      	lsls	r2, r2, #1
10006992:	4630      	mov	r0, r6
10006994:	f000 fe7c 	bl	10007690 <memcpy>
10006998:	4633      	mov	r3, r6
1000699a:	4a9d      	ldr	r2, [pc, #628]	; (10006c10 <scanvideo_setup_with_timing+0x3d0>)
1000699c:	4649      	mov	r1, r9
1000699e:	4628      	mov	r0, r5
100069a0:	e9cd 6a04 	strd	r6, sl, [sp, #16]
100069a4:	68ad      	ldr	r5, [r5, #8]
100069a6:	47a8      	blx	r5
100069a8:	489a      	ldr	r0, [pc, #616]	; (10006c14 <scanvideo_setup_with_timing+0x3d4>)
100069aa:	a904      	add	r1, sp, #16
100069ac:	f000 fa9d 	bl	10006eea <pio_add_program>
100069b0:	f8d9 3004 	ldr.w	r3, [r9, #4]
100069b4:	4a98      	ldr	r2, [pc, #608]	; (10006c18 <scanvideo_setup_with_timing+0x3d8>)
100069b6:	681b      	ldr	r3, [r3, #0]
100069b8:	7010      	strb	r0, [r2, #0]
100069ba:	791b      	ldrb	r3, [r3, #4]
100069bc:	2b00      	cmp	r3, #0
100069be:	f000 8117 	beq.w	10006bf0 <scanvideo_setup_with_timing+0x3b0>
100069c2:	46b4      	mov	ip, r6
100069c4:	2100      	movs	r1, #0
100069c6:	f04f 35ff 	mov.w	r5, #4294967295
100069ca:	f242 09c4 	movw	r9, #8388	; 0x20c4
100069ce:	f83c 2b02 	ldrh.w	r2, [ip], #2
100069d2:	454a      	cmp	r2, r9
100069d4:	bf08      	it	eq
100069d6:	460d      	moveq	r5, r1
100069d8:	3101      	adds	r1, #1
100069da:	428b      	cmp	r3, r1
100069dc:	d1f7      	bne.n	100069ce <scanvideo_setup_with_timing+0x18e>
100069de:	2201      	movs	r2, #1
100069e0:	4b8b      	ldr	r3, [pc, #556]	; (10006c10 <scanvideo_setup_with_timing+0x3d0>)
100069e2:	643d      	str	r5, [r7, #64]	; 0x40
100069e4:	2100      	movs	r1, #0
100069e6:	b2c5      	uxtb	r5, r0
100069e8:	488c      	ldr	r0, [pc, #560]	; (10006c1c <scanvideo_setup_with_timing+0x3dc>)
100069ea:	741a      	strb	r2, [r3, #16]
100069ec:	f7fc fdc6 	bl	1000357c <__wrap_printf>
100069f0:	f8d8 3004 	ldr.w	r3, [r8, #4]
100069f4:	2200      	movs	r2, #0
100069f6:	68df      	ldr	r7, [r3, #12]
100069f8:	4986      	ldr	r1, [pc, #536]	; (10006c14 <scanvideo_setup_with_timing+0x3d4>)
100069fa:	462b      	mov	r3, r5
100069fc:	a806      	add	r0, sp, #24
100069fe:	47b8      	blx	r7
10006a00:	f8bb 3000 	ldrh.w	r3, [fp]
10006a04:	462a      	mov	r2, r5
10006a06:	01d8      	lsls	r0, r3, #7
10006a08:	085b      	lsrs	r3, r3, #1
10006a0a:	b2c0      	uxtb	r0, r0
10006a0c:	041b      	lsls	r3, r3, #16
10006a0e:	ea43 2300 	orr.w	r3, r3, r0, lsl #8
10006a12:	2100      	movs	r1, #0
10006a14:	9306      	str	r3, [sp, #24]
10006a16:	487f      	ldr	r0, [pc, #508]	; (10006c14 <scanvideo_setup_with_timing+0x3d4>)
10006a18:	ab06      	add	r3, sp, #24
10006a1a:	f000 facd 	bl	10006fb8 <pio_sm_init>
10006a1e:	4a80      	ldr	r2, [pc, #512]	; (10006c20 <scanvideo_setup_with_timing+0x3e0>)
10006a20:	4b80      	ldr	r3, [pc, #512]	; (10006c24 <scanvideo_setup_with_timing+0x3e4>)
10006a22:	7e25      	ldrb	r5, [r4, #24]
10006a24:	9205      	str	r2, [sp, #20]
10006a26:	9604      	str	r6, [sp, #16]
10006a28:	e893 0007 	ldmia.w	r3, {r0, r1, r2}
10006a2c:	e886 0007 	stmia.w	r6, {r0, r1, r2}
10006a30:	2d00      	cmp	r5, #0
10006a32:	f040 80c6 	bne.w	10006bc2 <scanvideo_setup_with_timing+0x382>
10006a36:	f24c 0304 	movw	r3, #49156	; 0xc004
10006a3a:	f24c 0744 	movw	r7, #49220	; 0xc044
10006a3e:	f24c 0501 	movw	r5, #49153	; 0xc001
10006a42:	f44f 4640 	mov.w	r6, #49152	; 0xc000
10006a46:	9303      	str	r3, [sp, #12]
10006a48:	f8df 91c8 	ldr.w	r9, [pc, #456]	; 10006c14 <scanvideo_setup_with_timing+0x3d4>
10006a4c:	a904      	add	r1, sp, #16
10006a4e:	4648      	mov	r0, r9
10006a50:	f000 fa4b 	bl	10006eea <pio_add_program>
10006a54:	4680      	mov	r8, r0
10006a56:	f04f 0a01 	mov.w	sl, #1
10006a5a:	4b73      	ldr	r3, [pc, #460]	; (10006c28 <scanvideo_setup_with_timing+0x3e8>)
10006a5c:	2103      	movs	r1, #3
10006a5e:	486f      	ldr	r0, [pc, #444]	; (10006c1c <scanvideo_setup_with_timing+0x3dc>)
10006a60:	f883 8000 	strb.w	r8, [r3]
10006a64:	f7fc fd8a 	bl	1000357c <__wrap_printf>
10006a68:	ed9f 7b67 	vldr	d7, [pc, #412]	; 10006c08 <scanvideo_setup_with_timing+0x3c8>
10006a6c:	f8bb 3000 	ldrh.w	r3, [fp]
10006a70:	fa5f f888 	uxtb.w	r8, r8
10006a74:	01da      	lsls	r2, r3, #7
10006a76:	fa23 f30a 	lsr.w	r3, r3, sl
10006a7a:	b2d2      	uxtb	r2, r2
10006a7c:	041b      	lsls	r3, r3, #16
10006a7e:	ea43 2302 	orr.w	r3, r3, r2, lsl #8
10006a82:	9306      	str	r3, [sp, #24]
10006a84:	f108 0305 	add.w	r3, r8, #5
10006a88:	eb08 020a 	add.w	r2, r8, sl
10006a8c:	031b      	lsls	r3, r3, #12
10006a8e:	ea43 13c2 	orr.w	r3, r3, r2, lsl #7
10006a92:	4648      	mov	r0, r9
10006a94:	2103      	movs	r1, #3
10006a96:	2210      	movs	r2, #16
10006a98:	f8cd a000 	str.w	sl, [sp]
10006a9c:	9307      	str	r3, [sp, #28]
10006a9e:	2302      	movs	r3, #2
10006aa0:	ed8d 7b08 	vstr	d7, [sp, #32]
10006aa4:	f000 fa39 	bl	10006f1a <pio_sm_set_consecutive_pindirs>
10006aa8:	4642      	mov	r2, r8
10006aaa:	ab06      	add	r3, sp, #24
10006aac:	4648      	mov	r0, r9
10006aae:	2103      	movs	r1, #3
10006ab0:	f000 fa82 	bl	10006fb8 <pio_sm_init>
10006ab4:	2100      	movs	r1, #0
10006ab6:	200f      	movs	r0, #15
10006ab8:	f7fa fcce 	bl	10001458 <irq_set_priority>
10006abc:	2140      	movs	r1, #64	; 0x40
10006abe:	2010      	movs	r0, #16
10006ac0:	f7fa fcca 	bl	10001458 <irq_set_priority>
10006ac4:	2140      	movs	r1, #64	; 0x40
10006ac6:	200a      	movs	r0, #10
10006ac8:	f7fa fcc6 	bl	10001458 <irq_set_priority>
10006acc:	4650      	mov	r0, sl
10006ace:	f000 f921 	bl	10006d14 <dma_claim_mask>
10006ad2:	f04f 0819 	mov.w	r8, #25
10006ad6:	2000      	movs	r0, #0
10006ad8:	f04f 41a0 	mov.w	r1, #1342177280	; 0x50000000
10006adc:	f24c 0e44 	movw	lr, #49220	; 0xc044
10006ae0:	4b52      	ldr	r3, [pc, #328]	; (10006c2c <scanvideo_setup_with_timing+0x3ec>)
10006ae2:	f8b4 c00a 	ldrh.w	ip, [r4, #10]
10006ae6:	f8c3 a404 	str.w	sl, [r3, #1028]	; 0x404
10006aea:	f8df a168 	ldr.w	sl, [pc, #360]	; 10006c54 <scanvideo_setup_with_timing+0x414>
10006aee:	89a3      	ldrh	r3, [r4, #12]
10006af0:	8922      	ldrh	r2, [r4, #8]
10006af2:	6008      	str	r0, [r1, #0]
10006af4:	f8c1 a004 	str.w	sl, [r1, #4]
10006af8:	6088      	str	r0, [r1, #8]
10006afa:	f8c1 8010 	str.w	r8, [r1, #16]
10006afe:	f8c9 e120 	str.w	lr, [r9, #288]	; 0x120
10006b02:	7da1      	ldrb	r1, [r4, #22]
10006b04:	1a9a      	subs	r2, r3, r2
10006b06:	4281      	cmp	r1, r0
10006b08:	7ba1      	ldrb	r1, [r4, #14]
10006b0a:	bf13      	iteet	ne
10006b0c:	4683      	movne	fp, r0
10006b0e:	4681      	moveq	r9, r0
10006b10:	f04f 4b80 	moveq.w	fp, #1073741824	; 0x40000000
10006b14:	f04f 4980 	movne.w	r9, #1073741824	; 0x40000000
10006b18:	4281      	cmp	r1, r0
10006b1a:	bf14      	ite	ne
10006b1c:	4680      	movne	r8, r0
10006b1e:	f04f 0801 	moveq.w	r8, #1
10006b22:	88a1      	ldrh	r1, [r4, #4]
10006b24:	eba2 020c 	sub.w	r2, r2, ip
10006b28:	eba2 0201 	sub.w	r2, r2, r1
10006b2c:	f1ac 0107 	sub.w	r1, ip, #7
10006b30:	f8b4 a006 	ldrh.w	sl, [r4, #6]
10006b34:	8a20      	ldrh	r0, [r4, #16]
10006b36:	ea4f 4101 	mov.w	r1, r1, lsl #16
10006b3a:	f8b4 e012 	ldrh.w	lr, [r4, #18]
10006b3e:	ea41 7148 	orr.w	r1, r1, r8, lsl #29
10006b42:	4450      	add	r0, sl
10006b44:	ea46 7648 	orr.w	r6, r6, r8, lsl #29
10006b48:	ea45 7548 	orr.w	r5, r5, r8, lsl #29
10006b4c:	ea41 0807 	orr.w	r8, r1, r7
10006b50:	4937      	ldr	r1, [pc, #220]	; (10006c30 <scanvideo_setup_with_timing+0x3f0>)
10006b52:	4486      	add	lr, r0
10006b54:	8aa4      	ldrh	r4, [r4, #20]
10006b56:	eba3 0302 	sub.w	r3, r3, r2
10006b5a:	e9c1 0e02 	strd	r0, lr, [r1, #8]
10006b5e:	f446 3680 	orr.w	r6, r6, #65536	; 0x10000
10006b62:	f445 3580 	orr.w	r5, r5, #65536	; 0x10000
10006b66:	f1a2 0003 	sub.w	r0, r2, #3
10006b6a:	eba3 030c 	sub.w	r3, r3, ip
10006b6e:	e9c1 a400 	strd	sl, r4, [r1]
10006b72:	e9c1 9605 	strd	r9, r6, [r1, #20]
10006b76:	e9c1 5807 	strd	r5, r8, [r1, #28]
10006b7a:	f8c1 b010 	str.w	fp, [r1, #16]
10006b7e:	ea47 4000 	orr.w	r0, r7, r0, lsl #16
10006b82:	f1a3 0303 	sub.w	r3, r3, #3
10006b86:	d02c      	beq.n	10006be2 <scanvideo_setup_with_timing+0x3a2>
10006b88:	9a03      	ldr	r2, [sp, #12]
10006b8a:	f040 5000 	orr.w	r0, r0, #536870912	; 0x20000000
10006b8e:	ea42 4403 	orr.w	r4, r2, r3, lsl #16
10006b92:	f04f 4220 	mov.w	r2, #2684354560	; 0xa0000000
10006b96:	041b      	lsls	r3, r3, #16
10006b98:	f043 5300 	orr.w	r3, r3, #536870912	; 0x20000000
10006b9c:	431f      	orrs	r7, r3
10006b9e:	4b25      	ldr	r3, [pc, #148]	; (10006c34 <scanvideo_setup_with_timing+0x3f4>)
10006ba0:	6248      	str	r0, [r1, #36]	; 0x24
10006ba2:	e9c3 8001 	strd	r8, r0, [r3, #4]
10006ba6:	2001      	movs	r0, #1
10006ba8:	4322      	orrs	r2, r4
10006baa:	628a      	str	r2, [r1, #40]	; 0x28
10006bac:	f8c1 9030 	str.w	r9, [r1, #48]	; 0x30
10006bb0:	4a21      	ldr	r2, [pc, #132]	; (10006c38 <scanvideo_setup_with_timing+0x3f8>)
10006bb2:	62cf      	str	r7, [r1, #44]	; 0x2c
10006bb4:	4921      	ldr	r1, [pc, #132]	; (10006c3c <scanvideo_setup_with_timing+0x3fc>)
10006bb6:	601d      	str	r5, [r3, #0]
10006bb8:	60df      	str	r7, [r3, #12]
10006bba:	6011      	str	r1, [r2, #0]
10006bbc:	b01b      	add	sp, #108	; 0x6c
10006bbe:	e8bd 8ff0 	ldmia.w	sp!, {r4, r5, r6, r7, r8, r9, sl, fp, pc}
10006bc2:	4b1f      	ldr	r3, [pc, #124]	; (10006c40 <scanvideo_setup_with_timing+0x400>)
10006bc4:	4a1f      	ldr	r2, [pc, #124]	; (10006c44 <scanvideo_setup_with_timing+0x404>)
10006bc6:	f24d 0744 	movw	r7, #53316	; 0xd044
10006bca:	e9cd 230a 	strd	r2, r3, [sp, #40]	; 0x28
10006bce:	4b1e      	ldr	r3, [pc, #120]	; (10006c48 <scanvideo_setup_with_timing+0x408>)
10006bd0:	f24d 0501 	movw	r5, #53249	; 0xd001
10006bd4:	930c      	str	r3, [sp, #48]	; 0x30
10006bd6:	f24d 0304 	movw	r3, #53252	; 0xd004
10006bda:	f44f 4650 	mov.w	r6, #53248	; 0xd000
10006bde:	9303      	str	r3, [sp, #12]
10006be0:	e732      	b.n	10006a48 <scanvideo_setup_with_timing+0x208>
10006be2:	9a03      	ldr	r2, [sp, #12]
10006be4:	ea42 4403 	orr.w	r4, r2, r3, lsl #16
10006be8:	f04f 4200 	mov.w	r2, #2147483648	; 0x80000000
10006bec:	041b      	lsls	r3, r3, #16
10006bee:	e7d5      	b.n	10006b9c <scanvideo_setup_with_timing+0x35c>
10006bf0:	f04f 35ff 	mov.w	r5, #4294967295
10006bf4:	e6f3      	b.n	100069de <scanvideo_setup_with_timing+0x19e>
10006bf6:	4601      	mov	r1, r0
10006bf8:	4814      	ldr	r0, [pc, #80]	; (10006c4c <scanvideo_setup_with_timing+0x40c>)
10006bfa:	f7fa f87d 	bl	10000cf8 <panic>
10006bfe:	f7ff fde5 	bl	100067cc <copy_program.part.0>
10006c02:	bf00      	nop
10006c04:	f3af 8000 	nop.w
10006c08:	000e0000 	.word	0x000e0000
10006c0c:	20200010 	.word	0x20200010
10006c10:	20002778 	.word	0x20002778
10006c14:	50200000 	.word	0x50200000
10006c18:	20003216 	.word	0x20003216
10006c1c:	10008e24 	.word	0x10008e24
10006c20:	0001ff06 	.word	0x0001ff06
10006c24:	10008ed8 	.word	0x10008ed8
10006c28:	20003215 	.word	0x20003215
10006c2c:	50002000 	.word	0x50002000
10006c30:	2000318c 	.word	0x2000318c
10006c34:	20002c20 	.word	0x20002c20
10006c38:	20002790 	.word	0x20002790
10006c3c:	20000b3d 	.word	0x20000b3d
10006c40:	7003602d 	.word	0x7003602d
10006c44:	60f090a0 	.word	0x60f090a0
10006c48:	1044a042 	.word	0x1044a042
10006c4c:	10008dd0 	.word	0x10008dd0
10006c50:	2000320a 	.word	0x2000320a
10006c54:	50200010 	.word	0x50200010

10006c58 <scanvideo_setup>:
10006c58:	6801      	ldr	r1, [r0, #0]
10006c5a:	f7ff bdf1 	b.w	10006840 <scanvideo_setup_with_timing>
10006c5e:	bf00      	nop

10006c60 <scanvideo_timing_enable>:
10006c60:	b5f8      	push	{r3, r4, r5, r6, r7, lr}
10006c62:	4e1b      	ldr	r6, [pc, #108]	; (10006cd0 <scanvideo_timing_enable+0x70>)
10006c64:	7833      	ldrb	r3, [r6, #0]
10006c66:	4283      	cmp	r3, r0
10006c68:	d100      	bne.n	10006c6c <scanvideo_timing_enable+0xc>
10006c6a:	bdf8      	pop	{r3, r4, r5, r6, r7, pc}
10006c6c:	2280      	movs	r2, #128	; 0x80
10006c6e:	f44f 7c40 	mov.w	ip, #768	; 0x300
10006c72:	4b18      	ldr	r3, [pc, #96]	; (10006cd4 <scanvideo_timing_enable+0x74>)
10006c74:	4f18      	ldr	r7, [pc, #96]	; (10006cd8 <scanvideo_timing_enable+0x78>)
10006c76:	4d19      	ldr	r5, [pc, #100]	; (10006cdc <scanvideo_timing_enable+0x7c>)
10006c78:	4601      	mov	r1, r0
10006c7a:	f8c7 c000 	str.w	ip, [r7]
10006c7e:	4604      	mov	r4, r0
10006c80:	601a      	str	r2, [r3, #0]
10006c82:	f44f 30c2 	mov.w	r0, #99328	; 0x18400
10006c86:	f7fa f969 	bl	10000f5c <irq_set_mask_enabled>
10006c8a:	2109      	movs	r1, #9
10006c8c:	4628      	mov	r0, r5
10006c8e:	f000 f91b 	bl	10006ec8 <pio_claim_sm_mask>
10006c92:	f44f 6210 	mov.w	r2, #2304	; 0x900
10006c96:	682b      	ldr	r3, [r5, #0]
10006c98:	f023 0309 	bic.w	r3, r3, #9
10006c9c:	602b      	str	r3, [r5, #0]
10006c9e:	4b10      	ldr	r3, [pc, #64]	; (10006ce0 <scanvideo_timing_enable+0x80>)
10006ca0:	601a      	str	r2, [r3, #0]
10006ca2:	b19c      	cbz	r4, 10006ccc <scanvideo_timing_enable+0x6c>
10006ca4:	4b0f      	ldr	r3, [pc, #60]	; (10006ce4 <scanvideo_timing_enable+0x84>)
10006ca6:	4a10      	ldr	r2, [pc, #64]	; (10006ce8 <scanvideo_timing_enable+0x88>)
10006ca8:	685b      	ldr	r3, [r3, #4]
10006caa:	7812      	ldrb	r2, [r2, #0]
10006cac:	791b      	ldrb	r3, [r3, #4]
10006cae:	f003 031f 	and.w	r3, r3, #31
10006cb2:	4413      	add	r3, r2
10006cb4:	4a0d      	ldr	r2, [pc, #52]	; (10006cec <scanvideo_timing_enable+0x8c>)
10006cb6:	f8c5 30d8 	str.w	r3, [r5, #216]	; 0xd8
10006cba:	7813      	ldrb	r3, [r2, #0]
10006cbc:	f003 031f 	and.w	r3, r3, #31
10006cc0:	f8c5 3120 	str.w	r3, [r5, #288]	; 0x120
10006cc4:	682b      	ldr	r3, [r5, #0]
10006cc6:	f043 0309 	orr.w	r3, r3, #9
10006cca:	602b      	str	r3, [r5, #0]
10006ccc:	7034      	strb	r4, [r6, #0]
10006cce:	bdf8      	pop	{r3, r4, r5, r6, r7, pc}
10006cd0:	20003217 	.word	0x20003217
10006cd4:	5020217c 	.word	0x5020217c
10006cd8:	50202170 	.word	0x50202170
10006cdc:	50200000 	.word	0x50200000
10006ce0:	50202000 	.word	0x50202000
10006ce4:	200031f4 	.word	0x200031f4
10006ce8:	20003216 	.word	0x20003216
10006cec:	20003215 	.word	0x20003215

10006cf0 <scanvideo_wait_for_vblank>:
10006cf0:	4801      	ldr	r0, [pc, #4]	; (10006cf8 <scanvideo_wait_for_vblank+0x8>)
10006cf2:	f000 bf65 	b.w	10007bc0 <__sem_acquire_blocking_veneer>
10006cf6:	bf00      	nop
10006cf8:	200031e4 	.word	0x200031e4

10006cfc <dma_channel_claim>:
10006cfc:	b508      	push	{r3, lr}
10006cfe:	4601      	mov	r1, r0
10006d00:	4a02      	ldr	r2, [pc, #8]	; (10006d0c <dma_channel_claim+0x10>)
10006d02:	4803      	ldr	r0, [pc, #12]	; (10006d10 <dma_channel_claim+0x14>)
10006d04:	f7fa f82c 	bl	10000d60 <hw_claim_or_assert>
10006d08:	bd08      	pop	{r3, pc}
10006d0a:	bf00      	nop
10006d0c:	10008ee4 	.word	0x10008ee4
10006d10:	20003208 	.word	0x20003208

10006d14 <dma_claim_mask>:
10006d14:	b538      	push	{r3, r4, r5, lr}
10006d16:	4604      	mov	r4, r0
10006d18:	2500      	movs	r5, #0
10006d1a:	e001      	b.n	10006d20 <dma_claim_mask+0xc>
10006d1c:	3501      	adds	r5, #1
10006d1e:	0864      	lsrs	r4, r4, #1
10006d20:	b134      	cbz	r4, 10006d30 <dma_claim_mask+0x1c>
10006d22:	f014 0f01 	tst.w	r4, #1
10006d26:	d0f9      	beq.n	10006d1c <dma_claim_mask+0x8>
10006d28:	4628      	mov	r0, r5
10006d2a:	f7ff ffe7 	bl	10006cfc <dma_channel_claim>
10006d2e:	e7f5      	b.n	10006d1c <dma_claim_mask+0x8>
10006d30:	bd38      	pop	{r3, r4, r5, pc}

10006d32 <is_gpio_compatible>:
10006d32:	f8d0 3168 	ldr.w	r3, [r0, #360]	; 0x168
10006d36:	b113      	cbz	r3, 10006d3e <is_gpio_compatible+0xc>
10006d38:	f011 0f01 	tst.w	r1, #1
10006d3c:	d105      	bne.n	10006d4a <is_gpio_compatible+0x18>
10006d3e:	b933      	cbnz	r3, 10006d4e <is_gpio_compatible+0x1c>
10006d40:	f011 0f04 	tst.w	r1, #4
10006d44:	d005      	beq.n	10006d52 <is_gpio_compatible+0x20>
10006d46:	2000      	movs	r0, #0
10006d48:	4770      	bx	lr
10006d4a:	2000      	movs	r0, #0
10006d4c:	4770      	bx	lr
10006d4e:	2001      	movs	r0, #1
10006d50:	4770      	bx	lr
10006d52:	2001      	movs	r0, #1
10006d54:	4770      	bx	lr

10006d56 <is_program_gpio_compatible>:
10006d56:	b508      	push	{r3, lr}
10006d58:	79c9      	ldrb	r1, [r1, #7]
10006d5a:	f7ff ffea 	bl	10006d32 <is_gpio_compatible>
10006d5e:	bd08      	pop	{r3, pc}

10006d60 <add_program_at_offset_check>:
10006d60:	b570      	push	{r4, r5, r6, lr}
10006d62:	4604      	mov	r4, r0
10006d64:	460d      	mov	r5, r1
10006d66:	4616      	mov	r6, r2
10006d68:	f7ff fff5 	bl	10006d56 <is_program_gpio_compatible>
10006d6c:	b1d0      	cbz	r0, 10006da4 <add_program_at_offset_check+0x44>
10006d6e:	f995 3005 	ldrsb.w	r3, [r5, #5]
10006d72:	2b00      	cmp	r3, #0
10006d74:	db01      	blt.n	10006d7a <add_program_at_offset_check+0x1a>
10006d76:	42b3      	cmp	r3, r6
10006d78:	d117      	bne.n	10006daa <add_program_at_offset_check+0x4a>
10006d7a:	f104 402f 	add.w	r0, r4, #2936012800	; 0xaf000000
10006d7e:	f500 0060 	add.w	r0, r0, #14680064	; 0xe00000
10006d82:	0d00      	lsrs	r0, r0, #20
10006d84:	4b0a      	ldr	r3, [pc, #40]	; (10006db0 <add_program_at_offset_check+0x50>)
10006d86:	f853 1020 	ldr.w	r1, [r3, r0, lsl #2]
10006d8a:	792a      	ldrb	r2, [r5, #4]
10006d8c:	2301      	movs	r3, #1
10006d8e:	4093      	lsls	r3, r2
10006d90:	3b01      	subs	r3, #1
10006d92:	fa03 f206 	lsl.w	r2, r3, r6
10006d96:	420a      	tst	r2, r1
10006d98:	d101      	bne.n	10006d9e <add_program_at_offset_check+0x3e>
10006d9a:	2000      	movs	r0, #0
10006d9c:	bd70      	pop	{r4, r5, r6, pc}
10006d9e:	f06f 0008 	mvn.w	r0, #8
10006da2:	e7fb      	b.n	10006d9c <add_program_at_offset_check+0x3c>
10006da4:	f06f 000a 	mvn.w	r0, #10
10006da8:	e7f8      	b.n	10006d9c <add_program_at_offset_check+0x3c>
10006daa:	f06f 000a 	mvn.w	r0, #10
10006dae:	e7f5      	b.n	10006d9c <add_program_at_offset_check+0x3c>
10006db0:	200028dc 	.word	0x200028dc

10006db4 <add_program_at_offset>:
10006db4:	b5f8      	push	{r3, r4, r5, r6, r7, lr}
10006db6:	4606      	mov	r6, r0
10006db8:	460d      	mov	r5, r1
10006dba:	4617      	mov	r7, r2
10006dbc:	f7ff ffd0 	bl	10006d60 <add_program_at_offset_check>
10006dc0:	bb20      	cbnz	r0, 10006e0c <add_program_at_offset+0x58>
10006dc2:	4603      	mov	r3, r0
10006dc4:	e006      	b.n	10006dd4 <add_program_at_offset+0x20>
10006dc6:	eb03 0c07 	add.w	ip, r3, r7
10006dca:	f10c 0c12 	add.w	ip, ip, #18
10006dce:	f846 402c 	str.w	r4, [r6, ip, lsl #2]
10006dd2:	3301      	adds	r3, #1
10006dd4:	7929      	ldrb	r1, [r5, #4]
10006dd6:	4299      	cmp	r1, r3
10006dd8:	d907      	bls.n	10006dea <add_program_at_offset+0x36>
10006dda:	682a      	ldr	r2, [r5, #0]
10006ddc:	f832 4013 	ldrh.w	r4, [r2, r3, lsl #1]
10006de0:	f414 4f60 	tst.w	r4, #57344	; 0xe000
10006de4:	d1ef      	bne.n	10006dc6 <add_program_at_offset+0x12>
10006de6:	443c      	add	r4, r7
10006de8:	e7ed      	b.n	10006dc6 <add_program_at_offset+0x12>
10006dea:	2301      	movs	r3, #1
10006dec:	fa03 f101 	lsl.w	r1, r3, r1
10006df0:	3901      	subs	r1, #1
10006df2:	f106 462f 	add.w	r6, r6, #2936012800	; 0xaf000000
10006df6:	f506 0660 	add.w	r6, r6, #14680064	; 0xe00000
10006dfa:	0d36      	lsrs	r6, r6, #20
10006dfc:	40b9      	lsls	r1, r7
10006dfe:	4a04      	ldr	r2, [pc, #16]	; (10006e10 <add_program_at_offset+0x5c>)
10006e00:	f852 3026 	ldr.w	r3, [r2, r6, lsl #2]
10006e04:	4319      	orrs	r1, r3
10006e06:	f842 1026 	str.w	r1, [r2, r6, lsl #2]
10006e0a:	4638      	mov	r0, r7
10006e0c:	bdf8      	pop	{r3, r4, r5, r6, r7, pc}
10006e0e:	bf00      	nop
10006e10:	200028dc 	.word	0x200028dc

10006e14 <find_offset_for_program>:
10006e14:	b510      	push	{r4, lr}
10006e16:	790a      	ldrb	r2, [r1, #4]
10006e18:	2a20      	cmp	r2, #32
10006e1a:	d819      	bhi.n	10006e50 <find_offset_for_program+0x3c>
10006e1c:	f100 402f 	add.w	r0, r0, #2936012800	; 0xaf000000
10006e20:	f500 0060 	add.w	r0, r0, #14680064	; 0xe00000
10006e24:	0d00      	lsrs	r0, r0, #20
10006e26:	4b15      	ldr	r3, [pc, #84]	; (10006e7c <find_offset_for_program+0x68>)
10006e28:	f853 4020 	ldr.w	r4, [r3, r0, lsl #2]
10006e2c:	2301      	movs	r3, #1
10006e2e:	4093      	lsls	r3, r2
10006e30:	3b01      	subs	r3, #1
10006e32:	f991 1005 	ldrsb.w	r1, [r1, #5]
10006e36:	2900      	cmp	r1, #0
10006e38:	db10      	blt.n	10006e5c <find_offset_for_program+0x48>
10006e3a:	4608      	mov	r0, r1
10006e3c:	f1c2 0220 	rsb	r2, r2, #32
10006e40:	4291      	cmp	r1, r2
10006e42:	dc18      	bgt.n	10006e76 <find_offset_for_program+0x62>
10006e44:	408b      	lsls	r3, r1
10006e46:	4223      	tst	r3, r4
10006e48:	d001      	beq.n	10006e4e <find_offset_for_program+0x3a>
10006e4a:	f04f 30ff 	mov.w	r0, #4294967295
10006e4e:	bd10      	pop	{r4, pc}
10006e50:	4b0b      	ldr	r3, [pc, #44]	; (10006e80 <find_offset_for_program+0x6c>)
10006e52:	4a0c      	ldr	r2, [pc, #48]	; (10006e84 <find_offset_for_program+0x70>)
10006e54:	2143      	movs	r1, #67	; 0x43
10006e56:	480c      	ldr	r0, [pc, #48]	; (10006e88 <find_offset_for_program+0x74>)
10006e58:	f7fc f9c8 	bl	100031ec <__assert_func>
10006e5c:	f1c2 0020 	rsb	r0, r2, #32
10006e60:	2800      	cmp	r0, #0
10006e62:	db05      	blt.n	10006e70 <find_offset_for_program+0x5c>
10006e64:	fa03 f200 	lsl.w	r2, r3, r0
10006e68:	4222      	tst	r2, r4
10006e6a:	d0f0      	beq.n	10006e4e <find_offset_for_program+0x3a>
10006e6c:	3801      	subs	r0, #1
10006e6e:	e7f7      	b.n	10006e60 <find_offset_for_program+0x4c>
10006e70:	f06f 0008 	mvn.w	r0, #8
10006e74:	e7eb      	b.n	10006e4e <find_offset_for_program+0x3a>
10006e76:	f04f 30ff 	mov.w	r0, #4294967295
10006e7a:	e7e8      	b.n	10006e4e <find_offset_for_program+0x3a>
10006e7c:	200028dc 	.word	0x200028dc
10006e80:	10008f08 	.word	0x10008f08
10006e84:	10008fcc 	.word	0x10008fcc
10006e88:	10008f34 	.word	0x10008f34

10006e8c <pio_sm_claim>:
10006e8c:	b508      	push	{r3, lr}
10006e8e:	f100 402f 	add.w	r0, r0, #2936012800	; 0xaf000000
10006e92:	f500 0060 	add.w	r0, r0, #14680064	; 0xe00000
10006e96:	0d00      	lsrs	r0, r0, #20
10006e98:	2802      	cmp	r0, #2
10006e9a:	d00a      	beq.n	10006eb2 <pio_sm_claim+0x26>
10006e9c:	2801      	cmp	r0, #1
10006e9e:	d006      	beq.n	10006eae <pio_sm_claim+0x22>
10006ea0:	4a05      	ldr	r2, [pc, #20]	; (10006eb8 <pio_sm_claim+0x2c>)
10006ea2:	eb01 0180 	add.w	r1, r1, r0, lsl #2
10006ea6:	4805      	ldr	r0, [pc, #20]	; (10006ebc <pio_sm_claim+0x30>)
10006ea8:	f7f9 ff5a 	bl	10000d60 <hw_claim_or_assert>
10006eac:	bd08      	pop	{r3, pc}
10006eae:	4a04      	ldr	r2, [pc, #16]	; (10006ec0 <pio_sm_claim+0x34>)
10006eb0:	e7f7      	b.n	10006ea2 <pio_sm_claim+0x16>
10006eb2:	4a04      	ldr	r2, [pc, #16]	; (10006ec4 <pio_sm_claim+0x38>)
10006eb4:	e7f5      	b.n	10006ea2 <pio_sm_claim+0x16>
10006eb6:	bf00      	nop
10006eb8:	10008f68 	.word	0x10008f68
10006ebc:	20002bcc 	.word	0x20002bcc
10006ec0:	10008fa8 	.word	0x10008fa8
10006ec4:	10008f84 	.word	0x10008f84

10006ec8 <pio_claim_sm_mask>:
10006ec8:	b570      	push	{r4, r5, r6, lr}
10006eca:	4606      	mov	r6, r0
10006ecc:	460c      	mov	r4, r1
10006ece:	2500      	movs	r5, #0
10006ed0:	e001      	b.n	10006ed6 <pio_claim_sm_mask+0xe>
10006ed2:	3501      	adds	r5, #1
10006ed4:	0864      	lsrs	r4, r4, #1
10006ed6:	b13c      	cbz	r4, 10006ee8 <pio_claim_sm_mask+0x20>
10006ed8:	f014 0f01 	tst.w	r4, #1
10006edc:	d0f9      	beq.n	10006ed2 <pio_claim_sm_mask+0xa>
10006ede:	4629      	mov	r1, r5
10006ee0:	4630      	mov	r0, r6
10006ee2:	f7ff ffd3 	bl	10006e8c <pio_sm_claim>
10006ee6:	e7f4      	b.n	10006ed2 <pio_claim_sm_mask+0xa>
10006ee8:	bd70      	pop	{r4, r5, r6, pc}

10006eea <pio_add_program>:
10006eea:	b5f8      	push	{r3, r4, r5, r6, r7, lr}
10006eec:	4605      	mov	r5, r0
10006eee:	460e      	mov	r6, r1
10006ef0:	f7f9 ff1a 	bl	10000d28 <hw_claim_lock>
10006ef4:	4607      	mov	r7, r0
10006ef6:	4631      	mov	r1, r6
10006ef8:	4628      	mov	r0, r5
10006efa:	f7ff ff8b 	bl	10006e14 <find_offset_for_program>
10006efe:	1e04      	subs	r4, r0, #0
10006f00:	da04      	bge.n	10006f0c <pio_add_program+0x22>
10006f02:	4638      	mov	r0, r7
10006f04:	f7f9 ff22 	bl	10000d4c <hw_claim_unlock>
10006f08:	4620      	mov	r0, r4
10006f0a:	bdf8      	pop	{r3, r4, r5, r6, r7, pc}
10006f0c:	4622      	mov	r2, r4
10006f0e:	4631      	mov	r1, r6
10006f10:	4628      	mov	r0, r5
10006f12:	f7ff ff4f 	bl	10006db4 <add_program_at_offset>
10006f16:	4604      	mov	r4, r0
10006f18:	e7f3      	b.n	10006f02 <pio_add_program+0x18>

10006f1a <pio_sm_set_consecutive_pindirs>:
10006f1a:	b5f0      	push	{r4, r5, r6, r7, lr}
10006f1c:	f89d 7014 	ldrb.w	r7, [sp, #20]
10006f20:	f8d0 4168 	ldr.w	r4, [r0, #360]	; 0x168
10006f24:	1b12      	subs	r2, r2, r4
10006f26:	2a1f      	cmp	r2, #31
10006f28:	d843      	bhi.n	10006fb2 <pio_sm_set_consecutive_pindirs+0x98>
10006f2a:	eb01 0441 	add.w	r4, r1, r1, lsl #1
10006f2e:	eb00 04c4 	add.w	r4, r0, r4, lsl #3
10006f32:	f8d4 60dc 	ldr.w	r6, [r4, #220]	; 0xdc
10006f36:	f8d4 50cc 	ldr.w	r5, [r4, #204]	; 0xcc
10006f3a:	eb01 0441 	add.w	r4, r1, r1, lsl #1
10006f3e:	00e4      	lsls	r4, r4, #3
10006f40:	34c8      	adds	r4, #200	; 0xc8
10006f42:	4404      	add	r4, r0
10006f44:	f504 5440 	add.w	r4, r4, #12288	; 0x3000
10006f48:	f44f 3c00 	mov.w	ip, #131072	; 0x20000
10006f4c:	f8c4 c004 	str.w	ip, [r4, #4]
10006f50:	b117      	cbz	r7, 10006f58 <pio_sm_set_consecutive_pindirs+0x3e>
10006f52:	f04f 0e1f 	mov.w	lr, #31
10006f56:	e015      	b.n	10006f84 <pio_sm_set_consecutive_pindirs+0x6a>
10006f58:	f04f 0e00 	mov.w	lr, #0
10006f5c:	e012      	b.n	10006f84 <pio_sm_set_consecutive_pindirs+0x6a>
10006f5e:	0154      	lsls	r4, r2, #5
10006f60:	f044 54a0 	orr.w	r4, r4, #335544320	; 0x14000000
10006f64:	eb01 0c41 	add.w	ip, r1, r1, lsl #1
10006f68:	eb00 0ccc 	add.w	ip, r0, ip, lsl #3
10006f6c:	f8cc 40dc 	str.w	r4, [ip, #220]	; 0xdc
10006f70:	f44e 4460 	orr.w	r4, lr, #57344	; 0xe000
10006f74:	f044 0480 	orr.w	r4, r4, #128	; 0x80
10006f78:	f8cc 40d8 	str.w	r4, [ip, #216]	; 0xd8
10006f7c:	3b05      	subs	r3, #5
10006f7e:	3205      	adds	r2, #5
10006f80:	f002 021f 	and.w	r2, r2, #31
10006f84:	2b05      	cmp	r3, #5
10006f86:	d8ea      	bhi.n	10006f5e <pio_sm_set_consecutive_pindirs+0x44>
10006f88:	0152      	lsls	r2, r2, #5
10006f8a:	ea42 6283 	orr.w	r2, r2, r3, lsl #26
10006f8e:	eb01 0441 	add.w	r4, r1, r1, lsl #1
10006f92:	eb00 04c4 	add.w	r4, r0, r4, lsl #3
10006f96:	f8c4 20dc 	str.w	r2, [r4, #220]	; 0xdc
10006f9a:	f44e 4360 	orr.w	r3, lr, #57344	; 0xe000
10006f9e:	f043 0380 	orr.w	r3, r3, #128	; 0x80
10006fa2:	f8c4 30d8 	str.w	r3, [r4, #216]	; 0xd8
10006fa6:	f8c4 60dc 	str.w	r6, [r4, #220]	; 0xdc
10006faa:	f8c4 50cc 	str.w	r5, [r4, #204]	; 0xcc
10006fae:	2000      	movs	r0, #0
10006fb0:	bdf0      	pop	{r4, r5, r6, r7, pc}
10006fb2:	f06f 0004 	mvn.w	r0, #4
10006fb6:	e7fb      	b.n	10006fb0 <pio_sm_set_consecutive_pindirs+0x96>

10006fb8 <pio_sm_init>:
10006fb8:	b530      	push	{r4, r5, lr}
10006fba:	b089      	sub	sp, #36	; 0x24
10006fbc:	4686      	mov	lr, r0
10006fbe:	468c      	mov	ip, r1
10006fc0:	4614      	mov	r4, r2
10006fc2:	6802      	ldr	r2, [r0, #0]
10006fc4:	2101      	movs	r1, #1
10006fc6:	fa01 f10c 	lsl.w	r1, r1, ip
10006fca:	ea22 0201 	bic.w	r2, r2, r1
10006fce:	6002      	str	r2, [r0, #0]
10006fd0:	2b00      	cmp	r3, #0
10006fd2:	d038      	beq.n	10007046 <pio_sm_init+0x8e>
10006fd4:	461a      	mov	r2, r3
10006fd6:	6819      	ldr	r1, [r3, #0]
10006fd8:	eb0c 034c 	add.w	r3, ip, ip, lsl #1
10006fdc:	eb00 03c3 	add.w	r3, r0, r3, lsl #3
10006fe0:	f8c3 10c8 	str.w	r1, [r3, #200]	; 0xc8
10006fe4:	6891      	ldr	r1, [r2, #8]
10006fe6:	f8c3 10d0 	str.w	r1, [r3, #208]	; 0xd0
10006fea:	6851      	ldr	r1, [r2, #4]
10006fec:	f8c3 10cc 	str.w	r1, [r3, #204]	; 0xcc
10006ff0:	68d2      	ldr	r2, [r2, #12]
10006ff2:	f8c3 20dc 	str.w	r2, [r3, #220]	; 0xdc
10006ff6:	eb0c 034c 	add.w	r3, ip, ip, lsl #1
10006ffa:	00db      	lsls	r3, r3, #3
10006ffc:	33d0      	adds	r3, #208	; 0xd0
10006ffe:	4473      	add	r3, lr
10007000:	f503 5380 	add.w	r3, r3, #4096	; 0x1000
10007004:	f04f 4200 	mov.w	r2, #2147483648	; 0x80000000
10007008:	601a      	str	r2, [r3, #0]
1000700a:	601a      	str	r2, [r3, #0]
1000700c:	f04f 3301 	mov.w	r3, #16843009	; 0x1010101
10007010:	fa03 f30c 	lsl.w	r3, r3, ip
10007014:	f8ce 3008 	str.w	r3, [lr, #8]
10007018:	f10c 0204 	add.w	r2, ip, #4
1000701c:	2301      	movs	r3, #1
1000701e:	fa03 f202 	lsl.w	r2, r3, r2
10007022:	f50e 5100 	add.w	r1, lr, #8192	; 0x2000
10007026:	600a      	str	r2, [r1, #0]
10007028:	f10c 0208 	add.w	r2, ip, #8
1000702c:	4093      	lsls	r3, r2
1000702e:	600b      	str	r3, [r1, #0]
10007030:	f004 041f 	and.w	r4, r4, #31
10007034:	eb0c 0c4c 	add.w	ip, ip, ip, lsl #1
10007038:	eb0e 0ccc 	add.w	ip, lr, ip, lsl #3
1000703c:	f8cc 40d8 	str.w	r4, [ip, #216]	; 0xd8
10007040:	2000      	movs	r0, #0
10007042:	b009      	add	sp, #36	; 0x24
10007044:	bd30      	pop	{r4, r5, pc}
10007046:	ab04      	add	r3, sp, #16
10007048:	2200      	movs	r2, #0
1000704a:	9204      	str	r2, [sp, #16]
1000704c:	9205      	str	r2, [sp, #20]
1000704e:	9206      	str	r2, [sp, #24]
10007050:	9207      	str	r2, [sp, #28]
10007052:	f44f 3280 	mov.w	r2, #65536	; 0x10000
10007056:	9204      	str	r2, [sp, #16]
10007058:	f44f 32f8 	mov.w	r2, #126976	; 0x1f000
1000705c:	9205      	str	r2, [sp, #20]
1000705e:	f44f 2280 	mov.w	r2, #262144	; 0x40000
10007062:	9206      	str	r2, [sp, #24]
10007064:	f44f 2240 	mov.w	r2, #786432	; 0xc0000
10007068:	9206      	str	r2, [sp, #24]
1000706a:	466d      	mov	r5, sp
1000706c:	cb0f      	ldmia	r3, {r0, r1, r2, r3}
1000706e:	e885 000f 	stmia.w	r5, {r0, r1, r2, r3}
10007072:	eb0c 034c 	add.w	r3, ip, ip, lsl #1
10007076:	eb0e 03c3 	add.w	r3, lr, r3, lsl #3
1000707a:	f8c3 00c8 	str.w	r0, [r3, #200]	; 0xc8
1000707e:	f44f 2240 	mov.w	r2, #786432	; 0xc0000
10007082:	f8c3 20d0 	str.w	r2, [r3, #208]	; 0xd0
10007086:	f8c3 10cc 	str.w	r1, [r3, #204]	; 0xcc
1000708a:	2200      	movs	r2, #0
1000708c:	f8c3 20dc 	str.w	r2, [r3, #220]	; 0xdc
10007090:	e7b1      	b.n	10006ff6 <pio_sm_init+0x3e>
	...

10007094 <calloc>:
10007094:	4b02      	ldr	r3, [pc, #8]	; (100070a0 <calloc+0xc>)
10007096:	460a      	mov	r2, r1
10007098:	4601      	mov	r1, r0
1000709a:	6818      	ldr	r0, [r3, #0]
1000709c:	f000 b802 	b.w	100070a4 <_calloc_r>
100070a0:	20001ba8 	.word	0x20001ba8

100070a4 <_calloc_r>:
100070a4:	b538      	push	{r3, r4, r5, lr}
100070a6:	fba1 1402 	umull	r1, r4, r1, r2
100070aa:	bb5c      	cbnz	r4, 10007104 <_calloc_r+0x60>
100070ac:	f000 f836 	bl	1000711c <_malloc_r>
100070b0:	4605      	mov	r5, r0
100070b2:	b1c0      	cbz	r0, 100070e6 <_calloc_r+0x42>
100070b4:	f850 2c04 	ldr.w	r2, [r0, #-4]
100070b8:	f022 0203 	bic.w	r2, r2, #3
100070bc:	3a04      	subs	r2, #4
100070be:	2a24      	cmp	r2, #36	; 0x24
100070c0:	d813      	bhi.n	100070ea <_calloc_r+0x46>
100070c2:	2a13      	cmp	r2, #19
100070c4:	d90a      	bls.n	100070dc <_calloc_r+0x38>
100070c6:	2a1b      	cmp	r2, #27
100070c8:	e9c0 4400 	strd	r4, r4, [r0]
100070cc:	d912      	bls.n	100070f4 <_calloc_r+0x50>
100070ce:	2a24      	cmp	r2, #36	; 0x24
100070d0:	e9c0 4402 	strd	r4, r4, [r0, #8]
100070d4:	d011      	beq.n	100070fa <_calloc_r+0x56>
100070d6:	f100 0210 	add.w	r2, r0, #16
100070da:	e000      	b.n	100070de <_calloc_r+0x3a>
100070dc:	4602      	mov	r2, r0
100070de:	2300      	movs	r3, #0
100070e0:	e9c2 3300 	strd	r3, r3, [r2]
100070e4:	6093      	str	r3, [r2, #8]
100070e6:	4628      	mov	r0, r5
100070e8:	bd38      	pop	{r3, r4, r5, pc}
100070ea:	4621      	mov	r1, r4
100070ec:	f000 fb46 	bl	1000777c <memset>
100070f0:	4628      	mov	r0, r5
100070f2:	bd38      	pop	{r3, r4, r5, pc}
100070f4:	f100 0208 	add.w	r2, r0, #8
100070f8:	e7f1      	b.n	100070de <_calloc_r+0x3a>
100070fa:	f100 0218 	add.w	r2, r0, #24
100070fe:	e9c0 4404 	strd	r4, r4, [r0, #16]
10007102:	e7ec      	b.n	100070de <_calloc_r+0x3a>
10007104:	f000 f804 	bl	10007110 <__errno>
10007108:	230c      	movs	r3, #12
1000710a:	2500      	movs	r5, #0
1000710c:	6003      	str	r3, [r0, #0]
1000710e:	e7ea      	b.n	100070e6 <_calloc_r+0x42>

10007110 <__errno>:
10007110:	4b01      	ldr	r3, [pc, #4]	; (10007118 <__errno+0x8>)
10007112:	6818      	ldr	r0, [r3, #0]
10007114:	4770      	bx	lr
10007116:	bf00      	nop
10007118:	20001ba8 	.word	0x20001ba8

1000711c <_malloc_r>:
1000711c:	f101 030b 	add.w	r3, r1, #11
10007120:	2b16      	cmp	r3, #22
10007122:	e92d 4ff0 	stmdb	sp!, {r4, r5, r6, r7, r8, r9, sl, fp, lr}
10007126:	4605      	mov	r5, r0
10007128:	b083      	sub	sp, #12
1000712a:	d824      	bhi.n	10007176 <_malloc_r+0x5a>
1000712c:	2910      	cmp	r1, #16
1000712e:	f200 80f5 	bhi.w	1000731c <_malloc_r+0x200>
10007132:	f000 fb75 	bl	10007820 <__malloc_lock>
10007136:	2410      	movs	r4, #16
10007138:	2218      	movs	r2, #24
1000713a:	2002      	movs	r0, #2
1000713c:	4ec0      	ldr	r6, [pc, #768]	; (10007440 <_malloc_r+0x324>)
1000713e:	4432      	add	r2, r6
10007140:	6853      	ldr	r3, [r2, #4]
10007142:	f1a2 0108 	sub.w	r1, r2, #8
10007146:	428b      	cmp	r3, r1
10007148:	f000 80ef 	beq.w	1000732a <_malloc_r+0x20e>
1000714c:	685a      	ldr	r2, [r3, #4]
1000714e:	4628      	mov	r0, r5
10007150:	f022 0203 	bic.w	r2, r2, #3
10007154:	e9d3 4102 	ldrd	r4, r1, [r3, #8]
10007158:	441a      	add	r2, r3
1000715a:	60e1      	str	r1, [r4, #12]
1000715c:	608c      	str	r4, [r1, #8]
1000715e:	f103 0408 	add.w	r4, r3, #8
10007162:	6853      	ldr	r3, [r2, #4]
10007164:	f043 0301 	orr.w	r3, r3, #1
10007168:	6053      	str	r3, [r2, #4]
1000716a:	f000 fb5f 	bl	1000782c <__malloc_unlock>
1000716e:	4620      	mov	r0, r4
10007170:	b003      	add	sp, #12
10007172:	e8bd 8ff0 	ldmia.w	sp!, {r4, r5, r6, r7, r8, r9, sl, fp, pc}
10007176:	2b00      	cmp	r3, #0
10007178:	f023 0407 	bic.w	r4, r3, #7
1000717c:	f2c0 80ce 	blt.w	1000731c <_malloc_r+0x200>
10007180:	42a1      	cmp	r1, r4
10007182:	f200 80cb 	bhi.w	1000731c <_malloc_r+0x200>
10007186:	f000 fb4b 	bl	10007820 <__malloc_lock>
1000718a:	f5b4 7ffc 	cmp.w	r4, #504	; 0x1f8
1000718e:	f0c0 81c2 	bcc.w	10007516 <_malloc_r+0x3fa>
10007192:	0a63      	lsrs	r3, r4, #9
10007194:	f000 8133 	beq.w	100073fe <_malloc_r+0x2e2>
10007198:	2b04      	cmp	r3, #4
1000719a:	f200 8198 	bhi.w	100074ce <_malloc_r+0x3b2>
1000719e:	09a3      	lsrs	r3, r4, #6
100071a0:	f103 0039 	add.w	r0, r3, #57	; 0x39
100071a4:	f103 0738 	add.w	r7, r3, #56	; 0x38
100071a8:	00c3      	lsls	r3, r0, #3
100071aa:	4ea5      	ldr	r6, [pc, #660]	; (10007440 <_malloc_r+0x324>)
100071ac:	4433      	add	r3, r6
100071ae:	f1a3 0c08 	sub.w	ip, r3, #8
100071b2:	685b      	ldr	r3, [r3, #4]
100071b4:	459c      	cmp	ip, r3
100071b6:	d107      	bne.n	100071c8 <_malloc_r+0xac>
100071b8:	e0bc      	b.n	10007334 <_malloc_r+0x218>
100071ba:	2900      	cmp	r1, #0
100071bc:	f280 8150 	bge.w	10007460 <_malloc_r+0x344>
100071c0:	68db      	ldr	r3, [r3, #12]
100071c2:	459c      	cmp	ip, r3
100071c4:	f000 80b6 	beq.w	10007334 <_malloc_r+0x218>
100071c8:	685a      	ldr	r2, [r3, #4]
100071ca:	f022 0203 	bic.w	r2, r2, #3
100071ce:	1b11      	subs	r1, r2, r4
100071d0:	290f      	cmp	r1, #15
100071d2:	ddf2      	ble.n	100071ba <_malloc_r+0x9e>
100071d4:	6933      	ldr	r3, [r6, #16]
100071d6:	4638      	mov	r0, r7
100071d8:	f8df e27c 	ldr.w	lr, [pc, #636]	; 10007458 <_malloc_r+0x33c>
100071dc:	4573      	cmp	r3, lr
100071de:	f040 80af 	bne.w	10007340 <_malloc_r+0x224>
100071e2:	1083      	asrs	r3, r0, #2
100071e4:	2101      	movs	r1, #1
100071e6:	6872      	ldr	r2, [r6, #4]
100071e8:	4099      	lsls	r1, r3
100071ea:	4291      	cmp	r1, r2
100071ec:	f240 80d1 	bls.w	10007392 <_malloc_r+0x276>
100071f0:	68b7      	ldr	r7, [r6, #8]
100071f2:	687b      	ldr	r3, [r7, #4]
100071f4:	f023 0903 	bic.w	r9, r3, #3
100071f8:	eba9 0304 	sub.w	r3, r9, r4
100071fc:	2b0f      	cmp	r3, #15
100071fe:	dd02      	ble.n	10007206 <_malloc_r+0xea>
10007200:	454c      	cmp	r4, r9
10007202:	f240 810c 	bls.w	1000741e <_malloc_r+0x302>
10007206:	4b8f      	ldr	r3, [pc, #572]	; (10007444 <_malloc_r+0x328>)
10007208:	eb07 0b09 	add.w	fp, r7, r9
1000720c:	681b      	ldr	r3, [r3, #0]
1000720e:	eb04 0803 	add.w	r8, r4, r3
10007212:	4b8d      	ldr	r3, [pc, #564]	; (10007448 <_malloc_r+0x32c>)
10007214:	681a      	ldr	r2, [r3, #0]
10007216:	3201      	adds	r2, #1
10007218:	f000 81cb 	beq.w	100075b2 <_malloc_r+0x496>
1000721c:	f241 020f 	movw	r2, #4111	; 0x100f
10007220:	4442      	add	r2, r8
10007222:	f8df 8238 	ldr.w	r8, [pc, #568]	; 1000745c <_malloc_r+0x340>
10007226:	ea02 0808 	and.w	r8, r2, r8
1000722a:	4641      	mov	r1, r8
1000722c:	4628      	mov	r0, r5
1000722e:	f000 fb03 	bl	10007838 <_sbrk_r>
10007232:	f1b0 3fff 	cmp.w	r0, #4294967295
10007236:	4682      	mov	sl, r0
10007238:	4b83      	ldr	r3, [pc, #524]	; (10007448 <_malloc_r+0x32c>)
1000723a:	f000 81a9 	beq.w	10007590 <_malloc_r+0x474>
1000723e:	42b7      	cmp	r7, r6
10007240:	d002      	beq.n	10007248 <_malloc_r+0x12c>
10007242:	4583      	cmp	fp, r0
10007244:	f200 81a4 	bhi.w	10007590 <_malloc_r+0x474>
10007248:	4a80      	ldr	r2, [pc, #512]	; (1000744c <_malloc_r+0x330>)
1000724a:	45d3      	cmp	fp, sl
1000724c:	6811      	ldr	r1, [r2, #0]
1000724e:	4441      	add	r1, r8
10007250:	6011      	str	r1, [r2, #0]
10007252:	f000 81a0 	beq.w	10007596 <_malloc_r+0x47a>
10007256:	6818      	ldr	r0, [r3, #0]
10007258:	3001      	adds	r0, #1
1000725a:	f000 81a7 	beq.w	100075ac <_malloc_r+0x490>
1000725e:	ebaa 0b0b 	sub.w	fp, sl, fp
10007262:	4459      	add	r1, fp
10007264:	6011      	str	r1, [r2, #0]
10007266:	f01a 0307 	ands.w	r3, sl, #7
1000726a:	f000 81ac 	beq.w	100075c6 <_malloc_r+0x4aa>
1000726e:	f1c3 0108 	rsb	r1, r3, #8
10007272:	4628      	mov	r0, r5
10007274:	9301      	str	r3, [sp, #4]
10007276:	448a      	add	sl, r1
10007278:	f241 0108 	movw	r1, #4104	; 0x1008
1000727c:	44d0      	add	r8, sl
1000727e:	1ac9      	subs	r1, r1, r3
10007280:	eba1 0108 	sub.w	r1, r1, r8
10007284:	f3c1 0b0b 	ubfx	fp, r1, #0, #12
10007288:	4659      	mov	r1, fp
1000728a:	f000 fad5 	bl	10007838 <_sbrk_r>
1000728e:	1c42      	adds	r2, r0, #1
10007290:	9b01      	ldr	r3, [sp, #4]
10007292:	4a6e      	ldr	r2, [pc, #440]	; (1000744c <_malloc_r+0x330>)
10007294:	f000 81de 	beq.w	10007654 <_malloc_r+0x538>
10007298:	eba0 000a 	sub.w	r0, r0, sl
1000729c:	eb00 080b 	add.w	r8, r0, fp
100072a0:	6810      	ldr	r0, [r2, #0]
100072a2:	f048 0301 	orr.w	r3, r8, #1
100072a6:	42b7      	cmp	r7, r6
100072a8:	f8c6 a008 	str.w	sl, [r6, #8]
100072ac:	eb0b 0100 	add.w	r1, fp, r0
100072b0:	f8ca 3004 	str.w	r3, [sl, #4]
100072b4:	6011      	str	r1, [r2, #0]
100072b6:	f000 81a9 	beq.w	1000760c <_malloc_r+0x4f0>
100072ba:	f1b9 0f0f 	cmp.w	r9, #15
100072be:	f240 81a7 	bls.w	10007610 <_malloc_r+0x4f4>
100072c2:	687b      	ldr	r3, [r7, #4]
100072c4:	f1a9 000c 	sub.w	r0, r9, #12
100072c8:	f04f 0c05 	mov.w	ip, #5
100072cc:	f020 0007 	bic.w	r0, r0, #7
100072d0:	f003 0301 	and.w	r3, r3, #1
100072d4:	4303      	orrs	r3, r0
100072d6:	280f      	cmp	r0, #15
100072d8:	607b      	str	r3, [r7, #4]
100072da:	eb07 0300 	add.w	r3, r7, r0
100072de:	e9c3 cc01 	strd	ip, ip, [r3, #4]
100072e2:	f200 81ad 	bhi.w	10007640 <_malloc_r+0x524>
100072e6:	f8da 3004 	ldr.w	r3, [sl, #4]
100072ea:	4657      	mov	r7, sl
100072ec:	4a58      	ldr	r2, [pc, #352]	; (10007450 <_malloc_r+0x334>)
100072ee:	6810      	ldr	r0, [r2, #0]
100072f0:	4288      	cmp	r0, r1
100072f2:	bf38      	it	cc
100072f4:	6011      	strcc	r1, [r2, #0]
100072f6:	4a57      	ldr	r2, [pc, #348]	; (10007454 <_malloc_r+0x338>)
100072f8:	6810      	ldr	r0, [r2, #0]
100072fa:	4288      	cmp	r0, r1
100072fc:	bf38      	it	cc
100072fe:	6011      	strcc	r1, [r2, #0]
10007300:	f023 0803 	bic.w	r8, r3, #3
10007304:	4544      	cmp	r4, r8
10007306:	eba8 0304 	sub.w	r3, r8, r4
1000730a:	d802      	bhi.n	10007312 <_malloc_r+0x1f6>
1000730c:	2b0f      	cmp	r3, #15
1000730e:	f300 8086 	bgt.w	1000741e <_malloc_r+0x302>
10007312:	4628      	mov	r0, r5
10007314:	2400      	movs	r4, #0
10007316:	f000 fa89 	bl	1000782c <__malloc_unlock>
1000731a:	e728      	b.n	1000716e <_malloc_r+0x52>
1000731c:	2400      	movs	r4, #0
1000731e:	230c      	movs	r3, #12
10007320:	4620      	mov	r0, r4
10007322:	602b      	str	r3, [r5, #0]
10007324:	b003      	add	sp, #12
10007326:	e8bd 8ff0 	ldmia.w	sp!, {r4, r5, r6, r7, r8, r9, sl, fp, pc}
1000732a:	68d3      	ldr	r3, [r2, #12]
1000732c:	429a      	cmp	r2, r3
1000732e:	f47f af0d 	bne.w	1000714c <_malloc_r+0x30>
10007332:	3002      	adds	r0, #2
10007334:	6933      	ldr	r3, [r6, #16]
10007336:	f8df e120 	ldr.w	lr, [pc, #288]	; 10007458 <_malloc_r+0x33c>
1000733a:	4573      	cmp	r3, lr
1000733c:	f43f af51 	beq.w	100071e2 <_malloc_r+0xc6>
10007340:	6859      	ldr	r1, [r3, #4]
10007342:	f021 0103 	bic.w	r1, r1, #3
10007346:	1b0a      	subs	r2, r1, r4
10007348:	2a0f      	cmp	r2, #15
1000734a:	f300 80e8 	bgt.w	1000751e <_malloc_r+0x402>
1000734e:	2a00      	cmp	r2, #0
10007350:	e9c6 ee04 	strd	lr, lr, [r6, #16]
10007354:	da58      	bge.n	10007408 <_malloc_r+0x2ec>
10007356:	f5b1 7f00 	cmp.w	r1, #512	; 0x200
1000735a:	f080 8093 	bcs.w	10007484 <_malloc_r+0x368>
1000735e:	ea4f 0cd1 	mov.w	ip, r1, lsr #3
10007362:	2201      	movs	r2, #1
10007364:	0949      	lsrs	r1, r1, #5
10007366:	f10c 0c01 	add.w	ip, ip, #1
1000736a:	408a      	lsls	r2, r1
1000736c:	6871      	ldr	r1, [r6, #4]
1000736e:	f856 703c 	ldr.w	r7, [r6, ip, lsl #3]
10007372:	430a      	orrs	r2, r1
10007374:	eb06 01cc 	add.w	r1, r6, ip, lsl #3
10007378:	3908      	subs	r1, #8
1000737a:	6072      	str	r2, [r6, #4]
1000737c:	e9c3 7102 	strd	r7, r1, [r3, #8]
10007380:	f846 303c 	str.w	r3, [r6, ip, lsl #3]
10007384:	60fb      	str	r3, [r7, #12]
10007386:	1083      	asrs	r3, r0, #2
10007388:	2101      	movs	r1, #1
1000738a:	4099      	lsls	r1, r3
1000738c:	4291      	cmp	r1, r2
1000738e:	f63f af2f 	bhi.w	100071f0 <_malloc_r+0xd4>
10007392:	4211      	tst	r1, r2
10007394:	d105      	bne.n	100073a2 <_malloc_r+0x286>
10007396:	f020 0003 	bic.w	r0, r0, #3
1000739a:	0049      	lsls	r1, r1, #1
1000739c:	3004      	adds	r0, #4
1000739e:	4211      	tst	r1, r2
100073a0:	d0fb      	beq.n	1000739a <_malloc_r+0x27e>
100073a2:	eb06 09c0 	add.w	r9, r6, r0, lsl #3
100073a6:	4680      	mov	r8, r0
100073a8:	46cc      	mov	ip, r9
100073aa:	f8dc 700c 	ldr.w	r7, [ip, #12]
100073ae:	45bc      	cmp	ip, r7
100073b0:	d107      	bne.n	100073c2 <_malloc_r+0x2a6>
100073b2:	e098      	b.n	100074e6 <_malloc_r+0x3ca>
100073b4:	2b00      	cmp	r3, #0
100073b6:	f280 809f 	bge.w	100074f8 <_malloc_r+0x3dc>
100073ba:	68ff      	ldr	r7, [r7, #12]
100073bc:	45bc      	cmp	ip, r7
100073be:	f000 8092 	beq.w	100074e6 <_malloc_r+0x3ca>
100073c2:	687a      	ldr	r2, [r7, #4]
100073c4:	f022 0203 	bic.w	r2, r2, #3
100073c8:	1b13      	subs	r3, r2, r4
100073ca:	2b0f      	cmp	r3, #15
100073cc:	ddf2      	ble.n	100073b4 <_malloc_r+0x298>
100073ce:	1939      	adds	r1, r7, r4
100073d0:	f044 0401 	orr.w	r4, r4, #1
100073d4:	4628      	mov	r0, r5
100073d6:	607c      	str	r4, [r7, #4]
100073d8:	f043 0401 	orr.w	r4, r3, #1
100073dc:	e9d7 c502 	ldrd	ip, r5, [r7, #8]
100073e0:	f8cc 500c 	str.w	r5, [ip, #12]
100073e4:	f8c5 c008 	str.w	ip, [r5, #8]
100073e8:	e9c6 1104 	strd	r1, r1, [r6, #16]
100073ec:	604c      	str	r4, [r1, #4]
100073ee:	f107 0408 	add.w	r4, r7, #8
100073f2:	e9c1 ee02 	strd	lr, lr, [r1, #8]
100073f6:	50bb      	str	r3, [r7, r2]
100073f8:	f000 fa18 	bl	1000782c <__malloc_unlock>
100073fc:	e6b7      	b.n	1000716e <_malloc_r+0x52>
100073fe:	f44f 7300 	mov.w	r3, #512	; 0x200
10007402:	2040      	movs	r0, #64	; 0x40
10007404:	273f      	movs	r7, #63	; 0x3f
10007406:	e6d0      	b.n	100071aa <_malloc_r+0x8e>
10007408:	4419      	add	r1, r3
1000740a:	f103 0408 	add.w	r4, r3, #8
1000740e:	4628      	mov	r0, r5
10007410:	684b      	ldr	r3, [r1, #4]
10007412:	f043 0301 	orr.w	r3, r3, #1
10007416:	604b      	str	r3, [r1, #4]
10007418:	f000 fa08 	bl	1000782c <__malloc_unlock>
1000741c:	e6a7      	b.n	1000716e <_malloc_r+0x52>
1000741e:	193a      	adds	r2, r7, r4
10007420:	f044 0401 	orr.w	r4, r4, #1
10007424:	f043 0301 	orr.w	r3, r3, #1
10007428:	4628      	mov	r0, r5
1000742a:	607c      	str	r4, [r7, #4]
1000742c:	f107 0408 	add.w	r4, r7, #8
10007430:	60b2      	str	r2, [r6, #8]
10007432:	6053      	str	r3, [r2, #4]
10007434:	f000 f9fa 	bl	1000782c <__malloc_unlock>
10007438:	4620      	mov	r0, r4
1000743a:	b003      	add	sp, #12
1000743c:	e8bd 8ff0 	ldmia.w	sp!, {r4, r5, r6, r7, r8, r9, sl, fp, pc}
10007440:	20001fd8 	.word	0x20001fd8
10007444:	200025d0 	.word	0x200025d0
10007448:	200023e0 	.word	0x200023e0
1000744c:	200025a0 	.word	0x200025a0
10007450:	200025c8 	.word	0x200025c8
10007454:	200025cc 	.word	0x200025cc
10007458:	20001fe0 	.word	0x20001fe0
1000745c:	fffff000 	.word	0xfffff000
10007460:	441a      	add	r2, r3
10007462:	f103 0408 	add.w	r4, r3, #8
10007466:	4628      	mov	r0, r5
10007468:	e9d3 6102 	ldrd	r6, r1, [r3, #8]
1000746c:	6853      	ldr	r3, [r2, #4]
1000746e:	60f1      	str	r1, [r6, #12]
10007470:	f043 0301 	orr.w	r3, r3, #1
10007474:	608e      	str	r6, [r1, #8]
10007476:	6053      	str	r3, [r2, #4]
10007478:	f000 f9d8 	bl	1000782c <__malloc_unlock>
1000747c:	4620      	mov	r0, r4
1000747e:	b003      	add	sp, #12
10007480:	e8bd 8ff0 	ldmia.w	sp!, {r4, r5, r6, r7, r8, r9, sl, fp, pc}
10007484:	f5b1 6f20 	cmp.w	r1, #2560	; 0xa00
10007488:	ea4f 2251 	mov.w	r2, r1, lsr #9
1000748c:	d359      	bcc.n	10007542 <_malloc_r+0x426>
1000748e:	2a14      	cmp	r2, #20
10007490:	f200 80aa 	bhi.w	100075e8 <_malloc_r+0x4cc>
10007494:	f102 075c 	add.w	r7, r2, #92	; 0x5c
10007498:	325b      	adds	r2, #91	; 0x5b
1000749a:	00ff      	lsls	r7, r7, #3
1000749c:	eb06 0c07 	add.w	ip, r6, r7
100074a0:	59f7      	ldr	r7, [r6, r7]
100074a2:	f1ac 0c08 	sub.w	ip, ip, #8
100074a6:	45bc      	cmp	ip, r7
100074a8:	f000 8086 	beq.w	100075b8 <_malloc_r+0x49c>
100074ac:	687a      	ldr	r2, [r7, #4]
100074ae:	f022 0203 	bic.w	r2, r2, #3
100074b2:	428a      	cmp	r2, r1
100074b4:	d902      	bls.n	100074bc <_malloc_r+0x3a0>
100074b6:	68bf      	ldr	r7, [r7, #8]
100074b8:	45bc      	cmp	ip, r7
100074ba:	d1f7      	bne.n	100074ac <_malloc_r+0x390>
100074bc:	f8d7 c00c 	ldr.w	ip, [r7, #12]
100074c0:	6872      	ldr	r2, [r6, #4]
100074c2:	e9c3 7c02 	strd	r7, ip, [r3, #8]
100074c6:	f8cc 3008 	str.w	r3, [ip, #8]
100074ca:	60fb      	str	r3, [r7, #12]
100074cc:	e75b      	b.n	10007386 <_malloc_r+0x26a>
100074ce:	2b14      	cmp	r3, #20
100074d0:	d93d      	bls.n	1000754e <_malloc_r+0x432>
100074d2:	2b54      	cmp	r3, #84	; 0x54
100074d4:	f200 8090 	bhi.w	100075f8 <_malloc_r+0x4dc>
100074d8:	0b23      	lsrs	r3, r4, #12
100074da:	f103 006f 	add.w	r0, r3, #111	; 0x6f
100074de:	f103 076e 	add.w	r7, r3, #110	; 0x6e
100074e2:	00c3      	lsls	r3, r0, #3
100074e4:	e661      	b.n	100071aa <_malloc_r+0x8e>
100074e6:	f108 0801 	add.w	r8, r8, #1
100074ea:	f10c 0c08 	add.w	ip, ip, #8
100074ee:	f018 0f03 	tst.w	r8, #3
100074f2:	f47f af5a 	bne.w	100073aa <_malloc_r+0x28e>
100074f6:	e035      	b.n	10007564 <_malloc_r+0x448>
100074f8:	443a      	add	r2, r7
100074fa:	463c      	mov	r4, r7
100074fc:	68f9      	ldr	r1, [r7, #12]
100074fe:	4628      	mov	r0, r5
10007500:	6853      	ldr	r3, [r2, #4]
10007502:	f043 0301 	orr.w	r3, r3, #1
10007506:	6053      	str	r3, [r2, #4]
10007508:	f854 3f08 	ldr.w	r3, [r4, #8]!
1000750c:	60d9      	str	r1, [r3, #12]
1000750e:	608b      	str	r3, [r1, #8]
10007510:	f000 f98c 	bl	1000782c <__malloc_unlock>
10007514:	e62b      	b.n	1000716e <_malloc_r+0x52>
10007516:	08e0      	lsrs	r0, r4, #3
10007518:	f104 0208 	add.w	r2, r4, #8
1000751c:	e60e      	b.n	1000713c <_malloc_r+0x20>
1000751e:	4628      	mov	r0, r5
10007520:	191d      	adds	r5, r3, r4
10007522:	f044 0401 	orr.w	r4, r4, #1
10007526:	605c      	str	r4, [r3, #4]
10007528:	f042 0401 	orr.w	r4, r2, #1
1000752c:	e9c6 5504 	strd	r5, r5, [r6, #16]
10007530:	606c      	str	r4, [r5, #4]
10007532:	f103 0408 	add.w	r4, r3, #8
10007536:	e9c5 ee02 	strd	lr, lr, [r5, #8]
1000753a:	505a      	str	r2, [r3, r1]
1000753c:	f000 f976 	bl	1000782c <__malloc_unlock>
10007540:	e615      	b.n	1000716e <_malloc_r+0x52>
10007542:	098a      	lsrs	r2, r1, #6
10007544:	f102 0739 	add.w	r7, r2, #57	; 0x39
10007548:	3238      	adds	r2, #56	; 0x38
1000754a:	00ff      	lsls	r7, r7, #3
1000754c:	e7a6      	b.n	1000749c <_malloc_r+0x380>
1000754e:	f103 005c 	add.w	r0, r3, #92	; 0x5c
10007552:	f103 075b 	add.w	r7, r3, #91	; 0x5b
10007556:	00c3      	lsls	r3, r0, #3
10007558:	e627      	b.n	100071aa <_malloc_r+0x8e>
1000755a:	f859 3908 	ldr.w	r3, [r9], #-8
1000755e:	454b      	cmp	r3, r9
10007560:	f040 8092 	bne.w	10007688 <_malloc_r+0x56c>
10007564:	f010 0f03 	tst.w	r0, #3
10007568:	f100 30ff 	add.w	r0, r0, #4294967295
1000756c:	d1f5      	bne.n	1000755a <_malloc_r+0x43e>
1000756e:	6873      	ldr	r3, [r6, #4]
10007570:	ea23 0301 	bic.w	r3, r3, r1
10007574:	6073      	str	r3, [r6, #4]
10007576:	0049      	lsls	r1, r1, #1
10007578:	f43f ae3a 	beq.w	100071f0 <_malloc_r+0xd4>
1000757c:	4299      	cmp	r1, r3
1000757e:	d903      	bls.n	10007588 <_malloc_r+0x46c>
10007580:	e636      	b.n	100071f0 <_malloc_r+0xd4>
10007582:	0049      	lsls	r1, r1, #1
10007584:	f108 0804 	add.w	r8, r8, #4
10007588:	4219      	tst	r1, r3
1000758a:	d0fa      	beq.n	10007582 <_malloc_r+0x466>
1000758c:	4640      	mov	r0, r8
1000758e:	e708      	b.n	100073a2 <_malloc_r+0x286>
10007590:	68b7      	ldr	r7, [r6, #8]
10007592:	687b      	ldr	r3, [r7, #4]
10007594:	e6b4      	b.n	10007300 <_malloc_r+0x1e4>
10007596:	f3cb 000b 	ubfx	r0, fp, #0, #12
1000759a:	2800      	cmp	r0, #0
1000759c:	f47f ae5b 	bne.w	10007256 <_malloc_r+0x13a>
100075a0:	44c8      	add	r8, r9
100075a2:	68b7      	ldr	r7, [r6, #8]
100075a4:	f048 0301 	orr.w	r3, r8, #1
100075a8:	607b      	str	r3, [r7, #4]
100075aa:	e69f      	b.n	100072ec <_malloc_r+0x1d0>
100075ac:	f8c3 a000 	str.w	sl, [r3]
100075b0:	e659      	b.n	10007266 <_malloc_r+0x14a>
100075b2:	f108 0810 	add.w	r8, r8, #16
100075b6:	e638      	b.n	1000722a <_malloc_r+0x10e>
100075b8:	1092      	asrs	r2, r2, #2
100075ba:	2101      	movs	r1, #1
100075bc:	4091      	lsls	r1, r2
100075be:	6872      	ldr	r2, [r6, #4]
100075c0:	430a      	orrs	r2, r1
100075c2:	6072      	str	r2, [r6, #4]
100075c4:	e77d      	b.n	100074c2 <_malloc_r+0x3a6>
100075c6:	eb0a 0108 	add.w	r1, sl, r8
100075ca:	4628      	mov	r0, r5
100075cc:	9301      	str	r3, [sp, #4]
100075ce:	4249      	negs	r1, r1
100075d0:	f3c1 0b0b 	ubfx	fp, r1, #0, #12
100075d4:	4659      	mov	r1, fp
100075d6:	f000 f92f 	bl	10007838 <_sbrk_r>
100075da:	1c43      	adds	r3, r0, #1
100075dc:	4a2b      	ldr	r2, [pc, #172]	; (1000768c <_malloc_r+0x570>)
100075de:	9b01      	ldr	r3, [sp, #4]
100075e0:	f47f ae5a 	bne.w	10007298 <_malloc_r+0x17c>
100075e4:	469b      	mov	fp, r3
100075e6:	e65b      	b.n	100072a0 <_malloc_r+0x184>
100075e8:	2a54      	cmp	r2, #84	; 0x54
100075ea:	d815      	bhi.n	10007618 <_malloc_r+0x4fc>
100075ec:	0b0a      	lsrs	r2, r1, #12
100075ee:	f102 076f 	add.w	r7, r2, #111	; 0x6f
100075f2:	326e      	adds	r2, #110	; 0x6e
100075f4:	00ff      	lsls	r7, r7, #3
100075f6:	e751      	b.n	1000749c <_malloc_r+0x380>
100075f8:	f5b3 7faa 	cmp.w	r3, #340	; 0x154
100075fc:	d815      	bhi.n	1000762a <_malloc_r+0x50e>
100075fe:	0be3      	lsrs	r3, r4, #15
10007600:	f103 0078 	add.w	r0, r3, #120	; 0x78
10007604:	f103 0777 	add.w	r7, r3, #119	; 0x77
10007608:	00c3      	lsls	r3, r0, #3
1000760a:	e5ce      	b.n	100071aa <_malloc_r+0x8e>
1000760c:	4657      	mov	r7, sl
1000760e:	e66d      	b.n	100072ec <_malloc_r+0x1d0>
10007610:	2301      	movs	r3, #1
10007612:	f8ca 3004 	str.w	r3, [sl, #4]
10007616:	e67c      	b.n	10007312 <_malloc_r+0x1f6>
10007618:	f5b2 7faa 	cmp.w	r2, #340	; 0x154
1000761c:	d821      	bhi.n	10007662 <_malloc_r+0x546>
1000761e:	0bca      	lsrs	r2, r1, #15
10007620:	f102 0778 	add.w	r7, r2, #120	; 0x78
10007624:	3277      	adds	r2, #119	; 0x77
10007626:	00ff      	lsls	r7, r7, #3
10007628:	e738      	b.n	1000749c <_malloc_r+0x380>
1000762a:	f240 5254 	movw	r2, #1364	; 0x554
1000762e:	4293      	cmp	r3, r2
10007630:	d821      	bhi.n	10007676 <_malloc_r+0x55a>
10007632:	0ca3      	lsrs	r3, r4, #18
10007634:	f103 007d 	add.w	r0, r3, #125	; 0x7d
10007638:	f103 077c 	add.w	r7, r3, #124	; 0x7c
1000763c:	00c3      	lsls	r3, r0, #3
1000763e:	e5b4      	b.n	100071aa <_malloc_r+0x8e>
10007640:	f107 0108 	add.w	r1, r7, #8
10007644:	4628      	mov	r0, r5
10007646:	f000 f987 	bl	10007958 <_free_r>
1000764a:	68b7      	ldr	r7, [r6, #8]
1000764c:	4a0f      	ldr	r2, [pc, #60]	; (1000768c <_malloc_r+0x570>)
1000764e:	687b      	ldr	r3, [r7, #4]
10007650:	6811      	ldr	r1, [r2, #0]
10007652:	e64b      	b.n	100072ec <_malloc_r+0x1d0>
10007654:	3b08      	subs	r3, #8
10007656:	f04f 0b00 	mov.w	fp, #0
1000765a:	4498      	add	r8, r3
1000765c:	eba8 080a 	sub.w	r8, r8, sl
10007660:	e61e      	b.n	100072a0 <_malloc_r+0x184>
10007662:	f240 5754 	movw	r7, #1364	; 0x554
10007666:	42ba      	cmp	r2, r7
10007668:	d80a      	bhi.n	10007680 <_malloc_r+0x564>
1000766a:	0c8a      	lsrs	r2, r1, #18
1000766c:	f102 077d 	add.w	r7, r2, #125	; 0x7d
10007670:	327c      	adds	r2, #124	; 0x7c
10007672:	00ff      	lsls	r7, r7, #3
10007674:	e712      	b.n	1000749c <_malloc_r+0x380>
10007676:	f44f 737e 	mov.w	r3, #1016	; 0x3f8
1000767a:	207f      	movs	r0, #127	; 0x7f
1000767c:	277e      	movs	r7, #126	; 0x7e
1000767e:	e594      	b.n	100071aa <_malloc_r+0x8e>
10007680:	f44f 777e 	mov.w	r7, #1016	; 0x3f8
10007684:	227e      	movs	r2, #126	; 0x7e
10007686:	e709      	b.n	1000749c <_malloc_r+0x380>
10007688:	6873      	ldr	r3, [r6, #4]
1000768a:	e774      	b.n	10007576 <_malloc_r+0x45a>
1000768c:	200025a0 	.word	0x200025a0

10007690 <memcpy>:
10007690:	4684      	mov	ip, r0
10007692:	ea41 0300 	orr.w	r3, r1, r0
10007696:	f013 0303 	ands.w	r3, r3, #3
1000769a:	d149      	bne.n	10007730 <memcpy+0xa0>
1000769c:	3a40      	subs	r2, #64	; 0x40
1000769e:	d323      	bcc.n	100076e8 <memcpy+0x58>
100076a0:	680b      	ldr	r3, [r1, #0]
100076a2:	6003      	str	r3, [r0, #0]
100076a4:	684b      	ldr	r3, [r1, #4]
100076a6:	6043      	str	r3, [r0, #4]
100076a8:	688b      	ldr	r3, [r1, #8]
100076aa:	6083      	str	r3, [r0, #8]
100076ac:	68cb      	ldr	r3, [r1, #12]
100076ae:	60c3      	str	r3, [r0, #12]
100076b0:	690b      	ldr	r3, [r1, #16]
100076b2:	6103      	str	r3, [r0, #16]
100076b4:	694b      	ldr	r3, [r1, #20]
100076b6:	6143      	str	r3, [r0, #20]
100076b8:	698b      	ldr	r3, [r1, #24]
100076ba:	6183      	str	r3, [r0, #24]
100076bc:	69cb      	ldr	r3, [r1, #28]
100076be:	61c3      	str	r3, [r0, #28]
100076c0:	6a0b      	ldr	r3, [r1, #32]
100076c2:	6203      	str	r3, [r0, #32]
100076c4:	6a4b      	ldr	r3, [r1, #36]	; 0x24
100076c6:	6243      	str	r3, [r0, #36]	; 0x24
100076c8:	6a8b      	ldr	r3, [r1, #40]	; 0x28
100076ca:	6283      	str	r3, [r0, #40]	; 0x28
100076cc:	6acb      	ldr	r3, [r1, #44]	; 0x2c
100076ce:	62c3      	str	r3, [r0, #44]	; 0x2c
100076d0:	6b0b      	ldr	r3, [r1, #48]	; 0x30
100076d2:	6303      	str	r3, [r0, #48]	; 0x30
100076d4:	6b4b      	ldr	r3, [r1, #52]	; 0x34
100076d6:	6343      	str	r3, [r0, #52]	; 0x34
100076d8:	6b8b      	ldr	r3, [r1, #56]	; 0x38
100076da:	6383      	str	r3, [r0, #56]	; 0x38
100076dc:	6bcb      	ldr	r3, [r1, #60]	; 0x3c
100076de:	63c3      	str	r3, [r0, #60]	; 0x3c
100076e0:	3040      	adds	r0, #64	; 0x40
100076e2:	3140      	adds	r1, #64	; 0x40
100076e4:	3a40      	subs	r2, #64	; 0x40
100076e6:	d2db      	bcs.n	100076a0 <memcpy+0x10>
100076e8:	3230      	adds	r2, #48	; 0x30
100076ea:	d30b      	bcc.n	10007704 <memcpy+0x74>
100076ec:	680b      	ldr	r3, [r1, #0]
100076ee:	6003      	str	r3, [r0, #0]
100076f0:	684b      	ldr	r3, [r1, #4]
100076f2:	6043      	str	r3, [r0, #4]
100076f4:	688b      	ldr	r3, [r1, #8]
100076f6:	6083      	str	r3, [r0, #8]
100076f8:	68cb      	ldr	r3, [r1, #12]
100076fa:	60c3      	str	r3, [r0, #12]
100076fc:	3010      	adds	r0, #16
100076fe:	3110      	adds	r1, #16
10007700:	3a10      	subs	r2, #16
10007702:	d2f3      	bcs.n	100076ec <memcpy+0x5c>
10007704:	320c      	adds	r2, #12
10007706:	d305      	bcc.n	10007714 <memcpy+0x84>
10007708:	f851 3b04 	ldr.w	r3, [r1], #4
1000770c:	f840 3b04 	str.w	r3, [r0], #4
10007710:	3a04      	subs	r2, #4
10007712:	d2f9      	bcs.n	10007708 <memcpy+0x78>
10007714:	3204      	adds	r2, #4
10007716:	d008      	beq.n	1000772a <memcpy+0x9a>
10007718:	07d2      	lsls	r2, r2, #31
1000771a:	bf1c      	itt	ne
1000771c:	f811 3b01 	ldrbne.w	r3, [r1], #1
10007720:	f800 3b01 	strbne.w	r3, [r0], #1
10007724:	d301      	bcc.n	1000772a <memcpy+0x9a>
10007726:	880b      	ldrh	r3, [r1, #0]
10007728:	8003      	strh	r3, [r0, #0]
1000772a:	4660      	mov	r0, ip
1000772c:	4770      	bx	lr
1000772e:	bf00      	nop
10007730:	2a08      	cmp	r2, #8
10007732:	d313      	bcc.n	1000775c <memcpy+0xcc>
10007734:	078b      	lsls	r3, r1, #30
10007736:	d0b1      	beq.n	1000769c <memcpy+0xc>
10007738:	f010 0303 	ands.w	r3, r0, #3
1000773c:	d0ae      	beq.n	1000769c <memcpy+0xc>
1000773e:	f1c3 0304 	rsb	r3, r3, #4
10007742:	1ad2      	subs	r2, r2, r3
10007744:	07db      	lsls	r3, r3, #31
10007746:	bf1c      	itt	ne
10007748:	f811 3b01 	ldrbne.w	r3, [r1], #1
1000774c:	f800 3b01 	strbne.w	r3, [r0], #1
10007750:	d3a4      	bcc.n	1000769c <memcpy+0xc>
10007752:	f831 3b02 	ldrh.w	r3, [r1], #2
10007756:	f820 3b02 	strh.w	r3, [r0], #2
1000775a:	e79f      	b.n	1000769c <memcpy+0xc>
1000775c:	3a04      	subs	r2, #4
1000775e:	d3d9      	bcc.n	10007714 <memcpy+0x84>
10007760:	3a01      	subs	r2, #1
10007762:	f811 3b01 	ldrb.w	r3, [r1], #1
10007766:	f800 3b01 	strb.w	r3, [r0], #1
1000776a:	d2f9      	bcs.n	10007760 <memcpy+0xd0>
1000776c:	780b      	ldrb	r3, [r1, #0]
1000776e:	7003      	strb	r3, [r0, #0]
10007770:	784b      	ldrb	r3, [r1, #1]
10007772:	7043      	strb	r3, [r0, #1]
10007774:	788b      	ldrb	r3, [r1, #2]
10007776:	7083      	strb	r3, [r0, #2]
10007778:	4660      	mov	r0, ip
1000777a:	4770      	bx	lr

1000777c <memset>:
1000777c:	b570      	push	{r4, r5, r6, lr}
1000777e:	0786      	lsls	r6, r0, #30
10007780:	d048      	beq.n	10007814 <memset+0x98>
10007782:	1e54      	subs	r4, r2, #1
10007784:	2a00      	cmp	r2, #0
10007786:	d03f      	beq.n	10007808 <memset+0x8c>
10007788:	b2ca      	uxtb	r2, r1
1000778a:	4603      	mov	r3, r0
1000778c:	e001      	b.n	10007792 <memset+0x16>
1000778e:	3c01      	subs	r4, #1
10007790:	d33a      	bcc.n	10007808 <memset+0x8c>
10007792:	f803 2b01 	strb.w	r2, [r3], #1
10007796:	079d      	lsls	r5, r3, #30
10007798:	d1f9      	bne.n	1000778e <memset+0x12>
1000779a:	2c03      	cmp	r4, #3
1000779c:	d92d      	bls.n	100077fa <memset+0x7e>
1000779e:	b2cd      	uxtb	r5, r1
100077a0:	2c0f      	cmp	r4, #15
100077a2:	ea45 2505 	orr.w	r5, r5, r5, lsl #8
100077a6:	ea45 4505 	orr.w	r5, r5, r5, lsl #16
100077aa:	d936      	bls.n	1000781a <memset+0x9e>
100077ac:	f1a4 0c10 	sub.w	ip, r4, #16
100077b0:	f103 0e20 	add.w	lr, r3, #32
100077b4:	f103 0210 	add.w	r2, r3, #16
100077b8:	f02c 060f 	bic.w	r6, ip, #15
100077bc:	ea4f 1c1c 	mov.w	ip, ip, lsr #4
100077c0:	44b6      	add	lr, r6
100077c2:	e942 5504 	strd	r5, r5, [r2, #-16]
100077c6:	e942 5502 	strd	r5, r5, [r2, #-8]
100077ca:	3210      	adds	r2, #16
100077cc:	4572      	cmp	r2, lr
100077ce:	d1f8      	bne.n	100077c2 <memset+0x46>
100077d0:	f10c 0201 	add.w	r2, ip, #1
100077d4:	f014 0f0c 	tst.w	r4, #12
100077d8:	f004 0c0f 	and.w	ip, r4, #15
100077dc:	eb03 1202 	add.w	r2, r3, r2, lsl #4
100077e0:	d013      	beq.n	1000780a <memset+0x8e>
100077e2:	f1ac 0304 	sub.w	r3, ip, #4
100077e6:	f023 0303 	bic.w	r3, r3, #3
100077ea:	3304      	adds	r3, #4
100077ec:	4413      	add	r3, r2
100077ee:	f842 5b04 	str.w	r5, [r2], #4
100077f2:	4293      	cmp	r3, r2
100077f4:	d1fb      	bne.n	100077ee <memset+0x72>
100077f6:	f00c 0403 	and.w	r4, ip, #3
100077fa:	b12c      	cbz	r4, 10007808 <memset+0x8c>
100077fc:	b2ca      	uxtb	r2, r1
100077fe:	441c      	add	r4, r3
10007800:	f803 2b01 	strb.w	r2, [r3], #1
10007804:	429c      	cmp	r4, r3
10007806:	d1fb      	bne.n	10007800 <memset+0x84>
10007808:	bd70      	pop	{r4, r5, r6, pc}
1000780a:	4664      	mov	r4, ip
1000780c:	4613      	mov	r3, r2
1000780e:	2c00      	cmp	r4, #0
10007810:	d1f4      	bne.n	100077fc <memset+0x80>
10007812:	e7f9      	b.n	10007808 <memset+0x8c>
10007814:	4603      	mov	r3, r0
10007816:	4614      	mov	r4, r2
10007818:	e7bf      	b.n	1000779a <memset+0x1e>
1000781a:	461a      	mov	r2, r3
1000781c:	46a4      	mov	ip, r4
1000781e:	e7e0      	b.n	100077e2 <memset+0x66>

10007820 <__malloc_lock>:
10007820:	4801      	ldr	r0, [pc, #4]	; (10007828 <__malloc_lock+0x8>)
10007822:	f000 b99f 	b.w	10007b64 <__retarget_lock_acquire_recursive>
10007826:	bf00      	nop
10007828:	2000259c 	.word	0x2000259c

1000782c <__malloc_unlock>:
1000782c:	4801      	ldr	r0, [pc, #4]	; (10007834 <__malloc_unlock+0x8>)
1000782e:	f000 b99b 	b.w	10007b68 <__retarget_lock_release_recursive>
10007832:	bf00      	nop
10007834:	2000259c 	.word	0x2000259c

10007838 <_sbrk_r>:
10007838:	b538      	push	{r3, r4, r5, lr}
1000783a:	2200      	movs	r2, #0
1000783c:	4d06      	ldr	r5, [pc, #24]	; (10007858 <_sbrk_r+0x20>)
1000783e:	4604      	mov	r4, r0
10007840:	4608      	mov	r0, r1
10007842:	602a      	str	r2, [r5, #0]
10007844:	f7fb fcb4 	bl	100031b0 <_sbrk>
10007848:	1c43      	adds	r3, r0, #1
1000784a:	d000      	beq.n	1000784e <_sbrk_r+0x16>
1000784c:	bd38      	pop	{r3, r4, r5, pc}
1000784e:	682b      	ldr	r3, [r5, #0]
10007850:	2b00      	cmp	r3, #0
10007852:	d0fb      	beq.n	1000784c <_sbrk_r+0x14>
10007854:	6023      	str	r3, [r4, #0]
10007856:	bd38      	pop	{r3, r4, r5, pc}
10007858:	20002c38 	.word	0x20002c38

1000785c <strlen>:
1000785c:	f020 0103 	bic.w	r1, r0, #3
10007860:	f010 0003 	ands.w	r0, r0, #3
10007864:	f1c0 0000 	rsb	r0, r0, #0
10007868:	f851 3b04 	ldr.w	r3, [r1], #4
1000786c:	f100 0c04 	add.w	ip, r0, #4
10007870:	ea4f 0ccc 	mov.w	ip, ip, lsl #3
10007874:	f06f 0200 	mvn.w	r2, #0
10007878:	bf1c      	itt	ne
1000787a:	fa22 f20c 	lsrne.w	r2, r2, ip
1000787e:	4313      	orrne	r3, r2
10007880:	f04f 0c01 	mov.w	ip, #1
10007884:	ea4c 2c0c 	orr.w	ip, ip, ip, lsl #8
10007888:	ea4c 4c0c 	orr.w	ip, ip, ip, lsl #16
1000788c:	eba3 020c 	sub.w	r2, r3, ip
10007890:	ea22 0203 	bic.w	r2, r2, r3
10007894:	ea12 12cc 	ands.w	r2, r2, ip, lsl #7
10007898:	bf04      	itt	eq
1000789a:	f851 3b04 	ldreq.w	r3, [r1], #4
1000789e:	3004      	addeq	r0, #4
100078a0:	d0f4      	beq.n	1000788c <strlen+0x30>
100078a2:	f1c2 0100 	rsb	r1, r2, #0
100078a6:	ea02 0201 	and.w	r2, r2, r1
100078aa:	fab2 f282 	clz	r2, r2
100078ae:	f1c2 021f 	rsb	r2, r2, #31
100078b2:	eb00 00d2 	add.w	r0, r0, r2, lsr #3
100078b6:	4770      	bx	lr

100078b8 <_malloc_trim_r>:
100078b8:	b5f8      	push	{r3, r4, r5, r6, r7, lr}
100078ba:	4f23      	ldr	r7, [pc, #140]	; (10007948 <_malloc_trim_r+0x90>)
100078bc:	460c      	mov	r4, r1
100078be:	4606      	mov	r6, r0
100078c0:	f7ff ffae 	bl	10007820 <__malloc_lock>
100078c4:	68ba      	ldr	r2, [r7, #8]
100078c6:	f640 73ef 	movw	r3, #4079	; 0xfef
100078ca:	6855      	ldr	r5, [r2, #4]
100078cc:	1b1b      	subs	r3, r3, r4
100078ce:	4c1f      	ldr	r4, [pc, #124]	; (1000794c <_malloc_trim_r+0x94>)
100078d0:	f025 0503 	bic.w	r5, r5, #3
100078d4:	442b      	add	r3, r5
100078d6:	401c      	ands	r4, r3
100078d8:	f5a4 5480 	sub.w	r4, r4, #4096	; 0x1000
100078dc:	f5b4 5f80 	cmp.w	r4, #4096	; 0x1000
100078e0:	db07      	blt.n	100078f2 <_malloc_trim_r+0x3a>
100078e2:	2100      	movs	r1, #0
100078e4:	4630      	mov	r0, r6
100078e6:	f7ff ffa7 	bl	10007838 <_sbrk_r>
100078ea:	68bb      	ldr	r3, [r7, #8]
100078ec:	442b      	add	r3, r5
100078ee:	4298      	cmp	r0, r3
100078f0:	d004      	beq.n	100078fc <_malloc_trim_r+0x44>
100078f2:	4630      	mov	r0, r6
100078f4:	f7ff ff9a 	bl	1000782c <__malloc_unlock>
100078f8:	2000      	movs	r0, #0
100078fa:	bdf8      	pop	{r3, r4, r5, r6, r7, pc}
100078fc:	4261      	negs	r1, r4
100078fe:	4630      	mov	r0, r6
10007900:	f7ff ff9a 	bl	10007838 <_sbrk_r>
10007904:	3001      	adds	r0, #1
10007906:	d00d      	beq.n	10007924 <_malloc_trim_r+0x6c>
10007908:	1b2d      	subs	r5, r5, r4
1000790a:	4b11      	ldr	r3, [pc, #68]	; (10007950 <_malloc_trim_r+0x98>)
1000790c:	68ba      	ldr	r2, [r7, #8]
1000790e:	4630      	mov	r0, r6
10007910:	f045 0501 	orr.w	r5, r5, #1
10007914:	6055      	str	r5, [r2, #4]
10007916:	681a      	ldr	r2, [r3, #0]
10007918:	1b12      	subs	r2, r2, r4
1000791a:	601a      	str	r2, [r3, #0]
1000791c:	f7ff ff86 	bl	1000782c <__malloc_unlock>
10007920:	2001      	movs	r0, #1
10007922:	bdf8      	pop	{r3, r4, r5, r6, r7, pc}
10007924:	2100      	movs	r1, #0
10007926:	4630      	mov	r0, r6
10007928:	f7ff ff86 	bl	10007838 <_sbrk_r>
1000792c:	68ba      	ldr	r2, [r7, #8]
1000792e:	1a83      	subs	r3, r0, r2
10007930:	2b0f      	cmp	r3, #15
10007932:	ddde      	ble.n	100078f2 <_malloc_trim_r+0x3a>
10007934:	f043 0301 	orr.w	r3, r3, #1
10007938:	4905      	ldr	r1, [pc, #20]	; (10007950 <_malloc_trim_r+0x98>)
1000793a:	6053      	str	r3, [r2, #4]
1000793c:	4b05      	ldr	r3, [pc, #20]	; (10007954 <_malloc_trim_r+0x9c>)
1000793e:	681b      	ldr	r3, [r3, #0]
10007940:	1ac0      	subs	r0, r0, r3
10007942:	6008      	str	r0, [r1, #0]
10007944:	e7d5      	b.n	100078f2 <_malloc_trim_r+0x3a>
10007946:	bf00      	nop
10007948:	20001fd8 	.word	0x20001fd8
1000794c:	fffff000 	.word	0xfffff000
10007950:	200025a0 	.word	0x200025a0
10007954:	200023e0 	.word	0x200023e0

10007958 <_free_r>:
10007958:	2900      	cmp	r1, #0
1000795a:	d061      	beq.n	10007a20 <_free_r+0xc8>
1000795c:	b5f8      	push	{r3, r4, r5, r6, r7, lr}
1000795e:	460c      	mov	r4, r1
10007960:	4606      	mov	r6, r0
10007962:	f7ff ff5d 	bl	10007820 <__malloc_lock>
10007966:	4f7c      	ldr	r7, [pc, #496]	; (10007b58 <_free_r+0x200>)
10007968:	f854 2c04 	ldr.w	r2, [r4, #-4]
1000796c:	f1a4 0508 	sub.w	r5, r4, #8
10007970:	68b8      	ldr	r0, [r7, #8]
10007972:	f022 0101 	bic.w	r1, r2, #1
10007976:	eb05 0c01 	add.w	ip, r5, r1
1000797a:	f8dc 3004 	ldr.w	r3, [ip, #4]
1000797e:	4560      	cmp	r0, ip
10007980:	f023 0303 	bic.w	r3, r3, #3
10007984:	f000 808b 	beq.w	10007a9e <_free_r+0x146>
10007988:	07d2      	lsls	r2, r2, #31
1000798a:	f8cc 3004 	str.w	r3, [ip, #4]
1000798e:	d432      	bmi.n	100079f6 <_free_r+0x9e>
10007990:	f854 2c08 	ldr.w	r2, [r4, #-8]
10007994:	f107 0008 	add.w	r0, r7, #8
10007998:	1aad      	subs	r5, r5, r2
1000799a:	4411      	add	r1, r2
1000799c:	68aa      	ldr	r2, [r5, #8]
1000799e:	4282      	cmp	r2, r0
100079a0:	d06a      	beq.n	10007a78 <_free_r+0x120>
100079a2:	eb0c 0403 	add.w	r4, ip, r3
100079a6:	f8d4 e004 	ldr.w	lr, [r4, #4]
100079aa:	68ec      	ldr	r4, [r5, #12]
100079ac:	f01e 0f01 	tst.w	lr, #1
100079b0:	60d4      	str	r4, [r2, #12]
100079b2:	60a2      	str	r2, [r4, #8]
100079b4:	f000 8097 	beq.w	10007ae6 <_free_r+0x18e>
100079b8:	f041 0301 	orr.w	r3, r1, #1
100079bc:	606b      	str	r3, [r5, #4]
100079be:	f8cc 1000 	str.w	r1, [ip]
100079c2:	f5b1 7f00 	cmp.w	r1, #512	; 0x200
100079c6:	d235      	bcs.n	10007a34 <_free_r+0xdc>
100079c8:	094a      	lsrs	r2, r1, #5
100079ca:	08cb      	lsrs	r3, r1, #3
100079cc:	2101      	movs	r1, #1
100079ce:	3301      	adds	r3, #1
100079d0:	4091      	lsls	r1, r2
100079d2:	687a      	ldr	r2, [r7, #4]
100079d4:	4311      	orrs	r1, r2
100079d6:	eb07 02c3 	add.w	r2, r7, r3, lsl #3
100079da:	6079      	str	r1, [r7, #4]
100079dc:	3a08      	subs	r2, #8
100079de:	f857 1033 	ldr.w	r1, [r7, r3, lsl #3]
100079e2:	e9c5 1202 	strd	r1, r2, [r5, #8]
100079e6:	f847 5033 	str.w	r5, [r7, r3, lsl #3]
100079ea:	60cd      	str	r5, [r1, #12]
100079ec:	4630      	mov	r0, r6
100079ee:	e8bd 40f8 	ldmia.w	sp!, {r3, r4, r5, r6, r7, lr}
100079f2:	f7ff bf1b 	b.w	1000782c <__malloc_unlock>
100079f6:	eb0c 0203 	add.w	r2, ip, r3
100079fa:	6852      	ldr	r2, [r2, #4]
100079fc:	07d0      	lsls	r0, r2, #31
100079fe:	d410      	bmi.n	10007a22 <_free_r+0xca>
10007a00:	4419      	add	r1, r3
10007a02:	f107 0008 	add.w	r0, r7, #8
10007a06:	f8dc 3008 	ldr.w	r3, [ip, #8]
10007a0a:	4283      	cmp	r3, r0
10007a0c:	d073      	beq.n	10007af6 <_free_r+0x19e>
10007a0e:	f8dc 200c 	ldr.w	r2, [ip, #12]
10007a12:	60da      	str	r2, [r3, #12]
10007a14:	6093      	str	r3, [r2, #8]
10007a16:	f041 0301 	orr.w	r3, r1, #1
10007a1a:	606b      	str	r3, [r5, #4]
10007a1c:	5069      	str	r1, [r5, r1]
10007a1e:	e7d0      	b.n	100079c2 <_free_r+0x6a>
10007a20:	4770      	bx	lr
10007a22:	f041 0301 	orr.w	r3, r1, #1
10007a26:	f5b1 7f00 	cmp.w	r1, #512	; 0x200
10007a2a:	f844 3c04 	str.w	r3, [r4, #-4]
10007a2e:	f8cc 1000 	str.w	r1, [ip]
10007a32:	d3c9      	bcc.n	100079c8 <_free_r+0x70>
10007a34:	f5b1 6f20 	cmp.w	r1, #2560	; 0xa00
10007a38:	ea4f 2351 	mov.w	r3, r1, lsr #9
10007a3c:	d248      	bcs.n	10007ad0 <_free_r+0x178>
10007a3e:	098b      	lsrs	r3, r1, #6
10007a40:	f103 0039 	add.w	r0, r3, #57	; 0x39
10007a44:	f103 0238 	add.w	r2, r3, #56	; 0x38
10007a48:	00c3      	lsls	r3, r0, #3
10007a4a:	18f8      	adds	r0, r7, r3
10007a4c:	58fb      	ldr	r3, [r7, r3]
10007a4e:	3808      	subs	r0, #8
10007a50:	4298      	cmp	r0, r3
10007a52:	d059      	beq.n	10007b08 <_free_r+0x1b0>
10007a54:	685a      	ldr	r2, [r3, #4]
10007a56:	f022 0203 	bic.w	r2, r2, #3
10007a5a:	428a      	cmp	r2, r1
10007a5c:	d902      	bls.n	10007a64 <_free_r+0x10c>
10007a5e:	689b      	ldr	r3, [r3, #8]
10007a60:	4298      	cmp	r0, r3
10007a62:	d1f7      	bne.n	10007a54 <_free_r+0xfc>
10007a64:	68d8      	ldr	r0, [r3, #12]
10007a66:	e9c5 3002 	strd	r3, r0, [r5, #8]
10007a6a:	6085      	str	r5, [r0, #8]
10007a6c:	4630      	mov	r0, r6
10007a6e:	60dd      	str	r5, [r3, #12]
10007a70:	e8bd 40f8 	ldmia.w	sp!, {r3, r4, r5, r6, r7, lr}
10007a74:	f7ff beda 	b.w	1000782c <__malloc_unlock>
10007a78:	eb0c 0203 	add.w	r2, ip, r3
10007a7c:	6852      	ldr	r2, [r2, #4]
10007a7e:	07d2      	lsls	r2, r2, #31
10007a80:	d463      	bmi.n	10007b4a <_free_r+0x1f2>
10007a82:	440b      	add	r3, r1
10007a84:	4630      	mov	r0, r6
10007a86:	e9dc 1202 	ldrd	r1, r2, [ip, #8]
10007a8a:	60ca      	str	r2, [r1, #12]
10007a8c:	6091      	str	r1, [r2, #8]
10007a8e:	f043 0201 	orr.w	r2, r3, #1
10007a92:	606a      	str	r2, [r5, #4]
10007a94:	50eb      	str	r3, [r5, r3]
10007a96:	e8bd 40f8 	ldmia.w	sp!, {r3, r4, r5, r6, r7, lr}
10007a9a:	f7ff bec7 	b.w	1000782c <__malloc_unlock>
10007a9e:	440b      	add	r3, r1
10007aa0:	07d1      	lsls	r1, r2, #31
10007aa2:	d407      	bmi.n	10007ab4 <_free_r+0x15c>
10007aa4:	f854 2c08 	ldr.w	r2, [r4, #-8]
10007aa8:	1aad      	subs	r5, r5, r2
10007aaa:	4413      	add	r3, r2
10007aac:	e9d5 1202 	ldrd	r1, r2, [r5, #8]
10007ab0:	60ca      	str	r2, [r1, #12]
10007ab2:	6091      	str	r1, [r2, #8]
10007ab4:	f043 0201 	orr.w	r2, r3, #1
10007ab8:	606a      	str	r2, [r5, #4]
10007aba:	4a28      	ldr	r2, [pc, #160]	; (10007b5c <_free_r+0x204>)
10007abc:	60bd      	str	r5, [r7, #8]
10007abe:	6812      	ldr	r2, [r2, #0]
10007ac0:	429a      	cmp	r2, r3
10007ac2:	d893      	bhi.n	100079ec <_free_r+0x94>
10007ac4:	4b26      	ldr	r3, [pc, #152]	; (10007b60 <_free_r+0x208>)
10007ac6:	4630      	mov	r0, r6
10007ac8:	6819      	ldr	r1, [r3, #0]
10007aca:	f7ff fef5 	bl	100078b8 <_malloc_trim_r>
10007ace:	e78d      	b.n	100079ec <_free_r+0x94>
10007ad0:	2b14      	cmp	r3, #20
10007ad2:	d90a      	bls.n	10007aea <_free_r+0x192>
10007ad4:	2b54      	cmp	r3, #84	; 0x54
10007ad6:	d81f      	bhi.n	10007b18 <_free_r+0x1c0>
10007ad8:	0b0b      	lsrs	r3, r1, #12
10007ada:	f103 006f 	add.w	r0, r3, #111	; 0x6f
10007ade:	f103 026e 	add.w	r2, r3, #110	; 0x6e
10007ae2:	00c3      	lsls	r3, r0, #3
10007ae4:	e7b1      	b.n	10007a4a <_free_r+0xf2>
10007ae6:	4419      	add	r1, r3
10007ae8:	e78d      	b.n	10007a06 <_free_r+0xae>
10007aea:	f103 005c 	add.w	r0, r3, #92	; 0x5c
10007aee:	f103 025b 	add.w	r2, r3, #91	; 0x5b
10007af2:	00c3      	lsls	r3, r0, #3
10007af4:	e7a9      	b.n	10007a4a <_free_r+0xf2>
10007af6:	f041 0301 	orr.w	r3, r1, #1
10007afa:	e9c7 5504 	strd	r5, r5, [r7, #16]
10007afe:	e9c5 0002 	strd	r0, r0, [r5, #8]
10007b02:	606b      	str	r3, [r5, #4]
10007b04:	5069      	str	r1, [r5, r1]
10007b06:	e771      	b.n	100079ec <_free_r+0x94>
10007b08:	2101      	movs	r1, #1
10007b0a:	1092      	asrs	r2, r2, #2
10007b0c:	fa01 f202 	lsl.w	r2, r1, r2
10007b10:	6879      	ldr	r1, [r7, #4]
10007b12:	430a      	orrs	r2, r1
10007b14:	607a      	str	r2, [r7, #4]
10007b16:	e7a6      	b.n	10007a66 <_free_r+0x10e>
10007b18:	f5b3 7faa 	cmp.w	r3, #340	; 0x154
10007b1c:	d806      	bhi.n	10007b2c <_free_r+0x1d4>
10007b1e:	0bcb      	lsrs	r3, r1, #15
10007b20:	f103 0078 	add.w	r0, r3, #120	; 0x78
10007b24:	f103 0277 	add.w	r2, r3, #119	; 0x77
10007b28:	00c3      	lsls	r3, r0, #3
10007b2a:	e78e      	b.n	10007a4a <_free_r+0xf2>
10007b2c:	f240 5254 	movw	r2, #1364	; 0x554
10007b30:	4293      	cmp	r3, r2
10007b32:	d806      	bhi.n	10007b42 <_free_r+0x1ea>
10007b34:	0c8b      	lsrs	r3, r1, #18
10007b36:	f103 007d 	add.w	r0, r3, #125	; 0x7d
10007b3a:	f103 027c 	add.w	r2, r3, #124	; 0x7c
10007b3e:	00c3      	lsls	r3, r0, #3
10007b40:	e783      	b.n	10007a4a <_free_r+0xf2>
10007b42:	f44f 737e 	mov.w	r3, #1016	; 0x3f8
10007b46:	227e      	movs	r2, #126	; 0x7e
10007b48:	e77f      	b.n	10007a4a <_free_r+0xf2>
10007b4a:	f041 0301 	orr.w	r3, r1, #1
10007b4e:	606b      	str	r3, [r5, #4]
10007b50:	f8cc 1000 	str.w	r1, [ip]
10007b54:	e74a      	b.n	100079ec <_free_r+0x94>
10007b56:	bf00      	nop
10007b58:	20001fd8 	.word	0x20001fd8
10007b5c:	200023e4 	.word	0x200023e4
10007b60:	200025d0 	.word	0x200025d0

10007b64 <__retarget_lock_acquire_recursive>:
10007b64:	4770      	bx	lr
10007b66:	bf00      	nop

10007b68 <__retarget_lock_release_recursive>:
10007b68:	4770      	bx	lr
10007b6a:	bf00      	nop

10007b6c <_fini>:
10007b6c:	b5f8      	push	{r3, r4, r5, r6, r7, lr}
10007b6e:	bf00      	nop

10007b70 <__sem_release_veneer>:
10007b70:	b401      	push	{r0}
10007b72:	4802      	ldr	r0, [pc, #8]	; (10007b7c <__sem_release_veneer+0xc>)
10007b74:	4684      	mov	ip, r0
10007b76:	bc01      	pop	{r0}
10007b78:	4760      	bx	ip
10007b7a:	bf00      	nop
10007b7c:	2000015d 	.word	0x2000015d

10007b80 <____aeabi_uldivmod_veneer>:
10007b80:	b401      	push	{r0}
10007b82:	4802      	ldr	r0, [pc, #8]	; (10007b8c <____aeabi_uldivmod_veneer+0xc>)
10007b84:	4684      	mov	ip, r0
10007b86:	bc01      	pop	{r0}
10007b88:	4760      	bx	ip
10007b8a:	bf00      	nop
10007b8c:	20001719 	.word	0x20001719

10007b90 <__e15_is_critical_frame_period_veneer>:
10007b90:	b401      	push	{r0}
10007b92:	4802      	ldr	r0, [pc, #8]	; (10007b9c <__e15_is_critical_frame_period_veneer+0xc>)
10007b94:	4684      	mov	ip, r0
10007b96:	bc01      	pop	{r0}
10007b98:	4760      	bx	ip
10007b9a:	bf00      	nop
10007b9c:	2000070d 	.word	0x2000070d

10007ba0 <__mutex_exit_veneer>:
10007ba0:	b401      	push	{r0}
10007ba2:	4802      	ldr	r0, [pc, #8]	; (10007bac <__mutex_exit_veneer+0xc>)
10007ba4:	4684      	mov	ip, r0
10007ba6:	bc01      	pop	{r0}
10007ba8:	4760      	bx	ip
10007baa:	bf00      	nop
10007bac:	20000365 	.word	0x20000365

10007bb0 <__scanvideo_end_scanline_generation_veneer>:
10007bb0:	b401      	push	{r0}
10007bb2:	4802      	ldr	r0, [pc, #8]	; (10007bbc <__scanvideo_end_scanline_generation_veneer+0xc>)
10007bb4:	4684      	mov	ip, r0
10007bb6:	bc01      	pop	{r0}
10007bb8:	4760      	bx	ip
10007bba:	bf00      	nop
10007bbc:	200016a9 	.word	0x200016a9

10007bc0 <__sem_acquire_blocking_veneer>:
10007bc0:	b401      	push	{r0}
10007bc2:	4802      	ldr	r0, [pc, #8]	; (10007bcc <__sem_acquire_blocking_veneer+0xc>)
10007bc4:	4684      	mov	ip, r0
10007bc6:	bc01      	pop	{r0}
10007bc8:	4760      	bx	ip
10007bca:	bf00      	nop
10007bcc:	20000111 	.word	0x20000111

10007bd0 <__mutex_try_enter_veneer>:
10007bd0:	b401      	push	{r0}
10007bd2:	4802      	ldr	r0, [pc, #8]	; (10007bdc <__mutex_try_enter_veneer+0xc>)
10007bd4:	4684      	mov	ip, r0
10007bd6:	bc01      	pop	{r0}
10007bd8:	4760      	bx	ip
10007bda:	bf00      	nop
10007bdc:	20000207 	.word	0x20000207

10007be0 <__mutex_enter_timeout_ms_veneer>:
10007be0:	b401      	push	{r0}
10007be2:	4802      	ldr	r0, [pc, #8]	; (10007bec <__mutex_enter_timeout_ms_veneer+0xc>)
10007be4:	4684      	mov	ip, r0
10007be6:	bc01      	pop	{r0}
10007be8:	4760      	bx	ip
10007bea:	bf00      	nop
10007bec:	20000313 	.word	0x20000313

10007bf0 <__reset_non_control_endpoints_veneer>:
10007bf0:	b401      	push	{r0}
10007bf2:	4802      	ldr	r0, [pc, #8]	; (10007bfc <__reset_non_control_endpoints_veneer+0xc>)
10007bf4:	4684      	mov	ip, r0
10007bf6:	bc01      	pop	{r0}
10007bf8:	4760      	bx	ip
10007bfa:	bf00      	nop
10007bfc:	200003bd 	.word	0x200003bd

10007c00 <__scanvideo_begin_scanline_generation_veneer>:
10007c00:	b401      	push	{r0}
10007c02:	4802      	ldr	r0, [pc, #8]	; (10007c0c <__scanvideo_begin_scanline_generation_veneer+0xc>)
10007c04:	4684      	mov	ip, r0
10007c06:	bc01      	pop	{r0}
10007c08:	4760      	bx	ip
10007c0a:	bf00      	nop
10007c0c:	200015b1 	.word	0x200015b1

10007c10 <__mutex_try_enter_block_until_veneer>:
10007c10:	b401      	push	{r0}
10007c12:	4802      	ldr	r0, [pc, #8]	; (10007c1c <__mutex_try_enter_block_until_veneer+0xc>)
10007c14:	4684      	mov	ip, r0
10007c16:	bc01      	pop	{r0}
10007c18:	4760      	bx	ip
10007c1a:	bf00      	nop
10007c1c:	200002e1 	.word	0x200002e1

10007c20 <__hw_endpoint_start_next_buffer_veneer>:
10007c20:	b401      	push	{r0}
10007c22:	4802      	ldr	r0, [pc, #8]	; (10007c2c <__hw_endpoint_start_next_buffer_veneer+0xc>)
10007c24:	4684      	mov	ip, r0
10007c26:	bc01      	pop	{r0}
10007c28:	4760      	bx	ip
10007c2a:	bf00      	nop
10007c2c:	20000835 	.word	0x20000835

10007c30 <__e15_is_bulkin_ep_veneer>:
10007c30:	b401      	push	{r0}
10007c32:	4802      	ldr	r0, [pc, #8]	; (10007c3c <__e15_is_bulkin_ep_veneer+0xc>)
10007c34:	4684      	mov	ip, r0
10007c36:	bc01      	pop	{r0}
10007c38:	4760      	bx	ip
10007c3a:	bf00      	nop
10007c3c:	200006e1 	.word	0x200006e1

10007c40 <__hw_endpoint_reset_transfer_veneer>:
10007c40:	b401      	push	{r0}
10007c42:	4802      	ldr	r0, [pc, #8]	; (10007c4c <__hw_endpoint_reset_transfer_veneer+0xc>)
10007c44:	4684      	mov	ip, r0
10007c46:	bc01      	pop	{r0}
10007c48:	4760      	bx	ip
10007c4a:	bf00      	nop
10007c4c:	200007db 	.word	0x200007db

10007c50 <___hw_endpoint_buffer_control_update32_veneer>:
10007c50:	b401      	push	{r0}
10007c52:	4802      	ldr	r0, [pc, #8]	; (10007c5c <___hw_endpoint_buffer_control_update32_veneer+0xc>)
10007c54:	4684      	mov	ip, r0
10007c56:	bc01      	pop	{r0}
10007c58:	4760      	bx	ip
10007c5a:	bf00      	nop
10007c5c:	200007e9 	.word	0x200007e9

10007c60 <__mutex_enter_blocking_veneer>:
10007c60:	b401      	push	{r0}
10007c62:	4802      	ldr	r0, [pc, #8]	; (10007c6c <__mutex_enter_blocking_veneer+0xc>)
10007c64:	4684      	mov	ip, r0
10007c66:	bc01      	pop	{r0}
10007c68:	4760      	bx	ip
10007c6a:	bf00      	nop
10007c6c:	200001af 	.word	0x200001af

10007c70 <__pre_init_runtime_init_bootrom_reset>:
10007c70:	10001b9d                                ....

10007c74 <__pre_init_runtime_init_early_resets>:
10007c74:	10001b15                                ....

10007c78 <__pre_init_runtime_init_usb_power_down>:
10007c78:	10001b41                                A...

10007c7c <__pre_init_runtime_init_clocks>:
10007c7c:	10001c39                                9...

10007c80 <__pre_init_runtime_init_post_clock_resets>:
10007c80:	10001b7d                                }...

10007c84 <__pre_init_runtime_init_boot_locks_reset>:
10007c84:	10001aa9                                ....

10007c88 <__pre_init_runtime_init_spin_locks_reset>:
10007c88:	10001bc1                                ....

10007c8c <__pre_init_runtime_init_bootrom_locking_enable>:
10007c8c:	10001a75                                u...

10007c90 <__pre_init_runtime_init_mutex>:
10007c90:	10000511                                ....

10007c94 <__pre_init_runtime_init_install_ram_vector_table>:
10007c94:	10001bc9                                ....

10007c98 <__pre_init_runtime_init_default_alarm_pool>:
10007c98:	10000c29                                )...

10007c9c <__pre_init_first_per_core_initializer>:
10007c9c:	10001af1                                ....

10007ca0 <__pre_init_runtime_init_per_core_bootrom_reset>:
10007ca0:	10001baf                                ....

10007ca4 <__pre_init_runtime_init_per_core_enable_coprocessors>:
10007ca4:	10001b61                                a...

10007ca8 <__pre_init_spinlock_set_extexclall>:
10007ca8:	10000e21                                !...

10007cac <__pre_init_runtime_init_per_core_irq_priorities>:
10007cac:	10000ea9                                ....

10007cb0 <__init_array_start>:
10007cb0:	10003d59 	.word	0x10003d59

10007cb4 <__frame_dummy_init_array_entry>:
10007cb4:	1000020d                                ....

Disassembly of section .data:

20000110 <sem_acquire_blocking>:
20000110:	e006      	b.n	20000120 <sem_acquire_blocking+0x10>
20000112:	6801      	ldr	r1, [r0, #0]
20000114:	2300      	movs	r3, #0
20000116:	e8c1 3f8f 	stlb	r3, [r1]
2000011a:	f382 8810 	msr	PRIMASK, r2
2000011e:	bf20      	wfe
20000120:	6803      	ldr	r3, [r0, #0]
20000122:	f3ef 8210 	mrs	r2, PRIMASK
20000126:	b672      	cpsid	i
20000128:	e8d3 cfcf 	ldaexb	ip, [r3]
2000012c:	2101      	movs	r1, #1
2000012e:	f1bc 0f00 	cmp.w	ip, #0
20000132:	d1f9      	bne.n	20000128 <sem_acquire_blocking+0x18>
20000134:	e8c3 1f4c 	strexb	ip, r1, [r3]
20000138:	f1bc 0f00 	cmp.w	ip, #0
2000013c:	d1f4      	bne.n	20000128 <sem_acquire_blocking+0x18>
2000013e:	f3bf 8f5f 	dmb	sy
20000142:	f9b0 3004 	ldrsh.w	r3, [r0, #4]
20000146:	2b00      	cmp	r3, #0
20000148:	dde3      	ble.n	20000112 <sem_acquire_blocking+0x2>
2000014a:	3b01      	subs	r3, #1
2000014c:	8083      	strh	r3, [r0, #4]
2000014e:	6801      	ldr	r1, [r0, #0]
20000150:	2300      	movs	r3, #0
20000152:	e8c1 3f8f 	stlb	r3, [r1]
20000156:	f382 8810 	msr	PRIMASK, r2
2000015a:	4770      	bx	lr

2000015c <sem_release>:
2000015c:	6803      	ldr	r3, [r0, #0]
2000015e:	f3ef 8210 	mrs	r2, PRIMASK
20000162:	b672      	cpsid	i
20000164:	e8d3 cfcf 	ldaexb	ip, [r3]
20000168:	2101      	movs	r1, #1
2000016a:	f1bc 0f00 	cmp.w	ip, #0
2000016e:	d1f9      	bne.n	20000164 <sem_release+0x8>
20000170:	e8c3 1f4c 	strexb	ip, r1, [r3]
20000174:	f1bc 0f00 	cmp.w	ip, #0
20000178:	d1f4      	bne.n	20000164 <sem_release+0x8>
2000017a:	f3bf 8f5f 	dmb	sy
2000017e:	f9b0 3004 	ldrsh.w	r3, [r0, #4]
20000182:	f9b0 1006 	ldrsh.w	r1, [r0, #6]
20000186:	428b      	cmp	r3, r1
20000188:	da0a      	bge.n	200001a0 <sem_release+0x44>
2000018a:	3301      	adds	r3, #1
2000018c:	8083      	strh	r3, [r0, #4]
2000018e:	6801      	ldr	r1, [r0, #0]
20000190:	2300      	movs	r3, #0
20000192:	e8c1 3f8f 	stlb	r3, [r1]
20000196:	f382 8810 	msr	PRIMASK, r2
2000019a:	bf40      	sev
2000019c:	2001      	movs	r0, #1
2000019e:	4770      	bx	lr
200001a0:	6803      	ldr	r3, [r0, #0]
200001a2:	2000      	movs	r0, #0
200001a4:	e8c3 0f8f 	stlb	r0, [r3]
200001a8:	f382 8810 	msr	PRIMASK, r2
200001ac:	4770      	bx	lr

200001ae <mutex_enter_blocking>:
200001ae:	b500      	push	{lr}
200001b0:	f04f 4350 	mov.w	r3, #3489660928	; 0xd0000000
200001b4:	f993 e000 	ldrsb.w	lr, [r3]
200001b8:	e006      	b.n	200001c8 <mutex_enter_blocking+0x1a>
200001ba:	6801      	ldr	r1, [r0, #0]
200001bc:	2300      	movs	r3, #0
200001be:	e8c1 3f8f 	stlb	r3, [r1]
200001c2:	f382 8810 	msr	PRIMASK, r2
200001c6:	bf20      	wfe
200001c8:	6803      	ldr	r3, [r0, #0]
200001ca:	f3ef 8210 	mrs	r2, PRIMASK
200001ce:	b672      	cpsid	i
200001d0:	e8d3 cfcf 	ldaexb	ip, [r3]
200001d4:	2101      	movs	r1, #1
200001d6:	f1bc 0f00 	cmp.w	ip, #0
200001da:	d1f9      	bne.n	200001d0 <mutex_enter_blocking+0x22>
200001dc:	e8c3 1f4c 	strexb	ip, r1, [r3]
200001e0:	f1bc 0f00 	cmp.w	ip, #0
200001e4:	d1f4      	bne.n	200001d0 <mutex_enter_blocking+0x22>
200001e6:	f3bf 8f5f 	dmb	sy
200001ea:	f990 3004 	ldrsb.w	r3, [r0, #4]
200001ee:	2b00      	cmp	r3, #0
200001f0:	dae3      	bge.n	200001ba <mutex_enter_blocking+0xc>
200001f2:	f880 e004 	strb.w	lr, [r0, #4]
200001f6:	6801      	ldr	r1, [r0, #0]
200001f8:	2300      	movs	r3, #0
200001fa:	e8c1 3f8f 	stlb	r3, [r1]
200001fe:	f382 8810 	msr	PRIMASK, r2
20000202:	f85d fb04 	ldr.w	pc, [sp], #4

20000206 <mutex_try_enter>:
20000206:	b500      	push	{lr}
20000208:	4603      	mov	r3, r0
2000020a:	6802      	ldr	r2, [r0, #0]
2000020c:	f3ef 8c10 	mrs	ip, PRIMASK
20000210:	b672      	cpsid	i
20000212:	e8d2 efcf 	ldaexb	lr, [r2]
20000216:	2001      	movs	r0, #1
20000218:	f1be 0f00 	cmp.w	lr, #0
2000021c:	d1f9      	bne.n	20000212 <mutex_try_enter+0xc>
2000021e:	e8c2 0f4e 	strexb	lr, r0, [r2]
20000222:	f1be 0f00 	cmp.w	lr, #0
20000226:	d1f4      	bne.n	20000212 <mutex_try_enter+0xc>
20000228:	f3bf 8f5f 	dmb	sy
2000022c:	f993 2004 	ldrsb.w	r2, [r3, #4]
20000230:	2a00      	cmp	r2, #0
20000232:	db0a      	blt.n	2000024a <mutex_try_enter+0x44>
20000234:	b181      	cbz	r1, 20000258 <mutex_try_enter+0x52>
20000236:	600a      	str	r2, [r1, #0]
20000238:	2000      	movs	r0, #0
2000023a:	681a      	ldr	r2, [r3, #0]
2000023c:	2300      	movs	r3, #0
2000023e:	e8c2 3f8f 	stlb	r3, [r2]
20000242:	f38c 8810 	msr	PRIMASK, ip
20000246:	f85d fb04 	ldr.w	pc, [sp], #4
2000024a:	f04f 4250 	mov.w	r2, #3489660928	; 0xd0000000
2000024e:	f992 2000 	ldrsb.w	r2, [r2]
20000252:	711a      	strb	r2, [r3, #4]
20000254:	2001      	movs	r0, #1
20000256:	e7f0      	b.n	2000023a <mutex_try_enter+0x34>
20000258:	2000      	movs	r0, #0
2000025a:	e7ee      	b.n	2000023a <mutex_try_enter+0x34>

2000025c <mutex_enter_block_until>:
2000025c:	b5f8      	push	{r3, r4, r5, r6, r7, lr}
2000025e:	461e      	mov	r6, r3
20000260:	6803      	ldr	r3, [r0, #0]
20000262:	2b00      	cmp	r3, #0
20000264:	d027      	beq.n	200002b6 <mutex_enter_block_until+0x5a>
20000266:	4604      	mov	r4, r0
20000268:	4615      	mov	r5, r2
2000026a:	f04f 4350 	mov.w	r3, #3489660928	; 0xd0000000
2000026e:	f993 7000 	ldrsb.w	r7, [r3]
20000272:	6821      	ldr	r1, [r4, #0]
20000274:	f3ef 8c10 	mrs	ip, PRIMASK
20000278:	b672      	cpsid	i
2000027a:	e8d1 2fcf 	ldaexb	r2, [r1]
2000027e:	2301      	movs	r3, #1
20000280:	2a00      	cmp	r2, #0
20000282:	d1fa      	bne.n	2000027a <mutex_enter_block_until+0x1e>
20000284:	e8c1 3f42 	strexb	r2, r3, [r1]
20000288:	2a00      	cmp	r2, #0
2000028a:	d1f6      	bne.n	2000027a <mutex_enter_block_until+0x1e>
2000028c:	f3bf 8f5f 	dmb	sy
20000290:	f994 e004 	ldrsb.w	lr, [r4, #4]
20000294:	f1be 0f00 	cmp.w	lr, #0
20000298:	db13      	blt.n	200002c2 <mutex_enter_block_until+0x66>
2000029a:	6822      	ldr	r2, [r4, #0]
2000029c:	2300      	movs	r3, #0
2000029e:	e8c2 3f8f 	stlb	r3, [r2]
200002a2:	f38c 8810 	msr	PRIMASK, ip
200002a6:	4628      	mov	r0, r5
200002a8:	4631      	mov	r1, r6
200002aa:	f001 fbe5 	bl	20001a78 <__best_effort_wfe_or_timeout_veneer>
200002ae:	2800      	cmp	r0, #0
200002b0:	d0df      	beq.n	20000272 <mutex_enter_block_until+0x16>
200002b2:	2000      	movs	r0, #0
200002b4:	e00d      	b.n	200002d2 <mutex_enter_block_until+0x76>
200002b6:	4b07      	ldr	r3, [pc, #28]	; (200002d4 <mutex_enter_block_until+0x78>)
200002b8:	4a07      	ldr	r2, [pc, #28]	; (200002d8 <mutex_enter_block_until+0x7c>)
200002ba:	21a6      	movs	r1, #166	; 0xa6
200002bc:	4807      	ldr	r0, [pc, #28]	; (200002dc <mutex_enter_block_until+0x80>)
200002be:	f001 fbf3 	bl	20001aa8 <____assert_func_veneer>
200002c2:	7127      	strb	r7, [r4, #4]
200002c4:	6822      	ldr	r2, [r4, #0]
200002c6:	2300      	movs	r3, #0
200002c8:	e8c2 3f8f 	stlb	r3, [r2]
200002cc:	f38c 8810 	msr	PRIMASK, ip
200002d0:	2001      	movs	r0, #1
200002d2:	bdf8      	pop	{r3, r4, r5, r6, r7, pc}
200002d4:	10007e80 	.word	0x10007e80
200002d8:	10007ed8 	.word	0x10007ed8
200002dc:	10007e48 	.word	0x10007e48

200002e0 <mutex_try_enter_block_until>:
200002e0:	b570      	push	{r4, r5, r6, lr}
200002e2:	b082      	sub	sp, #8
200002e4:	4606      	mov	r6, r0
200002e6:	4615      	mov	r5, r2
200002e8:	461c      	mov	r4, r3
200002ea:	a901      	add	r1, sp, #4
200002ec:	f7ff ff8b 	bl	20000206 <mutex_try_enter>
200002f0:	b938      	cbnz	r0, 20000302 <mutex_try_enter_block_until+0x22>
200002f2:	f99d 2004 	ldrsb.w	r2, [sp, #4]
200002f6:	f04f 4350 	mov.w	r3, #3489660928	; 0xd0000000
200002fa:	f993 3000 	ldrsb.w	r3, [r3]
200002fe:	429a      	cmp	r2, r3
20000300:	d101      	bne.n	20000306 <mutex_try_enter_block_until+0x26>
20000302:	b002      	add	sp, #8
20000304:	bd70      	pop	{r4, r5, r6, pc}
20000306:	462a      	mov	r2, r5
20000308:	4623      	mov	r3, r4
2000030a:	4630      	mov	r0, r6
2000030c:	f7ff ffa6 	bl	2000025c <mutex_enter_block_until>
20000310:	e7f7      	b.n	20000302 <mutex_try_enter_block_until+0x22>

20000312 <mutex_enter_timeout_ms>:
20000312:	b538      	push	{r3, r4, r5, lr}
20000314:	4604      	mov	r4, r0
20000316:	460d      	mov	r5, r1
20000318:	f001 fb96 	bl	20001a48 <__time_us_64_veneer>
2000031c:	0eeb      	lsrs	r3, r5, #27
2000031e:	ea4f 1c45 	mov.w	ip, r5, lsl #5
20000322:	ebbc 0c05 	subs.w	ip, ip, r5
20000326:	f163 0300 	sbc.w	r3, r3, #0
2000032a:	009b      	lsls	r3, r3, #2
2000032c:	ea43 739c 	orr.w	r3, r3, ip, lsr #30
20000330:	ea4f 0c8c 	mov.w	ip, ip, lsl #2
20000334:	eb1c 0c05 	adds.w	ip, ip, r5
20000338:	f143 0300 	adc.w	r3, r3, #0
2000033c:	00db      	lsls	r3, r3, #3
2000033e:	ea43 735c 	orr.w	r3, r3, ip, lsr #29
20000342:	ea4f 0ccc 	mov.w	ip, ip, lsl #3
20000346:	eb10 020c 	adds.w	r2, r0, ip
2000034a:	eb43 0301 	adc.w	r3, r3, r1
2000034e:	2b00      	cmp	r3, #0
20000350:	db03      	blt.n	2000035a <mutex_enter_timeout_ms+0x48>
20000352:	4620      	mov	r0, r4
20000354:	f7ff ff82 	bl	2000025c <mutex_enter_block_until>
20000358:	bd38      	pop	{r3, r4, r5, pc}
2000035a:	f04f 32ff 	mov.w	r2, #4294967295
2000035e:	f06f 4300 	mvn.w	r3, #2147483648	; 0x80000000
20000362:	e7f6      	b.n	20000352 <mutex_enter_timeout_ms+0x40>

20000364 <mutex_exit>:
20000364:	b508      	push	{r3, lr}
20000366:	6803      	ldr	r3, [r0, #0]
20000368:	f3ef 8210 	mrs	r2, PRIMASK
2000036c:	b672      	cpsid	i
2000036e:	e8d3 cfcf 	ldaexb	ip, [r3]
20000372:	2101      	movs	r1, #1
20000374:	f1bc 0f00 	cmp.w	ip, #0
20000378:	d1f9      	bne.n	2000036e <mutex_exit+0xa>
2000037a:	e8c3 1f4c 	strexb	ip, r1, [r3]
2000037e:	f1bc 0f00 	cmp.w	ip, #0
20000382:	d1f4      	bne.n	2000036e <mutex_exit+0xa>
20000384:	f3bf 8f5f 	dmb	sy
20000388:	f990 3004 	ldrsb.w	r3, [r0, #4]
2000038c:	2b00      	cmp	r3, #0
2000038e:	db09      	blt.n	200003a4 <mutex_exit+0x40>
20000390:	23ff      	movs	r3, #255	; 0xff
20000392:	7103      	strb	r3, [r0, #4]
20000394:	6801      	ldr	r1, [r0, #0]
20000396:	2300      	movs	r3, #0
20000398:	e8c1 3f8f 	stlb	r3, [r1]
2000039c:	f382 8810 	msr	PRIMASK, r2
200003a0:	bf40      	sev
200003a2:	bd08      	pop	{r3, pc}
200003a4:	4b02      	ldr	r3, [pc, #8]	; (200003b0 <mutex_exit+0x4c>)
200003a6:	4a03      	ldr	r2, [pc, #12]	; (200003b4 <mutex_exit+0x50>)
200003a8:	21d5      	movs	r1, #213	; 0xd5
200003aa:	4803      	ldr	r0, [pc, #12]	; (200003b8 <mutex_exit+0x54>)
200003ac:	f001 fb7c 	bl	20001aa8 <____assert_func_veneer>
200003b0:	10007e94 	.word	0x10007e94
200003b4:	10007ecc 	.word	0x10007ecc
200003b8:	10007e48 	.word	0x10007e48

200003bc <reset_non_control_endpoints>:
200003bc:	b508      	push	{r3, lr}
200003be:	2300      	movs	r3, #0
200003c0:	e008      	b.n	200003d4 <reset_non_control_endpoints+0x18>
200003c2:	4a0a      	ldr	r2, [pc, #40]	; (200003ec <reset_non_control_endpoints+0x30>)
200003c4:	3301      	adds	r3, #1
200003c6:	2100      	movs	r1, #0
200003c8:	f842 1033 	str.w	r1, [r2, r3, lsl #3]
200003cc:	eb02 02c3 	add.w	r2, r2, r3, lsl #3
200003d0:	6051      	str	r1, [r2, #4]
200003d2:	b2db      	uxtb	r3, r3
200003d4:	2b0e      	cmp	r3, #14
200003d6:	d9f4      	bls.n	200003c2 <reset_non_control_endpoints+0x6>
200003d8:	f44f 7270 	mov.w	r2, #960	; 0x3c0
200003dc:	2100      	movs	r1, #0
200003de:	4804      	ldr	r0, [pc, #16]	; (200003f0 <reset_non_control_endpoints+0x34>)
200003e0:	f001 fb2a 	bl	20001a38 <__memset_veneer>
200003e4:	4b03      	ldr	r3, [pc, #12]	; (200003f4 <reset_non_control_endpoints+0x38>)
200003e6:	4a04      	ldr	r2, [pc, #16]	; (200003f8 <reset_non_control_endpoints+0x3c>)
200003e8:	601a      	str	r2, [r3, #0]
200003ea:	bd08      	pop	{r3, pc}
200003ec:	50100000 	.word	0x50100000
200003f0:	20002c84 	.word	0x20002c84
200003f4:	20003048 	.word	0x20003048
200003f8:	50100180 	.word	0x50100180

200003fc <hw_handle_buff_status>:
200003fc:	e92d 43f0 	stmdb	sp!, {r4, r5, r6, r7, r8, r9, lr}
20000400:	b085      	sub	sp, #20
20000402:	4b20      	ldr	r3, [pc, #128]	; (20000484 <hw_handle_buff_status+0x88>)
20000404:	6d9e      	ldr	r6, [r3, #88]	; 0x58
20000406:	2400      	movs	r4, #0
20000408:	2501      	movs	r5, #1
2000040a:	e004      	b.n	20000416 <hw_handle_buff_status+0x1a>
2000040c:	ea26 0605 	bic.w	r6, r6, r5
20000410:	006d      	lsls	r5, r5, #1
20000412:	3401      	adds	r4, #1
20000414:	b2e4      	uxtb	r4, r4
20000416:	b38e      	cbz	r6, 2000047c <hw_handle_buff_status+0x80>
20000418:	2c1f      	cmp	r4, #31
2000041a:	d82f      	bhi.n	2000047c <hw_handle_buff_status+0x80>
2000041c:	422e      	tst	r6, r5
2000041e:	d0f7      	beq.n	20000410 <hw_handle_buff_status+0x14>
20000420:	4b19      	ldr	r3, [pc, #100]	; (20000488 <hw_handle_buff_status+0x8c>)
20000422:	659d      	str	r5, [r3, #88]	; 0x58
20000424:	ea4f 0954 	mov.w	r9, r4, lsr #1
20000428:	f084 0701 	eor.w	r7, r4, #1
2000042c:	f007 0701 	and.w	r7, r7, #1
20000430:	f004 08fe 	and.w	r8, r4, #254	; 0xfe
20000434:	eb08 0307 	add.w	r3, r8, r7
20000438:	4a14      	ldr	r2, [pc, #80]	; (2000048c <hw_handle_buff_status+0x90>)
2000043a:	eb02 1843 	add.w	r8, r2, r3, lsl #5
2000043e:	4640      	mov	r0, r8
20000440:	f000 fa30 	bl	200008a4 <hw_endpoint_xfer_continue>
20000444:	2800      	cmp	r0, #0
20000446:	d0e1      	beq.n	2000040c <hw_handle_buff_status+0x10>
20000448:	eb07 0749 	add.w	r7, r7, r9, lsl #1
2000044c:	4b0f      	ldr	r3, [pc, #60]	; (2000048c <hw_handle_buff_status+0x90>)
2000044e:	eb03 1747 	add.w	r7, r3, r7, lsl #5
20000452:	78b9      	ldrb	r1, [r7, #2]
20000454:	8afa      	ldrh	r2, [r7, #22]
20000456:	2300      	movs	r3, #0
20000458:	f88d 3004 	strb.w	r3, [sp, #4]
2000045c:	2007      	movs	r0, #7
2000045e:	f88d 0005 	strb.w	r0, [sp, #5]
20000462:	f88d 1008 	strb.w	r1, [sp, #8]
20000466:	9203      	str	r2, [sp, #12]
20000468:	f88d 3009 	strb.w	r3, [sp, #9]
2000046c:	2101      	movs	r1, #1
2000046e:	a801      	add	r0, sp, #4
20000470:	f000 fa36 	bl	200008e0 <dcd_event_handler>
20000474:	4640      	mov	r0, r8
20000476:	f000 f9b0 	bl	200007da <hw_endpoint_reset_transfer>
2000047a:	e7c7      	b.n	2000040c <hw_handle_buff_status+0x10>
2000047c:	b005      	add	sp, #20
2000047e:	e8bd 83f0 	ldmia.w	sp!, {r4, r5, r6, r7, r8, r9, pc}
20000482:	bf00      	nop
20000484:	50110000 	.word	0x50110000
20000488:	50113000 	.word	0x50113000
2000048c:	20002c44 	.word	0x20002c44

20000490 <dcd_rp2040_irq>:
20000490:	e92d 43f0 	stmdb	sp!, {r4, r5, r6, r7, r8, r9, lr}
20000494:	b085      	sub	sp, #20
20000496:	4b72      	ldr	r3, [pc, #456]	; (20000660 <dcd_rp2040_irq+0x1d0>)
20000498:	f8d3 5098 	ldr.w	r5, [r3, #152]	; 0x98
2000049c:	f415 3700 	ands.w	r7, r5, #131072	; 0x20000
200004a0:	d047      	beq.n	20000532 <dcd_rp2040_irq+0xa2>
200004a2:	4b70      	ldr	r3, [pc, #448]	; (20000664 <dcd_rp2040_irq+0x1d4>)
200004a4:	6a9a      	ldr	r2, [r3, #40]	; 0x28
200004a6:	4b70      	ldr	r3, [pc, #448]	; (20000668 <dcd_rp2040_irq+0x1d8>)
200004a8:	601a      	str	r2, [r3, #0]
200004aa:	2400      	movs	r4, #0
200004ac:	4627      	mov	r7, r4
200004ae:	e00a      	b.n	200004c6 <dcd_rp2040_irq+0x36>
200004b0:	4b6e      	ldr	r3, [pc, #440]	; (2000066c <dcd_rp2040_irq+0x1dc>)
200004b2:	eb03 1184 	add.w	r1, r3, r4, lsl #6
200004b6:	2300      	movs	r3, #0
200004b8:	f881 303c 	strb.w	r3, [r1, #60]	; 0x3c
200004bc:	f000 f9ba 	bl	20000834 <hw_endpoint_start_next_buffer>
200004c0:	4637      	mov	r7, r6
200004c2:	3401      	adds	r4, #1
200004c4:	b2e4      	uxtb	r4, r4
200004c6:	2c0f      	cmp	r4, #15
200004c8:	d819      	bhi.n	200004fe <dcd_rp2040_irq+0x6e>
200004ca:	4b68      	ldr	r3, [pc, #416]	; (2000066c <dcd_rp2040_irq+0x1dc>)
200004cc:	01a2      	lsls	r2, r4, #6
200004ce:	f102 0020 	add.w	r0, r2, #32
200004d2:	4418      	add	r0, r3
200004d4:	4413      	add	r3, r2
200004d6:	f893 303b 	ldrb.w	r3, [r3, #59]	; 0x3b
200004da:	2b02      	cmp	r3, #2
200004dc:	d1f1      	bne.n	200004c2 <dcd_rp2040_irq+0x32>
200004de:	4b63      	ldr	r3, [pc, #396]	; (2000066c <dcd_rp2040_irq+0x1dc>)
200004e0:	eb03 1384 	add.w	r3, r3, r4, lsl #6
200004e4:	f893 603a 	ldrb.w	r6, [r3, #58]	; 0x3a
200004e8:	2e00      	cmp	r6, #0
200004ea:	d0ea      	beq.n	200004c2 <dcd_rp2040_irq+0x32>
200004ec:	4b5f      	ldr	r3, [pc, #380]	; (2000066c <dcd_rp2040_irq+0x1dc>)
200004ee:	eb03 1384 	add.w	r3, r3, r4, lsl #6
200004f2:	f893 303c 	ldrb.w	r3, [r3, #60]	; 0x3c
200004f6:	2b00      	cmp	r3, #0
200004f8:	d1da      	bne.n	200004b0 <dcd_rp2040_irq+0x20>
200004fa:	4637      	mov	r7, r6
200004fc:	e7e1      	b.n	200004c2 <dcd_rp2040_irq+0x32>
200004fe:	b93f      	cbnz	r7, 20000510 <dcd_rp2040_irq+0x80>
20000500:	4b5b      	ldr	r3, [pc, #364]	; (20000670 <dcd_rp2040_irq+0x1e0>)
20000502:	781b      	ldrb	r3, [r3, #0]
20000504:	b923      	cbnz	r3, 20000510 <dcd_rp2040_irq+0x80>
20000506:	4b5b      	ldr	r3, [pc, #364]	; (20000674 <dcd_rp2040_irq+0x1e4>)
20000508:	f44f 3200 	mov.w	r2, #131072	; 0x20000
2000050c:	f8c3 2090 	str.w	r2, [r3, #144]	; 0x90
20000510:	4b53      	ldr	r3, [pc, #332]	; (20000660 <dcd_rp2040_irq+0x1d0>)
20000512:	6c9b      	ldr	r3, [r3, #72]	; 0x48
20000514:	f3c3 030a 	ubfx	r3, r3, #0, #11
20000518:	2200      	movs	r2, #0
2000051a:	f88d 2004 	strb.w	r2, [sp, #4]
2000051e:	2203      	movs	r2, #3
20000520:	f88d 2005 	strb.w	r2, [sp, #5]
20000524:	9302      	str	r3, [sp, #8]
20000526:	2101      	movs	r1, #1
20000528:	a801      	add	r0, sp, #4
2000052a:	f000 f9d9 	bl	200008e0 <dcd_event_handler>
2000052e:	f44f 3700 	mov.w	r7, #131072	; 0x20000
20000532:	f015 0f10 	tst.w	r5, #16
20000536:	d106      	bne.n	20000546 <dcd_rp2040_irq+0xb6>
20000538:	f415 3f80 	tst.w	r5, #65536	; 0x10000
2000053c:	d045      	beq.n	200005ca <dcd_rp2040_irq+0x13a>
2000053e:	f447 3780 	orr.w	r7, r7, #65536	; 0x10000
20000542:	2400      	movs	r4, #0
20000544:	e01f      	b.n	20000586 <dcd_rp2040_irq+0xf6>
20000546:	f047 0710 	orr.w	r7, r7, #16
2000054a:	f7ff ff57 	bl	200003fc <hw_handle_buff_status>
2000054e:	e7f3      	b.n	20000538 <dcd_rp2040_irq+0xa8>
20000550:	2602      	movs	r6, #2
20000552:	4b49      	ldr	r3, [pc, #292]	; (20000678 <dcd_rp2040_irq+0x1e8>)
20000554:	661e      	str	r6, [r3, #96]	; 0x60
20000556:	4b42      	ldr	r3, [pc, #264]	; (20000660 <dcd_rp2040_irq+0x1d0>)
20000558:	6e5b      	ldr	r3, [r3, #100]	; 0x64
2000055a:	ea36 0303 	bics.w	r3, r6, r3
2000055e:	d1fa      	bne.n	20000556 <dcd_rp2040_irq+0xc6>
20000560:	f44f 5240 	mov.w	r2, #12288	; 0x3000
20000564:	2100      	movs	r1, #0
20000566:	4640      	mov	r0, r8
20000568:	f000 f93e 	bl	200007e8 <_hw_endpoint_buffer_control_update32>
2000056c:	4640      	mov	r0, r8
2000056e:	f000 f934 	bl	200007da <hw_endpoint_reset_transfer>
20000572:	4b40      	ldr	r3, [pc, #256]	; (20000674 <dcd_rp2040_irq+0x1e4>)
20000574:	665e      	str	r6, [r3, #100]	; 0x64
20000576:	661e      	str	r6, [r3, #96]	; 0x60
20000578:	4b3c      	ldr	r3, [pc, #240]	; (2000066c <dcd_rp2040_irq+0x1dc>)
2000057a:	eb03 1349 	add.w	r3, r3, r9, lsl #5
2000057e:	2201      	movs	r2, #1
20000580:	70da      	strb	r2, [r3, #3]
20000582:	4414      	add	r4, r2
20000584:	b2e4      	uxtb	r4, r4
20000586:	2c01      	cmp	r4, #1
20000588:	d80b      	bhi.n	200005a2 <dcd_rp2040_irq+0x112>
2000058a:	46a1      	mov	r9, r4
2000058c:	4b37      	ldr	r3, [pc, #220]	; (2000066c <dcd_rp2040_irq+0x1dc>)
2000058e:	eb03 1844 	add.w	r8, r3, r4, lsl #5
20000592:	f898 301a 	ldrb.w	r3, [r8, #26]
20000596:	2b00      	cmp	r3, #0
20000598:	d0ee      	beq.n	20000578 <dcd_rp2040_irq+0xe8>
2000059a:	2c00      	cmp	r4, #0
2000059c:	d0d8      	beq.n	20000550 <dcd_rp2040_irq+0xc0>
2000059e:	2601      	movs	r6, #1
200005a0:	e7d7      	b.n	20000552 <dcd_rp2040_irq+0xc2>
200005a2:	2300      	movs	r3, #0
200005a4:	f88d 3004 	strb.w	r3, [sp, #4]
200005a8:	2306      	movs	r3, #6
200005aa:	f88d 3005 	strb.w	r3, [sp, #5]
200005ae:	4b33      	ldr	r3, [pc, #204]	; (2000067c <dcd_rp2040_irq+0x1ec>)
200005b0:	e893 0003 	ldmia.w	r3, {r0, r1}
200005b4:	ab04      	add	r3, sp, #16
200005b6:	e903 0003 	stmdb	r3, {r0, r1}
200005ba:	2101      	movs	r1, #1
200005bc:	a801      	add	r0, sp, #4
200005be:	f000 f98f 	bl	200008e0 <dcd_event_handler>
200005c2:	4b2c      	ldr	r3, [pc, #176]	; (20000674 <dcd_rp2040_irq+0x1e4>)
200005c4:	f44f 3200 	mov.w	r2, #131072	; 0x20000
200005c8:	651a      	str	r2, [r3, #80]	; 0x50
200005ca:	f415 5f80 	tst.w	r5, #4096	; 0x1000
200005ce:	d10a      	bne.n	200005e6 <dcd_rp2040_irq+0x156>
200005d0:	f415 4f80 	tst.w	r5, #16384	; 0x4000
200005d4:	d11d      	bne.n	20000612 <dcd_rp2040_irq+0x182>
200005d6:	f415 4f00 	tst.w	r5, #32768	; 0x8000
200005da:	d12b      	bne.n	20000634 <dcd_rp2040_irq+0x1a4>
200005dc:	42af      	cmp	r7, r5
200005de:	d13a      	bne.n	20000656 <dcd_rp2040_irq+0x1c6>
200005e0:	b005      	add	sp, #20
200005e2:	e8bd 83f0 	ldmia.w	sp!, {r4, r5, r6, r7, r8, r9, pc}
200005e6:	f447 5780 	orr.w	r7, r7, #4096	; 0x1000
200005ea:	2400      	movs	r4, #0
200005ec:	4b1c      	ldr	r3, [pc, #112]	; (20000660 <dcd_rp2040_irq+0x1d0>)
200005ee:	601c      	str	r4, [r3, #0]
200005f0:	f7ff fee4 	bl	200003bc <reset_non_control_endpoints>
200005f4:	f88d 4004 	strb.w	r4, [sp, #4]
200005f8:	2101      	movs	r1, #1
200005fa:	f88d 1005 	strb.w	r1, [sp, #5]
200005fe:	f88d 4008 	strb.w	r4, [sp, #8]
20000602:	a801      	add	r0, sp, #4
20000604:	f000 f96c 	bl	200008e0 <dcd_event_handler>
20000608:	4b1a      	ldr	r3, [pc, #104]	; (20000674 <dcd_rp2040_irq+0x1e4>)
2000060a:	f44f 2200 	mov.w	r2, #524288	; 0x80000
2000060e:	651a      	str	r2, [r3, #80]	; 0x50
20000610:	e7de      	b.n	200005d0 <dcd_rp2040_irq+0x140>
20000612:	f447 4780 	orr.w	r7, r7, #16384	; 0x4000
20000616:	2300      	movs	r3, #0
20000618:	f88d 3004 	strb.w	r3, [sp, #4]
2000061c:	2304      	movs	r3, #4
2000061e:	f88d 3005 	strb.w	r3, [sp, #5]
20000622:	2101      	movs	r1, #1
20000624:	eb0d 0003 	add.w	r0, sp, r3
20000628:	f000 f95a 	bl	200008e0 <dcd_event_handler>
2000062c:	4b11      	ldr	r3, [pc, #68]	; (20000674 <dcd_rp2040_irq+0x1e4>)
2000062e:	2210      	movs	r2, #16
20000630:	651a      	str	r2, [r3, #80]	; 0x50
20000632:	e7d0      	b.n	200005d6 <dcd_rp2040_irq+0x146>
20000634:	f447 4700 	orr.w	r7, r7, #32768	; 0x8000
20000638:	2300      	movs	r3, #0
2000063a:	f88d 3004 	strb.w	r3, [sp, #4]
2000063e:	2305      	movs	r3, #5
20000640:	f88d 3005 	strb.w	r3, [sp, #5]
20000644:	2101      	movs	r1, #1
20000646:	a801      	add	r0, sp, #4
20000648:	f000 f94a 	bl	200008e0 <dcd_event_handler>
2000064c:	4b09      	ldr	r3, [pc, #36]	; (20000674 <dcd_rp2040_irq+0x1e4>)
2000064e:	f44f 6200 	mov.w	r2, #2048	; 0x800
20000652:	651a      	str	r2, [r3, #80]	; 0x50
20000654:	e7c2      	b.n	200005dc <dcd_rp2040_irq+0x14c>
20000656:	ea87 0105 	eor.w	r1, r7, r5
2000065a:	4809      	ldr	r0, [pc, #36]	; (20000680 <dcd_rp2040_irq+0x1f0>)
2000065c:	f001 fa34 	bl	20001ac8 <__panic_veneer>
20000660:	50110000 	.word	0x50110000
20000664:	400b0000 	.word	0x400b0000
20000668:	20002c34 	.word	0x20002c34
2000066c:	20002c44 	.word	0x20002c44
20000670:	2000320d 	.word	0x2000320d
20000674:	50113000 	.word	0x50113000
20000678:	50112000 	.word	0x50112000
2000067c:	50100000 	.word	0x50100000
20000680:	1000895c 	.word	0x1000895c

20000684 <prepare_ep_buffer>:
20000684:	b5f8      	push	{r3, r4, r5, r6, r7, lr}
20000686:	4604      	mov	r4, r0
20000688:	460f      	mov	r7, r1
2000068a:	8a83      	ldrh	r3, [r0, #20]
2000068c:	8b06      	ldrh	r6, [r0, #24]
2000068e:	429e      	cmp	r6, r3
20000690:	bf28      	it	cs
20000692:	461e      	movcs	r6, r3
20000694:	1b9b      	subs	r3, r3, r6
20000696:	8283      	strh	r3, [r0, #20]
20000698:	f446 6280 	orr.w	r2, r6, #1024	; 0x400
2000069c:	78c3      	ldrb	r3, [r0, #3]
2000069e:	b17b      	cbz	r3, 200006c0 <prepare_ep_buffer+0x3c>
200006a0:	f44f 5500 	mov.w	r5, #8192	; 0x2000
200006a4:	4315      	orrs	r5, r2
200006a6:	f083 0301 	eor.w	r3, r3, #1
200006aa:	70e3      	strb	r3, [r4, #3]
200006ac:	7863      	ldrb	r3, [r4, #1]
200006ae:	b14b      	cbz	r3, 200006c4 <prepare_ep_buffer+0x40>
200006b0:	8aa3      	ldrh	r3, [r4, #20]
200006b2:	b90b      	cbnz	r3, 200006b8 <prepare_ep_buffer+0x34>
200006b4:	f445 4580 	orr.w	r5, r5, #16384	; 0x4000
200006b8:	b107      	cbz	r7, 200006bc <prepare_ep_buffer+0x38>
200006ba:	042d      	lsls	r5, r5, #16
200006bc:	4628      	mov	r0, r5
200006be:	bdf8      	pop	{r3, r4, r5, r6, r7, pc}
200006c0:	2500      	movs	r5, #0
200006c2:	e7ef      	b.n	200006a4 <prepare_ep_buffer+0x20>
200006c4:	68e0      	ldr	r0, [r4, #12]
200006c6:	4632      	mov	r2, r6
200006c8:	6921      	ldr	r1, [r4, #16]
200006ca:	eb00 1087 	add.w	r0, r0, r7, lsl #6
200006ce:	f001 f9c3 	bl	20001a58 <__unaligned_memcpy_veneer>
200006d2:	6923      	ldr	r3, [r4, #16]
200006d4:	4433      	add	r3, r6
200006d6:	6123      	str	r3, [r4, #16]
200006d8:	f445 4500 	orr.w	r5, r5, #32768	; 0x8000
200006dc:	e7e8      	b.n	200006b0 <prepare_ep_buffer+0x2c>
	...

200006e0 <e15_is_bulkin_ep>:
200006e0:	4b09      	ldr	r3, [pc, #36]	; (20000708 <e15_is_bulkin_ep+0x28>)
200006e2:	6c1b      	ldr	r3, [r3, #64]	; 0x40
200006e4:	f013 0f02 	tst.w	r3, #2
200006e8:	d10b      	bne.n	20000702 <e15_is_bulkin_ep+0x22>
200006ea:	7883      	ldrb	r3, [r0, #2]
200006ec:	09db      	lsrs	r3, r3, #7
200006ee:	d101      	bne.n	200006f4 <e15_is_bulkin_ep+0x14>
200006f0:	2000      	movs	r0, #0
200006f2:	4770      	bx	lr
200006f4:	7ec3      	ldrb	r3, [r0, #27]
200006f6:	2b02      	cmp	r3, #2
200006f8:	d001      	beq.n	200006fe <e15_is_bulkin_ep+0x1e>
200006fa:	2000      	movs	r0, #0
200006fc:	4770      	bx	lr
200006fe:	2001      	movs	r0, #1
20000700:	4770      	bx	lr
20000702:	2000      	movs	r0, #0
20000704:	4770      	bx	lr
20000706:	bf00      	nop
20000708:	50110000 	.word	0x50110000

2000070c <e15_is_critical_frame_period>:
2000070c:	b508      	push	{r3, lr}
2000070e:	f7ff ffe7 	bl	200006e0 <e15_is_bulkin_ep>
20000712:	b140      	cbz	r0, 20000726 <e15_is_critical_frame_period+0x1a>
20000714:	4b05      	ldr	r3, [pc, #20]	; (2000072c <e15_is_critical_frame_period+0x20>)
20000716:	6a9b      	ldr	r3, [r3, #40]	; 0x28
20000718:	4a05      	ldr	r2, [pc, #20]	; (20000730 <e15_is_critical_frame_period+0x24>)
2000071a:	6812      	ldr	r2, [r2, #0]
2000071c:	1a9b      	subs	r3, r3, r2
2000071e:	f5a3 7348 	sub.w	r3, r3, #800	; 0x320
20000722:	2bc6      	cmp	r3, #198	; 0xc6
20000724:	d800      	bhi.n	20000728 <e15_is_critical_frame_period+0x1c>
20000726:	bd08      	pop	{r3, pc}
20000728:	2000      	movs	r0, #0
2000072a:	e7fc      	b.n	20000726 <e15_is_critical_frame_period+0x1a>
2000072c:	400b0000 	.word	0x400b0000
20000730:	20002c34 	.word	0x20002c34

20000734 <sync_ep_buffer>:
20000734:	b538      	push	{r3, r4, r5, lr}
20000736:	4604      	mov	r4, r0
20000738:	6883      	ldr	r3, [r0, #8]
2000073a:	681b      	ldr	r3, [r3, #0]
2000073c:	4608      	mov	r0, r1
2000073e:	b101      	cbz	r1, 20000742 <sync_ep_buffer+0xe>
20000740:	0c1b      	lsrs	r3, r3, #16
20000742:	f3c3 0509 	ubfx	r5, r3, #0, #10
20000746:	7862      	ldrb	r2, [r4, #1]
20000748:	b992      	cbnz	r2, 20000770 <sync_ep_buffer+0x3c>
2000074a:	f413 4f00 	tst.w	r3, #32768	; 0x8000
2000074e:	d109      	bne.n	20000764 <sync_ep_buffer+0x30>
20000750:	8ae3      	ldrh	r3, [r4, #22]
20000752:	442b      	add	r3, r5
20000754:	82e3      	strh	r3, [r4, #22]
20000756:	8b23      	ldrh	r3, [r4, #24]
20000758:	42ab      	cmp	r3, r5
2000075a:	d901      	bls.n	20000760 <sync_ep_buffer+0x2c>
2000075c:	2300      	movs	r3, #0
2000075e:	82a3      	strh	r3, [r4, #20]
20000760:	4628      	mov	r0, r5
20000762:	bd38      	pop	{r3, r4, r5, pc}
20000764:	4b0e      	ldr	r3, [pc, #56]	; (200007a0 <sync_ep_buffer+0x6c>)
20000766:	4a0f      	ldr	r2, [pc, #60]	; (200007a4 <sync_ep_buffer+0x70>)
20000768:	21e8      	movs	r1, #232	; 0xe8
2000076a:	480f      	ldr	r0, [pc, #60]	; (200007a8 <sync_ep_buffer+0x74>)
2000076c:	f001 f99c 	bl	20001aa8 <____assert_func_veneer>
20000770:	f413 4f00 	tst.w	r3, #32768	; 0x8000
20000774:	d00d      	beq.n	20000792 <sync_ep_buffer+0x5e>
20000776:	68e1      	ldr	r1, [r4, #12]
20000778:	462a      	mov	r2, r5
2000077a:	eb01 1180 	add.w	r1, r1, r0, lsl #6
2000077e:	6920      	ldr	r0, [r4, #16]
20000780:	f001 f96a 	bl	20001a58 <__unaligned_memcpy_veneer>
20000784:	8ae3      	ldrh	r3, [r4, #22]
20000786:	442b      	add	r3, r5
20000788:	82e3      	strh	r3, [r4, #22]
2000078a:	6923      	ldr	r3, [r4, #16]
2000078c:	442b      	add	r3, r5
2000078e:	6123      	str	r3, [r4, #16]
20000790:	e7e1      	b.n	20000756 <sync_ep_buffer+0x22>
20000792:	4b06      	ldr	r3, [pc, #24]	; (200007ac <sync_ep_buffer+0x78>)
20000794:	4a03      	ldr	r2, [pc, #12]	; (200007a4 <sync_ep_buffer+0x70>)
20000796:	21ee      	movs	r1, #238	; 0xee
20000798:	4803      	ldr	r0, [pc, #12]	; (200007a8 <sync_ep_buffer+0x74>)
2000079a:	f001 f985 	bl	20001aa8 <____assert_func_veneer>
2000079e:	bf00      	nop
200007a0:	100089cc 	.word	0x100089cc
200007a4:	10008ad8 	.word	0x10008ad8
200007a8:	100089ec 	.word	0x100089ec
200007ac:	10008a38 	.word	0x10008a38

200007b0 <_hw_endpoint_xfer_sync>:
200007b0:	b510      	push	{r4, lr}
200007b2:	4604      	mov	r4, r0
200007b4:	6883      	ldr	r3, [r0, #8]
200007b6:	681b      	ldr	r3, [r3, #0]
200007b8:	2100      	movs	r1, #0
200007ba:	f7ff ffbb 	bl	20000734 <sync_ep_buffer>
200007be:	6863      	ldr	r3, [r4, #4]
200007c0:	681b      	ldr	r3, [r3, #0]
200007c2:	f013 4f80 	tst.w	r3, #1073741824	; 0x40000000
200007c6:	d002      	beq.n	200007ce <_hw_endpoint_xfer_sync+0x1e>
200007c8:	8b23      	ldrh	r3, [r4, #24]
200007ca:	4283      	cmp	r3, r0
200007cc:	d000      	beq.n	200007d0 <_hw_endpoint_xfer_sync+0x20>
200007ce:	bd10      	pop	{r4, pc}
200007d0:	2101      	movs	r1, #1
200007d2:	4620      	mov	r0, r4
200007d4:	f7ff ffae 	bl	20000734 <sync_ep_buffer>
200007d8:	e7f9      	b.n	200007ce <_hw_endpoint_xfer_sync+0x1e>

200007da <hw_endpoint_reset_transfer>:
200007da:	2300      	movs	r3, #0
200007dc:	7683      	strb	r3, [r0, #26]
200007de:	8283      	strh	r3, [r0, #20]
200007e0:	82c3      	strh	r3, [r0, #22]
200007e2:	6103      	str	r3, [r0, #16]
200007e4:	4770      	bx	lr
	...

200007e8 <_hw_endpoint_buffer_control_update32>:
200007e8:	b508      	push	{r3, lr}
200007ea:	460b      	mov	r3, r1
200007ec:	b111      	cbz	r1, 200007f4 <_hw_endpoint_buffer_control_update32+0xc>
200007ee:	6881      	ldr	r1, [r0, #8]
200007f0:	6809      	ldr	r1, [r1, #0]
200007f2:	400b      	ands	r3, r1
200007f4:	b19a      	cbz	r2, 2000081e <_hw_endpoint_buffer_control_update32+0x36>
200007f6:	4313      	orrs	r3, r2
200007f8:	f412 6f80 	tst.w	r2, #1024	; 0x400
200007fc:	d00f      	beq.n	2000081e <_hw_endpoint_buffer_control_update32+0x36>
200007fe:	6882      	ldr	r2, [r0, #8]
20000800:	6811      	ldr	r1, [r2, #0]
20000802:	f411 6f80 	tst.w	r1, #1024	; 0x400
20000806:	d10d      	bne.n	20000824 <_hw_endpoint_buffer_control_update32+0x3c>
20000808:	f423 6180 	bic.w	r1, r3, #1024	; 0x400
2000080c:	6011      	str	r1, [r2, #0]
2000080e:	4a07      	ldr	r2, [pc, #28]	; (2000082c <_hw_endpoint_buffer_control_update32+0x44>)
20000810:	6c12      	ldr	r2, [r2, #64]	; 0x40
20000812:	f012 0f02 	tst.w	r2, #2
20000816:	d102      	bne.n	2000081e <_hw_endpoint_buffer_control_update32+0x36>
20000818:	220c      	movs	r2, #12
2000081a:	3a03      	subs	r2, #3
2000081c:	d2fd      	bcs.n	2000081a <_hw_endpoint_buffer_control_update32+0x32>
2000081e:	6882      	ldr	r2, [r0, #8]
20000820:	6013      	str	r3, [r2, #0]
20000822:	bd08      	pop	{r3, pc}
20000824:	7881      	ldrb	r1, [r0, #2]
20000826:	4802      	ldr	r0, [pc, #8]	; (20000830 <_hw_endpoint_buffer_control_update32+0x48>)
20000828:	f001 f94e 	bl	20001ac8 <__panic_veneer>
2000082c:	50110000 	.word	0x50110000
20000830:	10008a58 	.word	0x10008a58

20000834 <hw_endpoint_start_next_buffer>:
20000834:	b570      	push	{r4, r5, r6, lr}
20000836:	4604      	mov	r4, r0
20000838:	6843      	ldr	r3, [r0, #4]
2000083a:	681d      	ldr	r5, [r3, #0]
2000083c:	2100      	movs	r1, #0
2000083e:	f7ff ff21 	bl	20000684 <prepare_ep_buffer>
20000842:	f440 5680 	orr.w	r6, r0, #4096	; 0x1000
20000846:	4b16      	ldr	r3, [pc, #88]	; (200008a0 <hw_endpoint_start_next_buffer+0x6c>)
20000848:	6c1b      	ldr	r3, [r3, #64]	; 0x40
2000084a:	f013 0302 	ands.w	r3, r3, #2
2000084e:	d102      	bne.n	20000856 <hw_endpoint_start_next_buffer+0x22>
20000850:	78a2      	ldrb	r2, [r4, #2]
20000852:	09d2      	lsrs	r2, r2, #7
20000854:	d006      	beq.n	20000864 <hw_endpoint_start_next_buffer+0x30>
20000856:	b13b      	cbz	r3, 20000868 <hw_endpoint_start_next_buffer+0x34>
20000858:	78a3      	ldrb	r3, [r4, #2]
2000085a:	f013 0f7f 	tst.w	r3, #127	; 0x7f
2000085e:	d113      	bne.n	20000888 <hw_endpoint_start_next_buffer+0x54>
20000860:	2300      	movs	r3, #0
20000862:	e002      	b.n	2000086a <hw_endpoint_start_next_buffer+0x36>
20000864:	2301      	movs	r3, #1
20000866:	e000      	b.n	2000086a <hw_endpoint_start_next_buffer+0x36>
20000868:	2300      	movs	r3, #0
2000086a:	8aa2      	ldrh	r2, [r4, #20]
2000086c:	b102      	cbz	r2, 20000870 <hw_endpoint_start_next_buffer+0x3c>
2000086e:	b16b      	cbz	r3, 2000088c <hw_endpoint_start_next_buffer+0x58>
20000870:	f025 45a0 	bic.w	r5, r5, #1342177280	; 0x50000000
20000874:	f045 5500 	orr.w	r5, r5, #536870912	; 0x20000000
20000878:	6863      	ldr	r3, [r4, #4]
2000087a:	601d      	str	r5, [r3, #0]
2000087c:	4632      	mov	r2, r6
2000087e:	2100      	movs	r1, #0
20000880:	4620      	mov	r0, r4
20000882:	f7ff ffb1 	bl	200007e8 <_hw_endpoint_buffer_control_update32>
20000886:	bd70      	pop	{r4, r5, r6, pc}
20000888:	2301      	movs	r3, #1
2000088a:	e7ee      	b.n	2000086a <hw_endpoint_start_next_buffer+0x36>
2000088c:	2101      	movs	r1, #1
2000088e:	4620      	mov	r0, r4
20000890:	f7ff fef8 	bl	20000684 <prepare_ep_buffer>
20000894:	4306      	orrs	r6, r0
20000896:	f025 5500 	bic.w	r5, r5, #536870912	; 0x20000000
2000089a:	f045 45a0 	orr.w	r5, r5, #1342177280	; 0x50000000
2000089e:	e7eb      	b.n	20000878 <hw_endpoint_start_next_buffer+0x44>
200008a0:	50110000 	.word	0x50110000

200008a4 <hw_endpoint_xfer_continue>:
200008a4:	b538      	push	{r3, r4, r5, lr}
200008a6:	4604      	mov	r4, r0
200008a8:	7e85      	ldrb	r5, [r0, #26]
200008aa:	b12d      	cbz	r5, 200008b8 <hw_endpoint_xfer_continue+0x14>
200008ac:	f7ff ff80 	bl	200007b0 <_hw_endpoint_xfer_sync>
200008b0:	8aa3      	ldrh	r3, [r4, #20]
200008b2:	b92b      	cbnz	r3, 200008c0 <hw_endpoint_xfer_continue+0x1c>
200008b4:	4628      	mov	r0, r5
200008b6:	bd38      	pop	{r3, r4, r5, pc}
200008b8:	7881      	ldrb	r1, [r0, #2]
200008ba:	4808      	ldr	r0, [pc, #32]	; (200008dc <hw_endpoint_xfer_continue+0x38>)
200008bc:	f001 f904 	bl	20001ac8 <__panic_veneer>
200008c0:	4620      	mov	r0, r4
200008c2:	f7ff ff23 	bl	2000070c <e15_is_critical_frame_period>
200008c6:	4605      	mov	r5, r0
200008c8:	b118      	cbz	r0, 200008d2 <hw_endpoint_xfer_continue+0x2e>
200008ca:	2301      	movs	r3, #1
200008cc:	7723      	strb	r3, [r4, #28]
200008ce:	2500      	movs	r5, #0
200008d0:	e7f0      	b.n	200008b4 <hw_endpoint_xfer_continue+0x10>
200008d2:	4620      	mov	r0, r4
200008d4:	f7ff ffae 	bl	20000834 <hw_endpoint_start_next_buffer>
200008d8:	e7ec      	b.n	200008b4 <hw_endpoint_xfer_continue+0x10>
200008da:	bf00      	nop
200008dc:	10008a78 	.word	0x10008a78

200008e0 <dcd_event_handler>:
200008e0:	b5f0      	push	{r4, r5, r6, r7, lr}
200008e2:	b085      	sub	sp, #20
200008e4:	4605      	mov	r5, r0
200008e6:	460e      	mov	r6, r1
200008e8:	7843      	ldrb	r3, [r0, #1]
200008ea:	3b02      	subs	r3, #2
200008ec:	2b04      	cmp	r3, #4
200008ee:	d815      	bhi.n	2000091c <dcd_event_handler+0x3c>
200008f0:	e8df f013 	tbh	[pc, r3, lsl #1]
200008f4:	006d0005 	.word	0x006d0005
200008f8:	0046003b 	.word	0x0046003b
200008fc:	00fe      	.short	0x00fe
200008fe:	4b87      	ldr	r3, [pc, #540]	; (20000b1c <dcd_event_handler+0x23c>)
20000900:	781a      	ldrb	r2, [r3, #0]
20000902:	f36f 0200 	bfc	r2, #0, #1
20000906:	701a      	strb	r2, [r3, #0]
20000908:	781a      	ldrb	r2, [r3, #0]
2000090a:	f36f 0241 	bfc	r2, #1, #1
2000090e:	701a      	strb	r2, [r3, #0]
20000910:	2100      	movs	r1, #0
20000912:	7059      	strb	r1, [r3, #1]
20000914:	781a      	ldrb	r2, [r3, #0]
20000916:	f361 0282 	bfi	r2, r1, #2, #1
2000091a:	701a      	strb	r2, [r3, #0]
2000091c:	4b80      	ldr	r3, [pc, #512]	; (20000b20 <dcd_event_handler+0x240>)
2000091e:	681c      	ldr	r4, [r3, #0]
20000920:	6963      	ldr	r3, [r4, #20]
20000922:	f3ef 8210 	mrs	r2, PRIMASK
20000926:	b672      	cpsid	i
20000928:	e8d3 0fcf 	ldaexb	r0, [r3]
2000092c:	2101      	movs	r1, #1
2000092e:	2800      	cmp	r0, #0
20000930:	d1fa      	bne.n	20000928 <dcd_event_handler+0x48>
20000932:	e8c3 1f40 	strexb	r0, r1, [r3]
20000936:	2800      	cmp	r0, #0
20000938:	d1f6      	bne.n	20000928 <dcd_event_handler+0x48>
2000093a:	f3bf 8f5f 	dmb	sy
2000093e:	61a2      	str	r2, [r4, #24]
20000940:	4629      	mov	r1, r5
20000942:	4620      	mov	r0, r4
20000944:	f001 f8b8 	bl	20001ab8 <__tu_fifo_write_veneer>
20000948:	6961      	ldr	r1, [r4, #20]
2000094a:	69a3      	ldr	r3, [r4, #24]
2000094c:	2200      	movs	r2, #0
2000094e:	e8c1 2f8f 	stlb	r2, [r1]
20000952:	f383 8810 	msr	PRIMASK, r3
20000956:	2800      	cmp	r0, #0
20000958:	f000 80d0 	beq.w	20000afc <dcd_event_handler+0x21c>
2000095c:	4632      	mov	r2, r6
2000095e:	7869      	ldrb	r1, [r5, #1]
20000960:	7828      	ldrb	r0, [r5, #0]
20000962:	f001 f8b9 	bl	20001ad8 <__tud_event_hook_cb_veneer>
20000966:	b005      	add	sp, #20
20000968:	bdf0      	pop	{r4, r5, r6, r7, pc}
2000096a:	4b6c      	ldr	r3, [pc, #432]	; (20000b1c <dcd_event_handler+0x23c>)
2000096c:	781b      	ldrb	r3, [r3, #0]
2000096e:	f013 0f01 	tst.w	r3, #1
20000972:	d0f8      	beq.n	20000966 <dcd_event_handler+0x86>
20000974:	4a69      	ldr	r2, [pc, #420]	; (20000b1c <dcd_event_handler+0x23c>)
20000976:	7813      	ldrb	r3, [r2, #0]
20000978:	f043 0304 	orr.w	r3, r3, #4
2000097c:	7013      	strb	r3, [r2, #0]
2000097e:	e7cd      	b.n	2000091c <dcd_event_handler+0x3c>
20000980:	4b66      	ldr	r3, [pc, #408]	; (20000b1c <dcd_event_handler+0x23c>)
20000982:	781b      	ldrb	r3, [r3, #0]
20000984:	f013 0f01 	tst.w	r3, #1
20000988:	d0ed      	beq.n	20000966 <dcd_event_handler+0x86>
2000098a:	4a64      	ldr	r2, [pc, #400]	; (20000b1c <dcd_event_handler+0x23c>)
2000098c:	7813      	ldrb	r3, [r2, #0]
2000098e:	f36f 0382 	bfc	r3, #2, #1
20000992:	7013      	strb	r3, [r2, #0]
20000994:	e7c2      	b.n	2000091c <dcd_event_handler+0x3c>
20000996:	1ad2      	subs	r2, r2, r3
20000998:	4b62      	ldr	r3, [pc, #392]	; (20000b24 <dcd_event_handler+0x244>)
2000099a:	eb03 1342 	add.w	r3, r3, r2, lsl #5
2000099e:	e00d      	b.n	200009bc <dcd_event_handler+0xdc>
200009a0:	3401      	adds	r4, #1
200009a2:	b2e4      	uxtb	r4, r4
200009a4:	4b60      	ldr	r3, [pc, #384]	; (20000b28 <dcd_event_handler+0x248>)
200009a6:	781b      	ldrb	r3, [r3, #0]
200009a8:	1c59      	adds	r1, r3, #1
200009aa:	4622      	mov	r2, r4
200009ac:	42a1      	cmp	r1, r4
200009ae:	db10      	blt.n	200009d2 <dcd_event_handler+0xf2>
200009b0:	42a3      	cmp	r3, r4
200009b2:	d9f0      	bls.n	20000996 <dcd_event_handler+0xb6>
200009b4:	4b5d      	ldr	r3, [pc, #372]	; (20000b2c <dcd_event_handler+0x24c>)
200009b6:	681b      	ldr	r3, [r3, #0]
200009b8:	eb03 1344 	add.w	r3, r3, r4, lsl #5
200009bc:	2b00      	cmp	r3, #0
200009be:	d0ef      	beq.n	200009a0 <dcd_event_handler+0xc0>
200009c0:	69db      	ldr	r3, [r3, #28]
200009c2:	2b00      	cmp	r3, #0
200009c4:	d0ec      	beq.n	200009a0 <dcd_event_handler+0xc0>
200009c6:	6869      	ldr	r1, [r5, #4]
200009c8:	7828      	ldrb	r0, [r5, #0]
200009ca:	4798      	blx	r3
200009cc:	e7e8      	b.n	200009a0 <dcd_event_handler+0xc0>
200009ce:	2400      	movs	r4, #0
200009d0:	e7e8      	b.n	200009a4 <dcd_event_handler+0xc4>
200009d2:	4b52      	ldr	r3, [pc, #328]	; (20000b1c <dcd_event_handler+0x23c>)
200009d4:	781b      	ldrb	r3, [r3, #0]
200009d6:	f013 0f04 	tst.w	r3, #4
200009da:	d136      	bne.n	20000a4a <dcd_event_handler+0x16a>
200009dc:	4b4f      	ldr	r3, [pc, #316]	; (20000b1c <dcd_event_handler+0x23c>)
200009de:	78db      	ldrb	r3, [r3, #3]
200009e0:	f013 0f01 	tst.w	r3, #1
200009e4:	d0bf      	beq.n	20000966 <dcd_event_handler+0x86>
200009e6:	2700      	movs	r7, #0
200009e8:	9701      	str	r7, [sp, #4]
200009ea:	9702      	str	r7, [sp, #8]
200009ec:	9703      	str	r7, [sp, #12]
200009ee:	782b      	ldrb	r3, [r5, #0]
200009f0:	f88d 3004 	strb.w	r3, [sp, #4]
200009f4:	2303      	movs	r3, #3
200009f6:	f88d 3005 	strb.w	r3, [sp, #5]
200009fa:	686b      	ldr	r3, [r5, #4]
200009fc:	9302      	str	r3, [sp, #8]
200009fe:	4b48      	ldr	r3, [pc, #288]	; (20000b20 <dcd_event_handler+0x240>)
20000a00:	681c      	ldr	r4, [r3, #0]
20000a02:	6963      	ldr	r3, [r4, #20]
20000a04:	f3ef 8210 	mrs	r2, PRIMASK
20000a08:	b672      	cpsid	i
20000a0a:	e8d3 0fcf 	ldaexb	r0, [r3]
20000a0e:	2101      	movs	r1, #1
20000a10:	2800      	cmp	r0, #0
20000a12:	d1fa      	bne.n	20000a0a <dcd_event_handler+0x12a>
20000a14:	e8c3 1f40 	strexb	r0, r1, [r3]
20000a18:	2800      	cmp	r0, #0
20000a1a:	d1f6      	bne.n	20000a0a <dcd_event_handler+0x12a>
20000a1c:	f3bf 8f5f 	dmb	sy
20000a20:	61a2      	str	r2, [r4, #24]
20000a22:	a901      	add	r1, sp, #4
20000a24:	4620      	mov	r0, r4
20000a26:	f001 f847 	bl	20001ab8 <__tu_fifo_write_veneer>
20000a2a:	6962      	ldr	r2, [r4, #20]
20000a2c:	69a3      	ldr	r3, [r4, #24]
20000a2e:	e8c2 7f8f 	stlb	r7, [r2]
20000a32:	f383 8810 	msr	PRIMASK, r3
20000a36:	2800      	cmp	r0, #0
20000a38:	d04a      	beq.n	20000ad0 <dcd_event_handler+0x1f0>
20000a3a:	4632      	mov	r2, r6
20000a3c:	f89d 1005 	ldrb.w	r1, [sp, #5]
20000a40:	f89d 0004 	ldrb.w	r0, [sp, #4]
20000a44:	f001 f848 	bl	20001ad8 <__tud_event_hook_cb_veneer>
20000a48:	e78d      	b.n	20000966 <dcd_event_handler+0x86>
20000a4a:	4a34      	ldr	r2, [pc, #208]	; (20000b1c <dcd_event_handler+0x23c>)
20000a4c:	7813      	ldrb	r3, [r2, #0]
20000a4e:	f36f 0382 	bfc	r3, #2, #1
20000a52:	7013      	strb	r3, [r2, #0]
20000a54:	2700      	movs	r7, #0
20000a56:	9701      	str	r7, [sp, #4]
20000a58:	9702      	str	r7, [sp, #8]
20000a5a:	9703      	str	r7, [sp, #12]
20000a5c:	782b      	ldrb	r3, [r5, #0]
20000a5e:	f88d 3004 	strb.w	r3, [sp, #4]
20000a62:	2305      	movs	r3, #5
20000a64:	f88d 3005 	strb.w	r3, [sp, #5]
20000a68:	4b2d      	ldr	r3, [pc, #180]	; (20000b20 <dcd_event_handler+0x240>)
20000a6a:	681c      	ldr	r4, [r3, #0]
20000a6c:	6963      	ldr	r3, [r4, #20]
20000a6e:	f3ef 8210 	mrs	r2, PRIMASK
20000a72:	b672      	cpsid	i
20000a74:	e8d3 0fcf 	ldaexb	r0, [r3]
20000a78:	2101      	movs	r1, #1
20000a7a:	2800      	cmp	r0, #0
20000a7c:	d1fa      	bne.n	20000a74 <dcd_event_handler+0x194>
20000a7e:	e8c3 1f40 	strexb	r0, r1, [r3]
20000a82:	2800      	cmp	r0, #0
20000a84:	d1f6      	bne.n	20000a74 <dcd_event_handler+0x194>
20000a86:	f3bf 8f5f 	dmb	sy
20000a8a:	61a2      	str	r2, [r4, #24]
20000a8c:	a901      	add	r1, sp, #4
20000a8e:	4620      	mov	r0, r4
20000a90:	f001 f812 	bl	20001ab8 <__tu_fifo_write_veneer>
20000a94:	6962      	ldr	r2, [r4, #20]
20000a96:	69a3      	ldr	r3, [r4, #24]
20000a98:	e8c2 7f8f 	stlb	r7, [r2]
20000a9c:	f383 8810 	msr	PRIMASK, r3
20000aa0:	b138      	cbz	r0, 20000ab2 <dcd_event_handler+0x1d2>
20000aa2:	4632      	mov	r2, r6
20000aa4:	f89d 1005 	ldrb.w	r1, [sp, #5]
20000aa8:	f89d 0004 	ldrb.w	r0, [sp, #4]
20000aac:	f001 f814 	bl	20001ad8 <__tud_event_hook_cb_veneer>
20000ab0:	e794      	b.n	200009dc <dcd_event_handler+0xfc>
20000ab2:	f240 1265 	movw	r2, #357	; 0x165
20000ab6:	491e      	ldr	r1, [pc, #120]	; (20000b30 <dcd_event_handler+0x250>)
20000ab8:	481e      	ldr	r0, [pc, #120]	; (20000b34 <dcd_event_handler+0x254>)
20000aba:	f000 ffd5 	bl	20001a68 <____wrap_printf_veneer>
20000abe:	f04f 23e0 	mov.w	r3, #3758153728	; 0xe000e000
20000ac2:	f8d3 3df0 	ldr.w	r3, [r3, #3568]	; 0xdf0
20000ac6:	f013 0f01 	tst.w	r3, #1
20000aca:	d087      	beq.n	200009dc <dcd_event_handler+0xfc>
20000acc:	be00      	bkpt	0x0000
20000ace:	e785      	b.n	200009dc <dcd_event_handler+0xfc>
20000ad0:	f240 1265 	movw	r2, #357	; 0x165
20000ad4:	4916      	ldr	r1, [pc, #88]	; (20000b30 <dcd_event_handler+0x250>)
20000ad6:	4817      	ldr	r0, [pc, #92]	; (20000b34 <dcd_event_handler+0x254>)
20000ad8:	f000 ffc6 	bl	20001a68 <____wrap_printf_veneer>
20000adc:	f04f 23e0 	mov.w	r3, #3758153728	; 0xe000e000
20000ae0:	f8d3 3df0 	ldr.w	r3, [r3, #3568]	; 0xdf0
20000ae4:	f013 0f01 	tst.w	r3, #1
20000ae8:	f43f af3d 	beq.w	20000966 <dcd_event_handler+0x86>
20000aec:	be00      	bkpt	0x0000
20000aee:	e73a      	b.n	20000966 <dcd_event_handler+0x86>
20000af0:	4a11      	ldr	r2, [pc, #68]	; (20000b38 <dcd_event_handler+0x258>)
20000af2:	7813      	ldrb	r3, [r2, #0]
20000af4:	3301      	adds	r3, #1
20000af6:	b2db      	uxtb	r3, r3
20000af8:	7013      	strb	r3, [r2, #0]
20000afa:	e70f      	b.n	2000091c <dcd_event_handler+0x3c>
20000afc:	f240 1265 	movw	r2, #357	; 0x165
20000b00:	490b      	ldr	r1, [pc, #44]	; (20000b30 <dcd_event_handler+0x250>)
20000b02:	480c      	ldr	r0, [pc, #48]	; (20000b34 <dcd_event_handler+0x254>)
20000b04:	f000 ffb0 	bl	20001a68 <____wrap_printf_veneer>
20000b08:	f04f 23e0 	mov.w	r3, #3758153728	; 0xe000e000
20000b0c:	f8d3 3df0 	ldr.w	r3, [r3, #3568]	; 0xdf0
20000b10:	f013 0f01 	tst.w	r3, #1
20000b14:	f43f af27 	beq.w	20000966 <dcd_event_handler+0x86>
20000b18:	be00      	bkpt	0x0000
20000b1a:	e724      	b.n	20000966 <dcd_event_handler+0x86>
20000b1c:	200027c0 	.word	0x200027c0
20000b20:	20002818 	.word	0x20002818
20000b24:	10008bb8 	.word	0x10008bb8
20000b28:	2000320c 	.word	0x2000320c
20000b2c:	200025d4 	.word	0x200025d4
20000b30:	10008b68 	.word	0x10008b68
20000b34:	10008ae8 	.word	0x10008ae8
20000b38:	2000320e 	.word	0x2000320e

20000b3c <default_scanvideo_scanline_repeat_count_fn>:
20000b3c:	2001      	movs	r0, #1
20000b3e:	4770      	bx	lr

20000b40 <isr_irq15>:
20000b40:	e92d 43f8 	stmdb	sp!, {r3, r4, r5, r6, r7, r8, r9, lr}
20000b44:	4b7b      	ldr	r3, [pc, #492]	; (20000d34 <isr_irq15+0x1f4>)
20000b46:	6b1a      	ldr	r2, [r3, #48]	; 0x30
20000b48:	07d4      	lsls	r4, r2, #31
20000b4a:	f140 8126 	bpl.w	20000d9a <isr_irq15+0x25a>
20000b4e:	2101      	movs	r1, #1
20000b50:	4c79      	ldr	r4, [pc, #484]	; (20000d38 <isr_irq15+0x1f8>)
20000b52:	68e2      	ldr	r2, [r4, #12]
20000b54:	6319      	str	r1, [r3, #48]	; 0x30
20000b56:	f3ef 8010 	mrs	r0, PRIMASK
20000b5a:	b672      	cpsid	i
20000b5c:	e8d2 1fcf 	ldaexb	r1, [r2]
20000b60:	2301      	movs	r3, #1
20000b62:	2900      	cmp	r1, #0
20000b64:	d1fa      	bne.n	20000b5c <isr_irq15+0x1c>
20000b66:	e8c2 3f41 	strexb	r1, r3, [r2]
20000b6a:	2900      	cmp	r1, #0
20000b6c:	d1f6      	bne.n	20000b5c <isr_irq15+0x1c>
20000b6e:	f3bf 8f5f 	dmb	sy
20000b72:	6921      	ldr	r1, [r4, #16]
20000b74:	2900      	cmp	r1, #0
20000b76:	f000 8241 	beq.w	20000ffc <isr_irq15+0x4bc>
20000b7a:	2500      	movs	r5, #0
20000b7c:	2300      	movs	r3, #0
20000b7e:	68e2      	ldr	r2, [r4, #12]
20000b80:	e8c2 3f8f 	stlb	r3, [r2]
20000b84:	f380 8810 	msr	PRIMASK, r0
20000b88:	4b6c      	ldr	r3, [pc, #432]	; (20000d3c <isr_irq15+0x1fc>)
20000b8a:	6808      	ldr	r0, [r1, #0]
20000b8c:	69a2      	ldr	r2, [r4, #24]
20000b8e:	4290      	cmp	r0, r2
20000b90:	bf18      	it	ne
20000b92:	4619      	movne	r1, r3
20000b94:	6b63      	ldr	r3, [r4, #52]	; 0x34
20000b96:	f3ef 8710 	mrs	r7, PRIMASK
20000b9a:	b672      	cpsid	i
20000b9c:	e8d3 0fcf 	ldaexb	r0, [r3]
20000ba0:	2201      	movs	r2, #1
20000ba2:	2800      	cmp	r0, #0
20000ba4:	d1fa      	bne.n	20000b9c <isr_irq15+0x5c>
20000ba6:	e8c3 2f40 	strexb	r0, r2, [r3]
20000baa:	2800      	cmp	r0, #0
20000bac:	d1f6      	bne.n	20000b9c <isr_irq15+0x5c>
20000bae:	f3bf 8f5f 	dmb	sy
20000bb2:	f894 303d 	ldrb.w	r3, [r4, #61]	; 0x3d
20000bb6:	2b00      	cmp	r3, #0
20000bb8:	f040 8293 	bne.w	200010e2 <isr_irq15+0x5a2>
20000bbc:	6ba3      	ldr	r3, [r4, #56]	; 0x38
20000bbe:	2b00      	cmp	r3, #0
20000bc0:	f040 82ff 	bne.w	200011c2 <isr_irq15+0x682>
20000bc4:	f894 603c 	ldrb.w	r6, [r4, #60]	; 0x3c
20000bc8:	2e00      	cmp	r6, #0
20000bca:	f040 8301 	bne.w	200011d0 <isr_irq15+0x690>
20000bce:	6b62      	ldr	r2, [r4, #52]	; 0x34
20000bd0:	e8c2 6f8f 	stlb	r6, [r2]
20000bd4:	f387 8810 	msr	PRIMASK, r7
20000bd8:	4b56      	ldr	r3, [pc, #344]	; (20000d34 <isr_irq15+0x1f4>)
20000bda:	685a      	ldr	r2, [r3, #4]
20000bdc:	01d2      	lsls	r2, r2, #7
20000bde:	d408      	bmi.n	20000bf2 <isr_irq15+0xb2>
20000be0:	f04f 4000 	mov.w	r0, #2147483648	; 0x80000000
20000be4:	f246 0760 	movw	r7, #24672	; 0x6060
20000be8:	4a55      	ldr	r2, [pc, #340]	; (20000d40 <isr_irq15+0x200>)
20000bea:	6010      	str	r0, [r2, #0]
20000bec:	6010      	str	r0, [r2, #0]
20000bee:	f8c3 70d8 	str.w	r7, [r3, #216]	; 0xd8
20000bf2:	f242 02c4 	movw	r2, #8388	; 0x20c4
20000bf6:	4b4f      	ldr	r3, [pc, #316]	; (20000d34 <isr_irq15+0x1f4>)
20000bf8:	f8d3 00d8 	ldr.w	r0, [r3, #216]	; 0xd8
20000bfc:	4290      	cmp	r0, r2
20000bfe:	d00c      	beq.n	20000c1a <isr_irq15+0xda>
20000c00:	f8c3 20d8 	str.w	r2, [r3, #216]	; 0xd8
20000c04:	f8d3 20cc 	ldr.w	r2, [r3, #204]	; 0xcc
20000c08:	2a00      	cmp	r2, #0
20000c0a:	6c22      	ldr	r2, [r4, #64]	; 0x40
20000c0c:	f2c0 82ab 	blt.w	20001166 <isr_irq15+0x626>
20000c10:	3201      	adds	r2, #1
20000c12:	f002 021f 	and.w	r2, r2, #31
20000c16:	f8c3 20d8 	str.w	r2, [r3, #216]	; 0xd8
20000c1a:	f04f 43a0 	mov.w	r3, #1342177280	; 0x50000000
20000c1e:	890a      	ldrh	r2, [r1, #8]
20000c20:	6848      	ldr	r0, [r1, #4]
20000c22:	6018      	str	r0, [r3, #0]
20000c24:	61da      	str	r2, [r3, #28]
20000c26:	68e3      	ldr	r3, [r4, #12]
20000c28:	f3ef 8710 	mrs	r7, PRIMASK
20000c2c:	b672      	cpsid	i
20000c2e:	e8d3 0fcf 	ldaexb	r0, [r3]
20000c32:	2201      	movs	r2, #1
20000c34:	2800      	cmp	r0, #0
20000c36:	d1fa      	bne.n	20000c2e <isr_irq15+0xee>
20000c38:	e8c3 2f40 	strexb	r0, r2, [r3]
20000c3c:	2800      	cmp	r0, #0
20000c3e:	d1f6      	bne.n	20000c2e <isr_irq15+0xee>
20000c40:	f3bf 8f5f 	dmb	sy
20000c44:	f04f 0900 	mov.w	r9, #0
20000c48:	f8df 80fc 	ldr.w	r8, [pc, #252]	; 20000d48 <isr_irq15+0x208>
20000c4c:	8ba3      	ldrh	r3, [r4, #28]
20000c4e:	f8b8 0010 	ldrh.w	r0, [r8, #16]
20000c52:	f884 9020 	strb.w	r9, [r4, #32]
20000c56:	4403      	add	r3, r0
20000c58:	8be0      	ldrh	r0, [r4, #30]
20000c5a:	b29b      	uxth	r3, r3
20000c5c:	4283      	cmp	r3, r0
20000c5e:	83a3      	strh	r3, [r4, #28]
20000c60:	f0c0 8239 	bcc.w	200010d6 <isr_irq15+0x596>
20000c64:	1a1b      	subs	r3, r3, r0
20000c66:	4a35      	ldr	r2, [pc, #212]	; (20000d3c <isr_irq15+0x1fc>)
20000c68:	69a0      	ldr	r0, [r4, #24]
20000c6a:	83a3      	strh	r3, [r4, #28]
20000c6c:	f8b8 300a 	ldrh.w	r3, [r8, #10]
20000c70:	ebb1 0902 	subs.w	r9, r1, r2
20000c74:	f103 33ff 	add.w	r3, r3, #4294967295
20000c78:	b282      	uxth	r2, r0
20000c7a:	bf18      	it	ne
20000c7c:	f04f 0901 	movne.w	r9, #1
20000c80:	429a      	cmp	r2, r3
20000c82:	bf28      	it	cs
20000c84:	f500 3080 	addcs.w	r0, r0, #65536	; 0x10000
20000c88:	4b2e      	ldr	r3, [pc, #184]	; (20000d44 <isr_irq15+0x204>)
20000c8a:	bf34      	ite	cc
20000c8c:	3001      	addcc	r0, #1
20000c8e:	1a80      	subcs	r0, r0, r2
20000c90:	681b      	ldr	r3, [r3, #0]
20000c92:	61a0      	str	r0, [r4, #24]
20000c94:	4798      	blx	r3
20000c96:	f8b8 300e 	ldrh.w	r3, [r8, #14]
20000c9a:	fb13 f000 	smulbb	r0, r3, r0
20000c9e:	2300      	movs	r3, #0
20000ca0:	83e0      	strh	r0, [r4, #30]
20000ca2:	6123      	str	r3, [r4, #16]
20000ca4:	6b63      	ldr	r3, [r4, #52]	; 0x34
20000ca6:	e8d3 1fcf 	ldaexb	r1, [r3]
20000caa:	2201      	movs	r2, #1
20000cac:	2900      	cmp	r1, #0
20000cae:	d1fa      	bne.n	20000ca6 <isr_irq15+0x166>
20000cb0:	e8c3 2f41 	strexb	r1, r2, [r3]
20000cb4:	2900      	cmp	r1, #0
20000cb6:	d1f6      	bne.n	20000ca6 <isr_irq15+0x166>
20000cb8:	f3bf 8f5f 	dmb	sy
20000cbc:	2301      	movs	r3, #1
20000cbe:	f884 303d 	strb.w	r3, [r4, #61]	; 0x3d
20000cc2:	f1b9 0f00 	cmp.w	r9, #0
20000cc6:	d004      	beq.n	20000cd2 <isr_irq15+0x192>
20000cc8:	f894 303c 	ldrb.w	r3, [r4, #60]	; 0x3c
20000ccc:	3301      	adds	r3, #1
20000cce:	f884 303c 	strb.w	r3, [r4, #60]	; 0x3c
20000cd2:	2300      	movs	r3, #0
20000cd4:	6b62      	ldr	r2, [r4, #52]	; 0x34
20000cd6:	e8c2 3f8f 	stlb	r3, [r2]
20000cda:	68e2      	ldr	r2, [r4, #12]
20000cdc:	e8c2 3f8f 	stlb	r3, [r2]
20000ce0:	f387 8810 	msr	PRIMASK, r7
20000ce4:	2e00      	cmp	r6, #0
20000ce6:	f000 81f1 	beq.w	200010cc <isr_irq15+0x58c>
20000cea:	6822      	ldr	r2, [r4, #0]
20000cec:	f3ef 8c10 	mrs	ip, PRIMASK
20000cf0:	b672      	cpsid	i
20000cf2:	e8d2 0fcf 	ldaexb	r0, [r2]
20000cf6:	2101      	movs	r1, #1
20000cf8:	2800      	cmp	r0, #0
20000cfa:	d1fa      	bne.n	20000cf2 <isr_irq15+0x1b2>
20000cfc:	e8c2 1f40 	strexb	r0, r1, [r2]
20000d00:	2800      	cmp	r0, #0
20000d02:	d1f6      	bne.n	20000cf2 <isr_irq15+0x1b2>
20000d04:	f3bf 8f5f 	dmb	sy
20000d08:	4618      	mov	r0, r3
20000d0a:	e9d4 2701 	ldrd	r2, r7, [r4, #4]
20000d0e:	1e73      	subs	r3, r6, #1
20000d10:	4606      	mov	r6, r0
20000d12:	b16a      	cbz	r2, 20000d30 <isr_irq15+0x1f0>
20000d14:	6951      	ldr	r1, [r2, #20]
20000d16:	2900      	cmp	r1, #0
20000d18:	f000 81c0 	beq.w	2000109c <isr_irq15+0x55c>
20000d1c:	2601      	movs	r6, #1
20000d1e:	3b01      	subs	r3, #1
20000d20:	f1b3 3fff 	cmp.w	r3, #4294967295
20000d24:	6155      	str	r5, [r2, #20]
20000d26:	4615      	mov	r5, r2
20000d28:	d010      	beq.n	20000d4c <isr_irq15+0x20c>
20000d2a:	460a      	mov	r2, r1
20000d2c:	2a00      	cmp	r2, #0
20000d2e:	d1f1      	bne.n	20000d14 <isr_irq15+0x1d4>
20000d30:	4611      	mov	r1, r2
20000d32:	e7f4      	b.n	20000d1e <isr_irq15+0x1de>
20000d34:	50200000 	.word	0x50200000
20000d38:	2000313c 	.word	0x2000313c
20000d3c:	20002778 	.word	0x20002778
20000d40:	502010d0 	.word	0x502010d0
20000d44:	20002790 	.word	0x20002790
20000d48:	200031f4 	.word	0x200031f4
20000d4c:	b106      	cbz	r6, 20000d50 <isr_irq15+0x210>
20000d4e:	6061      	str	r1, [r4, #4]
20000d50:	b100      	cbz	r0, 20000d54 <isr_irq15+0x214>
20000d52:	60a7      	str	r7, [r4, #8]
20000d54:	2300      	movs	r3, #0
20000d56:	6821      	ldr	r1, [r4, #0]
20000d58:	e8c1 3f8f 	stlb	r3, [r1]
20000d5c:	f38c 8810 	msr	PRIMASK, ip
20000d60:	6ae3      	ldr	r3, [r4, #44]	; 0x2c
20000d62:	f3ef 8010 	mrs	r0, PRIMASK
20000d66:	b672      	cpsid	i
20000d68:	e8d3 5fcf 	ldaexb	r5, [r3]
20000d6c:	2101      	movs	r1, #1
20000d6e:	2d00      	cmp	r5, #0
20000d70:	d1fa      	bne.n	20000d68 <isr_irq15+0x228>
20000d72:	e8c3 1f45 	strexb	r5, r1, [r3]
20000d76:	2d00      	cmp	r5, #0
20000d78:	d1f6      	bne.n	20000d68 <isr_irq15+0x228>
20000d7a:	f3bf 8f5f 	dmb	sy
20000d7e:	4613      	mov	r3, r2
20000d80:	4619      	mov	r1, r3
20000d82:	695b      	ldr	r3, [r3, #20]
20000d84:	2b00      	cmp	r3, #0
20000d86:	d1fb      	bne.n	20000d80 <isr_irq15+0x240>
20000d88:	6b25      	ldr	r5, [r4, #48]	; 0x30
20000d8a:	614d      	str	r5, [r1, #20]
20000d8c:	6ae1      	ldr	r1, [r4, #44]	; 0x2c
20000d8e:	6322      	str	r2, [r4, #48]	; 0x30
20000d90:	e8c1 3f8f 	stlb	r3, [r1]
20000d94:	f380 8810 	msr	PRIMASK, r0
20000d98:	bf40      	sev
20000d9a:	4b7f      	ldr	r3, [pc, #508]	; (20000f98 <isr_irq15+0x458>)
20000d9c:	6b1a      	ldr	r2, [r3, #48]	; 0x30
20000d9e:	0792      	lsls	r2, r2, #30
20000da0:	f140 80ed 	bpl.w	20000f7e <isr_irq15+0x43e>
20000da4:	2103      	movs	r1, #3
20000da6:	4c7d      	ldr	r4, [pc, #500]	; (20000f9c <isr_irq15+0x45c>)
20000da8:	6b62      	ldr	r2, [r4, #52]	; 0x34
20000daa:	6319      	str	r1, [r3, #48]	; 0x30
20000dac:	f3ef 8010 	mrs	r0, PRIMASK
20000db0:	b672      	cpsid	i
20000db2:	e8d2 1fcf 	ldaexb	r1, [r2]
20000db6:	2301      	movs	r3, #1
20000db8:	2900      	cmp	r1, #0
20000dba:	d1fa      	bne.n	20000db2 <isr_irq15+0x272>
20000dbc:	e8c2 3f41 	strexb	r1, r3, [r2]
20000dc0:	2900      	cmp	r1, #0
20000dc2:	d1f6      	bne.n	20000db2 <isr_irq15+0x272>
20000dc4:	f3bf 8f5f 	dmb	sy
20000dc8:	f894 303d 	ldrb.w	r3, [r4, #61]	; 0x3d
20000dcc:	2b00      	cmp	r3, #0
20000dce:	f040 80e7 	bne.w	20000fa0 <isr_irq15+0x460>
20000dd2:	6ba3      	ldr	r3, [r4, #56]	; 0x38
20000dd4:	2b00      	cmp	r3, #0
20000dd6:	f040 81f4 	bne.w	200011c2 <isr_irq15+0x682>
20000dda:	f894 503c 	ldrb.w	r5, [r4, #60]	; 0x3c
20000dde:	2d00      	cmp	r5, #0
20000de0:	f040 81f6 	bne.w	200011d0 <isr_irq15+0x690>
20000de4:	6b63      	ldr	r3, [r4, #52]	; 0x34
20000de6:	e8c3 5f8f 	stlb	r5, [r3]
20000dea:	f380 8810 	msr	PRIMASK, r0
20000dee:	68e3      	ldr	r3, [r4, #12]
20000df0:	f3ef 8810 	mrs	r8, PRIMASK
20000df4:	b672      	cpsid	i
20000df6:	e8d3 1fcf 	ldaexb	r1, [r3]
20000dfa:	2201      	movs	r2, #1
20000dfc:	2900      	cmp	r1, #0
20000dfe:	d1fa      	bne.n	20000df6 <isr_irq15+0x2b6>
20000e00:	e8c3 2f41 	strexb	r1, r2, [r3]
20000e04:	2900      	cmp	r1, #0
20000e06:	d1f6      	bne.n	20000df6 <isr_irq15+0x2b6>
20000e08:	f3bf 8f5f 	dmb	sy
20000e0c:	f894 3020 	ldrb.w	r3, [r4, #32]
20000e10:	2b00      	cmp	r3, #0
20000e12:	f040 80be 	bne.w	20000f92 <isr_irq15+0x452>
20000e16:	2701      	movs	r7, #1
20000e18:	69a0      	ldr	r0, [r4, #24]
20000e1a:	83a3      	strh	r3, [r4, #28]
20000e1c:	b282      	uxth	r2, r0
20000e1e:	f884 7020 	strb.w	r7, [r4, #32]
20000e22:	2a00      	cmp	r2, #0
20000e24:	f040 812e 	bne.w	20001084 <isr_irq15+0x544>
20000e28:	6923      	ldr	r3, [r4, #16]
20000e2a:	b143      	cbz	r3, 20000e3e <isr_irq15+0x2fe>
20000e2c:	681a      	ldr	r2, [r3, #0]
20000e2e:	69a3      	ldr	r3, [r4, #24]
20000e30:	1a9b      	subs	r3, r3, r2
20000e32:	2b00      	cmp	r3, #0
20000e34:	f04f 0300 	mov.w	r3, #0
20000e38:	dd47      	ble.n	20000eca <isr_irq15+0x38a>
20000e3a:	3501      	adds	r5, #1
20000e3c:	6123      	str	r3, [r4, #16]
20000e3e:	6a63      	ldr	r3, [r4, #36]	; 0x24
20000e40:	2b00      	cmp	r3, #0
20000e42:	d042      	beq.n	20000eca <isr_irq15+0x38a>
20000e44:	69a6      	ldr	r6, [r4, #24]
20000e46:	681a      	ldr	r2, [r3, #0]
20000e48:	2000      	movs	r0, #0
20000e4a:	1ab1      	subs	r1, r6, r2
20000e4c:	2900      	cmp	r1, #0
20000e4e:	dd0b      	ble.n	20000e68 <isr_irq15+0x328>
20000e50:	695a      	ldr	r2, [r3, #20]
20000e52:	6262      	str	r2, [r4, #36]	; 0x24
20000e54:	2a00      	cmp	r2, #0
20000e56:	f000 811e 	beq.w	20001096 <isr_irq15+0x556>
20000e5a:	6158      	str	r0, [r3, #20]
20000e5c:	4618      	mov	r0, r3
20000e5e:	4613      	mov	r3, r2
20000e60:	681a      	ldr	r2, [r3, #0]
20000e62:	1ab1      	subs	r1, r6, r2
20000e64:	2900      	cmp	r1, #0
20000e66:	dcf3      	bgt.n	20000e50 <isr_irq15+0x310>
20000e68:	4296      	cmp	r6, r2
20000e6a:	f040 816f 	bne.w	2000114c <isr_irq15+0x60c>
20000e6e:	695a      	ldr	r2, [r3, #20]
20000e70:	6262      	str	r2, [r4, #36]	; 0x24
20000e72:	2a00      	cmp	r2, #0
20000e74:	f000 8196 	beq.w	200011a4 <isr_irq15+0x664>
20000e78:	2200      	movs	r2, #0
20000e7a:	615a      	str	r2, [r3, #20]
20000e7c:	6822      	ldr	r2, [r4, #0]
20000e7e:	e8d2 6fcf 	ldaexb	r6, [r2]
20000e82:	2101      	movs	r1, #1
20000e84:	2e00      	cmp	r6, #0
20000e86:	d1fa      	bne.n	20000e7e <isr_irq15+0x33e>
20000e88:	e8c2 1f46 	strexb	r6, r1, [r2]
20000e8c:	2e00      	cmp	r6, #0
20000e8e:	d1f6      	bne.n	20000e7e <isr_irq15+0x33e>
20000e90:	f3bf 8f5f 	dmb	sy
20000e94:	6862      	ldr	r2, [r4, #4]
20000e96:	2a00      	cmp	r2, #0
20000e98:	f000 8177 	beq.w	2000118a <isr_irq15+0x64a>
20000e9c:	681e      	ldr	r6, [r3, #0]
20000e9e:	6811      	ldr	r1, [r2, #0]
20000ea0:	1a71      	subs	r1, r6, r1
20000ea2:	2900      	cmp	r1, #0
20000ea4:	f340 8172 	ble.w	2000118c <isr_irq15+0x64c>
20000ea8:	f8d4 c008 	ldr.w	ip, [r4, #8]
20000eac:	f8dc 1000 	ldr.w	r1, [ip]
20000eb0:	1a71      	subs	r1, r6, r1
20000eb2:	2900      	cmp	r1, #0
20000eb4:	f340 8142 	ble.w	2000113c <isr_irq15+0x5fc>
20000eb8:	f8cc 3014 	str.w	r3, [ip, #20]
20000ebc:	60a3      	str	r3, [r4, #8]
20000ebe:	2200      	movs	r2, #0
20000ec0:	6821      	ldr	r1, [r4, #0]
20000ec2:	e8c1 2f8f 	stlb	r2, [r1]
20000ec6:	6123      	str	r3, [r4, #16]
20000ec8:	4603      	mov	r3, r0
20000eca:	2600      	movs	r6, #0
20000ecc:	68e2      	ldr	r2, [r4, #12]
20000ece:	e8c2 6f8f 	stlb	r6, [r2]
20000ed2:	f388 8810 	msr	PRIMASK, r8
20000ed6:	2d00      	cmp	r5, #0
20000ed8:	d057      	beq.n	20000f8a <isr_irq15+0x44a>
20000eda:	6822      	ldr	r2, [r4, #0]
20000edc:	f3ef 8e10 	mrs	lr, PRIMASK
20000ee0:	b672      	cpsid	i
20000ee2:	e8d2 0fcf 	ldaexb	r0, [r2]
20000ee6:	2101      	movs	r1, #1
20000ee8:	2800      	cmp	r0, #0
20000eea:	d1fa      	bne.n	20000ee2 <isr_irq15+0x3a2>
20000eec:	e8c2 1f40 	strexb	r0, r1, [r2]
20000ef0:	2800      	cmp	r0, #0
20000ef2:	d1f6      	bne.n	20000ee2 <isr_irq15+0x3a2>
20000ef4:	f3bf 8f5f 	dmb	sy
20000ef8:	1e69      	subs	r1, r5, #1
20000efa:	e9d4 2c01 	ldrd	r2, ip, [r4, #4]
20000efe:	4635      	mov	r5, r6
20000f00:	b162      	cbz	r2, 20000f1c <isr_irq15+0x3dc>
20000f02:	6950      	ldr	r0, [r2, #20]
20000f04:	2800      	cmp	r0, #0
20000f06:	d03c      	beq.n	20000f82 <isr_irq15+0x442>
20000f08:	2501      	movs	r5, #1
20000f0a:	3901      	subs	r1, #1
20000f0c:	f1b1 3fff 	cmp.w	r1, #4294967295
20000f10:	6153      	str	r3, [r2, #20]
20000f12:	4613      	mov	r3, r2
20000f14:	d009      	beq.n	20000f2a <isr_irq15+0x3ea>
20000f16:	4602      	mov	r2, r0
20000f18:	2a00      	cmp	r2, #0
20000f1a:	d1f2      	bne.n	20000f02 <isr_irq15+0x3c2>
20000f1c:	3901      	subs	r1, #1
20000f1e:	f1b1 3fff 	cmp.w	r1, #4294967295
20000f22:	6153      	str	r3, [r2, #20]
20000f24:	4610      	mov	r0, r2
20000f26:	4613      	mov	r3, r2
20000f28:	d1f5      	bne.n	20000f16 <isr_irq15+0x3d6>
20000f2a:	b105      	cbz	r5, 20000f2e <isr_irq15+0x3ee>
20000f2c:	6060      	str	r0, [r4, #4]
20000f2e:	b10e      	cbz	r6, 20000f34 <isr_irq15+0x3f4>
20000f30:	f8c4 c008 	str.w	ip, [r4, #8]
20000f34:	2300      	movs	r3, #0
20000f36:	6821      	ldr	r1, [r4, #0]
20000f38:	e8c1 3f8f 	stlb	r3, [r1]
20000f3c:	f38e 8810 	msr	PRIMASK, lr
20000f40:	6ae3      	ldr	r3, [r4, #44]	; 0x2c
20000f42:	f3ef 8010 	mrs	r0, PRIMASK
20000f46:	b672      	cpsid	i
20000f48:	e8d3 5fcf 	ldaexb	r5, [r3]
20000f4c:	2101      	movs	r1, #1
20000f4e:	2d00      	cmp	r5, #0
20000f50:	d1fa      	bne.n	20000f48 <isr_irq15+0x408>
20000f52:	e8c3 1f45 	strexb	r5, r1, [r3]
20000f56:	2d00      	cmp	r5, #0
20000f58:	d1f6      	bne.n	20000f48 <isr_irq15+0x408>
20000f5a:	f3bf 8f5f 	dmb	sy
20000f5e:	4613      	mov	r3, r2
20000f60:	4619      	mov	r1, r3
20000f62:	695b      	ldr	r3, [r3, #20]
20000f64:	2b00      	cmp	r3, #0
20000f66:	d1fb      	bne.n	20000f60 <isr_irq15+0x420>
20000f68:	6b25      	ldr	r5, [r4, #48]	; 0x30
20000f6a:	614d      	str	r5, [r1, #20]
20000f6c:	6322      	str	r2, [r4, #48]	; 0x30
20000f6e:	6ae2      	ldr	r2, [r4, #44]	; 0x2c
20000f70:	e8c2 3f8f 	stlb	r3, [r2]
20000f74:	f380 8810 	msr	PRIMASK, r0
20000f78:	bf40      	sev
20000f7a:	2f00      	cmp	r7, #0
20000f7c:	d139      	bne.n	20000ff2 <isr_irq15+0x4b2>
20000f7e:	e8bd 83f8 	ldmia.w	sp!, {r3, r4, r5, r6, r7, r8, r9, pc}
20000f82:	2601      	movs	r6, #1
20000f84:	4684      	mov	ip, r0
20000f86:	4635      	mov	r5, r6
20000f88:	e7bf      	b.n	20000f0a <isr_irq15+0x3ca>
20000f8a:	2b00      	cmp	r3, #0
20000f8c:	d0f5      	beq.n	20000f7a <isr_irq15+0x43a>
20000f8e:	461a      	mov	r2, r3
20000f90:	e7d6      	b.n	20000f40 <isr_irq15+0x400>
20000f92:	2700      	movs	r7, #0
20000f94:	e748      	b.n	20000e28 <isr_irq15+0x2e8>
20000f96:	bf00      	nop
20000f98:	50200000 	.word	0x50200000
20000f9c:	2000313c 	.word	0x2000313c
20000fa0:	f04f 43a0 	mov.w	r3, #1342177280	; 0x50000000
20000fa4:	f8d3 140c 	ldr.w	r1, [r3, #1036]	; 0x40c
20000fa8:	6ba2      	ldr	r2, [r4, #56]	; 0x38
20000faa:	07cf      	lsls	r7, r1, #31
20000fac:	d512      	bpl.n	20000fd4 <isr_irq15+0x494>
20000fae:	2101      	movs	r1, #1
20000fb0:	ea42 0501 	orr.w	r5, r2, r1
20000fb4:	f032 0201 	bics.w	r2, r2, #1
20000fb8:	f8c3 140c 	str.w	r1, [r3, #1036]	; 0x40c
20000fbc:	d07b      	beq.n	200010b6 <isr_irq15+0x576>
20000fbe:	f8d3 240c 	ldr.w	r2, [r3, #1036]	; 0x40c
20000fc2:	07d2      	lsls	r2, r2, #31
20000fc4:	d505      	bpl.n	20000fd2 <isr_irq15+0x492>
20000fc6:	f8c3 140c 	str.w	r1, [r3, #1036]	; 0x40c
20000fca:	f8d3 240c 	ldr.w	r2, [r3, #1036]	; 0x40c
20000fce:	07d6      	lsls	r6, r2, #31
20000fd0:	d4f9      	bmi.n	20000fc6 <isr_irq15+0x486>
20000fd2:	63a5      	str	r5, [r4, #56]	; 0x38
20000fd4:	f894 503c 	ldrb.w	r5, [r4, #60]	; 0x3c
20000fd8:	b115      	cbz	r5, 20000fe0 <isr_irq15+0x4a0>
20000fda:	2300      	movs	r3, #0
20000fdc:	63a3      	str	r3, [r4, #56]	; 0x38
20000fde:	87a3      	strh	r3, [r4, #60]	; 0x3c
20000fe0:	f000 fd52 	bl	20001a88 <__abort_all_dma_channels_assuming_no_irq_preemption_veneer>
20000fe4:	2300      	movs	r3, #0
20000fe6:	6b62      	ldr	r2, [r4, #52]	; 0x34
20000fe8:	e8c2 3f8f 	stlb	r3, [r2]
20000fec:	f380 8810 	msr	PRIMASK, r0
20000ff0:	e6fd      	b.n	20000dee <isr_irq15+0x2ae>
20000ff2:	4878      	ldr	r0, [pc, #480]	; (200011d4 <isr_irq15+0x694>)
20000ff4:	e8bd 43f8 	ldmia.w	sp!, {r3, r4, r5, r6, r7, r8, r9, lr}
20000ff8:	f7ff b8b0 	b.w	2000015c <sem_release>
20000ffc:	6a65      	ldr	r5, [r4, #36]	; 0x24
20000ffe:	2d00      	cmp	r5, #0
20001000:	f000 80d2 	beq.w	200011a8 <isr_irq15+0x668>
20001004:	69a6      	ldr	r6, [r4, #24]
20001006:	682b      	ldr	r3, [r5, #0]
20001008:	1af2      	subs	r2, r6, r3
2000100a:	2a00      	cmp	r2, #0
2000100c:	dd0a      	ble.n	20001024 <isr_irq15+0x4e4>
2000100e:	696b      	ldr	r3, [r5, #20]
20001010:	6263      	str	r3, [r4, #36]	; 0x24
20001012:	2b00      	cmp	r3, #0
20001014:	d046      	beq.n	200010a4 <isr_irq15+0x564>
20001016:	6169      	str	r1, [r5, #20]
20001018:	4629      	mov	r1, r5
2000101a:	461d      	mov	r5, r3
2000101c:	682b      	ldr	r3, [r5, #0]
2000101e:	1af2      	subs	r2, r6, r3
20001020:	2a00      	cmp	r2, #0
20001022:	dcf4      	bgt.n	2000100e <isr_irq15+0x4ce>
20001024:	429e      	cmp	r6, r3
20001026:	f040 80b4 	bne.w	20001192 <isr_irq15+0x652>
2000102a:	696b      	ldr	r3, [r5, #20]
2000102c:	6263      	str	r3, [r4, #36]	; 0x24
2000102e:	2b00      	cmp	r3, #0
20001030:	f000 80c5 	beq.w	200011be <isr_irq15+0x67e>
20001034:	2300      	movs	r3, #0
20001036:	616b      	str	r3, [r5, #20]
20001038:	6823      	ldr	r3, [r4, #0]
2000103a:	e8d3 6fcf 	ldaexb	r6, [r3]
2000103e:	2201      	movs	r2, #1
20001040:	2e00      	cmp	r6, #0
20001042:	d1fa      	bne.n	2000103a <isr_irq15+0x4fa>
20001044:	e8c3 2f46 	strexb	r6, r2, [r3]
20001048:	2e00      	cmp	r6, #0
2000104a:	d1f6      	bne.n	2000103a <isr_irq15+0x4fa>
2000104c:	f3bf 8f5f 	dmb	sy
20001050:	6863      	ldr	r3, [r4, #4]
20001052:	2b00      	cmp	r3, #0
20001054:	f000 80af 	beq.w	200011b6 <isr_irq15+0x676>
20001058:	682e      	ldr	r6, [r5, #0]
2000105a:	681a      	ldr	r2, [r3, #0]
2000105c:	1ab2      	subs	r2, r6, r2
2000105e:	2a00      	cmp	r2, #0
20001060:	f340 80aa 	ble.w	200011b8 <isr_irq15+0x678>
20001064:	68a7      	ldr	r7, [r4, #8]
20001066:	683a      	ldr	r2, [r7, #0]
20001068:	1ab2      	subs	r2, r6, r2
2000106a:	2a00      	cmp	r2, #0
2000106c:	dd74      	ble.n	20001158 <isr_irq15+0x618>
2000106e:	617d      	str	r5, [r7, #20]
20001070:	60a5      	str	r5, [r4, #8]
20001072:	2300      	movs	r3, #0
20001074:	6822      	ldr	r2, [r4, #0]
20001076:	e8c2 3f8f 	stlb	r3, [r2]
2000107a:	460b      	mov	r3, r1
2000107c:	6125      	str	r5, [r4, #16]
2000107e:	4629      	mov	r1, r5
20001080:	461d      	mov	r5, r3
20001082:	e57b      	b.n	20000b7c <isr_irq15+0x3c>
20001084:	0c00      	lsrs	r0, r0, #16
20001086:	4b54      	ldr	r3, [pc, #336]	; (200011d8 <isr_irq15+0x698>)
20001088:	4438      	add	r0, r7
2000108a:	0400      	lsls	r0, r0, #16
2000108c:	681b      	ldr	r3, [r3, #0]
2000108e:	61a0      	str	r0, [r4, #24]
20001090:	4798      	blx	r3
20001092:	83e0      	strh	r0, [r4, #30]
20001094:	e6c8      	b.n	20000e28 <isr_irq15+0x2e8>
20001096:	62a2      	str	r2, [r4, #40]	; 0x28
20001098:	6158      	str	r0, [r3, #20]
2000109a:	e716      	b.n	20000eca <isr_irq15+0x38a>
2000109c:	2001      	movs	r0, #1
2000109e:	460f      	mov	r7, r1
200010a0:	4606      	mov	r6, r0
200010a2:	e63c      	b.n	20000d1e <isr_irq15+0x1de>
200010a4:	62a3      	str	r3, [r4, #40]	; 0x28
200010a6:	68e2      	ldr	r2, [r4, #12]
200010a8:	6169      	str	r1, [r5, #20]
200010aa:	e8c2 3f8f 	stlb	r3, [r2]
200010ae:	f380 8810 	msr	PRIMASK, r0
200010b2:	494a      	ldr	r1, [pc, #296]	; (200011dc <isr_irq15+0x69c>)
200010b4:	e56e      	b.n	20000b94 <isr_irq15+0x54>
200010b6:	2300      	movs	r3, #0
200010b8:	f894 503c 	ldrb.w	r5, [r4, #60]	; 0x3c
200010bc:	6b62      	ldr	r2, [r4, #52]	; 0x34
200010be:	63a3      	str	r3, [r4, #56]	; 0x38
200010c0:	87a3      	strh	r3, [r4, #60]	; 0x3c
200010c2:	e8c2 3f8f 	stlb	r3, [r2]
200010c6:	f380 8810 	msr	PRIMASK, r0
200010ca:	e690      	b.n	20000dee <isr_irq15+0x2ae>
200010cc:	2d00      	cmp	r5, #0
200010ce:	f43f ae64 	beq.w	20000d9a <isr_irq15+0x25a>
200010d2:	462a      	mov	r2, r5
200010d4:	e644      	b.n	20000d60 <isr_irq15+0x220>
200010d6:	4b41      	ldr	r3, [pc, #260]	; (200011dc <isr_irq15+0x69c>)
200010d8:	4299      	cmp	r1, r3
200010da:	bf08      	it	eq
200010dc:	f8c4 9010 	streq.w	r9, [r4, #16]
200010e0:	e5e0      	b.n	20000ca4 <isr_irq15+0x164>
200010e2:	f04f 43a0 	mov.w	r3, #1342177280	; 0x50000000
200010e6:	f8d3 040c 	ldr.w	r0, [r3, #1036]	; 0x40c
200010ea:	6ba2      	ldr	r2, [r4, #56]	; 0x38
200010ec:	07c0      	lsls	r0, r0, #31
200010ee:	d512      	bpl.n	20001116 <isr_irq15+0x5d6>
200010f0:	2001      	movs	r0, #1
200010f2:	ea42 0600 	orr.w	r6, r2, r0
200010f6:	f032 0201 	bics.w	r2, r2, #1
200010fa:	f8c3 040c 	str.w	r0, [r3, #1036]	; 0x40c
200010fe:	d039      	beq.n	20001174 <isr_irq15+0x634>
20001100:	f8d3 240c 	ldr.w	r2, [r3, #1036]	; 0x40c
20001104:	07d2      	lsls	r2, r2, #31
20001106:	d505      	bpl.n	20001114 <isr_irq15+0x5d4>
20001108:	f8c3 040c 	str.w	r0, [r3, #1036]	; 0x40c
2000110c:	f8d3 240c 	ldr.w	r2, [r3, #1036]	; 0x40c
20001110:	07d2      	lsls	r2, r2, #31
20001112:	d4f9      	bmi.n	20001108 <isr_irq15+0x5c8>
20001114:	63a6      	str	r6, [r4, #56]	; 0x38
20001116:	f894 603c 	ldrb.w	r6, [r4, #60]	; 0x3c
2000111a:	b116      	cbz	r6, 20001122 <isr_irq15+0x5e2>
2000111c:	2300      	movs	r3, #0
2000111e:	63a3      	str	r3, [r4, #56]	; 0x38
20001120:	87a3      	strh	r3, [r4, #60]	; 0x3c
20001122:	f000 fcb1 	bl	20001a88 <__abort_all_dma_channels_assuming_no_irq_preemption_veneer>
20001126:	2300      	movs	r3, #0
20001128:	6b62      	ldr	r2, [r4, #52]	; 0x34
2000112a:	e8c2 3f8f 	stlb	r3, [r2]
2000112e:	f387 8810 	msr	PRIMASK, r7
20001132:	e551      	b.n	20000bd8 <isr_irq15+0x98>
20001134:	6811      	ldr	r1, [r2, #0]
20001136:	1a71      	subs	r1, r6, r1
20001138:	2900      	cmp	r1, #0
2000113a:	dd03      	ble.n	20001144 <isr_irq15+0x604>
2000113c:	4694      	mov	ip, r2
2000113e:	6952      	ldr	r2, [r2, #20]
20001140:	2a00      	cmp	r2, #0
20001142:	d1f7      	bne.n	20001134 <isr_irq15+0x5f4>
20001144:	615a      	str	r2, [r3, #20]
20001146:	f8cc 3014 	str.w	r3, [ip, #20]
2000114a:	e6b8      	b.n	20000ebe <isr_irq15+0x37e>
2000114c:	4603      	mov	r3, r0
2000114e:	e6bc      	b.n	20000eca <isr_irq15+0x38a>
20001150:	681a      	ldr	r2, [r3, #0]
20001152:	1ab2      	subs	r2, r6, r2
20001154:	2a00      	cmp	r2, #0
20001156:	dd03      	ble.n	20001160 <isr_irq15+0x620>
20001158:	461f      	mov	r7, r3
2000115a:	695b      	ldr	r3, [r3, #20]
2000115c:	2b00      	cmp	r3, #0
2000115e:	d1f7      	bne.n	20001150 <isr_irq15+0x610>
20001160:	616b      	str	r3, [r5, #20]
20001162:	617d      	str	r5, [r7, #20]
20001164:	e785      	b.n	20001072 <isr_irq15+0x532>
20001166:	f8d3 70d4 	ldr.w	r7, [r3, #212]	; 0xd4
2000116a:	1c50      	adds	r0, r2, #1
2000116c:	4287      	cmp	r7, r0
2000116e:	f47f ad50 	bne.w	20000c12 <isr_irq15+0xd2>
20001172:	e552      	b.n	20000c1a <isr_irq15+0xda>
20001174:	2300      	movs	r3, #0
20001176:	f894 603c 	ldrb.w	r6, [r4, #60]	; 0x3c
2000117a:	6b62      	ldr	r2, [r4, #52]	; 0x34
2000117c:	63a3      	str	r3, [r4, #56]	; 0x38
2000117e:	87a3      	strh	r3, [r4, #60]	; 0x3c
20001180:	e8c2 3f8f 	stlb	r3, [r2]
20001184:	f387 8810 	msr	PRIMASK, r7
20001188:	e526      	b.n	20000bd8 <isr_irq15+0x98>
2000118a:	60a3      	str	r3, [r4, #8]
2000118c:	615a      	str	r2, [r3, #20]
2000118e:	6063      	str	r3, [r4, #4]
20001190:	e695      	b.n	20000ebe <isr_irq15+0x37e>
20001192:	2300      	movs	r3, #0
20001194:	68e2      	ldr	r2, [r4, #12]
20001196:	e8c2 3f8f 	stlb	r3, [r2]
2000119a:	f380 8810 	msr	PRIMASK, r0
2000119e:	460d      	mov	r5, r1
200011a0:	490e      	ldr	r1, [pc, #56]	; (200011dc <isr_irq15+0x69c>)
200011a2:	e4f7      	b.n	20000b94 <isr_irq15+0x54>
200011a4:	62a2      	str	r2, [r4, #40]	; 0x28
200011a6:	e669      	b.n	20000e7c <isr_irq15+0x33c>
200011a8:	68e3      	ldr	r3, [r4, #12]
200011aa:	e8c3 5f8f 	stlb	r5, [r3]
200011ae:	f380 8810 	msr	PRIMASK, r0
200011b2:	490a      	ldr	r1, [pc, #40]	; (200011dc <isr_irq15+0x69c>)
200011b4:	e4ee      	b.n	20000b94 <isr_irq15+0x54>
200011b6:	60a5      	str	r5, [r4, #8]
200011b8:	616b      	str	r3, [r5, #20]
200011ba:	6065      	str	r5, [r4, #4]
200011bc:	e759      	b.n	20001072 <isr_irq15+0x532>
200011be:	62a3      	str	r3, [r4, #40]	; 0x28
200011c0:	e73a      	b.n	20001038 <isr_irq15+0x4f8>
200011c2:	f240 2152 	movw	r1, #594	; 0x252
200011c6:	4b06      	ldr	r3, [pc, #24]	; (200011e0 <isr_irq15+0x6a0>)
200011c8:	4a06      	ldr	r2, [pc, #24]	; (200011e4 <isr_irq15+0x6a4>)
200011ca:	4807      	ldr	r0, [pc, #28]	; (200011e8 <isr_irq15+0x6a8>)
200011cc:	f000 fc6c 	bl	20001aa8 <____assert_func_veneer>
200011d0:	f000 fc62 	bl	20001a98 <__update_dma_transfer_state_irqs_enabled.part.0_veneer>
200011d4:	200031e4 	.word	0x200031e4
200011d8:	20002790 	.word	0x20002790
200011dc:	20002778 	.word	0x20002778
200011e0:	10008d7c 	.word	0x10008d7c
200011e4:	10008e68 	.word	0x10008e68
200011e8:	10008d14 	.word	0x10008d14

200011ec <isr_irq16>:
200011ec:	e92d 4ff0 	stmdb	sp!, {r4, r5, r6, r7, r8, r9, sl, fp, lr}
200011f0:	2600      	movs	r6, #0
200011f2:	4b57      	ldr	r3, [pc, #348]	; (20001350 <isr_irq16+0x164>)
200011f4:	b08b      	sub	sp, #44	; 0x2c
200011f6:	e9d3 2902 	ldrd	r2, r9, [r3, #8]
200011fa:	9205      	str	r2, [sp, #20]
200011fc:	695a      	ldr	r2, [r3, #20]
200011fe:	46b2      	mov	sl, r6
20001200:	9208      	str	r2, [sp, #32]
20001202:	691a      	ldr	r2, [r3, #16]
20001204:	8e99      	ldrh	r1, [r3, #52]	; 0x34
20001206:	9209      	str	r2, [sp, #36]	; 0x24
20001208:	69da      	ldr	r2, [r3, #28]
2000120a:	6b1c      	ldr	r4, [r3, #48]	; 0x30
2000120c:	9206      	str	r2, [sp, #24]
2000120e:	e9d3 8208 	ldrd	r8, r2, [r3, #32]
20001212:	9202      	str	r2, [sp, #8]
20001214:	6ada      	ldr	r2, [r3, #44]	; 0x2c
20001216:	6b9d      	ldr	r5, [r3, #56]	; 0x38
20001218:	9207      	str	r2, [sp, #28]
2000121a:	699a      	ldr	r2, [r3, #24]
2000121c:	681f      	ldr	r7, [r3, #0]
2000121e:	9203      	str	r2, [sp, #12]
20001220:	6a9a      	ldr	r2, [r3, #40]	; 0x28
20001222:	f8d3 e004 	ldr.w	lr, [r3, #4]
20001226:	9204      	str	r2, [sp, #16]
20001228:	4a4a      	ldr	r2, [pc, #296]	; (20001354 <isr_irq16+0x168>)
2000122a:	484b      	ldr	r0, [pc, #300]	; (20001358 <isr_irq16+0x16c>)
2000122c:	f8d2 c004 	ldr.w	ip, [r2, #4]
20001230:	9601      	str	r6, [sp, #4]
20001232:	f41c 2f00 	tst.w	ip, #524288	; 0x80000
20001236:	d158      	bne.n	200012ea <isr_irq16+0xfe>
20001238:	f850 6021 	ldr.w	r6, [r0, r1, lsl #2]
2000123c:	ea44 0c06 	orr.w	ip, r4, r6
20001240:	f8c2 c01c 	str.w	ip, [r2, #28]
20001244:	f101 0c01 	add.w	ip, r1, #1
20001248:	fa1f fc8c 	uxth.w	ip, ip
2000124c:	f1bc 0f03 	cmp.w	ip, #3
20001250:	d835      	bhi.n	200012be <isr_irq16+0xd2>
20001252:	f8d2 b004 	ldr.w	fp, [r2, #4]
20001256:	f41b 2f00 	tst.w	fp, #524288	; 0x80000
2000125a:	d153      	bne.n	20001304 <isr_irq16+0x118>
2000125c:	f850 c02c 	ldr.w	ip, [r0, ip, lsl #2]
20001260:	ea44 0c0c 	orr.w	ip, r4, ip
20001264:	f8c2 c01c 	str.w	ip, [r2, #28]
20001268:	f101 0c02 	add.w	ip, r1, #2
2000126c:	fa1f fc8c 	uxth.w	ip, ip
20001270:	f1bc 0f04 	cmp.w	ip, #4
20001274:	d023      	beq.n	200012be <isr_irq16+0xd2>
20001276:	f8d2 b004 	ldr.w	fp, [r2, #4]
2000127a:	f41b 2f00 	tst.w	fp, #524288	; 0x80000
2000127e:	d141      	bne.n	20001304 <isr_irq16+0x118>
20001280:	f850 c02c 	ldr.w	ip, [r0, ip, lsl #2]
20001284:	ea44 0c0c 	orr.w	ip, r4, ip
20001288:	f8c2 c01c 	str.w	ip, [r2, #28]
2000128c:	f101 0c03 	add.w	ip, r1, #3
20001290:	fa1f fc8c 	uxth.w	ip, ip
20001294:	f1bc 0f04 	cmp.w	ip, #4
20001298:	d011      	beq.n	200012be <isr_irq16+0xd2>
2000129a:	f8d2 b004 	ldr.w	fp, [r2, #4]
2000129e:	f41b 2f00 	tst.w	fp, #524288	; 0x80000
200012a2:	d12f      	bne.n	20001304 <isr_irq16+0x118>
200012a4:	f850 c02c 	ldr.w	ip, [r0, ip, lsl #2]
200012a8:	ea44 0c0c 	orr.w	ip, r4, ip
200012ac:	f8c2 c01c 	str.w	ip, [r2, #28]
200012b0:	b129      	cbz	r1, 200012be <isr_irq16+0xd2>
200012b2:	6851      	ldr	r1, [r2, #4]
200012b4:	0309      	lsls	r1, r1, #12
200012b6:	d439      	bmi.n	2000132c <isr_irq16+0x140>
200012b8:	68c1      	ldr	r1, [r0, #12]
200012ba:	4321      	orrs	r1, r4
200012bc:	61d1      	str	r1, [r2, #28]
200012be:	3501      	adds	r5, #1
200012c0:	42bd      	cmp	r5, r7
200012c2:	db09      	blt.n	200012d8 <isr_irq16+0xec>
200012c4:	4575      	cmp	r5, lr
200012c6:	db21      	blt.n	2000130c <isr_irq16+0x120>
200012c8:	2500      	movs	r5, #0
200012ca:	9903      	ldr	r1, [sp, #12]
200012cc:	e9c0 1800 	strd	r1, r8, [r0]
200012d0:	9902      	ldr	r1, [sp, #8]
200012d2:	6081      	str	r1, [r0, #8]
200012d4:	9904      	ldr	r1, [sp, #16]
200012d6:	60c1      	str	r1, [r0, #12]
200012d8:	f8d2 c004 	ldr.w	ip, [r2, #4]
200012dc:	f04f 0a01 	mov.w	sl, #1
200012e0:	f41c 2f00 	tst.w	ip, #524288	; 0x80000
200012e4:	f04f 0100 	mov.w	r1, #0
200012e8:	d0a6      	beq.n	20001238 <isr_irq16+0x4c>
200012ea:	9e01      	ldr	r6, [sp, #4]
200012ec:	f1ba 0f00 	cmp.w	sl, #0
200012f0:	d000      	beq.n	200012f4 <isr_irq16+0x108>
200012f2:	8699      	strh	r1, [r3, #52]	; 0x34
200012f4:	b9ee      	cbnz	r6, 20001332 <isr_irq16+0x146>
200012f6:	f1ba 0f00 	cmp.w	sl, #0
200012fa:	d000      	beq.n	200012fe <isr_irq16+0x112>
200012fc:	639d      	str	r5, [r3, #56]	; 0x38
200012fe:	b00b      	add	sp, #44	; 0x2c
20001300:	e8bd 8ff0 	ldmia.w	sp!, {r4, r5, r6, r7, r8, r9, sl, fp, pc}
20001304:	4661      	mov	r1, ip
20001306:	9e01      	ldr	r6, [sp, #4]
20001308:	8699      	strh	r1, [r3, #52]	; 0x34
2000130a:	e7f3      	b.n	200012f4 <isr_irq16+0x108>
2000130c:	454d      	cmp	r5, r9
2000130e:	dce3      	bgt.n	200012d8 <isr_irq16+0xec>
20001310:	42bd      	cmp	r5, r7
20001312:	d010      	beq.n	20001336 <isr_irq16+0x14a>
20001314:	9905      	ldr	r1, [sp, #20]
20001316:	428d      	cmp	r5, r1
20001318:	d015      	beq.n	20001346 <isr_irq16+0x15a>
2000131a:	9908      	ldr	r1, [sp, #32]
2000131c:	454d      	cmp	r5, r9
2000131e:	bf08      	it	eq
20001320:	460c      	moveq	r4, r1
20001322:	9901      	ldr	r1, [sp, #4]
20001324:	bf08      	it	eq
20001326:	2101      	moveq	r1, #1
20001328:	9101      	str	r1, [sp, #4]
2000132a:	e7d5      	b.n	200012d8 <isr_irq16+0xec>
2000132c:	2103      	movs	r1, #3
2000132e:	9e01      	ldr	r6, [sp, #4]
20001330:	e7df      	b.n	200012f2 <isr_irq16+0x106>
20001332:	631c      	str	r4, [r3, #48]	; 0x30
20001334:	e7df      	b.n	200012f6 <isr_irq16+0x10a>
20001336:	9906      	ldr	r1, [sp, #24]
20001338:	e9c0 1800 	strd	r1, r8, [r0]
2000133c:	9902      	ldr	r1, [sp, #8]
2000133e:	6081      	str	r1, [r0, #8]
20001340:	9907      	ldr	r1, [sp, #28]
20001342:	60c1      	str	r1, [r0, #12]
20001344:	e7c8      	b.n	200012d8 <isr_irq16+0xec>
20001346:	2101      	movs	r1, #1
20001348:	9c09      	ldr	r4, [sp, #36]	; 0x24
2000134a:	9101      	str	r1, [sp, #4]
2000134c:	e7c4      	b.n	200012d8 <isr_irq16+0xec>
2000134e:	bf00      	nop
20001350:	2000318c 	.word	0x2000318c
20001354:	50200000 	.word	0x50200000
20001358:	20002c20 	.word	0x20002c20

2000135c <isr_irq10>:
2000135c:	4981      	ldr	r1, [pc, #516]	; (20001564 <isr_irq10+0x208>)
2000135e:	b5f8      	push	{r3, r4, r5, r6, r7, lr}
20001360:	6b4b      	ldr	r3, [r1, #52]	; 0x34
20001362:	f3ef 8410 	mrs	r4, PRIMASK
20001366:	b672      	cpsid	i
20001368:	e8d3 0fcf 	ldaexb	r0, [r3]
2000136c:	2201      	movs	r2, #1
2000136e:	2800      	cmp	r0, #0
20001370:	d1fa      	bne.n	20001368 <isr_irq10+0xc>
20001372:	e8c3 2f40 	strexb	r0, r2, [r3]
20001376:	2800      	cmp	r0, #0
20001378:	d1f6      	bne.n	20001368 <isr_irq10+0xc>
2000137a:	f3bf 8f5f 	dmb	sy
2000137e:	f891 303d 	ldrb.w	r3, [r1, #61]	; 0x3d
20001382:	2b00      	cmp	r3, #0
20001384:	d149      	bne.n	2000141a <isr_irq10+0xbe>
20001386:	6b8b      	ldr	r3, [r1, #56]	; 0x38
20001388:	2b00      	cmp	r3, #0
2000138a:	f040 8101 	bne.w	20001590 <isr_irq10+0x234>
2000138e:	f891 303c 	ldrb.w	r3, [r1, #60]	; 0x3c
20001392:	2b00      	cmp	r3, #0
20001394:	f040 8103 	bne.w	2000159e <isr_irq10+0x242>
20001398:	6b4a      	ldr	r2, [r1, #52]	; 0x34
2000139a:	e8c2 3f8f 	stlb	r3, [r2]
2000139e:	f384 8810 	msr	PRIMASK, r4
200013a2:	68ca      	ldr	r2, [r1, #12]
200013a4:	f3ef 8710 	mrs	r7, PRIMASK
200013a8:	b672      	cpsid	i
200013aa:	e8d2 4fcf 	ldaexb	r4, [r2]
200013ae:	2001      	movs	r0, #1
200013b0:	2c00      	cmp	r4, #0
200013b2:	d1fa      	bne.n	200013aa <isr_irq10+0x4e>
200013b4:	e8c2 0f44 	strexb	r4, r0, [r2]
200013b8:	2c00      	cmp	r4, #0
200013ba:	d1f6      	bne.n	200013aa <isr_irq10+0x4e>
200013bc:	f3bf 8f5f 	dmb	sy
200013c0:	6908      	ldr	r0, [r1, #16]
200013c2:	2800      	cmp	r0, #0
200013c4:	f000 808b 	beq.w	200014de <isr_irq10+0x182>
200013c8:	2600      	movs	r6, #0
200013ca:	2400      	movs	r4, #0
200013cc:	68ca      	ldr	r2, [r1, #12]
200013ce:	e8c2 4f8f 	stlb	r4, [r2]
200013d2:	f387 8810 	msr	PRIMASK, r7
200013d6:	2b00      	cmp	r3, #0
200013d8:	d140      	bne.n	2000145c <isr_irq10+0x100>
200013da:	b1ee      	cbz	r6, 20001418 <isr_irq10+0xbc>
200013dc:	4632      	mov	r2, r6
200013de:	6acb      	ldr	r3, [r1, #44]	; 0x2c
200013e0:	f3ef 8410 	mrs	r4, PRIMASK
200013e4:	b672      	cpsid	i
200013e6:	e8d3 5fcf 	ldaexb	r5, [r3]
200013ea:	2001      	movs	r0, #1
200013ec:	2d00      	cmp	r5, #0
200013ee:	d1fa      	bne.n	200013e6 <isr_irq10+0x8a>
200013f0:	e8c3 0f45 	strexb	r5, r0, [r3]
200013f4:	2d00      	cmp	r5, #0
200013f6:	d1f6      	bne.n	200013e6 <isr_irq10+0x8a>
200013f8:	f3bf 8f5f 	dmb	sy
200013fc:	4613      	mov	r3, r2
200013fe:	4618      	mov	r0, r3
20001400:	695b      	ldr	r3, [r3, #20]
20001402:	2b00      	cmp	r3, #0
20001404:	d1fb      	bne.n	200013fe <isr_irq10+0xa2>
20001406:	6b0d      	ldr	r5, [r1, #48]	; 0x30
20001408:	6145      	str	r5, [r0, #20]
2000140a:	6ac8      	ldr	r0, [r1, #44]	; 0x2c
2000140c:	630a      	str	r2, [r1, #48]	; 0x30
2000140e:	e8c0 3f8f 	stlb	r3, [r0]
20001412:	f384 8810 	msr	PRIMASK, r4
20001416:	bf40      	sev
20001418:	bdf8      	pop	{r3, r4, r5, r6, r7, pc}
2000141a:	f04f 43a0 	mov.w	r3, #1342177280	; 0x50000000
2000141e:	f8d3 040c 	ldr.w	r0, [r3, #1036]	; 0x40c
20001422:	6b8a      	ldr	r2, [r1, #56]	; 0x38
20001424:	07c7      	lsls	r7, r0, #31
20001426:	d512      	bpl.n	2000144e <isr_irq10+0xf2>
20001428:	2001      	movs	r0, #1
2000142a:	ea42 0500 	orr.w	r5, r2, r0
2000142e:	f032 0201 	bics.w	r2, r2, #1
20001432:	f8c3 040c 	str.w	r0, [r3, #1036]	; 0x40c
20001436:	d047      	beq.n	200014c8 <isr_irq10+0x16c>
20001438:	f8d3 240c 	ldr.w	r2, [r3, #1036]	; 0x40c
2000143c:	07d2      	lsls	r2, r2, #31
2000143e:	d505      	bpl.n	2000144c <isr_irq10+0xf0>
20001440:	f8c3 040c 	str.w	r0, [r3, #1036]	; 0x40c
20001444:	f8d3 240c 	ldr.w	r2, [r3, #1036]	; 0x40c
20001448:	07d6      	lsls	r6, r2, #31
2000144a:	d4f9      	bmi.n	20001440 <isr_irq10+0xe4>
2000144c:	638d      	str	r5, [r1, #56]	; 0x38
2000144e:	2300      	movs	r3, #0
20001450:	6b4a      	ldr	r2, [r1, #52]	; 0x34
20001452:	e8c2 3f8f 	stlb	r3, [r2]
20001456:	f384 8810 	msr	PRIMASK, r4
2000145a:	bdf8      	pop	{r3, r4, r5, r6, r7, pc}
2000145c:	680a      	ldr	r2, [r1, #0]
2000145e:	f3ef 8c10 	mrs	ip, PRIMASK
20001462:	b672      	cpsid	i
20001464:	e8d2 5fcf 	ldaexb	r5, [r2]
20001468:	2001      	movs	r0, #1
2000146a:	2d00      	cmp	r5, #0
2000146c:	d1fa      	bne.n	20001464 <isr_irq10+0x108>
2000146e:	e8c2 0f45 	strexb	r5, r0, [r2]
20001472:	2d00      	cmp	r5, #0
20001474:	d1f6      	bne.n	20001464 <isr_irq10+0x108>
20001476:	f3bf 8f5f 	dmb	sy
2000147a:	4625      	mov	r5, r4
2000147c:	e9d1 2701 	ldrd	r2, r7, [r1, #4]
20001480:	3b01      	subs	r3, #1
20001482:	b15a      	cbz	r2, 2000149c <isr_irq10+0x140>
20001484:	6950      	ldr	r0, [r2, #20]
20001486:	b1d8      	cbz	r0, 200014c0 <isr_irq10+0x164>
20001488:	2501      	movs	r5, #1
2000148a:	3b01      	subs	r3, #1
2000148c:	f1b3 3fff 	cmp.w	r3, #4294967295
20001490:	6156      	str	r6, [r2, #20]
20001492:	4616      	mov	r6, r2
20001494:	d009      	beq.n	200014aa <isr_irq10+0x14e>
20001496:	4602      	mov	r2, r0
20001498:	2a00      	cmp	r2, #0
2000149a:	d1f3      	bne.n	20001484 <isr_irq10+0x128>
2000149c:	3b01      	subs	r3, #1
2000149e:	f1b3 3fff 	cmp.w	r3, #4294967295
200014a2:	6156      	str	r6, [r2, #20]
200014a4:	4610      	mov	r0, r2
200014a6:	4616      	mov	r6, r2
200014a8:	d1f5      	bne.n	20001496 <isr_irq10+0x13a>
200014aa:	b105      	cbz	r5, 200014ae <isr_irq10+0x152>
200014ac:	6048      	str	r0, [r1, #4]
200014ae:	b104      	cbz	r4, 200014b2 <isr_irq10+0x156>
200014b0:	608f      	str	r7, [r1, #8]
200014b2:	2300      	movs	r3, #0
200014b4:	6808      	ldr	r0, [r1, #0]
200014b6:	e8c0 3f8f 	stlb	r3, [r0]
200014ba:	f38c 8810 	msr	PRIMASK, ip
200014be:	e78e      	b.n	200013de <isr_irq10+0x82>
200014c0:	2401      	movs	r4, #1
200014c2:	4607      	mov	r7, r0
200014c4:	4625      	mov	r5, r4
200014c6:	e7e0      	b.n	2000148a <isr_irq10+0x12e>
200014c8:	2200      	movs	r2, #0
200014ca:	f891 303c 	ldrb.w	r3, [r1, #60]	; 0x3c
200014ce:	6b48      	ldr	r0, [r1, #52]	; 0x34
200014d0:	638a      	str	r2, [r1, #56]	; 0x38
200014d2:	878a      	strh	r2, [r1, #60]	; 0x3c
200014d4:	e8c0 2f8f 	stlb	r2, [r0]
200014d8:	f384 8810 	msr	PRIMASK, r4
200014dc:	e761      	b.n	200013a2 <isr_irq10+0x46>
200014de:	6a4e      	ldr	r6, [r1, #36]	; 0x24
200014e0:	2e00      	cmp	r6, #0
200014e2:	f43f af72 	beq.w	200013ca <isr_irq10+0x6e>
200014e6:	698d      	ldr	r5, [r1, #24]
200014e8:	6832      	ldr	r2, [r6, #0]
200014ea:	1aac      	subs	r4, r5, r2
200014ec:	2c00      	cmp	r4, #0
200014ee:	dd0a      	ble.n	20001506 <isr_irq10+0x1aa>
200014f0:	6972      	ldr	r2, [r6, #20]
200014f2:	624a      	str	r2, [r1, #36]	; 0x24
200014f4:	2a00      	cmp	r2, #0
200014f6:	d032      	beq.n	2000155e <isr_irq10+0x202>
200014f8:	6170      	str	r0, [r6, #20]
200014fa:	4630      	mov	r0, r6
200014fc:	4616      	mov	r6, r2
200014fe:	6832      	ldr	r2, [r6, #0]
20001500:	1aac      	subs	r4, r5, r2
20001502:	2c00      	cmp	r4, #0
20001504:	dcf4      	bgt.n	200014f0 <isr_irq10+0x194>
20001506:	4295      	cmp	r5, r2
20001508:	d13a      	bne.n	20001580 <isr_irq10+0x224>
2000150a:	6972      	ldr	r2, [r6, #20]
2000150c:	624a      	str	r2, [r1, #36]	; 0x24
2000150e:	2a00      	cmp	r2, #0
20001510:	d03c      	beq.n	2000158c <isr_irq10+0x230>
20001512:	2200      	movs	r2, #0
20001514:	6172      	str	r2, [r6, #20]
20001516:	680a      	ldr	r2, [r1, #0]
20001518:	e8d2 5fcf 	ldaexb	r5, [r2]
2000151c:	2401      	movs	r4, #1
2000151e:	2d00      	cmp	r5, #0
20001520:	d1fa      	bne.n	20001518 <isr_irq10+0x1bc>
20001522:	e8c2 4f45 	strexb	r5, r4, [r2]
20001526:	2d00      	cmp	r5, #0
20001528:	d1f6      	bne.n	20001518 <isr_irq10+0x1bc>
2000152a:	f3bf 8f5f 	dmb	sy
2000152e:	684a      	ldr	r2, [r1, #4]
20001530:	b342      	cbz	r2, 20001584 <isr_irq10+0x228>
20001532:	6835      	ldr	r5, [r6, #0]
20001534:	6814      	ldr	r4, [r2, #0]
20001536:	1b2c      	subs	r4, r5, r4
20001538:	2c00      	cmp	r4, #0
2000153a:	dd24      	ble.n	20001586 <isr_irq10+0x22a>
2000153c:	f8d1 c008 	ldr.w	ip, [r1, #8]
20001540:	f8dc 4000 	ldr.w	r4, [ip]
20001544:	1b2c      	subs	r4, r5, r4
20001546:	2c00      	cmp	r4, #0
20001548:	dd12      	ble.n	20001570 <isr_irq10+0x214>
2000154a:	f8cc 6014 	str.w	r6, [ip, #20]
2000154e:	608e      	str	r6, [r1, #8]
20001550:	2200      	movs	r2, #0
20001552:	680c      	ldr	r4, [r1, #0]
20001554:	e8c4 2f8f 	stlb	r2, [r4]
20001558:	610e      	str	r6, [r1, #16]
2000155a:	4606      	mov	r6, r0
2000155c:	e735      	b.n	200013ca <isr_irq10+0x6e>
2000155e:	628a      	str	r2, [r1, #40]	; 0x28
20001560:	6170      	str	r0, [r6, #20]
20001562:	e732      	b.n	200013ca <isr_irq10+0x6e>
20001564:	2000313c 	.word	0x2000313c
20001568:	6814      	ldr	r4, [r2, #0]
2000156a:	1b2c      	subs	r4, r5, r4
2000156c:	2c00      	cmp	r4, #0
2000156e:	dd03      	ble.n	20001578 <isr_irq10+0x21c>
20001570:	4694      	mov	ip, r2
20001572:	6952      	ldr	r2, [r2, #20]
20001574:	2a00      	cmp	r2, #0
20001576:	d1f7      	bne.n	20001568 <isr_irq10+0x20c>
20001578:	6172      	str	r2, [r6, #20]
2000157a:	f8cc 6014 	str.w	r6, [ip, #20]
2000157e:	e7e7      	b.n	20001550 <isr_irq10+0x1f4>
20001580:	4606      	mov	r6, r0
20001582:	e722      	b.n	200013ca <isr_irq10+0x6e>
20001584:	608e      	str	r6, [r1, #8]
20001586:	6172      	str	r2, [r6, #20]
20001588:	604e      	str	r6, [r1, #4]
2000158a:	e7e1      	b.n	20001550 <isr_irq10+0x1f4>
2000158c:	628a      	str	r2, [r1, #40]	; 0x28
2000158e:	e7c2      	b.n	20001516 <isr_irq10+0x1ba>
20001590:	f240 2152 	movw	r1, #594	; 0x252
20001594:	4b03      	ldr	r3, [pc, #12]	; (200015a4 <isr_irq10+0x248>)
20001596:	4a04      	ldr	r2, [pc, #16]	; (200015a8 <isr_irq10+0x24c>)
20001598:	4804      	ldr	r0, [pc, #16]	; (200015ac <isr_irq10+0x250>)
2000159a:	f000 fa85 	bl	20001aa8 <____assert_func_veneer>
2000159e:	f000 fa7b 	bl	20001a98 <__update_dma_transfer_state_irqs_enabled.part.0_veneer>
200015a2:	bf00      	nop
200015a4:	10008d7c 	.word	0x10008d7c
200015a8:	10008e68 	.word	0x10008e68
200015ac:	10008d14 	.word	0x10008d14

200015b0 <scanvideo_begin_scanline_generation>:
200015b0:	b430      	push	{r4, r5}
200015b2:	2800      	cmp	r0, #0
200015b4:	d03d      	beq.n	20001632 <scanvideo_begin_scanline_generation+0x82>
200015b6:	4b3a      	ldr	r3, [pc, #232]	; (200016a0 <scanvideo_begin_scanline_generation+0xf0>)
200015b8:	6ada      	ldr	r2, [r3, #44]	; 0x2c
200015ba:	f3ef 8110 	mrs	r1, PRIMASK
200015be:	b672      	cpsid	i
200015c0:	e8d2 4fcf 	ldaexb	r4, [r2]
200015c4:	2001      	movs	r0, #1
200015c6:	2c00      	cmp	r4, #0
200015c8:	d1fa      	bne.n	200015c0 <scanvideo_begin_scanline_generation+0x10>
200015ca:	e8c2 0f44 	strexb	r4, r0, [r2]
200015ce:	2c00      	cmp	r4, #0
200015d0:	d1f6      	bne.n	200015c0 <scanvideo_begin_scanline_generation+0x10>
200015d2:	f3bf 8f5f 	dmb	sy
200015d6:	6b18      	ldr	r0, [r3, #48]	; 0x30
200015d8:	2800      	cmp	r0, #0
200015da:	d04c      	beq.n	20001676 <scanvideo_begin_scanline_generation+0xc6>
200015dc:	2200      	movs	r2, #0
200015de:	6945      	ldr	r5, [r0, #20]
200015e0:	6adc      	ldr	r4, [r3, #44]	; 0x2c
200015e2:	631d      	str	r5, [r3, #48]	; 0x30
200015e4:	6142      	str	r2, [r0, #20]
200015e6:	e8c4 2f8f 	stlb	r2, [r4]
200015ea:	f381 8810 	msr	PRIMASK, r1
200015ee:	68da      	ldr	r2, [r3, #12]
200015f0:	f3ef 8410 	mrs	r4, PRIMASK
200015f4:	b672      	cpsid	i
200015f6:	e8d2 cfcf 	ldaexb	ip, [r2]
200015fa:	2101      	movs	r1, #1
200015fc:	f1bc 0f00 	cmp.w	ip, #0
20001600:	d1f9      	bne.n	200015f6 <scanvideo_begin_scanline_generation+0x46>
20001602:	e8c2 1f4c 	strexb	ip, r1, [r2]
20001606:	f1bc 0f00 	cmp.w	ip, #0
2000160a:	d1f4      	bne.n	200015f6 <scanvideo_begin_scanline_generation+0x46>
2000160c:	f3bf 8f5f 	dmb	sy
20001610:	e9d3 1205 	ldrd	r1, r2, [r3, #20]
20001614:	eba2 0c01 	sub.w	ip, r2, r1
20001618:	f1bc 0f00 	cmp.w	ip, #0
2000161c:	dd32      	ble.n	20001684 <scanvideo_begin_scanline_generation+0xd4>
2000161e:	615a      	str	r2, [r3, #20]
20001620:	2100      	movs	r1, #0
20001622:	68db      	ldr	r3, [r3, #12]
20001624:	6002      	str	r2, [r0, #0]
20001626:	e8c3 1f8f 	stlb	r1, [r3]
2000162a:	f384 8810 	msr	PRIMASK, r4
2000162e:	bc30      	pop	{r4, r5}
20001630:	4770      	bx	lr
20001632:	4b1b      	ldr	r3, [pc, #108]	; (200016a0 <scanvideo_begin_scanline_generation+0xf0>)
20001634:	4604      	mov	r4, r0
20001636:	6ada      	ldr	r2, [r3, #44]	; 0x2c
20001638:	f3ef 8110 	mrs	r1, PRIMASK
2000163c:	b672      	cpsid	i
2000163e:	e8d2 cfcf 	ldaexb	ip, [r2]
20001642:	2001      	movs	r0, #1
20001644:	f1bc 0f00 	cmp.w	ip, #0
20001648:	d1f9      	bne.n	2000163e <scanvideo_begin_scanline_generation+0x8e>
2000164a:	e8c2 0f4c 	strexb	ip, r0, [r2]
2000164e:	f1bc 0f00 	cmp.w	ip, #0
20001652:	d1f4      	bne.n	2000163e <scanvideo_begin_scanline_generation+0x8e>
20001654:	f3bf 8f5f 	dmb	sy
20001658:	6b18      	ldr	r0, [r3, #48]	; 0x30
2000165a:	b110      	cbz	r0, 20001662 <scanvideo_begin_scanline_generation+0xb2>
2000165c:	6942      	ldr	r2, [r0, #20]
2000165e:	631a      	str	r2, [r3, #48]	; 0x30
20001660:	6144      	str	r4, [r0, #20]
20001662:	2200      	movs	r2, #0
20001664:	6adc      	ldr	r4, [r3, #44]	; 0x2c
20001666:	e8c4 2f8f 	stlb	r2, [r4]
2000166a:	f381 8810 	msr	PRIMASK, r1
2000166e:	2800      	cmp	r0, #0
20001670:	d1bd      	bne.n	200015ee <scanvideo_begin_scanline_generation+0x3e>
20001672:	bc30      	pop	{r4, r5}
20001674:	4770      	bx	lr
20001676:	6ada      	ldr	r2, [r3, #44]	; 0x2c
20001678:	e8c2 0f8f 	stlb	r0, [r2]
2000167c:	f381 8810 	msr	PRIMASK, r1
20001680:	bf20      	wfe
20001682:	e799      	b.n	200015b8 <scanvideo_begin_scanline_generation+0x8>
20001684:	4d07      	ldr	r5, [pc, #28]	; (200016a4 <scanvideo_begin_scanline_generation+0xf4>)
20001686:	b28a      	uxth	r2, r1
20001688:	f8b5 c00a 	ldrh.w	ip, [r5, #10]
2000168c:	f10c 3cff 	add.w	ip, ip, #4294967295
20001690:	4562      	cmp	r2, ip
20001692:	bf2a      	itet	cs
20001694:	f501 3180 	addcs.w	r1, r1, #65536	; 0x10000
20001698:	1c4a      	addcc	r2, r1, #1
2000169a:	1a8a      	subcs	r2, r1, r2
2000169c:	e7bf      	b.n	2000161e <scanvideo_begin_scanline_generation+0x6e>
2000169e:	bf00      	nop
200016a0:	2000313c 	.word	0x2000313c
200016a4:	200031f4 	.word	0x200031f4

200016a8 <scanvideo_end_scanline_generation>:
200016a8:	b530      	push	{r4, r5, lr}
200016aa:	4c1a      	ldr	r4, [pc, #104]	; (20001714 <scanvideo_end_scanline_generation+0x6c>)
200016ac:	68e3      	ldr	r3, [r4, #12]
200016ae:	f3ef 8c10 	mrs	ip, PRIMASK
200016b2:	b672      	cpsid	i
200016b4:	e8d3 1fcf 	ldaexb	r1, [r3]
200016b8:	2201      	movs	r2, #1
200016ba:	2900      	cmp	r1, #0
200016bc:	d1fa      	bne.n	200016b4 <scanvideo_end_scanline_generation+0xc>
200016be:	e8c3 2f41 	strexb	r1, r2, [r3]
200016c2:	2900      	cmp	r1, #0
200016c4:	d1f6      	bne.n	200016b4 <scanvideo_end_scanline_generation+0xc>
200016c6:	f3bf 8f5f 	dmb	sy
200016ca:	6a63      	ldr	r3, [r4, #36]	; 0x24
200016cc:	b163      	cbz	r3, 200016e8 <scanvideo_end_scanline_generation+0x40>
200016ce:	6801      	ldr	r1, [r0, #0]
200016d0:	681a      	ldr	r2, [r3, #0]
200016d2:	1a8a      	subs	r2, r1, r2
200016d4:	2a00      	cmp	r2, #0
200016d6:	dd08      	ble.n	200016ea <scanvideo_end_scanline_generation+0x42>
200016d8:	6aa5      	ldr	r5, [r4, #40]	; 0x28
200016da:	682a      	ldr	r2, [r5, #0]
200016dc:	1a8a      	subs	r2, r1, r2
200016de:	2a00      	cmp	r2, #0
200016e0:	dd10      	ble.n	20001704 <scanvideo_end_scanline_generation+0x5c>
200016e2:	6168      	str	r0, [r5, #20]
200016e4:	62a0      	str	r0, [r4, #40]	; 0x28
200016e6:	e002      	b.n	200016ee <scanvideo_end_scanline_generation+0x46>
200016e8:	62a0      	str	r0, [r4, #40]	; 0x28
200016ea:	6143      	str	r3, [r0, #20]
200016ec:	6260      	str	r0, [r4, #36]	; 0x24
200016ee:	2300      	movs	r3, #0
200016f0:	68e2      	ldr	r2, [r4, #12]
200016f2:	e8c2 3f8f 	stlb	r3, [r2]
200016f6:	f38c 8810 	msr	PRIMASK, ip
200016fa:	bd30      	pop	{r4, r5, pc}
200016fc:	681a      	ldr	r2, [r3, #0]
200016fe:	1a8a      	subs	r2, r1, r2
20001700:	2a00      	cmp	r2, #0
20001702:	dd03      	ble.n	2000170c <scanvideo_end_scanline_generation+0x64>
20001704:	469e      	mov	lr, r3
20001706:	695b      	ldr	r3, [r3, #20]
20001708:	2b00      	cmp	r3, #0
2000170a:	d1f7      	bne.n	200016fc <scanvideo_end_scanline_generation+0x54>
2000170c:	6143      	str	r3, [r0, #20]
2000170e:	f8ce 0014 	str.w	r0, [lr, #20]
20001712:	e7ec      	b.n	200016ee <scanvideo_end_scanline_generation+0x46>
20001714:	2000313c 	.word	0x2000313c

20001718 <__aeabi_uldivmod>:
20001718:	b953      	cbnz	r3, 20001730 <__aeabi_uldivmod+0x18>
2000171a:	b94a      	cbnz	r2, 20001730 <__aeabi_uldivmod+0x18>
2000171c:	2900      	cmp	r1, #0
2000171e:	bf08      	it	eq
20001720:	2800      	cmpeq	r0, #0
20001722:	bf1c      	itt	ne
20001724:	f04f 31ff 	movne.w	r1, #4294967295
20001728:	f04f 30ff 	movne.w	r0, #4294967295
2000172c:	f000 b982 	b.w	20001a34 <__aeabi_idiv0>
20001730:	f1ad 0c08 	sub.w	ip, sp, #8
20001734:	e96d ce04 	strd	ip, lr, [sp, #-16]!
20001738:	f000 f806 	bl	20001748 <__udivmoddi4>
2000173c:	f8dd e004 	ldr.w	lr, [sp, #4]
20001740:	e9dd 2302 	ldrd	r2, r3, [sp, #8]
20001744:	b004      	add	sp, #16
20001746:	4770      	bx	lr

20001748 <__udivmoddi4>:
20001748:	e92d 4ff0 	stmdb	sp!, {r4, r5, r6, r7, r8, r9, sl, fp, lr}
2000174c:	9d09      	ldr	r5, [sp, #36]	; 0x24
2000174e:	4604      	mov	r4, r0
20001750:	460f      	mov	r7, r1
20001752:	2b00      	cmp	r3, #0
20001754:	d148      	bne.n	200017e8 <__udivmoddi4+0xa0>
20001756:	428a      	cmp	r2, r1
20001758:	4694      	mov	ip, r2
2000175a:	d961      	bls.n	20001820 <__udivmoddi4+0xd8>
2000175c:	fab2 f382 	clz	r3, r2
20001760:	b143      	cbz	r3, 20001774 <__udivmoddi4+0x2c>
20001762:	f1c3 0120 	rsb	r1, r3, #32
20001766:	409f      	lsls	r7, r3
20001768:	fa02 fc03 	lsl.w	ip, r2, r3
2000176c:	409c      	lsls	r4, r3
2000176e:	fa20 f101 	lsr.w	r1, r0, r1
20001772:	430f      	orrs	r7, r1
20001774:	ea4f 411c 	mov.w	r1, ip, lsr #16
20001778:	fa1f fe8c 	uxth.w	lr, ip
2000177c:	0c22      	lsrs	r2, r4, #16
2000177e:	fbb7 f6f1 	udiv	r6, r7, r1
20001782:	fb01 7716 	mls	r7, r1, r6, r7
20001786:	fb06 f00e 	mul.w	r0, r6, lr
2000178a:	ea42 4207 	orr.w	r2, r2, r7, lsl #16
2000178e:	4290      	cmp	r0, r2
20001790:	d908      	bls.n	200017a4 <__udivmoddi4+0x5c>
20001792:	eb1c 0202 	adds.w	r2, ip, r2
20001796:	f106 37ff 	add.w	r7, r6, #4294967295
2000179a:	d202      	bcs.n	200017a2 <__udivmoddi4+0x5a>
2000179c:	4290      	cmp	r0, r2
2000179e:	f200 8137 	bhi.w	20001a10 <__udivmoddi4+0x2c8>
200017a2:	463e      	mov	r6, r7
200017a4:	1a12      	subs	r2, r2, r0
200017a6:	b2a4      	uxth	r4, r4
200017a8:	fbb2 f0f1 	udiv	r0, r2, r1
200017ac:	fb01 2210 	mls	r2, r1, r0, r2
200017b0:	fb00 fe0e 	mul.w	lr, r0, lr
200017b4:	ea44 4402 	orr.w	r4, r4, r2, lsl #16
200017b8:	45a6      	cmp	lr, r4
200017ba:	d908      	bls.n	200017ce <__udivmoddi4+0x86>
200017bc:	eb1c 0404 	adds.w	r4, ip, r4
200017c0:	f100 32ff 	add.w	r2, r0, #4294967295
200017c4:	d202      	bcs.n	200017cc <__udivmoddi4+0x84>
200017c6:	45a6      	cmp	lr, r4
200017c8:	f200 811c 	bhi.w	20001a04 <__udivmoddi4+0x2bc>
200017cc:	4610      	mov	r0, r2
200017ce:	ea40 4006 	orr.w	r0, r0, r6, lsl #16
200017d2:	eba4 040e 	sub.w	r4, r4, lr
200017d6:	2600      	movs	r6, #0
200017d8:	b11d      	cbz	r5, 200017e2 <__udivmoddi4+0x9a>
200017da:	40dc      	lsrs	r4, r3
200017dc:	2300      	movs	r3, #0
200017de:	e9c5 4300 	strd	r4, r3, [r5]
200017e2:	4631      	mov	r1, r6
200017e4:	e8bd 8ff0 	ldmia.w	sp!, {r4, r5, r6, r7, r8, r9, sl, fp, pc}
200017e8:	428b      	cmp	r3, r1
200017ea:	d909      	bls.n	20001800 <__udivmoddi4+0xb8>
200017ec:	2d00      	cmp	r5, #0
200017ee:	f000 80fd 	beq.w	200019ec <__udivmoddi4+0x2a4>
200017f2:	2600      	movs	r6, #0
200017f4:	e9c5 0100 	strd	r0, r1, [r5]
200017f8:	4630      	mov	r0, r6
200017fa:	4631      	mov	r1, r6
200017fc:	e8bd 8ff0 	ldmia.w	sp!, {r4, r5, r6, r7, r8, r9, sl, fp, pc}
20001800:	fab3 f683 	clz	r6, r3
20001804:	2e00      	cmp	r6, #0
20001806:	d14b      	bne.n	200018a0 <__udivmoddi4+0x158>
20001808:	428b      	cmp	r3, r1
2000180a:	f0c0 80f2 	bcc.w	200019f2 <__udivmoddi4+0x2aa>
2000180e:	4282      	cmp	r2, r0
20001810:	f240 80ef 	bls.w	200019f2 <__udivmoddi4+0x2aa>
20001814:	4630      	mov	r0, r6
20001816:	2d00      	cmp	r5, #0
20001818:	d0e3      	beq.n	200017e2 <__udivmoddi4+0x9a>
2000181a:	e9c5 4700 	strd	r4, r7, [r5]
2000181e:	e7e0      	b.n	200017e2 <__udivmoddi4+0x9a>
20001820:	b902      	cbnz	r2, 20001824 <__udivmoddi4+0xdc>
20001822:	deff      	udf	#255	; 0xff
20001824:	fab2 f382 	clz	r3, r2
20001828:	2b00      	cmp	r3, #0
2000182a:	f040 809d 	bne.w	20001968 <__udivmoddi4+0x220>
2000182e:	1a89      	subs	r1, r1, r2
20001830:	ea4f 4e12 	mov.w	lr, r2, lsr #16
20001834:	b297      	uxth	r7, r2
20001836:	2601      	movs	r6, #1
20001838:	0c20      	lsrs	r0, r4, #16
2000183a:	fbb1 f2fe 	udiv	r2, r1, lr
2000183e:	fb0e 1112 	mls	r1, lr, r2, r1
20001842:	ea40 4101 	orr.w	r1, r0, r1, lsl #16
20001846:	fb07 f002 	mul.w	r0, r7, r2
2000184a:	4288      	cmp	r0, r1
2000184c:	d90f      	bls.n	2000186e <__udivmoddi4+0x126>
2000184e:	eb1c 0101 	adds.w	r1, ip, r1
20001852:	f102 38ff 	add.w	r8, r2, #4294967295
20001856:	bf2c      	ite	cs
20001858:	f04f 0901 	movcs.w	r9, #1
2000185c:	f04f 0900 	movcc.w	r9, #0
20001860:	4288      	cmp	r0, r1
20001862:	d903      	bls.n	2000186c <__udivmoddi4+0x124>
20001864:	f1b9 0f00 	cmp.w	r9, #0
20001868:	f000 80cf 	beq.w	20001a0a <__udivmoddi4+0x2c2>
2000186c:	4642      	mov	r2, r8
2000186e:	1a09      	subs	r1, r1, r0
20001870:	b2a4      	uxth	r4, r4
20001872:	fbb1 f0fe 	udiv	r0, r1, lr
20001876:	fb0e 1110 	mls	r1, lr, r0, r1
2000187a:	fb00 f707 	mul.w	r7, r0, r7
2000187e:	ea44 4401 	orr.w	r4, r4, r1, lsl #16
20001882:	42a7      	cmp	r7, r4
20001884:	d908      	bls.n	20001898 <__udivmoddi4+0x150>
20001886:	eb1c 0404 	adds.w	r4, ip, r4
2000188a:	f100 31ff 	add.w	r1, r0, #4294967295
2000188e:	d202      	bcs.n	20001896 <__udivmoddi4+0x14e>
20001890:	42a7      	cmp	r7, r4
20001892:	f200 80b4 	bhi.w	200019fe <__udivmoddi4+0x2b6>
20001896:	4608      	mov	r0, r1
20001898:	1be4      	subs	r4, r4, r7
2000189a:	ea40 4002 	orr.w	r0, r0, r2, lsl #16
2000189e:	e79b      	b.n	200017d8 <__udivmoddi4+0x90>
200018a0:	f1c6 0720 	rsb	r7, r6, #32
200018a4:	40b3      	lsls	r3, r6
200018a6:	fa01 f406 	lsl.w	r4, r1, r6
200018aa:	fa22 fc07 	lsr.w	ip, r2, r7
200018ae:	40f9      	lsrs	r1, r7
200018b0:	40b2      	lsls	r2, r6
200018b2:	ea4c 0c03 	orr.w	ip, ip, r3
200018b6:	fa20 f307 	lsr.w	r3, r0, r7
200018ba:	ea4f 491c 	mov.w	r9, ip, lsr #16
200018be:	431c      	orrs	r4, r3
200018c0:	fa1f fe8c 	uxth.w	lr, ip
200018c4:	fa00 f306 	lsl.w	r3, r0, r6
200018c8:	0c20      	lsrs	r0, r4, #16
200018ca:	fbb1 f8f9 	udiv	r8, r1, r9
200018ce:	fb09 1118 	mls	r1, r9, r8, r1
200018d2:	ea40 4101 	orr.w	r1, r0, r1, lsl #16
200018d6:	fb08 f00e 	mul.w	r0, r8, lr
200018da:	4288      	cmp	r0, r1
200018dc:	d90f      	bls.n	200018fe <__udivmoddi4+0x1b6>
200018de:	eb1c 0101 	adds.w	r1, ip, r1
200018e2:	f108 3aff 	add.w	sl, r8, #4294967295
200018e6:	bf2c      	ite	cs
200018e8:	f04f 0b01 	movcs.w	fp, #1
200018ec:	f04f 0b00 	movcc.w	fp, #0
200018f0:	4288      	cmp	r0, r1
200018f2:	d903      	bls.n	200018fc <__udivmoddi4+0x1b4>
200018f4:	f1bb 0f00 	cmp.w	fp, #0
200018f8:	f000 808d 	beq.w	20001a16 <__udivmoddi4+0x2ce>
200018fc:	46d0      	mov	r8, sl
200018fe:	1a09      	subs	r1, r1, r0
20001900:	b2a4      	uxth	r4, r4
20001902:	fbb1 f0f9 	udiv	r0, r1, r9
20001906:	fb09 1110 	mls	r1, r9, r0, r1
2000190a:	fb00 fe0e 	mul.w	lr, r0, lr
2000190e:	ea44 4101 	orr.w	r1, r4, r1, lsl #16
20001912:	458e      	cmp	lr, r1
20001914:	d907      	bls.n	20001926 <__udivmoddi4+0x1de>
20001916:	eb1c 0101 	adds.w	r1, ip, r1
2000191a:	f100 34ff 	add.w	r4, r0, #4294967295
2000191e:	d201      	bcs.n	20001924 <__udivmoddi4+0x1dc>
20001920:	458e      	cmp	lr, r1
20001922:	d87f      	bhi.n	20001a24 <__udivmoddi4+0x2dc>
20001924:	4620      	mov	r0, r4
20001926:	ea40 4008 	orr.w	r0, r0, r8, lsl #16
2000192a:	eba1 010e 	sub.w	r1, r1, lr
2000192e:	fba0 9802 	umull	r9, r8, r0, r2
20001932:	4541      	cmp	r1, r8
20001934:	464c      	mov	r4, r9
20001936:	46c6      	mov	lr, r8
20001938:	d302      	bcc.n	20001940 <__udivmoddi4+0x1f8>
2000193a:	d106      	bne.n	2000194a <__udivmoddi4+0x202>
2000193c:	454b      	cmp	r3, r9
2000193e:	d204      	bcs.n	2000194a <__udivmoddi4+0x202>
20001940:	3801      	subs	r0, #1
20001942:	ebb9 0402 	subs.w	r4, r9, r2
20001946:	eb68 0e0c 	sbc.w	lr, r8, ip
2000194a:	2d00      	cmp	r5, #0
2000194c:	d070      	beq.n	20001a30 <__udivmoddi4+0x2e8>
2000194e:	1b1a      	subs	r2, r3, r4
20001950:	eb61 010e 	sbc.w	r1, r1, lr
20001954:	fa22 f306 	lsr.w	r3, r2, r6
20001958:	fa01 f707 	lsl.w	r7, r1, r7
2000195c:	40f1      	lsrs	r1, r6
2000195e:	2600      	movs	r6, #0
20001960:	431f      	orrs	r7, r3
20001962:	e9c5 7100 	strd	r7, r1, [r5]
20001966:	e73c      	b.n	200017e2 <__udivmoddi4+0x9a>
20001968:	fa02 fc03 	lsl.w	ip, r2, r3
2000196c:	f1c3 0020 	rsb	r0, r3, #32
20001970:	fa01 f203 	lsl.w	r2, r1, r3
20001974:	fa21 f600 	lsr.w	r6, r1, r0
20001978:	ea4f 4e1c 	mov.w	lr, ip, lsr #16
2000197c:	fa24 f100 	lsr.w	r1, r4, r0
20001980:	fa1f f78c 	uxth.w	r7, ip
20001984:	409c      	lsls	r4, r3
20001986:	4311      	orrs	r1, r2
20001988:	fbb6 f0fe 	udiv	r0, r6, lr
2000198c:	0c0a      	lsrs	r2, r1, #16
2000198e:	fb0e 6610 	mls	r6, lr, r0, r6
20001992:	ea42 4206 	orr.w	r2, r2, r6, lsl #16
20001996:	fb00 f607 	mul.w	r6, r0, r7
2000199a:	4296      	cmp	r6, r2
2000199c:	d90e      	bls.n	200019bc <__udivmoddi4+0x274>
2000199e:	eb1c 0202 	adds.w	r2, ip, r2
200019a2:	f100 38ff 	add.w	r8, r0, #4294967295
200019a6:	bf2c      	ite	cs
200019a8:	f04f 0901 	movcs.w	r9, #1
200019ac:	f04f 0900 	movcc.w	r9, #0
200019b0:	4296      	cmp	r6, r2
200019b2:	d902      	bls.n	200019ba <__udivmoddi4+0x272>
200019b4:	f1b9 0f00 	cmp.w	r9, #0
200019b8:	d031      	beq.n	20001a1e <__udivmoddi4+0x2d6>
200019ba:	4640      	mov	r0, r8
200019bc:	1b92      	subs	r2, r2, r6
200019be:	b289      	uxth	r1, r1
200019c0:	fbb2 f6fe 	udiv	r6, r2, lr
200019c4:	fb0e 2216 	mls	r2, lr, r6, r2
200019c8:	ea41 4102 	orr.w	r1, r1, r2, lsl #16
200019cc:	fb06 f207 	mul.w	r2, r6, r7
200019d0:	428a      	cmp	r2, r1
200019d2:	d907      	bls.n	200019e4 <__udivmoddi4+0x29c>
200019d4:	eb1c 0101 	adds.w	r1, ip, r1
200019d8:	f106 38ff 	add.w	r8, r6, #4294967295
200019dc:	d201      	bcs.n	200019e2 <__udivmoddi4+0x29a>
200019de:	428a      	cmp	r2, r1
200019e0:	d823      	bhi.n	20001a2a <__udivmoddi4+0x2e2>
200019e2:	4646      	mov	r6, r8
200019e4:	1a89      	subs	r1, r1, r2
200019e6:	ea46 4600 	orr.w	r6, r6, r0, lsl #16
200019ea:	e725      	b.n	20001838 <__udivmoddi4+0xf0>
200019ec:	462e      	mov	r6, r5
200019ee:	4628      	mov	r0, r5
200019f0:	e6f7      	b.n	200017e2 <__udivmoddi4+0x9a>
200019f2:	1a84      	subs	r4, r0, r2
200019f4:	eb61 0303 	sbc.w	r3, r1, r3
200019f8:	2001      	movs	r0, #1
200019fa:	461f      	mov	r7, r3
200019fc:	e70b      	b.n	20001816 <__udivmoddi4+0xce>
200019fe:	4464      	add	r4, ip
20001a00:	3802      	subs	r0, #2
20001a02:	e749      	b.n	20001898 <__udivmoddi4+0x150>
20001a04:	4464      	add	r4, ip
20001a06:	3802      	subs	r0, #2
20001a08:	e6e1      	b.n	200017ce <__udivmoddi4+0x86>
20001a0a:	3a02      	subs	r2, #2
20001a0c:	4461      	add	r1, ip
20001a0e:	e72e      	b.n	2000186e <__udivmoddi4+0x126>
20001a10:	3e02      	subs	r6, #2
20001a12:	4462      	add	r2, ip
20001a14:	e6c6      	b.n	200017a4 <__udivmoddi4+0x5c>
20001a16:	f1a8 0802 	sub.w	r8, r8, #2
20001a1a:	4461      	add	r1, ip
20001a1c:	e76f      	b.n	200018fe <__udivmoddi4+0x1b6>
20001a1e:	3802      	subs	r0, #2
20001a20:	4462      	add	r2, ip
20001a22:	e7cb      	b.n	200019bc <__udivmoddi4+0x274>
20001a24:	3802      	subs	r0, #2
20001a26:	4461      	add	r1, ip
20001a28:	e77d      	b.n	20001926 <__udivmoddi4+0x1de>
20001a2a:	3e02      	subs	r6, #2
20001a2c:	4461      	add	r1, ip
20001a2e:	e7d9      	b.n	200019e4 <__udivmoddi4+0x29c>
20001a30:	462e      	mov	r6, r5
20001a32:	e6d6      	b.n	200017e2 <__udivmoddi4+0x9a>

20001a34 <__aeabi_idiv0>:
20001a34:	4770      	bx	lr
20001a36:	bf00      	nop

20001a38 <__memset_veneer>:
20001a38:	b401      	push	{r0}
20001a3a:	4802      	ldr	r0, [pc, #8]	; (20001a44 <__memset_veneer+0xc>)
20001a3c:	4684      	mov	ip, r0
20001a3e:	bc01      	pop	{r0}
20001a40:	4760      	bx	ip
20001a42:	bf00      	nop
20001a44:	1000777d 	.word	0x1000777d

20001a48 <__time_us_64_veneer>:
20001a48:	b401      	push	{r0}
20001a4a:	4802      	ldr	r0, [pc, #8]	; (20001a54 <__time_us_64_veneer+0xc>)
20001a4c:	4684      	mov	ip, r0
20001a4e:	bc01      	pop	{r0}
20001a50:	4760      	bx	ip
20001a52:	bf00      	nop
20001a54:	10000cd5 	.word	0x10000cd5

20001a58 <__unaligned_memcpy_veneer>:
20001a58:	b401      	push	{r0}
20001a5a:	4802      	ldr	r0, [pc, #8]	; (20001a64 <__unaligned_memcpy_veneer+0xc>)
20001a5c:	4684      	mov	ip, r0
20001a5e:	bc01      	pop	{r0}
20001a60:	4760      	bx	ip
20001a62:	bf00      	nop
20001a64:	1000415d 	.word	0x1000415d

20001a68 <____wrap_printf_veneer>:
20001a68:	b401      	push	{r0}
20001a6a:	4802      	ldr	r0, [pc, #8]	; (20001a74 <____wrap_printf_veneer+0xc>)
20001a6c:	4684      	mov	ip, r0
20001a6e:	bc01      	pop	{r0}
20001a70:	4760      	bx	ip
20001a72:	bf00      	nop
20001a74:	1000357d 	.word	0x1000357d

20001a78 <__best_effort_wfe_or_timeout_veneer>:
20001a78:	b401      	push	{r0}
20001a7a:	4802      	ldr	r0, [pc, #8]	; (20001a84 <__best_effort_wfe_or_timeout_veneer+0xc>)
20001a7c:	4684      	mov	ip, r0
20001a7e:	bc01      	pop	{r0}
20001a80:	4760      	bx	ip
20001a82:	bf00      	nop
20001a84:	10000b05 	.word	0x10000b05

20001a88 <__abort_all_dma_channels_assuming_no_irq_preemption_veneer>:
20001a88:	b401      	push	{r0}
20001a8a:	4802      	ldr	r0, [pc, #8]	; (20001a94 <__abort_all_dma_channels_assuming_no_irq_preemption_veneer+0xc>)
20001a8c:	4684      	mov	ip, r0
20001a8e:	bc01      	pop	{r0}
20001a90:	4760      	bx	ip
20001a92:	bf00      	nop
20001a94:	1000670d 	.word	0x1000670d

20001a98 <__update_dma_transfer_state_irqs_enabled.part.0_veneer>:
20001a98:	b401      	push	{r0}
20001a9a:	4802      	ldr	r0, [pc, #8]	; (20001aa4 <__update_dma_transfer_state_irqs_enabled.part.0_veneer+0xc>)
20001a9c:	4684      	mov	ip, r0
20001a9e:	bc01      	pop	{r0}
20001aa0:	4760      	bx	ip
20001aa2:	bf00      	nop
20001aa4:	100067b1 	.word	0x100067b1

20001aa8 <____assert_func_veneer>:
20001aa8:	b401      	push	{r0}
20001aaa:	4802      	ldr	r0, [pc, #8]	; (20001ab4 <____assert_func_veneer+0xc>)
20001aac:	4684      	mov	ip, r0
20001aae:	bc01      	pop	{r0}
20001ab0:	4760      	bx	ip
20001ab2:	bf00      	nop
20001ab4:	100031ed 	.word	0x100031ed

20001ab8 <__tu_fifo_write_veneer>:
20001ab8:	b401      	push	{r0}
20001aba:	4802      	ldr	r0, [pc, #8]	; (20001ac4 <__tu_fifo_write_veneer+0xc>)
20001abc:	4684      	mov	ip, r0
20001abe:	bc01      	pop	{r0}
20001ac0:	4760      	bx	ip
20001ac2:	bf00      	nop
20001ac4:	10006635 	.word	0x10006635

20001ac8 <__panic_veneer>:
20001ac8:	b401      	push	{r0}
20001aca:	4802      	ldr	r0, [pc, #8]	; (20001ad4 <__panic_veneer+0xc>)
20001acc:	4684      	mov	ip, r0
20001ace:	bc01      	pop	{r0}
20001ad0:	4760      	bx	ip
20001ad2:	bf00      	nop
20001ad4:	10000cf9 	.word	0x10000cf9

20001ad8 <__tud_event_hook_cb_veneer>:
20001ad8:	b401      	push	{r0}
20001ada:	4802      	ldr	r0, [pc, #8]	; (20001ae4 <__tud_event_hook_cb_veneer+0xc>)
20001adc:	4684      	mov	ip, r0
20001ade:	bc01      	pop	{r0}
20001ae0:	4760      	bx	ip
20001ae2:	bf00      	nop
20001ae4:	10004495 	.word	0x10004495

20001ae8 <default_alarm_pool>:
	...
20001afc:	200023f8                                .#. 

20001b00 <striped_spin_lock_num>:
20001b00:	00000010                                ....

20001b04 <irq_handler_chain_slots>:
20001b04:	00000000 	.word	0x00000000
20001b08:	00010000 	.word	0x00010000
	...
20001b14:	00020000 	.word	0x00020000
	...
20001b20:	00030000 	.word	0x00030000
	...
20001b2c:	00ff0000 	.word	0x00ff0000
20001b30:	00000000 	.word	0x00000000

20001b34 <irq_handler_chain_first_slot>:
20001b34:	b501      	push	{r0, lr}
20001b36:	6848      	ldr	r0, [r1, #4]
20001b38:	3101      	adds	r1, #1
20001b3a:	468e      	mov	lr, r1
20001b3c:	4700      	bx	r0

20001b3e <irq_handler_chain_remove_tail>:
20001b3e:	4670      	mov	r0, lr
20001b40:	3809      	subs	r0, #9
20001b42:	4901      	ldr	r1, [pc, #4]	; (20001b48 <irq_handler_chain_remove_tail+0xa>)
20001b44:	4788      	blx	r1
20001b46:	bd01      	pop	{r0, pc}
20001b48:	10001485 	.word	0x10001485

20001b4c <stdio_uart>:
20001b4c:	10003599 100036c5 10003625 100036d9     .5...6..%6...6..
20001b5c:	00000000 00000100                       ........

20001b64 <stdio_usb>:
20001b64:	10003c11 100038ed 10003b85 100038d9     .<...8...;...8..
20001b74:	00000000 00000100                       ........

20001b7c <_usbd_qdef>:
20001b7c:	2000281c 000c0010 00000000 00000000     .(. ............
	...

20001b98 <_usbd_rhport>:
20001b98:	000000ff                                ....

20001b9c <_missing_scanline_data>:
20001b9c:	f8000003 000b0000 00010000              ............

20001ba8 <_impure_ptr>:
20001ba8:	20001bb0 00000000                       ... ....

20001bb0 <impure_data>:
20001bb0:	00000000 20001e9c 20001f04 20001f6c     ....... ... l.. 
	...
20001c58:	00000001 00000000 abcd330e e66d1234     .........3..4.m.
20001c68:	0005deec 0000000b 00000000 00000000     ................
	...

20001fd8 <__malloc_av_>:
	...
20001fe0:	20001fd8 20001fd8 20001fe0 20001fe0     ... ... ... ... 
20001ff0:	20001fe8 20001fe8 20001ff0 20001ff0     ... ... ... ... 
20002000:	20001ff8 20001ff8 20002000 20002000     ... ... . . . . 
20002010:	20002008 20002008 20002010 20002010     . . . . . . . . 
20002020:	20002018 20002018 20002020 20002020     . . . .   .   . 
20002030:	20002028 20002028 20002030 20002030     ( . ( . 0 . 0 . 
20002040:	20002038 20002038 20002040 20002040     8 . 8 . @ . @ . 
20002050:	20002048 20002048 20002050 20002050     H . H . P . P . 
20002060:	20002058 20002058 20002060 20002060     X . X . ` . ` . 
20002070:	20002068 20002068 20002070 20002070     h . h . p . p . 
20002080:	20002078 20002078 20002080 20002080     x . x . . . . . 
20002090:	20002088 20002088 20002090 20002090     . . . . . . . . 
200020a0:	20002098 20002098 200020a0 200020a0     . . . . . . . . 
200020b0:	200020a8 200020a8 200020b0 200020b0     . . . . . . . . 
200020c0:	200020b8 200020b8 200020c0 200020c0     . . . . . . . . 
200020d0:	200020c8 200020c8 200020d0 200020d0     . . . . . . . . 
200020e0:	200020d8 200020d8 200020e0 200020e0     . . . . . . . . 
200020f0:	200020e8 200020e8 200020f0 200020f0     . . . . . . . . 
20002100:	200020f8 200020f8 20002100 20002100     . . . . .!. .!. 
20002110:	20002108 20002108 20002110 20002110     .!. .!. .!. .!. 
20002120:	20002118 20002118 20002120 20002120     .!. .!.  !.  !. 
20002130:	20002128 20002128 20002130 20002130     (!. (!. 0!. 0!. 
20002140:	20002138 20002138 20002140 20002140     8!. 8!. @!. @!. 
20002150:	20002148 20002148 20002150 20002150     H!. H!. P!. P!. 
20002160:	20002158 20002158 20002160 20002160     X!. X!. `!. `!. 
20002170:	20002168 20002168 20002170 20002170     h!. h!. p!. p!. 
20002180:	20002178 20002178 20002180 20002180     x!. x!. .!. .!. 
20002190:	20002188 20002188 20002190 20002190     .!. .!. .!. .!. 
200021a0:	20002198 20002198 200021a0 200021a0     .!. .!. .!. .!. 
200021b0:	200021a8 200021a8 200021b0 200021b0     .!. .!. .!. .!. 
200021c0:	200021b8 200021b8 200021c0 200021c0     .!. .!. .!. .!. 
200021d0:	200021c8 200021c8 200021d0 200021d0     .!. .!. .!. .!. 
200021e0:	200021d8 200021d8 200021e0 200021e0     .!. .!. .!. .!. 
200021f0:	200021e8 200021e8 200021f0 200021f0     .!. .!. .!. .!. 
20002200:	200021f8 200021f8 20002200 20002200     .!. .!. .". .". 
20002210:	20002208 20002208 20002210 20002210     .". .". .". .". 
20002220:	20002218 20002218 20002220 20002220     .". .".  ".  ". 
20002230:	20002228 20002228 20002230 20002230     (". (". 0". 0". 
20002240:	20002238 20002238 20002240 20002240     8". 8". @". @". 
20002250:	20002248 20002248 20002250 20002250     H". H". P". P". 
20002260:	20002258 20002258 20002260 20002260     X". X". `". `". 
20002270:	20002268 20002268 20002270 20002270     h". h". p". p". 
20002280:	20002278 20002278 20002280 20002280     x". x". .". .". 
20002290:	20002288 20002288 20002290 20002290     .". .". .". .". 
200022a0:	20002298 20002298 200022a0 200022a0     .". .". .". .". 
200022b0:	200022a8 200022a8 200022b0 200022b0     .". .". .". .". 
200022c0:	200022b8 200022b8 200022c0 200022c0     .". .". .". .". 
200022d0:	200022c8 200022c8 200022d0 200022d0     .". .". .". .". 
200022e0:	200022d8 200022d8 200022e0 200022e0     .". .". .". .". 
200022f0:	200022e8 200022e8 200022f0 200022f0     .". .". .". .". 
20002300:	200022f8 200022f8 20002300 20002300     .". .". .#. .#. 
20002310:	20002308 20002308 20002310 20002310     .#. .#. .#. .#. 
20002320:	20002318 20002318 20002320 20002320     .#. .#.  #.  #. 
20002330:	20002328 20002328 20002330 20002330     (#. (#. 0#. 0#. 
20002340:	20002338 20002338 20002340 20002340     8#. 8#. @#. @#. 
20002350:	20002348 20002348 20002350 20002350     H#. H#. P#. P#. 
20002360:	20002358 20002358 20002360 20002360     X#. X#. `#. `#. 
20002370:	20002368 20002368 20002370 20002370     h#. h#. p#. p#. 
20002380:	20002378 20002378 20002380 20002380     x#. x#. .#. .#. 
20002390:	20002388 20002388 20002390 20002390     .#. .#. .#. .#. 
200023a0:	20002398 20002398 200023a0 200023a0     .#. .#. .#. .#. 
200023b0:	200023a8 200023a8 200023b0 200023b0     .#. .#. .#. .#. 
200023c0:	200023b8 200023b8 200023c0 200023c0     .#. .#. .#. .#. 
200023d0:	200023c8 200023c8 200023d0 200023d0     .#. .#. .#. .#. 

200023e0 <__malloc_sbrk_base>:
200023e0:	ffffffff                                ....

200023e4 <__malloc_trim_threshold>:
200023e4:	00020000                                ....

200023e8 <malloc_mutex>:
	...

200023f0 <print_mutex>:
	...
